ccopy_reg
_reconstructor
p1
(cneat.chromosome
Chromosome
p2
c__builtin__
object
p3
NtRp4
(dp5
S'species_id'
p6
I8
sS'_connection_genes'
p7
(dp8
(I1
I2
tp9
g1
(cneat.genome
ConnectionGene
p10
g3
NtRp11
(dp12
S'_ConnectionGene__weight'
p13
F1.7501287656882063
sS'_ConnectionGene__in'
p14
I1
sS'_ConnectionGene__enabled'
p15
I00
sS'_ConnectionGene__out'
p16
I2
sS'_ConnectionGene__innov_number'
p17
I1
sbs(I6
I4
tp18
g1
(g10
g3
NtRp19
(dp20
g13
F-5.2234495404358787
sg14
I6
sg15
I01
sg16
I4
sg17
I20
sbs(I3
I2
tp21
g1
(g10
g3
NtRp22
(dp23
g13
F-1.4803984067979785
sg14
I3
sg15
I00
sg16
I2
sg17
I4
sbs(I1
I3
tp24
g1
(g10
g3
NtRp25
(dp26
g13
F15.568786947470528
sg14
I1
sg15
I01
sg16
I3
sg17
I3
sbs(I4
I6
tp27
g1
(g10
g3
NtRp28
(dp29
g13
F9.5534322651572783
sg14
I4
sg15
I01
sg16
I6
sg17
I22
sbs(I5
I2
tp30
g1
(g10
g3
NtRp31
(dp32
g13
F-0.53250595030951398
sg14
I5
sg15
I01
sg16
I2
sg17
I15
sbs(I4
I4
tp33
g1
(g10
g3
NtRp34
(dp35
g13
F-17.804914367660807
sg14
I4
sg15
I00
sg16
I4
sg17
I18
sbs(I4
I7
tp36
g1
(g10
g3
NtRp37
(dp38
g13
F0.62350612723363896
sg14
I4
sg15
I01
sg16
I7
sg17
I34
sbs(I1
I6
tp39
g1
(g10
g3
NtRp40
(dp41
g13
F-0.089860869897360862
sg14
I1
sg15
I01
sg16
I6
sg17
I23
sbs(I4
I2
tp42
g1
(g10
g3
NtRp43
(dp44
g13
F4.9267455587024322
sg14
I4
sg15
I00
sg16
I2
sg17
I7
sbs(I3
I4
tp45
g1
(g10
g3
NtRp46
(dp47
g13
F-5.5193959584791763
sg14
I3
sg15
I01
sg16
I4
sg17
I6
sbs(I7
I2
tp48
g1
(g10
g3
NtRp49
(dp50
g13
F5.348010161457184
sg14
I7
sg15
I01
sg16
I2
sg17
I26
sbs(I3
I5
tp51
g1
(g10
g3
NtRp52
(dp53
g13
F-4.3841428267950011
sg14
I3
sg15
I01
sg16
I5
sg17
I8
sbssS'_input_nodes'
p54
I1
sS'_output_nodes'
p55
I1
sS'_node_gene_type'
p56
cneat.genome
NodeGene
p57
sS'_conn_gene_type'
p58
g10
sS'fitness'
p59
F0.83245013332608053
sS'parent2_id'
p60
I1265
sS'_id'
p61
I1294
sS'parent1_id'
p62
I1266
sS'_node_genes'
p63
(lp64
g1
(g57
g3
NtRp65
(dp66
S'_bias'
p67
I0
sS'_type'
p68
S'INPUT'
p69
sg61
I1
sS'_response'
p70
F4.9242730000000003
sS'_activation_type'
p71
Nsbag1
(g57
g3
NtRp72
(dp73
g67
F3.9685590616221695
sg68
S'OUTPUT'
p74
sg61
I2
sg70
F6.4788215314497295
sg71
S'tanh'
p75
sbag1
(g57
g3
NtRp76
(dp77
g67
F4.046469734140711
sg68
S'HIDDEN'
p78
sg61
I3
sg70
F6.0445854880912613
sg71
g75
sbag1
(g57
g3
NtRp79
(dp80
g67
F0.3298906059749811
sg68
g78
sg61
I4
sg70
F6.0828244135665637
sg71
g75
sbag1
(g57
g3
NtRp81
(dp82
g67
F0.34832898273872959
sg68
g78
sg61
I5
sg70
F5.9275243784434588
sg71
g75
sbag1
(g57
g3
NtRp83
(dp84
g67
F0.64288100852812735
sg68
g78
sg61
I6
sg70
F4.6700036738143629
sg71
g75
sbag1
(g57
g3
NtRp85
(dp86
g67
I0
sg68
g78
sg61
I7
sg70
F5.545127633605321
sg71
g75
sbasb.