ccopy_reg
_reconstructor
p1
(cneat.chromosome
Chromosome
p2
c__builtin__
object
p3
NtRp4
(dp5
S'species_id'
p6
I8
sS'_connection_genes'
p7
(dp8
(I1
I2
tp9
g1
(cneat.genome
ConnectionGene
p10
g3
NtRp11
(dp12
S'_ConnectionGene__weight'
p13
F-2.6903020780370142
sS'_ConnectionGene__in'
p14
I1
sS'_ConnectionGene__enabled'
p15
I00
sS'_ConnectionGene__out'
p16
I2
sS'_ConnectionGene__innov_number'
p17
I1
sbs(I6
I4
tp18
g1
(g10
g3
NtRp19
(dp20
g13
F-13.022919902890376
sg14
I6
sg15
I01
sg16
I4
sg17
I20
sbs(I3
I2
tp21
g1
(g10
g3
NtRp22
(dp23
g13
F0.9102798268597041
sg14
I3
sg15
I00
sg16
I2
sg17
I4
sbs(I1
I3
tp24
g1
(g10
g3
NtRp25
(dp26
g13
F25.44504676517542
sg14
I1
sg15
I01
sg16
I3
sg17
I3
sbs(I4
I6
tp27
g1
(g10
g3
NtRp28
(dp29
g13
F14.680517947481665
sg14
I4
sg15
I01
sg16
I6
sg17
I22
sbs(I3
I4
tp30
g1
(g10
g3
NtRp31
(dp32
g13
F-0.79681061559081545
sg14
I3
sg15
I01
sg16
I4
sg17
I6
sbs(I4
I4
tp33
g1
(g10
g3
NtRp34
(dp35
g13
F-17.588109999619522
sg14
I4
sg15
I00
sg16
I4
sg17
I18
sbs(I4
I7
tp36
g1
(g10
g3
NtRp37
(dp38
g13
F0.34049108017023244
sg14
I4
sg15
I01
sg16
I7
sg17
I34
sbs(I1
I6
tp39
g1
(g10
g3
NtRp40
(dp41
g13
F-0.24435577322658519
sg14
I1
sg15
I01
sg16
I6
sg17
I23
sbs(I3
I6
tp42
g1
(g10
g3
NtRp43
(dp44
g13
F-5.6105627253709578
sg14
I3
sg15
I01
sg16
I6
sg17
I19
sbs(I4
I2
tp45
g1
(g10
g3
NtRp46
(dp47
g13
F6.0003681972654075
sg14
I4
sg15
I00
sg16
I2
sg17
I7
sbs(I5
I2
tp48
g1
(g10
g3
NtRp49
(dp50
g13
F-2.2520338595104059
sg14
I5
sg15
I01
sg16
I2
sg17
I15
sbs(I7
I2
tp51
g1
(g10
g3
NtRp52
(dp53
g13
F-7.5176719806962033
sg14
I7
sg15
I01
sg16
I2
sg17
I26
sbs(I3
I5
tp54
g1
(g10
g3
NtRp55
(dp56
g13
F-9.7388218710731564
sg14
I3
sg15
I01
sg16
I5
sg17
I8
sbssS'_input_nodes'
p57
I1
sS'_output_nodes'
p58
I1
sS'_node_gene_type'
p59
cneat.genome
NodeGene
p60
sS'_conn_gene_type'
p61
g10
sS'fitness'
p62
F0.79575762130161976
sS'parent2_id'
p63
I1472
sS'_id'
p64
I1490
sS'parent1_id'
p65
I1472
sS'_node_genes'
p66
(lp67
g1
(g60
g3
NtRp68
(dp69
S'_bias'
p70
I0
sS'_type'
p71
S'INPUT'
p72
sg64
I1
sS'_response'
p73
F4.9242730000000003
sS'_activation_type'
p74
Nsbag1
(g60
g3
NtRp75
(dp76
g70
F4.0378624551915552
sg71
S'OUTPUT'
p77
sg64
I2
sg73
F5.2245728386891139
sg74
S'tanh'
p78
sbag1
(g60
g3
NtRp79
(dp80
g70
F5.2451061955741096
sg71
S'HIDDEN'
p81
sg64
I3
sg73
F5.4789824250842818
sg74
g78
sbag1
(g60
g3
NtRp82
(dp83
g70
F-0.54265609738100418
sg71
g81
sg64
I4
sg73
F5.9026007765991277
sg74
g78
sbag1
(g60
g3
NtRp84
(dp85
g70
F1.3183681215721708
sg71
g81
sg64
I5
sg73
F7.4151012625869868
sg74
g78
sbag1
(g60
g3
NtRp86
(dp87
g70
F0.55078784443212303
sg71
g81
sg64
I6
sg73
F5.4464441486535708
sg74
g78
sbag1
(g60
g3
NtRp88
(dp89
g70
F0.53221097455670718
sg71
g81
sg64
I7
sg73
F5.4742331364567658
sg74
g78
sbasb.