ccopy_reg
_reconstructor
p1
(cneat.chromosome
Chromosome
p2
c__builtin__
object
p3
NtRp4
(dp5
S'species_id'
p6
I8
sS'_connection_genes'
p7
(dp8
(I1
I2
tp9
g1
(cneat.genome
ConnectionGene
p10
g3
NtRp11
(dp12
S'_ConnectionGene__weight'
p13
F1.1289590625673647
sS'_ConnectionGene__in'
p14
I1
sS'_ConnectionGene__enabled'
p15
I00
sS'_ConnectionGene__out'
p16
I2
sS'_ConnectionGene__innov_number'
p17
I1
sbs(I6
I4
tp18
g1
(g10
g3
NtRp19
(dp20
g13
F-6.0156677499213353
sg14
I6
sg15
I01
sg16
I4
sg17
I20
sbs(I3
I2
tp21
g1
(g10
g3
NtRp22
(dp23
g13
F0.20308614555409932
sg14
I3
sg15
I00
sg16
I2
sg17
I4
sbs(I1
I3
tp24
g1
(g10
g3
NtRp25
(dp26
g13
F14.591703109593746
sg14
I1
sg15
I01
sg16
I3
sg17
I3
sbs(I4
I6
tp27
g1
(g10
g3
NtRp28
(dp29
g13
F11.839662387480182
sg14
I4
sg15
I01
sg16
I6
sg17
I22
sbs(I3
I4
tp30
g1
(g10
g3
NtRp31
(dp32
g13
F-2.902934317316344
sg14
I3
sg15
I01
sg16
I4
sg17
I6
sbs(I4
I4
tp33
g1
(g10
g3
NtRp34
(dp35
g13
F-12.625143440534927
sg14
I4
sg15
I00
sg16
I4
sg17
I18
sbs(I1
I6
tp36
g1
(g10
g3
NtRp37
(dp38
g13
F-2.2790739790152479
sg14
I1
sg15
I01
sg16
I6
sg17
I23
sbs(I4
I2
tp39
g1
(g10
g3
NtRp40
(dp41
g13
F2.6979181779752306
sg14
I4
sg15
I01
sg16
I2
sg17
I7
sbs(I5
I2
tp42
g1
(g10
g3
NtRp43
(dp44
g13
F0.80329259797603125
sg14
I5
sg15
I01
sg16
I2
sg17
I15
sbs(I3
I5
tp45
g1
(g10
g3
NtRp46
(dp47
g13
F-6.1221839578414157
sg14
I3
sg15
I01
sg16
I5
sg17
I8
sbssS'_input_nodes'
p48
I1
sS'_output_nodes'
p49
I1
sS'_node_gene_type'
p50
cneat.genome
NodeGene
p51
sS'_conn_gene_type'
p52
g10
sS'fitness'
p53
F0.9143984091972881
sS'parent2_id'
p54
I1225
sS'_id'
p55
I1238
sS'parent1_id'
p56
I1216
sS'_node_genes'
p57
(lp58
g1
(g51
g3
NtRp59
(dp60
S'_bias'
p61
I0
sS'_type'
p62
S'INPUT'
p63
sg55
I1
sS'_response'
p64
F4.9242730000000003
sS'_activation_type'
p65
Nsbag1
(g51
g3
NtRp66
(dp67
g61
F3.4431793250935376
sg62
S'OUTPUT'
p68
sg55
I2
sg64
F7.7211198759812092
sg65
S'tanh'
p69
sbag1
(g51
g3
NtRp70
(dp71
g61
F3.9647173506601563
sg62
S'HIDDEN'
p72
sg55
I3
sg64
F6.0445854880912613
sg65
g69
sbag1
(g51
g3
NtRp73
(dp74
g61
F0.3298906059749811
sg62
g72
sg55
I4
sg64
F6.0828244135665637
sg65
g69
sbag1
(g51
g3
NtRp75
(dp76
g61
F0.34832898273872959
sg62
g72
sg55
I5
sg64
F5.9275243784434588
sg65
g69
sbag1
(g51
g3
NtRp77
(dp78
g61
F0.64288100852812735
sg62
g72
sg55
I6
sg64
F4.6700036738143629
sg65
g69
sbasb.