ccopy_reg
_reconstructor
p1
(cneat.chromosome
Chromosome
p2
c__builtin__
object
p3
NtRp4
(dp5
S'species_id'
p6
I8
sS'_connection_genes'
p7
(dp8
(I1
I2
tp9
g1
(cneat.genome
ConnectionGene
p10
g3
NtRp11
(dp12
S'_ConnectionGene__weight'
p13
F1.7501287656882063
sS'_ConnectionGene__in'
p14
I1
sS'_ConnectionGene__enabled'
p15
I00
sS'_ConnectionGene__out'
p16
I2
sS'_ConnectionGene__innov_number'
p17
I1
sbs(I6
I4
tp18
g1
(g10
g3
NtRp19
(dp20
g13
F-7.3507976880060468
sg14
I6
sg15
I01
sg16
I4
sg17
I20
sbs(I3
I2
tp21
g1
(g10
g3
NtRp22
(dp23
g13
F0.72473608982534099
sg14
I3
sg15
I00
sg16
I2
sg17
I4
sbs(I1
I3
tp24
g1
(g10
g3
NtRp25
(dp26
g13
F16.272564052748208
sg14
I1
sg15
I01
sg16
I3
sg17
I3
sbs(I4
I6
tp27
g1
(g10
g3
NtRp28
(dp29
g13
F13.53962890967022
sg14
I4
sg15
I01
sg16
I6
sg17
I22
sbs(I5
I2
tp30
g1
(g10
g3
NtRp31
(dp32
g13
F-3.307570288559055
sg14
I5
sg15
I01
sg16
I2
sg17
I15
sbs(I4
I4
tp33
g1
(g10
g3
NtRp34
(dp35
g13
F-19.125055956823452
sg14
I4
sg15
I00
sg16
I4
sg17
I18
sbs(I4
I7
tp36
g1
(g10
g3
NtRp37
(dp38
g13
F-2.3947371506973778
sg14
I4
sg15
I01
sg16
I7
sg17
I34
sbs(I1
I6
tp39
g1
(g10
g3
NtRp40
(dp41
g13
F-2.3730454929601352
sg14
I1
sg15
I01
sg16
I6
sg17
I23
sbs(I3
I6
tp42
g1
(g10
g3
NtRp43
(dp44
g13
F-0.90278577421121109
sg14
I3
sg15
I01
sg16
I6
sg17
I19
sbs(I4
I2
tp45
g1
(g10
g3
NtRp46
(dp47
g13
F5.7374289196153336
sg14
I4
sg15
I00
sg16
I2
sg17
I7
sbs(I3
I4
tp48
g1
(g10
g3
NtRp49
(dp50
g13
F-5.35695573402751
sg14
I3
sg15
I01
sg16
I4
sg17
I6
sbs(I7
I2
tp51
g1
(g10
g3
NtRp52
(dp53
g13
F5.348010161457184
sg14
I7
sg15
I01
sg16
I2
sg17
I26
sbs(I3
I5
tp54
g1
(g10
g3
NtRp55
(dp56
g13
F-7.1531517804763567
sg14
I3
sg15
I01
sg16
I5
sg17
I8
sbssS'_input_nodes'
p57
I1
sS'_output_nodes'
p58
I1
sS'_node_gene_type'
p59
cneat.genome
NodeGene
p60
sS'_conn_gene_type'
p61
g10
sS'fitness'
p62
F0.94372847736008636
sS'parent2_id'
p63
I1305
sS'_id'
p64
I1327
sS'parent1_id'
p65
I1314
sS'_node_genes'
p66
(lp67
g1
(g60
g3
NtRp68
(dp69
S'_bias'
p70
I0
sS'_type'
p71
S'INPUT'
p72
sg64
I1
sS'_response'
p73
F4.9242730000000003
sS'_activation_type'
p74
Nsbag1
(g60
g3
NtRp75
(dp76
g70
F3.9685590616221695
sg71
S'OUTPUT'
p77
sg64
I2
sg73
F5.9630088452522907
sg74
S'tanh'
p78
sbag1
(g60
g3
NtRp79
(dp80
g70
F4.046469734140711
sg71
S'HIDDEN'
p81
sg64
I3
sg73
F6.0445854880912613
sg74
g78
sbag1
(g60
g3
NtRp82
(dp83
g70
F-0.17982938972263129
sg71
g81
sg64
I4
sg73
F5.7167320729965994
sg74
g78
sbag1
(g60
g3
NtRp84
(dp85
g70
F0.76135536926756997
sg71
g81
sg64
I5
sg73
F6.7100125898637364
sg74
g78
sbag1
(g60
g3
NtRp86
(dp87
g70
F0.27314897720940506
sg71
g81
sg64
I6
sg73
F4.978576447049031
sg74
g78
sbag1
(g60
g3
NtRp88
(dp89
g70
I0
sg71
g81
sg64
I7
sg73
F5.545127633605321
sg74
g78
sbasb.