ccopy_reg
_reconstructor
p1
(cneat.chromosome
Chromosome
p2
c__builtin__
object
p3
NtRp4
(dp5
S'species_id'
p6
I5
sS'_connection_genes'
p7
(dp8
(I1
I2
tp9
g1
(cneat.genome
ConnectionGene
p10
g3
NtRp11
(dp12
S'_ConnectionGene__weight'
p13
F4.2179012111744196
sS'_ConnectionGene__in'
p14
I1
sS'_ConnectionGene__enabled'
p15
I01
sS'_ConnectionGene__out'
p16
I2
sS'_ConnectionGene__innov_number'
p17
I1
sbs(I3
I2
tp18
g1
(g10
g3
NtRp19
(dp20
g13
F7.2066844581943048
sg14
I3
sg15
I00
sg16
I2
sg17
I4
sbs(I1
I3
tp21
g1
(g10
g3
NtRp22
(dp23
g13
F5.1618450618558471
sg14
I1
sg15
I01
sg16
I3
sg17
I3
sbs(I4
I4
tp24
g1
(g10
g3
NtRp25
(dp26
g13
F-1.603725643391237
sg14
I4
sg15
I01
sg16
I4
sg17
I18
sbs(I1
I4
tp27
g1
(g10
g3
NtRp28
(dp29
g13
F0.24364553696158991
sg14
I1
sg15
I01
sg16
I4
sg17
I10
sbs(I4
I2
tp30
g1
(g10
g3
NtRp31
(dp32
g13
F6.4639995695741028
sg14
I4
sg15
I01
sg16
I2
sg17
I7
sbs(I3
I4
tp33
g1
(g10
g3
NtRp34
(dp35
g13
F-1.0701553703980302
sg14
I3
sg15
I01
sg16
I4
sg17
I6
sbssS'_input_nodes'
p36
I1
sS'_output_nodes'
p37
I1
sS'_node_gene_type'
p38
cneat.genome
NodeGene
p39
sS'_conn_gene_type'
p40
g10
sS'fitness'
p41
F0.93856353115901825
sS'parent2_id'
p42
I714
sS'_id'
p43
I731
sS'parent1_id'
p44
I714
sS'_node_genes'
p45
(lp46
g1
(g39
g3
NtRp47
(dp48
S'_bias'
p49
I0
sS'_type'
p50
S'INPUT'
p51
sg43
I1
sS'_response'
p52
F4.9242730000000003
sS'_activation_type'
p53
Nsbag1
(g39
g3
NtRp54
(dp55
g49
F1.6361033098626199
sg50
S'OUTPUT'
p56
sg43
I2
sg52
F6.1952569819355263
sg53
S'tanh'
p57
sbag1
(g39
g3
NtRp58
(dp59
g49
F1.323753093571429
sg50
S'HIDDEN'
p60
sg43
I3
sg52
F5.6764563503372418
sg53
g57
sbag1
(g39
g3
NtRp61
(dp62
g49
F-0.49240818192608016
sg50
g60
sg43
I4
sg52
F5.5747915403434494
sg53
g57
sbasb.