ccopy_reg
_reconstructor
p1
(cneat.chromosome
Chromosome
p2
c__builtin__
object
p3
NtRp4
(dp5
S'species_id'
p6
I43
sS'_connection_genes'
p7
(dp8
(I1
I3
tp9
g1
(cneat.genome
ConnectionGene
p10
g3
NtRp11
(dp12
S'_ConnectionGene__weight'
p13
F25.442888010800559
sS'_ConnectionGene__in'
p14
I1
sS'_ConnectionGene__enabled'
p15
I01
sS'_ConnectionGene__out'
p16
I3
sS'_ConnectionGene__innov_number'
p17
I3
sbs(I6
I6
tp18
g1
(g10
g3
NtRp19
(dp20
g13
F15.00898132974919
sg14
I6
sg15
I01
sg16
I6
sg17
I39
sbs(I5
I6
tp21
g1
(g10
g3
NtRp22
(dp23
g13
F1.6100624052470192
sg14
I5
sg15
I01
sg16
I6
sg17
I16
sbs(I9
I8
tp24
g1
(g10
g3
NtRp25
(dp26
g13
F-2.2830828392159379
sg14
I9
sg15
I01
sg16
I8
sg17
I60
sbs(I4
I12
tp27
g1
(g10
g3
NtRp28
(dp29
g13
F-0.15503334588323603
sg14
I4
sg15
I01
sg16
I12
sg17
I102
sbs(I9
I4
tp30
g1
(g10
g3
NtRp31
(dp32
g13
F21.538317572734226
sg14
I9
sg15
I01
sg16
I4
sg17
I77
sbs(I7
I2
tp33
g1
(g10
g3
NtRp34
(dp35
g13
F-4.4474661003540463
sg14
I7
sg15
I01
sg16
I2
sg17
I33
sbs(I1
I2
tp36
g1
(g10
g3
NtRp37
(dp38
g13
F11.896441189802209
sg14
I1
sg15
I01
sg16
I2
sg17
I1
sbs(I4
I9
tp39
g1
(g10
g3
NtRp40
(dp41
g13
F4.0884716092087379
sg14
I4
sg15
I01
sg16
I9
sg17
I44
sbs(I3
I3
tp42
g1
(g10
g3
NtRp43
(dp44
g13
F28.582462007071729
sg14
I3
sg15
I01
sg16
I3
sg17
I9
sbs(I4
I4
tp45
g1
(g10
g3
NtRp46
(dp47
g13
F15.737598278037801
sg14
I4
sg15
I00
sg16
I4
sg17
I15
sbs(I1
I5
tp48
g1
(g10
g3
NtRp49
(dp50
g13
F-1.6663784770032533
sg14
I1
sg15
I01
sg16
I5
sg17
I10
sbs(I4
I11
tp51
g1
(g10
g3
NtRp52
(dp53
g13
F6.2201710191230326
sg14
I4
sg15
I00
sg16
I11
sg17
I75
sbs(I3
I6
tp54
g1
(g10
g3
NtRp55
(dp56
g13
F-4.7046038353301052
sg14
I3
sg15
I01
sg16
I6
sg17
I19
sbs(I2
I2
tp57
g1
(g10
g3
NtRp58
(dp59
g13
F0.65742164568860018
sg14
I2
sg15
I01
sg16
I2
sg17
I2
sbs(I3
I5
tp60
g1
(g10
g3
NtRp61
(dp62
g13
F17.054579147934252
sg14
I3
sg15
I01
sg16
I5
sg17
I13
sbs(I11
I2
tp63
g1
(g10
g3
NtRp64
(dp65
g13
F18.901829359996409
sg14
I11
sg15
I01
sg16
I2
sg17
I74
sbs(I3
I2
tp66
g1
(g10
g3
NtRp67
(dp68
g13
F-3.7380205923596566
sg14
I3
sg15
I01
sg16
I2
sg17
I4
sbs(I10
I4
tp69
g1
(g10
g3
NtRp70
(dp71
g13
F-12.65500978258695
sg14
I10
sg15
I01
sg16
I4
sg17
I90
sbs(I4
I5
tp72
g1
(g10
g3
NtRp73
(dp74
g13
F-14.802221438570612
sg14
I4
sg15
I01
sg16
I5
sg17
I30
sbs(I7
I13
tp75
g1
(g10
g3
NtRp76
(dp77
g13
F1
sg14
I7
sg15
I01
sg16
I13
sg17
I136
sbs(I1
I4
tp78
g1
(g10
g3
NtRp79
(dp80
g13
F23.390749933022988
sg14
I1
sg15
I01
sg16
I4
sg17
I8
sbs(I2
I10
tp81
g1
(g10
g3
NtRp82
(dp83
g13
F4.0389581712400195
sg14
I2
sg15
I01
sg16
I10
sg17
I57
sbs(I2
I3
tp84
g1
(g10
g3
NtRp85
(dp86
g13
F-13.944751603466864
sg14
I2
sg15
I01
sg16
I3
sg17
I7
sbs(I12
I11
tp87
g1
(g10
g3
NtRp88
(dp89
g13
F6.1571200617031163
sg14
I12
sg15
I01
sg16
I11
sg17
I84
sbs(I13
I9
tp90
g1
(g10
g3
NtRp91
(dp92
g13
F2.2257444066911378
sg14
I13
sg15
I01
sg16
I9
sg17
I137
sbs(I4
I2
tp93
g1
(g10
g3
NtRp94
(dp95
g13
F23.007380821834523
sg14
I4
sg15
I00
sg16
I2
sg17
I6
sbs(I6
I5
tp96
g1
(g10
g3
NtRp97
(dp98
g13
F13.517134035420906
sg14
I6
sg15
I01
sg16
I5
sg17
I23
sbs(I5
I3
tp99
g1
(g10
g3
NtRp100
(dp101
g13
F2.0666516327288758
sg14
I5
sg15
I01
sg16
I3
sg17
I14
sbs(I8
I3
tp102
g1
(g10
g3
NtRp103
(dp104
g13
F21.582585417139736
sg14
I8
sg15
I01
sg16
I3
sg17
I71
sbs(I3
I4
tp105
g1
(g10
g3
NtRp106
(dp107
g13
F-17.516362977768189
sg14
I3
sg15
I00
sg16
I4
sg17
I5
sbs(I5
I7
tp108
g1
(g10
g3
NtRp109
(dp110
g13
F8.3949472327124379
sg14
I5
sg15
I01
sg16
I7
sg17
I28
sbs(I3
I8
tp111
g1
(g10
g3
NtRp112
(dp113
g13
F16.12329104442939
sg14
I3
sg15
I01
sg16
I8
sg17
I49
sbs(I7
I9
tp114
g1
(g10
g3
NtRp115
(dp116
g13
F2.2257444066911378
sg14
I7
sg15
I00
sg16
I9
sg17
I41
sbs(I4
I3
tp117
g1
(g10
g3
NtRp118
(dp119
g13
F-2.9661375158175551
sg14
I4
sg15
I01
sg16
I3
sg17
I12
sbs(I5
I2
tp120
g1
(g10
g3
NtRp121
(dp122
g13
F17.782245630488504
sg14
I5
sg15
I01
sg16
I2
sg17
I11
sbs(I2
I4
tp123
g1
(g10
g3
NtRp124
(dp125
g13
F-12.240100820705019
sg14
I2
sg15
I01
sg16
I4
sg17
I24
sbs(I8
I4
tp126
g1
(g10
g3
NtRp127
(dp128
g13
F-5.1111987234521434
sg14
I8
sg15
I01
sg16
I4
sg17
I40
sbssS'_input_nodes'
p129
I1
sS'_output_nodes'
p130
I1
sS'_node_gene_type'
p131
cneat.genome
NodeGene
p132
sS'_conn_gene_type'
p133
g10
sS'fitness'
p134
F0.99054535347126516
sS'parent2_id'
p135
I5093
sS'_id'
p136
I5111
sS'parent1_id'
p137
I5093
sS'_node_genes'
p138
(lp139
g1
(g132
g3
NtRp140
(dp141
S'_bias'
p142
I0
sS'_type'
p143
S'INPUT'
p144
sg136
I1
sS'_response'
p145
F4.9242730000000003
sS'_activation_type'
p146
Nsbag1
(g132
g3
NtRp147
(dp148
g142
F-1.2795144670468945
sg143
S'OUTPUT'
p149
sg136
I2
sg145
F4.6894625394317293
sg146
S'tanh'
p150
sbag1
(g132
g3
NtRp151
(dp152
g142
F-5.3107026543140936
sg143
S'HIDDEN'
p153
sg136
I3
sg145
F-0.69897547509053559
sg146
g150
sbag1
(g132
g3
NtRp154
(dp155
g142
F-0.71075876945695249
sg143
g153
sg136
I4
sg145
F4.7924689660803521
sg146
g150
sbag1
(g132
g3
NtRp156
(dp157
g142
F2.4375688258766495
sg143
g153
sg136
I5
sg145
F5.2964457890741876
sg146
g150
sbag1
(g132
g3
NtRp158
(dp159
g142
F-2.4114406739829657
sg143
g153
sg136
I6
sg145
F2.1397640300945904
sg146
g150
sbag1
(g132
g3
NtRp160
(dp161
g142
F-2.8847259434993084
sg143
g153
sg136
I7
sg145
F5.1154417317558041
sg146
g150
sbag1
(g132
g3
NtRp162
(dp163
g142
F-0.42924579585786105
sg143
g153
sg136
I8
sg145
F6.4183119625337985
sg146
g150
sbag1
(g132
g3
NtRp164
(dp165
g142
F0.44619748494356537
sg143
g153
sg136
I9
sg145
F4.1451951411178856
sg146
g150
sbag1
(g132
g3
NtRp166
(dp167
g142
F-0.59440144062490852
sg143
g153
sg136
I10
sg145
F4.9242730000000003
sg146
g150
sbag1
(g132
g3
NtRp168
(dp169
g142
F0.77893247890712647
sg143
g153
sg136
I11
sg145
F5.5078084914624226
sg146
g150
sbag1
(g132
g3
NtRp170
(dp171
g142
I0
sg143
g153
sg136
I12
sg145
F4.9242730000000003
sg146
g150
sbag1
(g132
g3
NtRp172
(dp173
g142
I0
sg143
g153
sg136
I13
sg145
F4.9242730000000003
sg146
g150
sbasb.