ccopy_reg
_reconstructor
p1
(cneat.chromosome
Chromosome
p2
c__builtin__
object
p3
NtRp4
(dp5
S'species_id'
p6
I76
sS'_connection_genes'
p7
(dp8
(I1
I3
tp9
g1
(cneat.genome
ConnectionGene
p10
g3
NtRp11
(dp12
S'_ConnectionGene__weight'
p13
F18.565326508663311
sS'_ConnectionGene__in'
p14
I1
sS'_ConnectionGene__enabled'
p15
I01
sS'_ConnectionGene__out'
p16
I3
sS'_ConnectionGene__innov_number'
p17
I3
sbs(I11
I11
tp18
g1
(g10
g3
NtRp19
(dp20
g13
F8.0627700790892849
sg14
I11
sg15
I01
sg16
I11
sg17
I122
sbs(I6
I6
tp21
g1
(g10
g3
NtRp22
(dp23
g13
F13.811897070076757
sg14
I6
sg15
I01
sg16
I6
sg17
I39
sbs(I5
I6
tp24
g1
(g10
g3
NtRp25
(dp26
g13
F29.144137298591296
sg14
I5
sg15
I01
sg16
I6
sg17
I16
sbs(I9
I8
tp27
g1
(g10
g3
NtRp28
(dp29
g13
F-25.434736120358821
sg14
I9
sg15
I01
sg16
I8
sg17
I60
sbs(I10
I6
tp30
g1
(g10
g3
NtRp31
(dp32
g13
F-16.951541107064738
sg14
I10
sg15
I01
sg16
I6
sg17
I103
sbs(I9
I4
tp33
g1
(g10
g3
NtRp34
(dp35
g13
F26.349951746652621
sg14
I9
sg15
I01
sg16
I4
sg17
I77
sbs(I11
I4
tp36
g1
(g10
g3
NtRp37
(dp38
g13
F22.214602774997349
sg14
I11
sg15
I01
sg16
I4
sg17
I101
sbs(I7
I2
tp39
g1
(g10
g3
NtRp40
(dp41
g13
F-11.482085657644307
sg14
I7
sg15
I01
sg16
I2
sg17
I33
sbs(I1
I2
tp42
g1
(g10
g3
NtRp43
(dp44
g13
F26.183737376094268
sg14
I1
sg15
I01
sg16
I2
sg17
I1
sbs(I4
I13
tp45
g1
(g10
g3
NtRp46
(dp47
g13
F-0.56180494825933058
sg14
I4
sg15
I01
sg16
I13
sg17
I119
sbs(I11
I10
tp48
g1
(g10
g3
NtRp49
(dp50
g13
F-15.895557494978373
sg14
I11
sg15
I01
sg16
I10
sg17
I89
sbs(I4
I9
tp51
g1
(g10
g3
NtRp52
(dp53
g13
F19.582796575014299
sg14
I4
sg15
I01
sg16
I9
sg17
I44
sbs(I3
I3
tp54
g1
(g10
g3
NtRp55
(dp56
g13
F20.827696343304591
sg14
I3
sg15
I00
sg16
I3
sg17
I9
sbs(I3
I10
tp57
g1
(g10
g3
NtRp58
(dp59
g13
F-13.395855890064823
sg14
I3
sg15
I01
sg16
I10
sg17
I94
sbs(I4
I4
tp60
g1
(g10
g3
NtRp61
(dp62
g13
F26.696711147655204
sg14
I4
sg15
I01
sg16
I4
sg17
I15
sbs(I6
I3
tp63
g1
(g10
g3
NtRp64
(dp65
g13
F0.96126773855849112
sg14
I6
sg15
I01
sg16
I3
sg17
I22
sbs(I1
I5
tp66
g1
(g10
g3
NtRp67
(dp68
g13
F21.691980572339958
sg14
I1
sg15
I01
sg16
I5
sg17
I10
sbs(I9
I11
tp69
g1
(g10
g3
NtRp70
(dp71
g13
F-18.551810888826882
sg14
I9
sg15
I01
sg16
I11
sg17
I106
sbs(I3
I6
tp72
g1
(g10
g3
NtRp73
(dp74
g13
F-14.68265459778398
sg14
I3
sg15
I01
sg16
I6
sg17
I19
sbs(I2
I2
tp75
g1
(g10
g3
NtRp76
(dp77
g13
F25.956868867971114
sg14
I2
sg15
I01
sg16
I2
sg17
I2
sbs(I7
I9
tp78
g1
(g10
g3
NtRp79
(dp80
g13
F25.834853433726707
sg14
I7
sg15
I01
sg16
I9
sg17
I41
sbs(I10
I9
tp81
g1
(g10
g3
NtRp82
(dp83
g13
F9.7910539203305724
sg14
I10
sg15
I01
sg16
I9
sg17
I58
sbs(I9
I7
tp84
g1
(g10
g3
NtRp85
(dp86
g13
F20.635288056469111
sg14
I9
sg15
I01
sg16
I7
sg17
I53
sbs(I3
I2
tp87
g1
(g10
g3
NtRp88
(dp89
g13
F-6.1405311991437141
sg14
I3
sg15
I01
sg16
I2
sg17
I4
sbs(I13
I2
tp90
g1
(g10
g3
NtRp91
(dp92
g13
F-1.702452926668347
sg14
I13
sg15
I01
sg16
I2
sg17
I133
sbs(I10
I4
tp93
g1
(g10
g3
NtRp94
(dp95
g13
F1.8215984856550884
sg14
I10
sg15
I01
sg16
I4
sg17
I90
sbs(I4
I5
tp96
g1
(g10
g3
NtRp97
(dp98
g13
F-15.694947419576499
sg14
I4
sg15
I01
sg16
I5
sg17
I30
sbs(I8
I11
tp99
g1
(g10
g3
NtRp100
(dp101
g13
F-9.6325369270074876
sg14
I8
sg15
I01
sg16
I11
sg17
I80
sbs(I1
I4
tp102
g1
(g10
g3
NtRp103
(dp104
g13
F-6.5410188253076411
sg14
I1
sg15
I01
sg16
I4
sg17
I8
sbs(I2
I3
tp105
g1
(g10
g3
NtRp106
(dp107
g13
F-29.135115435971407
sg14
I2
sg15
I01
sg16
I3
sg17
I7
sbs(I4
I2
tp108
g1
(g10
g3
NtRp109
(dp110
g13
F2.8220498811066563
sg14
I4
sg15
I00
sg16
I2
sg17
I6
sbs(I6
I5
tp111
g1
(g10
g3
NtRp112
(dp113
g13
F8.4958511806148618
sg14
I6
sg15
I01
sg16
I5
sg17
I23
sbs(I5
I3
tp114
g1
(g10
g3
NtRp115
(dp116
g13
F4.5289506901208263
sg14
I5
sg15
I01
sg16
I3
sg17
I14
sbs(I3
I5
tp117
g1
(g10
g3
NtRp118
(dp119
g13
F-8.8701016449202825
sg14
I3
sg15
I01
sg16
I5
sg17
I13
sbs(I8
I3
tp120
g1
(g10
g3
NtRp121
(dp122
g13
F21.643698591093621
sg14
I8
sg15
I01
sg16
I3
sg17
I71
sbs(I3
I12
tp123
g1
(g10
g3
NtRp124
(dp125
g13
F-2.0007539148089677
sg14
I3
sg15
I01
sg16
I12
sg17
I99
sbs(I3
I4
tp126
g1
(g10
g3
NtRp127
(dp128
g13
F8.323767672991746
sg14
I3
sg15
I01
sg16
I4
sg17
I5
sbs(I5
I7
tp129
g1
(g10
g3
NtRp130
(dp131
g13
F-24.80520125569738
sg14
I5
sg15
I01
sg16
I7
sg17
I28
sbs(I3
I8
tp132
g1
(g10
g3
NtRp133
(dp134
g13
F2.8894446566136907
sg14
I3
sg15
I01
sg16
I8
sg17
I49
sbs(I12
I3
tp135
g1
(g10
g3
NtRp136
(dp137
g13
F23.610864820317943
sg14
I12
sg15
I01
sg16
I3
sg17
I88
sbs(I4
I3
tp138
g1
(g10
g3
NtRp139
(dp140
g13
F3.1407930871262355
sg14
I4
sg15
I01
sg16
I3
sg17
I12
sbs(I5
I2
tp141
g1
(g10
g3
NtRp142
(dp143
g13
F11.597884975847425
sg14
I5
sg15
I01
sg16
I2
sg17
I11
sbs(I2
I4
tp144
g1
(g10
g3
NtRp145
(dp146
g13
F23.803511848155349
sg14
I2
sg15
I01
sg16
I4
sg17
I24
sbs(I8
I4
tp147
g1
(g10
g3
NtRp148
(dp149
g13
F-30
sg14
I8
sg15
I01
sg16
I4
sg17
I40
sbssS'_input_nodes'
p150
I1
sS'_output_nodes'
p151
I1
sS'_node_gene_type'
p152
cneat.genome
NodeGene
p153
sS'_conn_gene_type'
p154
g10
sS'fitness'
p155
F0.95259681041511868
sS'parent2_id'
p156
I8136
sS'_id'
p157
I8154
sS'parent1_id'
p158
I8136
sS'_node_genes'
p159
(lp160
g1
(g153
g3
NtRp161
(dp162
S'_bias'
p163
I0
sS'_type'
p164
S'INPUT'
p165
sg157
I1
sS'_response'
p166
F4.9242730000000003
sS'_activation_type'
p167
Nsbag1
(g153
g3
NtRp168
(dp169
g163
F-6.0538445214350283
sg164
S'OUTPUT'
p170
sg157
I2
sg166
F4.5070851309460194
sg167
S'tanh'
p171
sbag1
(g153
g3
NtRp172
(dp173
g163
F-2.4758284389798564
sg164
S'HIDDEN'
p174
sg157
I3
sg166
F4.036611473763962
sg167
g171
sbag1
(g153
g3
NtRp175
(dp176
g163
F5.0422713593533821
sg164
g174
sg157
I4
sg166
F3.9185898589506989
sg167
g171
sbag1
(g153
g3
NtRp177
(dp178
g163
F5.0283071590441324
sg164
g174
sg157
I5
sg166
F11.436024796659922
sg167
g171
sbag1
(g153
g3
NtRp179
(dp180
g163
F-2.4006208622640912
sg164
g174
sg157
I6
sg166
F2.0694239010251505
sg167
g171
sbag1
(g153
g3
NtRp181
(dp182
g163
F-1.8674666802064528
sg164
g174
sg157
I7
sg166
F7.0369068974873601
sg167
g171
sbag1
(g153
g3
NtRp183
(dp184
g163
F-1.1145442181127201
sg164
g174
sg157
I8
sg166
F9.668574532795752
sg167
g171
sbag1
(g153
g3
NtRp185
(dp186
g163
F0.36019831982317019
sg164
g174
sg157
I9
sg166
F8.2609685507817296
sg167
g171
sbag1
(g153
g3
NtRp187
(dp188
g163
F0.21492312962303112
sg164
g174
sg157
I10
sg166
F4.3370305272564957
sg167
g171
sbag1
(g153
g3
NtRp189
(dp190
g163
F-0.49195876840838609
sg164
g174
sg157
I11
sg166
F6.1710997804568892
sg167
g171
sbag1
(g153
g3
NtRp191
(dp192
g163
F0.031423919902726728
sg164
g174
sg157
I12
sg166
F4.9242730000000003
sg167
g171
sbag1
(g153
g3
NtRp193
(dp194
g163
F1.0810648529731099
sg164
g174
sg157
I13
sg166
F4.9242730000000003
sg167
g171
sbasb.