ccopy_reg
_reconstructor
p1
(cneat.chromosome
Chromosome
p2
c__builtin__
object
p3
NtRp4
(dp5
S'species_id'
p6
I63
sS'_connection_genes'
p7
(dp8
(I1
I3
tp9
g1
(cneat.genome
ConnectionGene
p10
g3
NtRp11
(dp12
S'_ConnectionGene__weight'
p13
F27.338875476211872
sS'_ConnectionGene__in'
p14
I1
sS'_ConnectionGene__enabled'
p15
I00
sS'_ConnectionGene__out'
p16
I3
sS'_ConnectionGene__innov_number'
p17
I3
sbs(I6
I6
tp18
g1
(g10
g3
NtRp19
(dp20
g13
F13.378090564778006
sg14
I6
sg15
I01
sg16
I6
sg17
I39
sbs(I5
I6
tp21
g1
(g10
g3
NtRp22
(dp23
g13
F4.9281269232544398
sg14
I5
sg15
I01
sg16
I6
sg17
I16
sbs(I14
I4
tp24
g1
(g10
g3
NtRp25
(dp26
g13
F-4.3986377015172922
sg14
I14
sg15
I00
sg16
I4
sg17
I159
sbs(I9
I8
tp27
g1
(g10
g3
NtRp28
(dp29
g13
F-28.461750582882946
sg14
I9
sg15
I01
sg16
I8
sg17
I60
sbs(I1
I15
tp30
g1
(g10
g3
NtRp31
(dp32
g13
F2.6465179999339421
sg14
I1
sg15
I01
sg16
I15
sg17
I168
sbs(I4
I12
tp33
g1
(g10
g3
NtRp34
(dp35
g13
F13.624752842226112
sg14
I4
sg15
I01
sg16
I12
sg17
I102
sbs(I9
I4
tp36
g1
(g10
g3
NtRp37
(dp38
g13
F18.569945094811452
sg14
I9
sg15
I01
sg16
I4
sg17
I77
sbs(I7
I2
tp39
g1
(g10
g3
NtRp40
(dp41
g13
F-5.9648185714162949
sg14
I7
sg15
I01
sg16
I2
sg17
I33
sbs(I1
I2
tp42
g1
(g10
g3
NtRp43
(dp44
g13
F14.987509013161299
sg14
I1
sg15
I01
sg16
I2
sg17
I1
sbs(I4
I9
tp45
g1
(g10
g3
NtRp46
(dp47
g13
F-0.041182338324189494
sg14
I4
sg15
I01
sg16
I9
sg17
I44
sbs(I3
I3
tp48
g1
(g10
g3
NtRp49
(dp50
g13
F28.230817408019746
sg14
I3
sg15
I01
sg16
I3
sg17
I9
sbs(I4
I4
tp51
g1
(g10
g3
NtRp52
(dp53
g13
F1.7623265953249025
sg14
I4
sg15
I00
sg16
I4
sg17
I15
sbs(I4
I13
tp54
g1
(g10
g3
NtRp55
(dp56
g13
F-12.693277034619156
sg14
I4
sg15
I01
sg16
I13
sg17
I119
sbs(I1
I5
tp57
g1
(g10
g3
NtRp58
(dp59
g13
F16.239691984409376
sg14
I1
sg15
I01
sg16
I5
sg17
I10
sbs(I6
I5
tp60
g1
(g10
g3
NtRp61
(dp62
g13
F26.355969011113615
sg14
I6
sg15
I01
sg16
I5
sg17
I23
sbs(I3
I6
tp63
g1
(g10
g3
NtRp64
(dp65
g13
F-13.488414545876131
sg14
I3
sg15
I01
sg16
I6
sg17
I19
sbs(I2
I2
tp66
g1
(g10
g3
NtRp67
(dp68
g13
F21.168360009889021
sg14
I2
sg15
I01
sg16
I2
sg17
I2
sbs(I5
I7
tp69
g1
(g10
g3
NtRp70
(dp71
g13
F-3.0782513196532135
sg14
I5
sg15
I01
sg16
I7
sg17
I28
sbs(I5
I3
tp72
g1
(g10
g3
NtRp73
(dp74
g13
F-10.671139760952203
sg14
I5
sg15
I01
sg16
I3
sg17
I14
sbs(I11
I2
tp75
g1
(g10
g3
NtRp76
(dp77
g13
F28.928488938980269
sg14
I11
sg15
I01
sg16
I2
sg17
I74
sbs(I4
I10
tp78
g1
(g10
g3
NtRp79
(dp80
g13
F1.2049332551333269
sg14
I4
sg15
I01
sg16
I10
sg17
I63
sbs(I3
I2
tp81
g1
(g10
g3
NtRp82
(dp83
g13
F-1.3573189519994675
sg14
I3
sg15
I01
sg16
I2
sg17
I4
sbs(I10
I4
tp84
g1
(g10
g3
NtRp85
(dp86
g13
F-25.41540205160792
sg14
I10
sg15
I01
sg16
I4
sg17
I90
sbs(I16
I4
tp87
g1
(g10
g3
NtRp88
(dp89
g13
F-7.0625725072101044
sg14
I16
sg15
I01
sg16
I4
sg17
I175
sbs(I4
I5
tp90
g1
(g10
g3
NtRp91
(dp92
g13
F-25.632519376483508
sg14
I4
sg15
I01
sg16
I5
sg17
I30
sbs(I15
I3
tp93
g1
(g10
g3
NtRp94
(dp95
g13
F27.33435836732632
sg14
I15
sg15
I01
sg16
I3
sg17
I169
sbs(I1
I4
tp96
g1
(g10
g3
NtRp97
(dp98
g13
F21.969389357778127
sg14
I1
sg15
I01
sg16
I4
sg17
I8
sbs(I2
I10
tp99
g1
(g10
g3
NtRp100
(dp101
g13
F-13.699306601043313
sg14
I2
sg15
I01
sg16
I10
sg17
I57
sbs(I2
I3
tp102
g1
(g10
g3
NtRp103
(dp104
g13
F-12.087682320342171
sg14
I2
sg15
I01
sg16
I3
sg17
I7
sbs(I12
I11
tp105
g1
(g10
g3
NtRp106
(dp107
g13
F10.962086759239799
sg14
I12
sg15
I01
sg16
I11
sg17
I84
sbs(I4
I2
tp108
g1
(g10
g3
NtRp109
(dp110
g13
F12.938908104455081
sg14
I4
sg15
I00
sg16
I2
sg17
I6
sbs(I2
I14
tp111
g1
(g10
g3
NtRp112
(dp113
g13
F-8.3084785001764843
sg14
I2
sg15
I01
sg16
I14
sg17
I142
sbs(I4
I11
tp114
g1
(g10
g3
NtRp115
(dp116
g13
F9.3729428714824135
sg14
I4
sg15
I00
sg16
I11
sg17
I75
sbs(I7
I9
tp117
g1
(g10
g3
NtRp118
(dp119
g13
F7.9526265203561426
sg14
I7
sg15
I01
sg16
I9
sg17
I41
sbs(I3
I5
tp120
g1
(g10
g3
NtRp121
(dp122
g13
F30
sg14
I3
sg15
I01
sg16
I5
sg17
I13
sbs(I8
I3
tp123
g1
(g10
g3
NtRp124
(dp125
g13
F2.2258384818592196
sg14
I8
sg15
I01
sg16
I3
sg17
I71
sbs(I14
I16
tp126
g1
(g10
g3
NtRp127
(dp128
g13
F2.929469201406715
sg14
I14
sg15
I01
sg16
I16
sg17
I174
sbs(I5
I2
tp129
g1
(g10
g3
NtRp130
(dp131
g13
F27.606989829865228
sg14
I5
sg15
I01
sg16
I2
sg17
I11
sbs(I7
I13
tp132
g1
(g10
g3
NtRp133
(dp134
g13
F-5.2203909830089348
sg14
I7
sg15
I01
sg16
I13
sg17
I136
sbs(I3
I8
tp135
g1
(g10
g3
NtRp136
(dp137
g13
F2.1243706721124918
sg14
I3
sg15
I01
sg16
I8
sg17
I49
sbs(I6
I2
tp138
g1
(g10
g3
NtRp139
(dp140
g13
F6.2691124719391587
sg14
I6
sg15
I01
sg16
I2
sg17
I17
sbs(I4
I3
tp141
g1
(g10
g3
NtRp142
(dp143
g13
F-8.5598918999475018
sg14
I4
sg15
I01
sg16
I3
sg17
I12
sbs(I13
I9
tp144
g1
(g10
g3
NtRp145
(dp146
g13
F-10.305258011088721
sg14
I13
sg15
I01
sg16
I9
sg17
I137
sbs(I3
I4
tp147
g1
(g10
g3
NtRp148
(dp149
g13
F-18.789369768464582
sg14
I3
sg15
I00
sg16
I4
sg17
I5
sbs(I2
I4
tp150
g1
(g10
g3
NtRp151
(dp152
g13
F-24.398675866006201
sg14
I2
sg15
I00
sg16
I4
sg17
I24
sbs(I8
I4
tp153
g1
(g10
g3
NtRp154
(dp155
g13
F-19.314433077954472
sg14
I8
sg15
I01
sg16
I4
sg17
I40
sbssS'_input_nodes'
p156
I1
sS'_output_nodes'
p157
I1
sS'_node_gene_type'
p158
cneat.genome
NodeGene
p159
sS'_conn_gene_type'
p160
g10
sS'fitness'
p161
F0.91532997461813581
sS'parent2_id'
p162
I6323
sS'_id'
p163
I6356
sS'parent1_id'
p164
I6323
sS'_node_genes'
p165
(lp166
g1
(g159
g3
NtRp167
(dp168
S'_bias'
p169
I0
sS'_type'
p170
S'INPUT'
p171
sg163
I1
sS'_response'
p172
F4.9242730000000003
sS'_activation_type'
p173
Nsbag1
(g159
g3
NtRp174
(dp175
g169
F-1.9375678975133048
sg170
S'OUTPUT'
p176
sg163
I2
sg172
F6.3419085953420655
sg173
S'tanh'
p177
sbag1
(g159
g3
NtRp178
(dp179
g169
F-5.1244302011362803
sg170
S'HIDDEN'
p180
sg163
I3
sg172
F0.79888813889883203
sg173
g177
sbag1
(g159
g3
NtRp181
(dp182
g169
F-2.9630271318902581
sg170
g180
sg163
I4
sg172
F3.8701196715126072
sg173
g177
sbag1
(g159
g3
NtRp183
(dp184
g169
F1.5014755530767054
sg170
g180
sg163
I5
sg172
F6.9211113675942562
sg173
g177
sbag1
(g159
g3
NtRp185
(dp186
g169
F-1.5812994596954526
sg170
g180
sg163
I6
sg172
F0.96118070129878308
sg173
g177
sbag1
(g159
g3
NtRp187
(dp188
g169
F-2.3101463787458383
sg170
g180
sg163
I7
sg172
F5.5759890545354462
sg173
g177
sbag1
(g159
g3
NtRp189
(dp190
g169
F-0.97837899534785433
sg170
g180
sg163
I8
sg172
F5.1175782289757699
sg173
g177
sbag1
(g159
g3
NtRp191
(dp192
g169
F0.96333620173306556
sg170
g180
sg163
I9
sg172
F5.1731119714499947
sg173
g177
sbag1
(g159
g3
NtRp193
(dp194
g169
F-2.7033650487487408
sg170
g180
sg163
I10
sg172
F1.7922691603845906
sg173
g177
sbag1
(g159
g3
NtRp195
(dp196
g169
F-0.44781045394814767
sg170
g180
sg163
I11
sg172
F7.2305868292618944
sg173
g177
sbag1
(g159
g3
NtRp197
(dp198
g169
F-1.0863828943845941
sg170
g180
sg163
I12
sg172
F4.9703982592497704
sg173
g177
sbag1
(g159
g3
NtRp199
(dp200
g169
F1.7537482253500982
sg170
g180
sg163
I13
sg172
F3.8182234959227639
sg173
g177
sbag1
(g159
g3
NtRp201
(dp202
g169
F-0.37120894286525657
sg170
g180
sg163
I14
sg172
F5.3264818620251875
sg173
g177
sbag1
(g159
g3
NtRp203
(dp204
g169
F0.052379709283887008
sg170
g180
sg163
I15
sg172
F4.763215101516967
sg173
g177
sbag1
(g159
g3
NtRp205
(dp206
g169
F0.28997860501707329
sg170
g180
sg163
I16
sg172
F5.0200283001921093
sg173
g177
sbasb.