ccopy_reg
_reconstructor
p1
(cneat.chromosome
Chromosome
p2
c__builtin__
object
p3
NtRp4
(dp5
S'species_id'
p6
I36
sS'_connection_genes'
p7
(dp8
(I1
I3
tp9
g1
(cneat.genome
ConnectionGene
p10
g3
NtRp11
(dp12
S'_ConnectionGene__weight'
p13
F23.489295825802472
sS'_ConnectionGene__in'
p14
I1
sS'_ConnectionGene__enabled'
p15
I01
sS'_ConnectionGene__out'
p16
I3
sS'_ConnectionGene__innov_number'
p17
I3
sbs(I6
I6
tp18
g1
(g10
g3
NtRp19
(dp20
g13
F12.640809408510126
sg14
I6
sg15
I01
sg16
I6
sg17
I39
sbs(I5
I6
tp21
g1
(g10
g3
NtRp22
(dp23
g13
F-18.89887465373133
sg14
I5
sg15
I01
sg16
I6
sg17
I16
sbs(I7
I2
tp24
g1
(g10
g3
NtRp25
(dp26
g13
F2.2096703453859039
sg14
I7
sg15
I01
sg16
I2
sg17
I33
sbs(I1
I2
tp27
g1
(g10
g3
NtRp28
(dp29
g13
F12.45344836568135
sg14
I1
sg15
I01
sg16
I2
sg17
I1
sbs(I3
I3
tp30
g1
(g10
g3
NtRp31
(dp32
g13
F8.4617983019788436
sg14
I3
sg15
I01
sg16
I3
sg17
I9
sbs(I4
I4
tp33
g1
(g10
g3
NtRp34
(dp35
g13
F8.596874329500519
sg14
I4
sg15
I01
sg16
I4
sg17
I15
sbs(I1
I5
tp36
g1
(g10
g3
NtRp37
(dp38
g13
F-8.5451419507741573
sg14
I1
sg15
I01
sg16
I5
sg17
I10
sbs(I3
I6
tp39
g1
(g10
g3
NtRp40
(dp41
g13
F2.2816549744243897
sg14
I3
sg15
I01
sg16
I6
sg17
I19
sbs(I2
I2
tp42
g1
(g10
g3
NtRp43
(dp44
g13
F2.6539420178181508
sg14
I2
sg15
I01
sg16
I2
sg17
I2
sbs(I3
I5
tp45
g1
(g10
g3
NtRp46
(dp47
g13
F5.04809019643921
sg14
I3
sg15
I01
sg16
I5
sg17
I13
sbs(I3
I2
tp48
g1
(g10
g3
NtRp49
(dp50
g13
F11.93597266040096
sg14
I3
sg15
I00
sg16
I2
sg17
I4
sbs(I4
I5
tp51
g1
(g10
g3
NtRp52
(dp53
g13
F6.9651834702930717
sg14
I4
sg15
I01
sg16
I5
sg17
I30
sbs(I1
I4
tp54
g1
(g10
g3
NtRp55
(dp56
g13
F11.278909434085758
sg14
I1
sg15
I01
sg16
I4
sg17
I8
sbs(I2
I3
tp57
g1
(g10
g3
NtRp58
(dp59
g13
F-23.015587588418505
sg14
I2
sg15
I01
sg16
I3
sg17
I7
sbs(I4
I2
tp60
g1
(g10
g3
NtRp61
(dp62
g13
F-2.4172166840408069
sg14
I4
sg15
I01
sg16
I2
sg17
I6
sbs(I6
I5
tp63
g1
(g10
g3
NtRp64
(dp65
g13
F7.6704361048929837
sg14
I6
sg15
I01
sg16
I5
sg17
I23
sbs(I5
I3
tp66
g1
(g10
g3
NtRp67
(dp68
g13
F28.677079093637097
sg14
I5
sg15
I01
sg16
I3
sg17
I14
sbs(I8
I3
tp69
g1
(g10
g3
NtRp70
(dp71
g13
F8.476838800233784
sg14
I8
sg15
I01
sg16
I3
sg17
I71
sbs(I3
I4
tp72
g1
(g10
g3
NtRp73
(dp74
g13
F-0.61800353058856561
sg14
I3
sg15
I00
sg16
I4
sg17
I5
sbs(I5
I7
tp75
g1
(g10
g3
NtRp76
(dp77
g13
F8.6849601511203289
sg14
I5
sg15
I01
sg16
I7
sg17
I28
sbs(I3
I8
tp78
g1
(g10
g3
NtRp79
(dp80
g13
F16.547920377840541
sg14
I3
sg15
I01
sg16
I8
sg17
I49
sbs(I4
I3
tp81
g1
(g10
g3
NtRp82
(dp83
g13
F-1.6061315211395859
sg14
I4
sg15
I01
sg16
I3
sg17
I12
sbs(I5
I2
tp84
g1
(g10
g3
NtRp85
(dp86
g13
F23.819609622272662
sg14
I5
sg15
I00
sg16
I2
sg17
I11
sbs(I2
I4
tp87
g1
(g10
g3
NtRp88
(dp89
g13
F8.3188324034171703
sg14
I2
sg15
I01
sg16
I4
sg17
I24
sbs(I8
I4
tp90
g1
(g10
g3
NtRp91
(dp92
g13
F5.9708477263490849
sg14
I8
sg15
I01
sg16
I4
sg17
I40
sbssS'_input_nodes'
p93
I1
sS'_output_nodes'
p94
I1
sS'_node_gene_type'
p95
cneat.genome
NodeGene
p96
sS'_conn_gene_type'
p97
g10
sS'fitness'
p98
F0.98736286575922672
sS'parent2_id'
p99
I3676
sS'_id'
p100
I3684
sS'parent1_id'
p101
I3676
sS'_node_genes'
p102
(lp103
g1
(g96
g3
NtRp104
(dp105
S'_bias'
p106
I0
sS'_type'
p107
S'INPUT'
p108
sg100
I1
sS'_response'
p109
F4.9242730000000003
sS'_activation_type'
p110
Nsbag1
(g96
g3
NtRp111
(dp112
g106
F0.11444358388198517
sg107
S'OUTPUT'
p113
sg100
I2
sg109
F4.1414452577100977
sg110
S'tanh'
p114
sbag1
(g96
g3
NtRp115
(dp116
g106
F-0.84743621962526916
sg107
S'HIDDEN'
p117
sg100
I3
sg109
F0.068205936141895129
sg110
g114
sbag1
(g96
g3
NtRp118
(dp119
g106
F0.046843741591889233
sg107
g117
sg100
I4
sg109
F4.641524971859365
sg110
g114
sbag1
(g96
g3
NtRp120
(dp121
g106
F1.8001740590314328
sg107
g117
sg100
I5
sg109
F5.6110235939108994
sg110
g114
sbag1
(g96
g3
NtRp122
(dp123
g106
F-2.4558449475292186
sg107
g117
sg100
I6
sg109
F3.504332149839017
sg110
g114
sbag1
(g96
g3
NtRp124
(dp125
g106
F-1.6986722428937877
sg107
g117
sg100
I7
sg109
F5.573024430658446
sg110
g114
sbag1
(g96
g3
NtRp126
(dp127
g106
F1.5273669623639896
sg107
g117
sg100
I8
sg109
F5.0759179818958806
sg110
g114
sbasb.