ccopy_reg
_reconstructor
p1
(cneat.chromosome
Chromosome
p2
c__builtin__
object
p3
NtRp4
(dp5
S'species_id'
p6
I69
sS'_connection_genes'
p7
(dp8
(I1
I3
tp9
g1
(cneat.genome
ConnectionGene
p10
g3
NtRp11
(dp12
S'_ConnectionGene__weight'
p13
F13.985047504120043
sS'_ConnectionGene__in'
p14
I1
sS'_ConnectionGene__enabled'
p15
I01
sS'_ConnectionGene__out'
p16
I3
sS'_ConnectionGene__innov_number'
p17
I3
sbs(I11
I11
tp18
g1
(g10
g3
NtRp19
(dp20
g13
F5.3388208650845561
sg14
I11
sg15
I01
sg16
I11
sg17
I122
sbs(I6
I6
tp21
g1
(g10
g3
NtRp22
(dp23
g13
F17.858074187026162
sg14
I6
sg15
I01
sg16
I6
sg17
I39
sbs(I5
I6
tp24
g1
(g10
g3
NtRp25
(dp26
g13
F29.3745468619001
sg14
I5
sg15
I01
sg16
I6
sg17
I16
sbs(I9
I8
tp27
g1
(g10
g3
NtRp28
(dp29
g13
F-30
sg14
I9
sg15
I01
sg16
I8
sg17
I60
sbs(I10
I6
tp30
g1
(g10
g3
NtRp31
(dp32
g13
F-13.52349893808309
sg14
I10
sg15
I01
sg16
I6
sg17
I103
sbs(I9
I4
tp33
g1
(g10
g3
NtRp34
(dp35
g13
F22.71061578894874
sg14
I9
sg15
I01
sg16
I4
sg17
I77
sbs(I7
I2
tp36
g1
(g10
g3
NtRp37
(dp38
g13
F-5.3719299979334707
sg14
I7
sg15
I01
sg16
I2
sg17
I33
sbs(I1
I2
tp39
g1
(g10
g3
NtRp40
(dp41
g13
F23.187459101787088
sg14
I1
sg15
I01
sg16
I2
sg17
I1
sbs(I11
I10
tp42
g1
(g10
g3
NtRp43
(dp44
g13
F-3.9488571029093267
sg14
I11
sg15
I01
sg16
I10
sg17
I89
sbs(I4
I9
tp45
g1
(g10
g3
NtRp46
(dp47
g13
F10.864051847552338
sg14
I4
sg15
I01
sg16
I9
sg17
I44
sbs(I3
I3
tp48
g1
(g10
g3
NtRp49
(dp50
g13
F17.437534013731653
sg14
I3
sg15
I01
sg16
I3
sg17
I9
sbs(I3
I10
tp51
g1
(g10
g3
NtRp52
(dp53
g13
F-14.046613920933286
sg14
I3
sg15
I01
sg16
I10
sg17
I94
sbs(I4
I4
tp54
g1
(g10
g3
NtRp55
(dp56
g13
F26.765929295968991
sg14
I4
sg15
I01
sg16
I4
sg17
I15
sbs(I1
I5
tp57
g1
(g10
g3
NtRp58
(dp59
g13
F17.055853486045848
sg14
I1
sg15
I01
sg16
I5
sg17
I10
sbs(I9
I11
tp60
g1
(g10
g3
NtRp61
(dp62
g13
F-19.284370088650206
sg14
I9
sg15
I01
sg16
I11
sg17
I106
sbs(I3
I6
tp63
g1
(g10
g3
NtRp64
(dp65
g13
F-17.665589810329138
sg14
I3
sg15
I01
sg16
I6
sg17
I19
sbs(I2
I2
tp66
g1
(g10
g3
NtRp67
(dp68
g13
F21.574571180129173
sg14
I2
sg15
I01
sg16
I2
sg17
I2
sbs(I7
I9
tp69
g1
(g10
g3
NtRp70
(dp71
g13
F24.807354728951246
sg14
I7
sg15
I01
sg16
I9
sg17
I41
sbs(I10
I9
tp72
g1
(g10
g3
NtRp73
(dp74
g13
F24.652322331280558
sg14
I10
sg15
I01
sg16
I9
sg17
I58
sbs(I9
I7
tp75
g1
(g10
g3
NtRp76
(dp77
g13
F28.659418712984877
sg14
I9
sg15
I01
sg16
I7
sg17
I53
sbs(I3
I2
tp78
g1
(g10
g3
NtRp79
(dp80
g13
F-4.9279993656491259
sg14
I3
sg15
I01
sg16
I2
sg17
I4
sbs(I11
I4
tp81
g1
(g10
g3
NtRp82
(dp83
g13
F22.631231498893108
sg14
I11
sg15
I01
sg16
I4
sg17
I101
sbs(I10
I4
tp84
g1
(g10
g3
NtRp85
(dp86
g13
F-4.3038620564697645
sg14
I10
sg15
I01
sg16
I4
sg17
I90
sbs(I4
I5
tp87
g1
(g10
g3
NtRp88
(dp89
g13
F-16.11906360422342
sg14
I4
sg15
I01
sg16
I5
sg17
I30
sbs(I8
I11
tp90
g1
(g10
g3
NtRp91
(dp92
g13
F-16.104542990427802
sg14
I8
sg15
I01
sg16
I11
sg17
I80
sbs(I1
I4
tp93
g1
(g10
g3
NtRp94
(dp95
g13
F-5.1338202056453417
sg14
I1
sg15
I01
sg16
I4
sg17
I8
sbs(I2
I3
tp96
g1
(g10
g3
NtRp97
(dp98
g13
F-18.670482244028861
sg14
I2
sg15
I01
sg16
I3
sg17
I7
sbs(I4
I2
tp99
g1
(g10
g3
NtRp100
(dp101
g13
F8.6704709992374411
sg14
I4
sg15
I01
sg16
I2
sg17
I6
sbs(I6
I5
tp102
g1
(g10
g3
NtRp103
(dp104
g13
F5.5580098783037482
sg14
I6
sg15
I01
sg16
I5
sg17
I23
sbs(I5
I3
tp105
g1
(g10
g3
NtRp106
(dp107
g13
F7.9655838900692268
sg14
I5
sg15
I01
sg16
I3
sg17
I14
sbs(I3
I5
tp108
g1
(g10
g3
NtRp109
(dp110
g13
F3.7187964495686163
sg14
I3
sg15
I01
sg16
I5
sg17
I13
sbs(I8
I3
tp111
g1
(g10
g3
NtRp112
(dp113
g13
F23.428400692497419
sg14
I8
sg15
I01
sg16
I3
sg17
I71
sbs(I3
I4
tp114
g1
(g10
g3
NtRp115
(dp116
g13
F12.89221728141619
sg14
I3
sg15
I00
sg16
I4
sg17
I5
sbs(I5
I7
tp117
g1
(g10
g3
NtRp118
(dp119
g13
F-25.41989684056994
sg14
I5
sg15
I01
sg16
I7
sg17
I28
sbs(I3
I8
tp120
g1
(g10
g3
NtRp121
(dp122
g13
F9.8527621456832239
sg14
I3
sg15
I01
sg16
I8
sg17
I49
sbs(I4
I3
tp123
g1
(g10
g3
NtRp124
(dp125
g13
F1.2334246868057965
sg14
I4
sg15
I01
sg16
I3
sg17
I12
sbs(I5
I2
tp126
g1
(g10
g3
NtRp127
(dp128
g13
F28.301719323703015
sg14
I5
sg15
I01
sg16
I2
sg17
I11
sbs(I2
I4
tp129
g1
(g10
g3
NtRp130
(dp131
g13
F30
sg14
I2
sg15
I01
sg16
I4
sg17
I24
sbs(I8
I4
tp132
g1
(g10
g3
NtRp133
(dp134
g13
F-26.559123056687429
sg14
I8
sg15
I01
sg16
I4
sg17
I40
sbssS'_input_nodes'
p135
I1
sS'_output_nodes'
p136
I1
sS'_node_gene_type'
p137
cneat.genome
NodeGene
p138
sS'_conn_gene_type'
p139
g10
sS'fitness'
p140
F0.94479868815335266
sS'parent2_id'
p141
I7360
sS'_id'
p142
I7377
sS'parent1_id'
p143
I7360
sS'_node_genes'
p144
(lp145
g1
(g138
g3
NtRp146
(dp147
S'_bias'
p148
I0
sS'_type'
p149
S'INPUT'
p150
sg142
I1
sS'_response'
p151
F4.9242730000000003
sS'_activation_type'
p152
Nsbag1
(g138
g3
NtRp153
(dp154
g148
F-6.2097712434557133
sg149
S'OUTPUT'
p155
sg142
I2
sg151
F4.0166872535487634
sg152
S'tanh'
p156
sbag1
(g138
g3
NtRp157
(dp158
g148
F-3.1916530378129013
sg149
S'HIDDEN'
p159
sg142
I3
sg151
F4.7680911971922058
sg152
g156
sbag1
(g138
g3
NtRp160
(dp161
g148
F4.7812091002848929
sg149
g159
sg142
I4
sg151
F2.5719053629294377
sg152
g156
sbag1
(g138
g3
NtRp162
(dp163
g148
F5.4065030858194776
sg149
g159
sg142
I5
sg151
F11.787388556558799
sg152
g156
sbag1
(g138
g3
NtRp164
(dp165
g148
F-1.9206569103603597
sg149
g159
sg142
I6
sg151
F1.9399414640400874
sg152
g156
sbag1
(g138
g3
NtRp166
(dp167
g148
F-3.1844602691765571
sg149
g159
sg142
I7
sg151
F6.2077868696872764
sg152
g156
sbag1
(g138
g3
NtRp168
(dp169
g148
F-1.6630768618696123
sg149
g159
sg142
I8
sg151
F8.6856669501714876
sg152
g156
sbag1
(g138
g3
NtRp170
(dp171
g148
F2.7491578426771519
sg149
g159
sg142
I9
sg151
F5.5025742993890621
sg152
g156
sbag1
(g138
g3
NtRp172
(dp173
g148
F2.1895595834981578
sg149
g159
sg142
I10
sg151
F5.2860321923149263
sg152
g156
sbag1
(g138
g3
NtRp174
(dp175
g148
F0.014298082197944928
sg149
g159
sg142
I11
sg151
F5.0650305968332789
sg152
g156
sbasb.