ccopy_reg
_reconstructor
p1
(cneat.chromosome
Chromosome
p2
c__builtin__
object
p3
NtRp4
(dp5
S'species_id'
p6
I39
sS'_connection_genes'
p7
(dp8
(I1
I3
tp9
g1
(cneat.genome
ConnectionGene
p10
g3
NtRp11
(dp12
S'_ConnectionGene__weight'
p13
F16.725535618922546
sS'_ConnectionGene__in'
p14
I1
sS'_ConnectionGene__enabled'
p15
I01
sS'_ConnectionGene__out'
p16
I3
sS'_ConnectionGene__innov_number'
p17
I3
sbs(I6
I6
tp18
g1
(g10
g3
NtRp19
(dp20
g13
F10.948990119503881
sg14
I6
sg15
I01
sg16
I6
sg17
I39
sbs(I5
I6
tp21
g1
(g10
g3
NtRp22
(dp23
g13
F-4.9152251116277998
sg14
I5
sg15
I01
sg16
I6
sg17
I16
sbs(I9
I8
tp24
g1
(g10
g3
NtRp25
(dp26
g13
F-11.456043005637403
sg14
I9
sg15
I01
sg16
I8
sg17
I60
sbs(I9
I4
tp27
g1
(g10
g3
NtRp28
(dp29
g13
F18.767584664654997
sg14
I9
sg15
I01
sg16
I4
sg17
I77
sbs(I7
I2
tp30
g1
(g10
g3
NtRp31
(dp32
g13
F-3.8624498916914423
sg14
I7
sg15
I01
sg16
I2
sg17
I33
sbs(I1
I2
tp33
g1
(g10
g3
NtRp34
(dp35
g13
F4.9848998703744369
sg14
I1
sg15
I01
sg16
I2
sg17
I1
sbs(I4
I9
tp36
g1
(g10
g3
NtRp37
(dp38
g13
F4.3977969461665385
sg14
I4
sg15
I01
sg16
I9
sg17
I44
sbs(I3
I3
tp39
g1
(g10
g3
NtRp40
(dp41
g13
F21.048585236043664
sg14
I3
sg15
I01
sg16
I3
sg17
I9
sbs(I4
I4
tp42
g1
(g10
g3
NtRp43
(dp44
g13
F18.707676815872379
sg14
I4
sg15
I00
sg16
I4
sg17
I15
sbs(I1
I5
tp45
g1
(g10
g3
NtRp46
(dp47
g13
F-1.4111822640020979
sg14
I1
sg15
I01
sg16
I5
sg17
I10
sbs(I3
I6
tp48
g1
(g10
g3
NtRp49
(dp50
g13
F0.2926899892379986
sg14
I3
sg15
I01
sg16
I6
sg17
I19
sbs(I2
I2
tp51
g1
(g10
g3
NtRp52
(dp53
g13
F3.9714459076951099
sg14
I2
sg15
I01
sg16
I2
sg17
I2
sbs(I3
I5
tp54
g1
(g10
g3
NtRp55
(dp56
g13
F6.4088743561584165
sg14
I3
sg15
I01
sg16
I5
sg17
I13
sbs(I3
I2
tp57
g1
(g10
g3
NtRp58
(dp59
g13
F0.08389164183432074
sg14
I3
sg15
I01
sg16
I2
sg17
I4
sbs(I4
I5
tp60
g1
(g10
g3
NtRp61
(dp62
g13
F-0.11664480859222648
sg14
I4
sg15
I01
sg16
I5
sg17
I30
sbs(I7
I9
tp63
g1
(g10
g3
NtRp64
(dp65
g13
F0.61377891270532448
sg14
I7
sg15
I01
sg16
I9
sg17
I41
sbs(I1
I4
tp66
g1
(g10
g3
NtRp67
(dp68
g13
F13.852726750867406
sg14
I1
sg15
I01
sg16
I4
sg17
I8
sbs(I2
I3
tp69
g1
(g10
g3
NtRp70
(dp71
g13
F-22.844346887299182
sg14
I2
sg15
I01
sg16
I3
sg17
I7
sbs(I4
I2
tp72
g1
(g10
g3
NtRp73
(dp74
g13
F10.595963340863637
sg14
I4
sg15
I01
sg16
I2
sg17
I6
sbs(I6
I5
tp75
g1
(g10
g3
NtRp76
(dp77
g13
F5.0182927795479317
sg14
I6
sg15
I01
sg16
I5
sg17
I23
sbs(I5
I3
tp78
g1
(g10
g3
NtRp79
(dp80
g13
F9.2528262222346935
sg14
I5
sg15
I01
sg16
I3
sg17
I14
sbs(I8
I3
tp81
g1
(g10
g3
NtRp82
(dp83
g13
F8.3015032893550273
sg14
I8
sg15
I01
sg16
I3
sg17
I71
sbs(I5
I2
tp84
g1
(g10
g3
NtRp85
(dp86
g13
F14.57271917497048
sg14
I5
sg15
I01
sg16
I2
sg17
I11
sbs(I5
I7
tp87
g1
(g10
g3
NtRp88
(dp89
g13
F14.131428429751409
sg14
I5
sg15
I01
sg16
I7
sg17
I28
sbs(I3
I8
tp90
g1
(g10
g3
NtRp91
(dp92
g13
F19.437871942229947
sg14
I3
sg15
I01
sg16
I8
sg17
I49
sbs(I4
I3
tp93
g1
(g10
g3
NtRp94
(dp95
g13
F-1.911055901723886
sg14
I4
sg15
I01
sg16
I3
sg17
I12
sbs(I3
I4
tp96
g1
(g10
g3
NtRp97
(dp98
g13
F-8.1259748406593353
sg14
I3
sg15
I00
sg16
I4
sg17
I5
sbs(I2
I4
tp99
g1
(g10
g3
NtRp100
(dp101
g13
F-4.5774401681645625
sg14
I2
sg15
I01
sg16
I4
sg17
I24
sbs(I8
I4
tp102
g1
(g10
g3
NtRp103
(dp104
g13
F-3.9378356519399031
sg14
I8
sg15
I01
sg16
I4
sg17
I40
sbssS'_input_nodes'
p105
I1
sS'_output_nodes'
p106
I1
sS'_node_gene_type'
p107
cneat.genome
NodeGene
p108
sS'_conn_gene_type'
p109
g10
sS'fitness'
p110
F0.9962255561656348
sS'parent2_id'
p111
I4381
sS'_id'
p112
I4400
sS'parent1_id'
p113
I4381
sS'_node_genes'
p114
(lp115
g1
(g108
g3
NtRp116
(dp117
S'_bias'
p118
I0
sS'_type'
p119
S'INPUT'
p120
sg112
I1
sS'_response'
p121
F4.9242730000000003
sS'_activation_type'
p122
Nsbag1
(g108
g3
NtRp123
(dp124
g118
F0.51075204724089251
sg119
S'OUTPUT'
p125
sg112
I2
sg121
F4.7229856037944948
sg122
S'tanh'
p126
sbag1
(g108
g3
NtRp127
(dp128
g118
F-1.7961106463503951
sg119
S'HIDDEN'
p129
sg112
I3
sg121
F2.3375292804235643
sg122
g126
sbag1
(g108
g3
NtRp130
(dp131
g118
F-0.060197685325815486
sg119
g129
sg112
I4
sg121
F6.1922086424600646
sg122
g126
sbag1
(g108
g3
NtRp132
(dp133
g118
F2.6513504152092939
sg119
g129
sg112
I5
sg121
F6.5546843770062759
sg122
g126
sbag1
(g108
g3
NtRp134
(dp135
g118
F-1.208856710306927
sg119
g129
sg112
I6
sg121
F3.3625132752793618
sg122
g126
sbag1
(g108
g3
NtRp136
(dp137
g118
F-1.6360267737481331
sg119
g129
sg112
I7
sg121
F5.9215685197573036
sg122
g126
sbag1
(g108
g3
NtRp138
(dp139
g118
F0.0023407938844991483
sg119
g129
sg112
I8
sg121
F5.251681329865912
sg122
g126
sbag1
(g108
g3
NtRp140
(dp141
g118
F0.67160593613699537
sg119
g129
sg112
I9
sg121
F4.632797819652561
sg122
g126
sbasb.