ccopy_reg
_reconstructor
p1
(cneat.chromosome
Chromosome
p2
c__builtin__
object
p3
NtRp4
(dp5
S'species_id'
p6
I28
sS'_connection_genes'
p7
(dp8
(I1
I3
tp9
g1
(cneat.genome
ConnectionGene
p10
g3
NtRp11
(dp12
S'_ConnectionGene__weight'
p13
F11.055196706423047
sS'_ConnectionGene__in'
p14
I1
sS'_ConnectionGene__enabled'
p15
I01
sS'_ConnectionGene__out'
p16
I3
sS'_ConnectionGene__innov_number'
p17
I3
sbs(I5
I6
tp18
g1
(g10
g3
NtRp19
(dp20
g13
F-15.506147516270971
sg14
I5
sg15
I01
sg16
I6
sg17
I16
sbs(I3
I7
tp21
g1
(g10
g3
NtRp22
(dp23
g13
F-0.092435683667910551
sg14
I3
sg15
I00
sg16
I7
sg17
I26
sbs(I8
I5
tp24
g1
(g10
g3
NtRp25
(dp26
g13
F1.5364995142544005
sg14
I8
sg15
I01
sg16
I5
sg17
I36
sbs(I7
I2
tp27
g1
(g10
g3
NtRp28
(dp29
g13
F4.9352497082701161
sg14
I7
sg15
I01
sg16
I2
sg17
I33
sbs(I1
I2
tp30
g1
(g10
g3
NtRp31
(dp32
g13
F6.0906939412822094
sg14
I1
sg15
I01
sg16
I2
sg17
I1
sbs(I3
I3
tp33
g1
(g10
g3
NtRp34
(dp35
g13
F-3.8983813548861956
sg14
I3
sg15
I01
sg16
I3
sg17
I9
sbs(I3
I6
tp36
g1
(g10
g3
NtRp37
(dp38
g13
F-0.56098278787995381
sg14
I3
sg15
I01
sg16
I6
sg17
I19
sbs(I2
I2
tp39
g1
(g10
g3
NtRp40
(dp41
g13
F0.25086876814816061
sg14
I2
sg15
I01
sg16
I2
sg17
I2
sbs(I5
I3
tp42
g1
(g10
g3
NtRp43
(dp44
g13
F16.427932495249422
sg14
I5
sg15
I01
sg16
I3
sg17
I14
sbs(I9
I7
tp45
g1
(g10
g3
NtRp46
(dp47
g13
F-2.2075017094214524
sg14
I9
sg15
I01
sg16
I7
sg17
I53
sbs(I3
I2
tp48
g1
(g10
g3
NtRp49
(dp50
g13
F19.981813162830377
sg14
I3
sg15
I00
sg16
I2
sg17
I4
sbs(I1
I4
tp51
g1
(g10
g3
NtRp52
(dp53
g13
F6.3701327610558005
sg14
I1
sg15
I01
sg16
I4
sg17
I8
sbs(I3
I9
tp54
g1
(g10
g3
NtRp55
(dp56
g13
F1.930161977761065
sg14
I3
sg15
I01
sg16
I9
sg17
I61
sbs(I2
I3
tp57
g1
(g10
g3
NtRp58
(dp59
g13
F11.915477470989465
sg14
I2
sg15
I01
sg16
I3
sg17
I7
sbs(I4
I2
tp60
g1
(g10
g3
NtRp61
(dp62
g13
F13.364542297342616
sg14
I4
sg15
I01
sg16
I2
sg17
I6
sbs(I6
I5
tp63
g1
(g10
g3
NtRp64
(dp65
g13
F5.7835924235935874
sg14
I6
sg15
I00
sg16
I5
sg17
I23
sbs(I3
I5
tp66
g1
(g10
g3
NtRp67
(dp68
g13
F6.3718857820677446
sg14
I3
sg15
I01
sg16
I5
sg17
I13
sbs(I6
I8
tp69
g1
(g10
g3
NtRp70
(dp71
g13
F-8.0372931559579683
sg14
I6
sg15
I01
sg16
I8
sg17
I56
sbs(I3
I4
tp72
g1
(g10
g3
NtRp73
(dp74
g13
F20.455702771734366
sg14
I3
sg15
I01
sg16
I4
sg17
I5
sbs(I5
I2
tp75
g1
(g10
g3
NtRp76
(dp77
g13
F21.931338157917967
sg14
I5
sg15
I01
sg16
I2
sg17
I11
sbs(I2
I4
tp78
g1
(g10
g3
NtRp79
(dp80
g13
F-11.147510161568817
sg14
I2
sg15
I01
sg16
I4
sg17
I24
sbssS'_input_nodes'
p81
I1
sS'_output_nodes'
p82
I1
sS'_node_gene_type'
p83
cneat.genome
NodeGene
p84
sS'_conn_gene_type'
p85
g10
sS'fitness'
p86
F0.97804949492448168
sS'parent2_id'
p87
I2114
sS'_id'
p88
I2158
sS'parent1_id'
p89
I2132
sS'_node_genes'
p90
(lp91
g1
(g84
g3
NtRp92
(dp93
S'_bias'
p94
I0
sS'_type'
p95
S'INPUT'
p96
sg88
I1
sS'_response'
p97
F4.9242730000000003
sS'_activation_type'
p98
Nsbag1
(g84
g3
NtRp99
(dp100
g94
F0.65085701642137095
sg95
S'OUTPUT'
p101
sg88
I2
sg97
F3.9345946984831373
sg98
S'tanh'
p102
sbag1
(g84
g3
NtRp103
(dp104
g94
F0.575437302361407
sg95
S'HIDDEN'
p105
sg88
I3
sg97
F0.80685068566885365
sg98
g102
sbag1
(g84
g3
NtRp106
(dp107
g94
F-1.0408888006074544
sg95
g105
sg88
I4
sg97
F5.2458267956282398
sg98
g102
sbag1
(g84
g3
NtRp108
(dp109
g94
F2.905912428322019
sg95
g105
sg88
I5
sg97
F2.2590215655045114
sg98
g102
sbag1
(g84
g3
NtRp110
(dp111
g94
F-4.2153751671802153
sg95
g105
sg88
I6
sg97
F4.1931884332975402
sg98
g102
sbag1
(g84
g3
NtRp112
(dp113
g94
F-0.55926407146600254
sg95
g105
sg88
I7
sg97
F5.3859575836697999
sg98
g102
sbag1
(g84
g3
NtRp114
(dp115
g94
F1.3626372201045756
sg95
g105
sg88
I8
sg97
F3.0106166952895039
sg98
g102
sbag1
(g84
g3
NtRp116
(dp117
g94
I0
sg95
g105
sg88
I9
sg97
F4.8939880461653367
sg98
g102
sbasb.