ccopy_reg
_reconstructor
p1
(cneat.chromosome
Chromosome
p2
c__builtin__
object
p3
NtRp4
(dp5
S'species_id'
p6
I57
sS'_connection_genes'
p7
(dp8
(I3
I15
tp9
g1
(cneat.genome
ConnectionGene
p10
g3
NtRp11
(dp12
S'_ConnectionGene__weight'
p13
F-8.627862386713943
sS'_ConnectionGene__in'
p14
I3
sS'_ConnectionGene__enabled'
p15
I01
sS'_ConnectionGene__out'
p16
I15
sS'_ConnectionGene__innov_number'
p17
I151
sbs(I1
I3
tp18
g1
(g10
g3
NtRp19
(dp20
g13
F26.901417914222463
sg14
I1
sg15
I01
sg16
I3
sg17
I3
sbs(I6
I6
tp21
g1
(g10
g3
NtRp22
(dp23
g13
F15.448228565161289
sg14
I6
sg15
I01
sg16
I6
sg17
I39
sbs(I5
I6
tp24
g1
(g10
g3
NtRp25
(dp26
g13
F1.0475936271350617
sg14
I5
sg15
I01
sg16
I6
sg17
I16
sbs(I9
I8
tp27
g1
(g10
g3
NtRp28
(dp29
g13
F-10.447032048863901
sg14
I9
sg15
I01
sg16
I8
sg17
I60
sbs(I16
I2
tp30
g1
(g10
g3
NtRp31
(dp32
g13
F22.150689558983693
sg14
I16
sg15
I01
sg16
I2
sg17
I161
sbs(I4
I12
tp33
g1
(g10
g3
NtRp34
(dp35
g13
F2.2765869961681648
sg14
I4
sg15
I01
sg16
I12
sg17
I102
sbs(I9
I4
tp36
g1
(g10
g3
NtRp37
(dp38
g13
F14.803457386500346
sg14
I9
sg15
I01
sg16
I4
sg17
I77
sbs(I7
I2
tp39
g1
(g10
g3
NtRp40
(dp41
g13
F-18.818041116621025
sg14
I7
sg15
I01
sg16
I2
sg17
I33
sbs(I12
I14
tp42
g1
(g10
g3
NtRp43
(dp44
g13
F-5.034495409601516
sg14
I12
sg15
I01
sg16
I14
sg17
I147
sbs(I1
I2
tp45
g1
(g10
g3
NtRp46
(dp47
g13
F19.210598579691727
sg14
I1
sg15
I01
sg16
I2
sg17
I1
sbs(I4
I9
tp48
g1
(g10
g3
NtRp49
(dp50
g13
F13.048727938258729
sg14
I4
sg15
I01
sg16
I9
sg17
I44
sbs(I3
I3
tp51
g1
(g10
g3
NtRp52
(dp53
g13
F23.188549067845781
sg14
I3
sg15
I01
sg16
I3
sg17
I9
sbs(I1
I16
tp54
g1
(g10
g3
NtRp55
(dp56
g13
F1.6530664091261347
sg14
I1
sg15
I01
sg16
I16
sg17
I165
sbs(I4
I4
tp57
g1
(g10
g3
NtRp58
(dp59
g13
F18.345164312143716
sg14
I4
sg15
I01
sg16
I4
sg17
I15
sbs(I1
I5
tp60
g1
(g10
g3
NtRp61
(dp62
g13
F5.5489363684254336
sg14
I1
sg15
I01
sg16
I5
sg17
I10
sbs(I6
I5
tp63
g1
(g10
g3
NtRp64
(dp65
g13
F21.241758757822776
sg14
I6
sg15
I01
sg16
I5
sg17
I23
sbs(I3
I6
tp66
g1
(g10
g3
NtRp67
(dp68
g13
F12.909579772226282
sg14
I3
sg15
I00
sg16
I6
sg17
I19
sbs(I2
I2
tp69
g1
(g10
g3
NtRp70
(dp71
g13
F1.5577873966554334
sg14
I2
sg15
I01
sg16
I2
sg17
I2
sbs(I5
I7
tp72
g1
(g10
g3
NtRp73
(dp74
g13
F14.057667455158908
sg14
I5
sg15
I01
sg16
I7
sg17
I28
sbs(I5
I3
tp75
g1
(g10
g3
NtRp76
(dp77
g13
F6.3236254134939944
sg14
I5
sg15
I01
sg16
I3
sg17
I14
sbs(I11
I2
tp78
g1
(g10
g3
NtRp79
(dp80
g13
F18.064912116193128
sg14
I11
sg15
I01
sg16
I2
sg17
I74
sbs(I14
I11
tp81
g1
(g10
g3
NtRp82
(dp83
g13
F6.1696635908840403
sg14
I14
sg15
I01
sg16
I11
sg17
I148
sbs(I3
I2
tp84
g1
(g10
g3
NtRp85
(dp86
g13
F-12.750198911013682
sg14
I3
sg15
I01
sg16
I2
sg17
I4
sbs(I10
I4
tp87
g1
(g10
g3
NtRp88
(dp89
g13
F-10.930481066038332
sg14
I10
sg15
I01
sg16
I4
sg17
I90
sbs(I4
I5
tp90
g1
(g10
g3
NtRp91
(dp92
g13
F-9.0000727822360336
sg14
I4
sg15
I01
sg16
I5
sg17
I30
sbs(I1
I4
tp93
g1
(g10
g3
NtRp94
(dp95
g13
F30
sg14
I1
sg15
I01
sg16
I4
sg17
I8
sbs(I2
I10
tp96
g1
(g10
g3
NtRp97
(dp98
g13
F5.3159769439428022
sg14
I2
sg15
I01
sg16
I10
sg17
I57
sbs(I2
I3
tp99
g1
(g10
g3
NtRp100
(dp101
g13
F-3.7162695005406445
sg14
I2
sg15
I01
sg16
I3
sg17
I7
sbs(I12
I11
tp102
g1
(g10
g3
NtRp103
(dp104
g13
F2.837294446743801
sg14
I12
sg15
I00
sg16
I11
sg17
I84
sbs(I4
I2
tp105
g1
(g10
g3
NtRp106
(dp107
g13
F30
sg14
I4
sg15
I00
sg16
I2
sg17
I6
sbs(I4
I11
tp108
g1
(g10
g3
NtRp109
(dp110
g13
F6.7389972438317578
sg14
I4
sg15
I00
sg16
I11
sg17
I75
sbs(I7
I9
tp111
g1
(g10
g3
NtRp112
(dp113
g13
F-5.528181007117599
sg14
I7
sg15
I01
sg16
I9
sg17
I41
sbs(I3
I5
tp114
g1
(g10
g3
NtRp115
(dp116
g13
F24.578409389994874
sg14
I3
sg15
I01
sg16
I5
sg17
I13
sbs(I8
I3
tp117
g1
(g10
g3
NtRp118
(dp119
g13
F7.9559581746753683
sg14
I8
sg15
I01
sg16
I3
sg17
I71
sbs(I5
I10
tp120
g1
(g10
g3
NtRp121
(dp122
g13
F1.9162653520596227
sg14
I5
sg15
I01
sg16
I10
sg17
I82
sbs(I5
I2
tp123
g1
(g10
g3
NtRp124
(dp125
g13
F21.595529724380711
sg14
I5
sg15
I01
sg16
I2
sg17
I11
sbs(I7
I13
tp126
g1
(g10
g3
NtRp127
(dp128
g13
F5.9097418566377433
sg14
I7
sg15
I01
sg16
I13
sg17
I136
sbs(I14
I7
tp129
g1
(g10
g3
NtRp130
(dp131
g13
F8.0752250484768346
sg14
I14
sg15
I01
sg16
I7
sg17
I149
sbs(I3
I8
tp132
g1
(g10
g3
NtRp133
(dp134
g13
F12.06870439983169
sg14
I3
sg15
I01
sg16
I8
sg17
I49
sbs(I15
I6
tp135
g1
(g10
g3
NtRp136
(dp137
g13
F-8.4857211907370065
sg14
I15
sg15
I01
sg16
I6
sg17
I152
sbs(I4
I3
tp138
g1
(g10
g3
NtRp139
(dp140
g13
F-6.8308006445279634
sg14
I4
sg15
I01
sg16
I3
sg17
I12
sbs(I13
I9
tp141
g1
(g10
g3
NtRp142
(dp143
g13
F2.0979174194514982
sg14
I13
sg15
I01
sg16
I9
sg17
I137
sbs(I3
I4
tp144
g1
(g10
g3
NtRp145
(dp146
g13
F-24.796582507111527
sg14
I3
sg15
I01
sg16
I4
sg17
I5
sbs(I2
I4
tp147
g1
(g10
g3
NtRp148
(dp149
g13
F-29.198240163127121
sg14
I2
sg15
I01
sg16
I4
sg17
I24
sbs(I8
I4
tp150
g1
(g10
g3
NtRp151
(dp152
g13
F-7.9128249386946656
sg14
I8
sg15
I01
sg16
I4
sg17
I40
sbssS'_input_nodes'
p153
I1
sS'_output_nodes'
p154
I1
sS'_node_gene_type'
p155
cneat.genome
NodeGene
p156
sS'_conn_gene_type'
p157
g10
sS'fitness'
p158
F0.98399864781521074
sS'parent2_id'
p159
I5952
sS'_id'
p160
I5969
sS'parent1_id'
p161
I5952
sS'_node_genes'
p162
(lp163
g1
(g156
g3
NtRp164
(dp165
S'_bias'
p166
I0
sS'_type'
p167
S'INPUT'
p168
sg160
I1
sS'_response'
p169
F4.9242730000000003
sS'_activation_type'
p170
Nsbag1
(g156
g3
NtRp171
(dp172
g166
F-1.0905452534480802
sg167
S'OUTPUT'
p173
sg160
I2
sg169
F3.2874239349495213
sg170
S'tanh'
p174
sbag1
(g156
g3
NtRp175
(dp176
g166
F-4.8903747524903496
sg167
S'HIDDEN'
p177
sg160
I3
sg169
F0.72293988180268298
sg170
g174
sbag1
(g156
g3
NtRp178
(dp179
g166
F-0.76931729564575524
sg167
g177
sg160
I4
sg169
F2.352470287915521
sg170
g174
sbag1
(g156
g3
NtRp180
(dp181
g166
F1.3411910593423613
sg167
g177
sg160
I5
sg169
F3.1178196200244352
sg170
g174
sbag1
(g156
g3
NtRp182
(dp183
g166
F-2.2362339648587306
sg167
g177
sg160
I6
sg169
F-0.70393029060399592
sg170
g174
sbag1
(g156
g3
NtRp184
(dp185
g166
F-4.6036425607003215
sg167
g177
sg160
I7
sg169
F2.8075917038242291
sg170
g174
sbag1
(g156
g3
NtRp186
(dp187
g166
F0.62400220213649094
sg167
g177
sg160
I8
sg169
F5.6056256812969476
sg170
g174
sbag1
(g156
g3
NtRp188
(dp189
g166
F2.2553597244244021
sg167
g177
sg160
I9
sg169
F6.4730037391558097
sg170
g174
sbag1
(g156
g3
NtRp190
(dp191
g166
F-0.28388541333111394
sg167
g177
sg160
I10
sg169
F4.8295131892275798
sg170
g174
sbag1
(g156
g3
NtRp192
(dp193
g166
F0.96873795437656063
sg167
g177
sg160
I11
sg169
F5.8170868418444348
sg170
g174
sbag1
(g156
g3
NtRp194
(dp195
g166
F-1.0326384831616886
sg167
g177
sg160
I12
sg169
F6.8807677309714821
sg170
g174
sbag1
(g156
g3
NtRp196
(dp197
g166
F0.94028144650268342
sg167
g177
sg160
I13
sg169
F4.268452710693392
sg170
g174
sbag1
(g156
g3
NtRp198
(dp199
g166
F1.0217120246957956
sg167
g177
sg160
I14
sg169
F4.3132785767623334
sg170
g174
sbag1
(g156
g3
NtRp200
(dp201
g166
F0.40657875248330105
sg167
g177
sg160
I15
sg169
F5.2830067435992616
sg170
g174
sbag1
(g156
g3
NtRp202
(dp203
g166
F0.84779277578155388
sg167
g177
sg160
I16
sg169
F4.8560457629323253
sg170
g174
sbasb.