ccopy_reg
_reconstructor
p1
(cneat.chromosome
Chromosome
p2
c__builtin__
object
p3
NtRp4
(dp5
S'species_id'
p6
I8
sS'_connection_genes'
p7
(dp8
(I1
I2
tp9
g1
(cneat.genome
ConnectionGene
p10
g3
NtRp11
(dp12
S'_ConnectionGene__weight'
p13
F2.2998686616686177
sS'_ConnectionGene__in'
p14
I1
sS'_ConnectionGene__enabled'
p15
I00
sS'_ConnectionGene__out'
p16
I2
sS'_ConnectionGene__innov_number'
p17
I1
sbs(I3
I2
tp18
g1
(g10
g3
NtRp19
(dp20
g13
F16.489417056836388
sg14
I3
sg15
I00
sg16
I2
sg17
I4
sbs(I1
I3
tp21
g1
(g10
g3
NtRp22
(dp23
g13
F5.1380300279901334
sg14
I1
sg15
I01
sg16
I3
sg17
I3
sbs(I3
I4
tp24
g1
(g10
g3
NtRp25
(dp26
g13
F5.6989087997900896
sg14
I3
sg15
I01
sg16
I4
sg17
I5
sbs(I1
I4
tp27
g1
(g10
g3
NtRp28
(dp29
g13
F11.52927780479868
sg14
I1
sg15
I01
sg16
I4
sg17
I8
sbs(I2
I3
tp30
g1
(g10
g3
NtRp31
(dp32
g13
F4.0417355769170218
sg14
I2
sg15
I01
sg16
I3
sg17
I7
sbs(I3
I6
tp33
g1
(g10
g3
NtRp34
(dp35
g13
F1.0406350149504091
sg14
I3
sg15
I01
sg16
I6
sg17
I19
sbs(I4
I2
tp36
g1
(g10
g3
NtRp37
(dp38
g13
F9.1771338623304111
sg14
I4
sg15
I01
sg16
I2
sg17
I6
sbs(I5
I3
tp39
g1
(g10
g3
NtRp40
(dp41
g13
F-5.570951489285993
sg14
I5
sg15
I01
sg16
I3
sg17
I14
sbs(I5
I2
tp42
g1
(g10
g3
NtRp43
(dp44
g13
F20.368818169461964
sg14
I5
sg15
I01
sg16
I2
sg17
I11
sbs(I6
I5
tp45
g1
(g10
g3
NtRp46
(dp47
g13
F9.7214654041774402
sg14
I6
sg15
I01
sg16
I5
sg17
I23
sbs(I3
I5
tp48
g1
(g10
g3
NtRp49
(dp50
g13
F11.313855391377579
sg14
I3
sg15
I01
sg16
I5
sg17
I13
sbssS'_input_nodes'
p51
I1
sS'_output_nodes'
p52
I1
sS'_node_gene_type'
p53
cneat.genome
NodeGene
p54
sS'_conn_gene_type'
p55
g10
sS'fitness'
p56
F0.46583375394493398
sS'parent2_id'
p57
I661
sS'_id'
p58
I673
sS'parent1_id'
p59
I661
sS'_node_genes'
p60
(lp61
g1
(g54
g3
NtRp62
(dp63
S'_bias'
p64
I0
sS'_type'
p65
S'INPUT'
p66
sg58
I1
sS'_response'
p67
F4.9242730000000003
sS'_activation_type'
p68
Nsbag1
(g54
g3
NtRp69
(dp70
g64
F0.31234800811330438
sg65
S'OUTPUT'
p71
sg58
I2
sg67
F4.738002413586889
sg68
S'tanh'
p72
sbag1
(g54
g3
NtRp73
(dp74
g64
F2.1525852761738049
sg65
S'HIDDEN'
p75
sg58
I3
sg67
F4.215258653723736
sg68
g72
sbag1
(g54
g3
NtRp76
(dp77
g64
F-1.7603227761883222
sg65
g75
sg58
I4
sg67
F4.5421003106984754
sg68
g72
sbag1
(g54
g3
NtRp78
(dp79
g64
F1.2009740226045691
sg65
g75
sg58
I5
sg67
F3.9672171639531331
sg68
g72
sbag1
(g54
g3
NtRp80
(dp81
g64
I0
sg65
g75
sg58
I6
sg67
F4.9787231825335354
sg68
g72
sbasb.