ccopy_reg
_reconstructor
p1
(cneat.chromosome
Chromosome
p2
c__builtin__
object
p3
NtRp4
(dp5
S'species_id'
p6
I73
sS'_connection_genes'
p7
(dp8
(I1
I3
tp9
g1
(cneat.genome
ConnectionGene
p10
g3
NtRp11
(dp12
S'_ConnectionGene__weight'
p13
F9.0103632283690729
sS'_ConnectionGene__in'
p14
I1
sS'_ConnectionGene__enabled'
p15
I01
sS'_ConnectionGene__out'
p16
I3
sS'_ConnectionGene__innov_number'
p17
I3
sbs(I11
I11
tp18
g1
(g10
g3
NtRp19
(dp20
g13
F3.7950141064390781
sg14
I11
sg15
I01
sg16
I11
sg17
I122
sbs(I6
I6
tp21
g1
(g10
g3
NtRp22
(dp23
g13
F15.716575564500948
sg14
I6
sg15
I01
sg16
I6
sg17
I39
sbs(I5
I6
tp24
g1
(g10
g3
NtRp25
(dp26
g13
F30
sg14
I5
sg15
I01
sg16
I6
sg17
I16
sbs(I9
I8
tp27
g1
(g10
g3
NtRp28
(dp29
g13
F-29.062694349294574
sg14
I9
sg15
I01
sg16
I8
sg17
I60
sbs(I10
I6
tp30
g1
(g10
g3
NtRp31
(dp32
g13
F-22.531714810291554
sg14
I10
sg15
I01
sg16
I6
sg17
I103
sbs(I9
I4
tp33
g1
(g10
g3
NtRp34
(dp35
g13
F23.770518818552684
sg14
I9
sg15
I01
sg16
I4
sg17
I77
sbs(I7
I2
tp36
g1
(g10
g3
NtRp37
(dp38
g13
F-7.5322325075662917
sg14
I7
sg15
I01
sg16
I2
sg17
I33
sbs(I1
I2
tp39
g1
(g10
g3
NtRp40
(dp41
g13
F24.013303668259624
sg14
I1
sg15
I01
sg16
I2
sg17
I1
sbs(I11
I10
tp42
g1
(g10
g3
NtRp43
(dp44
g13
F-7.9887003416058802
sg14
I11
sg15
I01
sg16
I10
sg17
I89
sbs(I4
I9
tp45
g1
(g10
g3
NtRp46
(dp47
g13
F17.027213385285016
sg14
I4
sg15
I01
sg16
I9
sg17
I44
sbs(I3
I3
tp48
g1
(g10
g3
NtRp49
(dp50
g13
F25.495433718245589
sg14
I3
sg15
I01
sg16
I3
sg17
I9
sbs(I3
I10
tp51
g1
(g10
g3
NtRp52
(dp53
g13
F-12.134569963869053
sg14
I3
sg15
I01
sg16
I10
sg17
I94
sbs(I4
I4
tp54
g1
(g10
g3
NtRp55
(dp56
g13
F30
sg14
I4
sg15
I01
sg16
I4
sg17
I15
sbs(I1
I5
tp57
g1
(g10
g3
NtRp58
(dp59
g13
F18.604653280033304
sg14
I1
sg15
I01
sg16
I5
sg17
I10
sbs(I9
I11
tp60
g1
(g10
g3
NtRp61
(dp62
g13
F-15.481182342119554
sg14
I9
sg15
I01
sg16
I11
sg17
I106
sbs(I3
I6
tp63
g1
(g10
g3
NtRp64
(dp65
g13
F-9.7026328308334673
sg14
I3
sg15
I01
sg16
I6
sg17
I19
sbs(I2
I2
tp66
g1
(g10
g3
NtRp67
(dp68
g13
F23.504450142765315
sg14
I2
sg15
I01
sg16
I2
sg17
I2
sbs(I5
I3
tp69
g1
(g10
g3
NtRp70
(dp71
g13
F13.901117820066784
sg14
I5
sg15
I01
sg16
I3
sg17
I14
sbs(I10
I9
tp72
g1
(g10
g3
NtRp73
(dp74
g13
F11.712633919506352
sg14
I10
sg15
I01
sg16
I9
sg17
I58
sbs(I9
I7
tp75
g1
(g10
g3
NtRp76
(dp77
g13
F30
sg14
I9
sg15
I01
sg16
I7
sg17
I53
sbs(I3
I2
tp78
g1
(g10
g3
NtRp79
(dp80
g13
F-7.8639411414335267
sg14
I3
sg15
I01
sg16
I2
sg17
I4
sbs(I11
I4
tp81
g1
(g10
g3
NtRp82
(dp83
g13
F29.372042985203507
sg14
I11
sg15
I01
sg16
I4
sg17
I101
sbs(I10
I4
tp84
g1
(g10
g3
NtRp85
(dp86
g13
F0.85261885438410312
sg14
I10
sg15
I01
sg16
I4
sg17
I90
sbs(I4
I5
tp87
g1
(g10
g3
NtRp88
(dp89
g13
F-20.502814378444224
sg14
I4
sg15
I01
sg16
I5
sg17
I30
sbs(I8
I11
tp90
g1
(g10
g3
NtRp91
(dp92
g13
F-9.2593281229552495
sg14
I8
sg15
I01
sg16
I11
sg17
I80
sbs(I1
I4
tp93
g1
(g10
g3
NtRp94
(dp95
g13
F-7.7610599666097126
sg14
I1
sg15
I01
sg16
I4
sg17
I8
sbs(I2
I3
tp96
g1
(g10
g3
NtRp97
(dp98
g13
F-29.43274626654771
sg14
I2
sg15
I01
sg16
I3
sg17
I7
sbs(I4
I2
tp99
g1
(g10
g3
NtRp100
(dp101
g13
F-0.35881219261945763
sg14
I4
sg15
I01
sg16
I2
sg17
I6
sbs(I6
I5
tp102
g1
(g10
g3
NtRp103
(dp104
g13
F2.7213467202754864
sg14
I6
sg15
I01
sg16
I5
sg17
I23
sbs(I7
I9
tp105
g1
(g10
g3
NtRp106
(dp107
g13
F28.69368097514996
sg14
I7
sg15
I01
sg16
I9
sg17
I41
sbs(I3
I5
tp108
g1
(g10
g3
NtRp109
(dp110
g13
F-1.7579769608065967
sg14
I3
sg15
I01
sg16
I5
sg17
I13
sbs(I8
I3
tp111
g1
(g10
g3
NtRp112
(dp113
g13
F22.435264696563451
sg14
I8
sg15
I01
sg16
I3
sg17
I71
sbs(I5
I2
tp114
g1
(g10
g3
NtRp115
(dp116
g13
F19.829397121986808
sg14
I5
sg15
I01
sg16
I2
sg17
I11
sbs(I5
I7
tp117
g1
(g10
g3
NtRp118
(dp119
g13
F-23.276539699186902
sg14
I5
sg15
I01
sg16
I7
sg17
I28
sbs(I3
I8
tp120
g1
(g10
g3
NtRp121
(dp122
g13
F13.228035280946154
sg14
I3
sg15
I01
sg16
I8
sg17
I49
sbs(I4
I3
tp123
g1
(g10
g3
NtRp124
(dp125
g13
F-1.2999031075594378
sg14
I4
sg15
I01
sg16
I3
sg17
I12
sbs(I3
I4
tp126
g1
(g10
g3
NtRp127
(dp128
g13
F10.957157915037525
sg14
I3
sg15
I01
sg16
I4
sg17
I5
sbs(I2
I4
tp129
g1
(g10
g3
NtRp130
(dp131
g13
F23.566241621607677
sg14
I2
sg15
I01
sg16
I4
sg17
I24
sbs(I8
I4
tp132
g1
(g10
g3
NtRp133
(dp134
g13
F-27.339019605892833
sg14
I8
sg15
I01
sg16
I4
sg17
I40
sbssS'_input_nodes'
p135
I1
sS'_output_nodes'
p136
I1
sS'_node_gene_type'
p137
cneat.genome
NodeGene
p138
sS'_conn_gene_type'
p139
g10
sS'fitness'
p140
F0.99433924980590926
sS'parent2_id'
p141
I7704
sS'_id'
p142
I7724
sS'parent1_id'
p143
I7704
sS'_node_genes'
p144
(lp145
g1
(g138
g3
NtRp146
(dp147
S'_bias'
p148
I0
sS'_type'
p149
S'INPUT'
p150
sg142
I1
sS'_response'
p151
F4.9242730000000003
sS'_activation_type'
p152
Nsbag1
(g138
g3
NtRp153
(dp154
g148
F-6.0725325646513006
sg149
S'OUTPUT'
p155
sg142
I2
sg151
F3.7062064986838257
sg152
S'tanh'
p156
sbag1
(g138
g3
NtRp157
(dp158
g148
F-2.432886859057521
sg149
S'HIDDEN'
p159
sg142
I3
sg151
F4.7680911971922058
sg152
g156
sbag1
(g138
g3
NtRp160
(dp161
g148
F5.2811731495260492
sg149
g159
sg142
I4
sg151
F3.2167407168314059
sg152
g156
sbag1
(g138
g3
NtRp162
(dp163
g148
F4.6582514641847705
sg149
g159
sg142
I5
sg151
F10.941867330409437
sg152
g156
sbag1
(g138
g3
NtRp164
(dp165
g148
F-1.5844362308426929
sg149
g159
sg142
I6
sg151
F1.0476595586462318
sg152
g156
sbag1
(g138
g3
NtRp166
(dp167
g148
F-2.5164811414259347
sg149
g159
sg142
I7
sg151
F6.5414478581980298
sg152
g156
sbag1
(g138
g3
NtRp168
(dp169
g148
F-1.2745761858503637
sg149
g159
sg142
I8
sg151
F10.112559181017161
sg152
g156
sbag1
(g138
g3
NtRp170
(dp171
g148
F0.52615610247498479
sg149
g159
sg142
I9
sg151
F7.6016359054029161
sg152
g156
sbag1
(g138
g3
NtRp172
(dp173
g148
F1.1439339134877264
sg149
g159
sg142
I10
sg151
F5.5369486770655039
sg152
g156
sbag1
(g138
g3
NtRp174
(dp175
g148
F-0.26275201349954969
sg149
g159
sg142
I11
sg151
F5.0723734629606323
sg152
g156
sbasb.