ccopy_reg
_reconstructor
p1
(cneat.chromosome
Chromosome
p2
c__builtin__
object
p3
NtRp4
(dp5
S'species_id'
p6
I36
sS'_connection_genes'
p7
(dp8
(I1
I3
tp9
g1
(cneat.genome
ConnectionGene
p10
g3
NtRp11
(dp12
S'_ConnectionGene__weight'
p13
F26.879049750016495
sS'_ConnectionGene__in'
p14
I1
sS'_ConnectionGene__enabled'
p15
I01
sS'_ConnectionGene__out'
p16
I3
sS'_ConnectionGene__innov_number'
p17
I3
sbs(I6
I6
tp18
g1
(g10
g3
NtRp19
(dp20
g13
F8.2132757931540397
sg14
I6
sg15
I01
sg16
I6
sg17
I39
sbs(I5
I6
tp21
g1
(g10
g3
NtRp22
(dp23
g13
F-20.311286083416206
sg14
I5
sg15
I01
sg16
I6
sg17
I16
sbs(I7
I2
tp24
g1
(g10
g3
NtRp25
(dp26
g13
F7.6639355032165515
sg14
I7
sg15
I01
sg16
I2
sg17
I33
sbs(I1
I2
tp27
g1
(g10
g3
NtRp28
(dp29
g13
F8.2913569850380213
sg14
I1
sg15
I01
sg16
I2
sg17
I1
sbs(I3
I3
tp30
g1
(g10
g3
NtRp31
(dp32
g13
F5.270985051939868
sg14
I3
sg15
I01
sg16
I3
sg17
I9
sbs(I4
I4
tp33
g1
(g10
g3
NtRp34
(dp35
g13
F15.711250662527124
sg14
I4
sg15
I01
sg16
I4
sg17
I15
sbs(I1
I5
tp36
g1
(g10
g3
NtRp37
(dp38
g13
F-7.0608635137283535
sg14
I1
sg15
I01
sg16
I5
sg17
I10
sbs(I3
I6
tp39
g1
(g10
g3
NtRp40
(dp41
g13
F-9.035374728257958
sg14
I3
sg15
I01
sg16
I6
sg17
I19
sbs(I2
I2
tp42
g1
(g10
g3
NtRp43
(dp44
g13
F7.8842679794619546
sg14
I2
sg15
I01
sg16
I2
sg17
I2
sbs(I3
I5
tp45
g1
(g10
g3
NtRp46
(dp47
g13
F6.1241725226696566
sg14
I3
sg15
I01
sg16
I5
sg17
I13
sbs(I3
I2
tp48
g1
(g10
g3
NtRp49
(dp50
g13
F14.875991267255561
sg14
I3
sg15
I00
sg16
I2
sg17
I4
sbs(I4
I5
tp51
g1
(g10
g3
NtRp52
(dp53
g13
F8.4622697523245307
sg14
I4
sg15
I01
sg16
I5
sg17
I30
sbs(I1
I4
tp54
g1
(g10
g3
NtRp55
(dp56
g13
F9.9801126296615585
sg14
I1
sg15
I01
sg16
I4
sg17
I8
sbs(I2
I3
tp57
g1
(g10
g3
NtRp58
(dp59
g13
F-20.983835324514541
sg14
I2
sg15
I01
sg16
I3
sg17
I7
sbs(I4
I2
tp60
g1
(g10
g3
NtRp61
(dp62
g13
F-7.297187462817238
sg14
I4
sg15
I01
sg16
I2
sg17
I6
sbs(I6
I5
tp63
g1
(g10
g3
NtRp64
(dp65
g13
F14.141403649039734
sg14
I6
sg15
I01
sg16
I5
sg17
I23
sbs(I5
I3
tp66
g1
(g10
g3
NtRp67
(dp68
g13
F28.403863783046859
sg14
I5
sg15
I01
sg16
I3
sg17
I14
sbs(I8
I3
tp69
g1
(g10
g3
NtRp70
(dp71
g13
F7.9743690148276389
sg14
I8
sg15
I01
sg16
I3
sg17
I71
sbs(I3
I4
tp72
g1
(g10
g3
NtRp73
(dp74
g13
F0.32553063529077958
sg14
I3
sg15
I00
sg16
I4
sg17
I5
sbs(I5
I7
tp75
g1
(g10
g3
NtRp76
(dp77
g13
F3.4199424661283828
sg14
I5
sg15
I01
sg16
I7
sg17
I28
sbs(I3
I8
tp78
g1
(g10
g3
NtRp79
(dp80
g13
F6.2240575164320653
sg14
I3
sg15
I01
sg16
I8
sg17
I49
sbs(I5
I2
tp81
g1
(g10
g3
NtRp82
(dp83
g13
F21.485841614569225
sg14
I5
sg15
I00
sg16
I2
sg17
I11
sbs(I2
I4
tp84
g1
(g10
g3
NtRp85
(dp86
g13
F7.269049448882746
sg14
I2
sg15
I01
sg16
I4
sg17
I24
sbs(I8
I4
tp87
g1
(g10
g3
NtRp88
(dp89
g13
F0.33057097706313332
sg14
I8
sg15
I01
sg16
I4
sg17
I40
sbssS'_input_nodes'
p90
I1
sS'_output_nodes'
p91
I1
sS'_node_gene_type'
p92
cneat.genome
NodeGene
p93
sS'_conn_gene_type'
p94
g10
sS'fitness'
p95
F0.79899516201958476
sS'parent2_id'
p96
I3516
sS'_id'
p97
I3541
sS'parent1_id'
p98
I3516
sS'_node_genes'
p99
(lp100
g1
(g93
g3
NtRp101
(dp102
S'_bias'
p103
I0
sS'_type'
p104
S'INPUT'
p105
sg97
I1
sS'_response'
p106
F4.9242730000000003
sS'_activation_type'
p107
Nsbag1
(g93
g3
NtRp108
(dp109
g103
F-1.1353984403662611
sg104
S'OUTPUT'
p110
sg97
I2
sg106
F4.5098470790419452
sg107
S'tanh'
p111
sbag1
(g93
g3
NtRp112
(dp113
g103
F-0.97360993736060197
sg104
S'HIDDEN'
p114
sg97
I3
sg106
F1.4780246676051896
sg107
g111
sbag1
(g93
g3
NtRp115
(dp116
g103
F0.068427064380394739
sg104
g114
sg97
I4
sg106
F4.6948829337492386
sg107
g111
sbag1
(g93
g3
NtRp117
(dp118
g103
F2.230650061470155
sg104
g114
sg97
I5
sg106
F4.8086060153359362
sg107
g111
sbag1
(g93
g3
NtRp119
(dp120
g103
F-2.3834096544214289
sg104
g114
sg97
I6
sg106
F3.1800016338671258
sg107
g111
sbag1
(g93
g3
NtRp121
(dp122
g103
F-1.5610160735722305
sg104
g114
sg97
I7
sg106
F4.3208014566141202
sg107
g111
sbag1
(g93
g3
NtRp123
(dp124
g103
F0.75949016781078871
sg104
g114
sg97
I8
sg106
F4.8553602712616097
sg107
g111
sbasb.