ccopy_reg
_reconstructor
p1
(cneat.chromosome
Chromosome
p2
c__builtin__
object
p3
NtRp4
(dp5
S'species_id'
p6
I71
sS'_connection_genes'
p7
(dp8
(I1
I3
tp9
g1
(cneat.genome
ConnectionGene
p10
g3
NtRp11
(dp12
S'_ConnectionGene__weight'
p13
F23.688441856357603
sS'_ConnectionGene__in'
p14
I1
sS'_ConnectionGene__enabled'
p15
I01
sS'_ConnectionGene__out'
p16
I3
sS'_ConnectionGene__innov_number'
p17
I3
sbs(I6
I6
tp18
g1
(g10
g3
NtRp19
(dp20
g13
F20.343462121561824
sg14
I6
sg15
I01
sg16
I6
sg17
I39
sbs(I5
I6
tp21
g1
(g10
g3
NtRp22
(dp23
g13
F7.2977610981518026
sg14
I5
sg15
I01
sg16
I6
sg17
I16
sbs(I14
I4
tp24
g1
(g10
g3
NtRp25
(dp26
g13
F-10.313249660100205
sg14
I14
sg15
I01
sg16
I4
sg17
I159
sbs(I9
I8
tp27
g1
(g10
g3
NtRp28
(dp29
g13
F-28.184799643516481
sg14
I9
sg15
I01
sg16
I8
sg17
I60
sbs(I1
I15
tp30
g1
(g10
g3
NtRp31
(dp32
g13
F-6.70473654547766
sg14
I1
sg15
I01
sg16
I15
sg17
I168
sbs(I4
I12
tp33
g1
(g10
g3
NtRp34
(dp35
g13
F22.401237171412312
sg14
I4
sg15
I01
sg16
I12
sg17
I102
sbs(I9
I4
tp36
g1
(g10
g3
NtRp37
(dp38
g13
F12.594533382814898
sg14
I9
sg15
I01
sg16
I4
sg17
I77
sbs(I7
I2
tp39
g1
(g10
g3
NtRp40
(dp41
g13
F-25.460356690857218
sg14
I7
sg15
I01
sg16
I2
sg17
I33
sbs(I1
I2
tp42
g1
(g10
g3
NtRp43
(dp44
g13
F11.019701070480677
sg14
I1
sg15
I01
sg16
I2
sg17
I1
sbs(I4
I9
tp45
g1
(g10
g3
NtRp46
(dp47
g13
F3.4812356708334811
sg14
I4
sg15
I01
sg16
I9
sg17
I44
sbs(I3
I3
tp48
g1
(g10
g3
NtRp49
(dp50
g13
F21.31339141864084
sg14
I3
sg15
I01
sg16
I3
sg17
I9
sbs(I4
I4
tp51
g1
(g10
g3
NtRp52
(dp53
g13
F15.758481625105821
sg14
I4
sg15
I00
sg16
I4
sg17
I15
sbs(I4
I13
tp54
g1
(g10
g3
NtRp55
(dp56
g13
F-0.14564154057438516
sg14
I4
sg15
I01
sg16
I13
sg17
I119
sbs(I1
I5
tp57
g1
(g10
g3
NtRp58
(dp59
g13
F16.825659653749504
sg14
I1
sg15
I01
sg16
I5
sg17
I10
sbs(I6
I5
tp60
g1
(g10
g3
NtRp61
(dp62
g13
F25.440282811758021
sg14
I6
sg15
I01
sg16
I5
sg17
I23
sbs(I3
I6
tp63
g1
(g10
g3
NtRp64
(dp65
g13
F-19.502164374695745
sg14
I3
sg15
I01
sg16
I6
sg17
I19
sbs(I2
I2
tp66
g1
(g10
g3
NtRp67
(dp68
g13
F17.152493931882411
sg14
I2
sg15
I01
sg16
I2
sg17
I2
sbs(I5
I7
tp69
g1
(g10
g3
NtRp70
(dp71
g13
F7.4844092404933829
sg14
I5
sg15
I01
sg16
I7
sg17
I28
sbs(I5
I3
tp72
g1
(g10
g3
NtRp73
(dp74
g13
F-4.3350962306798104
sg14
I5
sg15
I01
sg16
I3
sg17
I14
sbs(I11
I2
tp75
g1
(g10
g3
NtRp76
(dp77
g13
F27.336848695020965
sg14
I11
sg15
I01
sg16
I2
sg17
I74
sbs(I4
I10
tp78
g1
(g10
g3
NtRp79
(dp80
g13
F4.9616219541599742
sg14
I4
sg15
I01
sg16
I10
sg17
I63
sbs(I3
I2
tp81
g1
(g10
g3
NtRp82
(dp83
g13
F-2.6137046719195949
sg14
I3
sg15
I01
sg16
I2
sg17
I4
sbs(I17
I6
tp84
g1
(g10
g3
NtRp85
(dp86
g13
F21.615014433854334
sg14
I17
sg15
I01
sg16
I6
sg17
I188
sbs(I10
I4
tp87
g1
(g10
g3
NtRp88
(dp89
g13
F-25.291665020641393
sg14
I10
sg15
I01
sg16
I4
sg17
I90
sbs(I16
I4
tp90
g1
(g10
g3
NtRp91
(dp92
g13
F14.640678220651584
sg14
I16
sg15
I01
sg16
I4
sg17
I175
sbs(I4
I5
tp93
g1
(g10
g3
NtRp94
(dp95
g13
F-26.684299001291219
sg14
I4
sg15
I01
sg16
I5
sg17
I30
sbs(I15
I3
tp96
g1
(g10
g3
NtRp97
(dp98
g13
F9.8835438665089654
sg14
I15
sg15
I01
sg16
I3
sg17
I169
sbs(I5
I17
tp99
g1
(g10
g3
NtRp100
(dp101
g13
F-20.128800045548466
sg14
I5
sg15
I01
sg16
I17
sg17
I187
sbs(I1
I4
tp102
g1
(g10
g3
NtRp103
(dp104
g13
F13.653442234104217
sg14
I1
sg15
I01
sg16
I4
sg17
I8
sbs(I2
I10
tp105
g1
(g10
g3
NtRp106
(dp107
g13
F-27.497514275245251
sg14
I2
sg15
I01
sg16
I10
sg17
I57
sbs(I12
I18
tp108
g1
(g10
g3
NtRp109
(dp110
g13
F-24.590994225838344
sg14
I12
sg15
I01
sg16
I18
sg17
I189
sbs(I2
I3
tp111
g1
(g10
g3
NtRp112
(dp113
g13
F-8.8630679052195021
sg14
I2
sg15
I01
sg16
I3
sg17
I7
sbs(I12
I11
tp114
g1
(g10
g3
NtRp115
(dp116
g13
F10.945621267307164
sg14
I12
sg15
I00
sg16
I11
sg17
I84
sbs(I4
I2
tp117
g1
(g10
g3
NtRp118
(dp119
g13
F22.611068690095667
sg14
I4
sg15
I01
sg16
I2
sg17
I6
sbs(I2
I14
tp120
g1
(g10
g3
NtRp121
(dp122
g13
F-11.825095075384361
sg14
I2
sg15
I01
sg16
I14
sg17
I142
sbs(I4
I11
tp123
g1
(g10
g3
NtRp124
(dp125
g13
F11.572641744515709
sg14
I4
sg15
I00
sg16
I11
sg17
I75
sbs(I7
I9
tp126
g1
(g10
g3
NtRp127
(dp128
g13
F1.3059156455169894
sg14
I7
sg15
I01
sg16
I9
sg17
I41
sbs(I3
I5
tp129
g1
(g10
g3
NtRp130
(dp131
g13
F13.925515530015151
sg14
I3
sg15
I01
sg16
I5
sg17
I13
sbs(I8
I3
tp132
g1
(g10
g3
NtRp133
(dp134
g13
F9.1918447562468124
sg14
I8
sg15
I01
sg16
I3
sg17
I71
sbs(I14
I16
tp135
g1
(g10
g3
NtRp136
(dp137
g13
F-5.7817688676812962
sg14
I14
sg15
I01
sg16
I16
sg17
I174
sbs(I5
I2
tp138
g1
(g10
g3
NtRp139
(dp140
g13
F25.939393326944394
sg14
I5
sg15
I01
sg16
I2
sg17
I11
sbs(I7
I13
tp141
g1
(g10
g3
NtRp142
(dp143
g13
F0.55167738194839799
sg14
I7
sg15
I01
sg16
I13
sg17
I136
sbs(I3
I8
tp144
g1
(g10
g3
NtRp145
(dp146
g13
F13.38652206232614
sg14
I3
sg15
I01
sg16
I8
sg17
I49
sbs(I6
I2
tp147
g1
(g10
g3
NtRp148
(dp149
g13
F4.1558462183343226
sg14
I6
sg15
I01
sg16
I2
sg17
I17
sbs(I18
I11
tp150
g1
(g10
g3
NtRp151
(dp152
g13
F-4.8963250123419737
sg14
I18
sg15
I01
sg16
I11
sg17
I190
sbs(I4
I3
tp153
g1
(g10
g3
NtRp154
(dp155
g13
F-15.224020761713799
sg14
I4
sg15
I01
sg16
I3
sg17
I12
sbs(I13
I9
tp156
g1
(g10
g3
NtRp157
(dp158
g13
F-3.2362513945149942
sg14
I13
sg15
I01
sg16
I9
sg17
I137
sbs(I3
I4
tp159
g1
(g10
g3
NtRp160
(dp161
g13
F-28.278772710289303
sg14
I3
sg15
I01
sg16
I4
sg17
I5
sbs(I2
I4
tp162
g1
(g10
g3
NtRp163
(dp164
g13
F-1.7266646494114377
sg14
I2
sg15
I00
sg16
I4
sg17
I24
sbs(I8
I4
tp165
g1
(g10
g3
NtRp166
(dp167
g13
F-24.508345439213652
sg14
I8
sg15
I01
sg16
I4
sg17
I40
sbssS'_input_nodes'
p168
I1
sS'_output_nodes'
p169
I1
sS'_node_gene_type'
p170
cneat.genome
NodeGene
p171
sS'_conn_gene_type'
p172
g10
sS'fitness'
p173
F0.96112186847558323
sS'parent2_id'
p174
I7505
sS'_id'
p175
I7531
sS'parent1_id'
p176
I7505
sS'_node_genes'
p177
(lp178
g1
(g171
g3
NtRp179
(dp180
S'_bias'
p181
I0
sS'_type'
p182
S'INPUT'
p183
sg175
I1
sS'_response'
p184
F4.9242730000000003
sS'_activation_type'
p185
Nsbag1
(g171
g3
NtRp186
(dp187
g181
F-3.0730966378626587
sg182
S'OUTPUT'
p188
sg175
I2
sg184
F7.0491965734171291
sg185
S'tanh'
p189
sbag1
(g171
g3
NtRp190
(dp191
g181
F-6.9586262219711559
sg182
S'HIDDEN'
p192
sg175
I3
sg184
F0.11857820431774879
sg185
g189
sbag1
(g171
g3
NtRp193
(dp194
g181
F-3.2020477085650341
sg182
g192
sg175
I4
sg184
F2.5976336173840386
sg185
g189
sbag1
(g171
g3
NtRp195
(dp196
g181
F-0.036166905102548719
sg182
g192
sg175
I5
sg184
F7.0119996018663899
sg185
g189
sbag1
(g171
g3
NtRp197
(dp198
g181
F0.27413864739440508
sg182
g192
sg175
I6
sg184
F0.75865161123861735
sg185
g189
sbag1
(g171
g3
NtRp199
(dp200
g181
F-2.0284846221633193
sg182
g192
sg175
I7
sg184
F3.7144858442396727
sg185
g189
sbag1
(g171
g3
NtRp201
(dp202
g181
F-2.5482840445086343
sg182
g192
sg175
I8
sg184
F8.7465884606005471
sg185
g189
sbag1
(g171
g3
NtRp203
(dp204
g181
F0.12456605729660075
sg182
g192
sg175
I9
sg184
F3.9527190854742318
sg185
g189
sbag1
(g171
g3
NtRp205
(dp206
g181
F-3.6508892330708056
sg182
g192
sg175
I10
sg184
F1.7140101883953032
sg185
g189
sbag1
(g171
g3
NtRp207
(dp208
g181
F1.588287731343264
sg182
g192
sg175
I11
sg184
F6.7517518705552844
sg185
g189
sbag1
(g171
g3
NtRp209
(dp210
g181
F-1.1588462595441598
sg182
g192
sg175
I12
sg184
F5.7398332456316119
sg185
g189
sbag1
(g171
g3
NtRp211
(dp212
g181
F3.2964578289136748
sg182
g192
sg175
I13
sg184
F2.7815756433047647
sg185
g189
sbag1
(g171
g3
NtRp213
(dp214
g181
F-0.28457335415402385
sg182
g192
sg175
I14
sg184
F3.5885370076579308
sg185
g189
sbag1
(g171
g3
NtRp215
(dp216
g181
F1.0292085882654065
sg182
g192
sg175
I15
sg184
F6.9897610272594646
sg185
g189
sbag1
(g171
g3
NtRp217
(dp218
g181
F0.56823592756286789
sg182
g192
sg175
I16
sg184
F6.0411132886119292
sg185
g189
sbag1
(g171
g3
NtRp219
(dp220
g181
F-1.2302917016611739
sg182
g192
sg175
I17
sg184
F5.6521407703382716
sg185
g189
sbag1
(g171
g3
NtRp221
(dp222
g181
F0.32398174656783446
sg182
g192
sg175
I18
sg184
F8.2858821969092755
sg185
g189
sbasb.