ccopy_reg
_reconstructor
p1
(cneat.chromosome
Chromosome
p2
c__builtin__
object
p3
NtRp4
(dp5
S'species_id'
p6
I50
sS'_connection_genes'
p7
(dp8
(I1
I3
tp9
g1
(cneat.genome
ConnectionGene
p10
g3
NtRp11
(dp12
S'_ConnectionGene__weight'
p13
F30
sS'_ConnectionGene__in'
p14
I1
sS'_ConnectionGene__enabled'
p15
I01
sS'_ConnectionGene__out'
p16
I3
sS'_ConnectionGene__innov_number'
p17
I3
sbs(I11
I11
tp18
g1
(g10
g3
NtRp19
(dp20
g13
F-0.89185694754964762
sg14
I11
sg15
I01
sg16
I11
sg17
I122
sbs(I6
I6
tp21
g1
(g10
g3
NtRp22
(dp23
g13
F16.99601885552303
sg14
I6
sg15
I01
sg16
I6
sg17
I39
sbs(I5
I6
tp24
g1
(g10
g3
NtRp25
(dp26
g13
F8.5858644758280978
sg14
I5
sg15
I01
sg16
I6
sg17
I16
sbs(I9
I8
tp27
g1
(g10
g3
NtRp28
(dp29
g13
F-13.170368313353224
sg14
I9
sg15
I01
sg16
I8
sg17
I60
sbs(I9
I4
tp30
g1
(g10
g3
NtRp31
(dp32
g13
F22.680729551299827
sg14
I9
sg15
I00
sg16
I4
sg17
I77
sbs(I7
I2
tp33
g1
(g10
g3
NtRp34
(dp35
g13
F-10.702945557357751
sg14
I7
sg15
I01
sg16
I2
sg17
I33
sbs(I1
I2
tp36
g1
(g10
g3
NtRp37
(dp38
g13
F19.233443648413264
sg14
I1
sg15
I01
sg16
I2
sg17
I1
sbs(I4
I9
tp39
g1
(g10
g3
NtRp40
(dp41
g13
F2.5485113584564321
sg14
I4
sg15
I01
sg16
I9
sg17
I44
sbs(I3
I3
tp42
g1
(g10
g3
NtRp43
(dp44
g13
F22.424802728792912
sg14
I3
sg15
I01
sg16
I3
sg17
I9
sbs(I3
I10
tp45
g1
(g10
g3
NtRp46
(dp47
g13
F-1.6166467572409955
sg14
I3
sg15
I01
sg16
I10
sg17
I94
sbs(I4
I4
tp48
g1
(g10
g3
NtRp49
(dp50
g13
F9.7717129728932495
sg14
I4
sg15
I01
sg16
I4
sg17
I15
sbs(I1
I5
tp51
g1
(g10
g3
NtRp52
(dp53
g13
F-6.9665806634515297
sg14
I1
sg15
I01
sg16
I5
sg17
I10
sbs(I9
I11
tp54
g1
(g10
g3
NtRp55
(dp56
g13
F-4.458222340978204
sg14
I9
sg15
I01
sg16
I11
sg17
I106
sbs(I3
I6
tp57
g1
(g10
g3
NtRp58
(dp59
g13
F-8.1674918384109478
sg14
I3
sg15
I01
sg16
I6
sg17
I19
sbs(I2
I2
tp60
g1
(g10
g3
NtRp61
(dp62
g13
F10.227630764119615
sg14
I2
sg15
I01
sg16
I2
sg17
I2
sbs(I5
I3
tp63
g1
(g10
g3
NtRp64
(dp65
g13
F2.7361970644254718
sg14
I5
sg15
I01
sg16
I3
sg17
I14
sbs(I3
I2
tp66
g1
(g10
g3
NtRp67
(dp68
g13
F0.48532840646596564
sg14
I3
sg15
I01
sg16
I2
sg17
I4
sbs(I11
I4
tp69
g1
(g10
g3
NtRp70
(dp71
g13
F16.169127562862855
sg14
I11
sg15
I01
sg16
I4
sg17
I101
sbs(I10
I4
tp72
g1
(g10
g3
NtRp73
(dp74
g13
F8.0173376444983546
sg14
I10
sg15
I01
sg16
I4
sg17
I90
sbs(I4
I5
tp75
g1
(g10
g3
NtRp76
(dp77
g13
F-9.5361202976939268
sg14
I4
sg15
I01
sg16
I5
sg17
I30
sbs(I8
I11
tp78
g1
(g10
g3
NtRp79
(dp80
g13
F-0.20584580296733834
sg14
I8
sg15
I01
sg16
I11
sg17
I80
sbs(I1
I4
tp81
g1
(g10
g3
NtRp82
(dp83
g13
F11.328184051253251
sg14
I1
sg15
I01
sg16
I4
sg17
I8
sbs(I2
I3
tp84
g1
(g10
g3
NtRp85
(dp86
g13
F-25.32188537586115
sg14
I2
sg15
I01
sg16
I3
sg17
I7
sbs(I4
I2
tp87
g1
(g10
g3
NtRp88
(dp89
g13
F15.56404367173857
sg14
I4
sg15
I01
sg16
I2
sg17
I6
sbs(I6
I5
tp90
g1
(g10
g3
NtRp91
(dp92
g13
F5.0157829330676478
sg14
I6
sg15
I01
sg16
I5
sg17
I23
sbs(I7
I9
tp93
g1
(g10
g3
NtRp94
(dp95
g13
F7.0791682678522081
sg14
I7
sg15
I01
sg16
I9
sg17
I41
sbs(I3
I5
tp96
g1
(g10
g3
NtRp97
(dp98
g13
F-1.7732981508143264
sg14
I3
sg15
I01
sg16
I5
sg17
I13
sbs(I8
I3
tp99
g1
(g10
g3
NtRp100
(dp101
g13
F29.014170986079371
sg14
I8
sg15
I01
sg16
I3
sg17
I71
sbs(I5
I2
tp102
g1
(g10
g3
NtRp103
(dp104
g13
F27.345797559601692
sg14
I5
sg15
I01
sg16
I2
sg17
I11
sbs(I5
I7
tp105
g1
(g10
g3
NtRp106
(dp107
g13
F8.8408914951668187
sg14
I5
sg15
I01
sg16
I7
sg17
I28
sbs(I3
I8
tp108
g1
(g10
g3
NtRp109
(dp110
g13
F14.851076885633077
sg14
I3
sg15
I01
sg16
I8
sg17
I49
sbs(I4
I3
tp111
g1
(g10
g3
NtRp112
(dp113
g13
F-4.3195950277374049
sg14
I4
sg15
I01
sg16
I3
sg17
I12
sbs(I3
I4
tp114
g1
(g10
g3
NtRp115
(dp116
g13
F0.39507321962134395
sg14
I3
sg15
I00
sg16
I4
sg17
I5
sbs(I2
I4
tp117
g1
(g10
g3
NtRp118
(dp119
g13
F12.331054282100819
sg14
I2
sg15
I01
sg16
I4
sg17
I24
sbs(I8
I4
tp120
g1
(g10
g3
NtRp121
(dp122
g13
F-9.5355736868233958
sg14
I8
sg15
I01
sg16
I4
sg17
I40
sbssS'_input_nodes'
p123
I1
sS'_output_nodes'
p124
I1
sS'_node_gene_type'
p125
cneat.genome
NodeGene
p126
sS'_conn_gene_type'
p127
g10
sS'fitness'
p128
F0.98794717739691962
sS'parent2_id'
p129
I5377
sS'_id'
p130
I5400
sS'parent1_id'
p131
I5377
sS'_node_genes'
p132
(lp133
g1
(g126
g3
NtRp134
(dp135
S'_bias'
p136
I0
sS'_type'
p137
S'INPUT'
p138
sg130
I1
sS'_response'
p139
F4.9242730000000003
sS'_activation_type'
p140
Nsbag1
(g126
g3
NtRp141
(dp142
g136
F-2.6565029481781433
sg137
S'OUTPUT'
p143
sg130
I2
sg139
F5.8415247899789389
sg140
S'tanh'
p144
sbag1
(g126
g3
NtRp145
(dp146
g136
F-3.8648294204969678
sg137
S'HIDDEN'
p147
sg130
I3
sg139
F1.5647193429932305
sg140
g144
sbag1
(g126
g3
NtRp148
(dp149
g136
F3.4310979510079691
sg137
g147
sg130
I4
sg139
F4.7925837795657218
sg140
g144
sbag1
(g126
g3
NtRp150
(dp151
g136
F4.2016842836388069
sg137
g147
sg130
I5
sg139
F7.3936004841037359
sg140
g144
sbag1
(g126
g3
NtRp152
(dp153
g136
F-3.4375354187222635
sg137
g147
sg130
I6
sg139
F3.6390408864878045
sg140
g144
sbag1
(g126
g3
NtRp154
(dp155
g136
F-0.51600632147693148
sg137
g147
sg130
I7
sg139
F6.3360031597657631
sg140
g144
sbag1
(g126
g3
NtRp156
(dp157
g136
F-2.3519492079301121
sg137
g147
sg130
I8
sg139
F8.4084237779474886
sg140
g144
sbag1
(g126
g3
NtRp158
(dp159
g136
F0.81496946140147353
sg137
g147
sg130
I9
sg139
F6.5518117519154808
sg140
g144
sbag1
(g126
g3
NtRp160
(dp161
g136
F-0.27641527106868252
sg137
g147
sg130
I10
sg139
F7.7658053149559052
sg140
g144
sbag1
(g126
g3
NtRp162
(dp163
g136
F0.076295779665078306
sg137
g147
sg130
I11
sg139
F5.3410799699959286
sg140
g144
sbasb.