ccopy_reg
_reconstructor
p1
(cneat.chromosome
Chromosome
p2
c__builtin__
object
p3
NtRp4
(dp5
S'species_id'
p6
I76
sS'_connection_genes'
p7
(dp8
(I1
I3
tp9
g1
(cneat.genome
ConnectionGene
p10
g3
NtRp11
(dp12
S'_ConnectionGene__weight'
p13
F18.546459457765678
sS'_ConnectionGene__in'
p14
I1
sS'_ConnectionGene__enabled'
p15
I01
sS'_ConnectionGene__out'
p16
I3
sS'_ConnectionGene__innov_number'
p17
I3
sbs(I11
I11
tp18
g1
(g10
g3
NtRp19
(dp20
g13
F8.0571698315986069
sg14
I11
sg15
I01
sg16
I11
sg17
I122
sbs(I6
I6
tp21
g1
(g10
g3
NtRp22
(dp23
g13
F11.97642451463553
sg14
I6
sg15
I01
sg16
I6
sg17
I39
sbs(I5
I6
tp24
g1
(g10
g3
NtRp25
(dp26
g13
F29.41448613007843
sg14
I5
sg15
I01
sg16
I6
sg17
I16
sbs(I9
I8
tp27
g1
(g10
g3
NtRp28
(dp29
g13
F-22.993460393094818
sg14
I9
sg15
I01
sg16
I8
sg17
I60
sbs(I10
I6
tp30
g1
(g10
g3
NtRp31
(dp32
g13
F-16.884598210062411
sg14
I10
sg15
I01
sg16
I6
sg17
I103
sbs(I9
I4
tp33
g1
(g10
g3
NtRp34
(dp35
g13
F26.659189462650314
sg14
I9
sg15
I01
sg16
I4
sg17
I77
sbs(I7
I2
tp36
g1
(g10
g3
NtRp37
(dp38
g13
F-11.230104175107403
sg14
I7
sg15
I01
sg16
I2
sg17
I33
sbs(I1
I2
tp39
g1
(g10
g3
NtRp40
(dp41
g13
F24.683556818493553
sg14
I1
sg15
I01
sg16
I2
sg17
I1
sbs(I11
I10
tp42
g1
(g10
g3
NtRp43
(dp44
g13
F-11.18181635440936
sg14
I11
sg15
I01
sg16
I10
sg17
I89
sbs(I4
I9
tp45
g1
(g10
g3
NtRp46
(dp47
g13
F16.733885666073512
sg14
I4
sg15
I01
sg16
I9
sg17
I44
sbs(I3
I3
tp48
g1
(g10
g3
NtRp49
(dp50
g13
F22.619798062633517
sg14
I3
sg15
I00
sg16
I3
sg17
I9
sbs(I3
I10
tp51
g1
(g10
g3
NtRp52
(dp53
g13
F-15.270472843541674
sg14
I3
sg15
I01
sg16
I10
sg17
I94
sbs(I4
I4
tp54
g1
(g10
g3
NtRp55
(dp56
g13
F28.941142210680965
sg14
I4
sg15
I01
sg16
I4
sg17
I15
sbs(I6
I3
tp57
g1
(g10
g3
NtRp58
(dp59
g13
F1.2580178326242923
sg14
I6
sg15
I01
sg16
I3
sg17
I22
sbs(I1
I5
tp60
g1
(g10
g3
NtRp61
(dp62
g13
F20.923135828119708
sg14
I1
sg15
I01
sg16
I5
sg17
I10
sbs(I9
I11
tp63
g1
(g10
g3
NtRp64
(dp65
g13
F-15.10266241901016
sg14
I9
sg15
I01
sg16
I11
sg17
I106
sbs(I3
I6
tp66
g1
(g10
g3
NtRp67
(dp68
g13
F-11.886415271595409
sg14
I3
sg15
I01
sg16
I6
sg17
I19
sbs(I2
I2
tp69
g1
(g10
g3
NtRp70
(dp71
g13
F25.226936118052642
sg14
I2
sg15
I01
sg16
I2
sg17
I2
sbs(I5
I3
tp72
g1
(g10
g3
NtRp73
(dp74
g13
F2.3073825590447261
sg14
I5
sg15
I01
sg16
I3
sg17
I14
sbs(I10
I9
tp75
g1
(g10
g3
NtRp76
(dp77
g13
F11.654192359874394
sg14
I10
sg15
I01
sg16
I9
sg17
I58
sbs(I9
I7
tp78
g1
(g10
g3
NtRp79
(dp80
g13
F22.498288284638413
sg14
I9
sg15
I01
sg16
I7
sg17
I53
sbs(I3
I2
tp81
g1
(g10
g3
NtRp82
(dp83
g13
F-7.6074018133343912
sg14
I3
sg15
I01
sg16
I2
sg17
I4
sbs(I11
I4
tp84
g1
(g10
g3
NtRp85
(dp86
g13
F20.289215581811618
sg14
I11
sg15
I01
sg16
I4
sg17
I101
sbs(I10
I4
tp87
g1
(g10
g3
NtRp88
(dp89
g13
F-0.73754744946738948
sg14
I10
sg15
I01
sg16
I4
sg17
I90
sbs(I4
I5
tp90
g1
(g10
g3
NtRp91
(dp92
g13
F-15.709994428013127
sg14
I4
sg15
I01
sg16
I5
sg17
I30
sbs(I8
I11
tp93
g1
(g10
g3
NtRp94
(dp95
g13
F-13.209638687366954
sg14
I8
sg15
I01
sg16
I11
sg17
I80
sbs(I1
I4
tp96
g1
(g10
g3
NtRp97
(dp98
g13
F-6.4610323116542752
sg14
I1
sg15
I01
sg16
I4
sg17
I8
sbs(I2
I3
tp99
g1
(g10
g3
NtRp100
(dp101
g13
F-29.844842443117095
sg14
I2
sg15
I01
sg16
I3
sg17
I7
sbs(I4
I2
tp102
g1
(g10
g3
NtRp103
(dp104
g13
F2.6969458437270397
sg14
I4
sg15
I01
sg16
I2
sg17
I6
sbs(I6
I5
tp105
g1
(g10
g3
NtRp106
(dp107
g13
F5.7116074473496523
sg14
I6
sg15
I01
sg16
I5
sg17
I23
sbs(I7
I9
tp108
g1
(g10
g3
NtRp109
(dp110
g13
F25.6340760224669
sg14
I7
sg15
I01
sg16
I9
sg17
I41
sbs(I3
I5
tp111
g1
(g10
g3
NtRp112
(dp113
g13
F-10.494307835277979
sg14
I3
sg15
I01
sg16
I5
sg17
I13
sbs(I8
I3
tp114
g1
(g10
g3
NtRp115
(dp116
g13
F22.674814444221795
sg14
I8
sg15
I01
sg16
I3
sg17
I71
sbs(I3
I12
tp117
g1
(g10
g3
NtRp118
(dp119
g13
F1
sg14
I3
sg15
I01
sg16
I12
sg17
I99
sbs(I5
I2
tp120
g1
(g10
g3
NtRp121
(dp122
g13
F9.579311292831818
sg14
I5
sg15
I01
sg16
I2
sg17
I11
sbs(I5
I7
tp123
g1
(g10
g3
NtRp124
(dp125
g13
F-25.542734929332994
sg14
I5
sg15
I01
sg16
I7
sg17
I28
sbs(I3
I8
tp126
g1
(g10
g3
NtRp127
(dp128
g13
F2.6372050876483213
sg14
I3
sg15
I01
sg16
I8
sg17
I49
sbs(I12
I3
tp129
g1
(g10
g3
NtRp130
(dp131
g13
F22.619798062633517
sg14
I12
sg15
I01
sg16
I3
sg17
I88
sbs(I4
I3
tp132
g1
(g10
g3
NtRp133
(dp134
g13
F3.8189994429054157
sg14
I4
sg15
I01
sg16
I3
sg17
I12
sbs(I3
I4
tp135
g1
(g10
g3
NtRp136
(dp137
g13
F8.323767672991746
sg14
I3
sg15
I01
sg16
I4
sg17
I5
sbs(I2
I4
tp138
g1
(g10
g3
NtRp139
(dp140
g13
F26.243110063882138
sg14
I2
sg15
I01
sg16
I4
sg17
I24
sbs(I8
I4
tp141
g1
(g10
g3
NtRp142
(dp143
g13
F-30
sg14
I8
sg15
I01
sg16
I4
sg17
I40
sbssS'_input_nodes'
p144
I1
sS'_output_nodes'
p145
I1
sS'_node_gene_type'
p146
cneat.genome
NodeGene
p147
sS'_conn_gene_type'
p148
g10
sS'fitness'
p149
F0.92443155749735262
sS'parent2_id'
p150
I8085
sS'_id'
p151
I8103
sS'parent1_id'
p152
I8085
sS'_node_genes'
p153
(lp154
g1
(g147
g3
NtRp155
(dp156
S'_bias'
p157
I0
sS'_type'
p158
S'INPUT'
p159
sg151
I1
sS'_response'
p160
F4.9242730000000003
sS'_activation_type'
p161
Nsbag1
(g147
g3
NtRp162
(dp163
g157
F-5.5683015157005551
sg158
S'OUTPUT'
p164
sg151
I2
sg160
F4.5070851309460194
sg161
S'tanh'
p165
sbag1
(g147
g3
NtRp166
(dp167
g157
F-1.7934919486586964
sg158
S'HIDDEN'
p168
sg151
I3
sg160
F4.036611473763962
sg161
g165
sbag1
(g147
g3
NtRp169
(dp170
g157
F5.0422713593533821
sg158
g168
sg151
I4
sg160
F3.9185898589506989
sg161
g165
sbag1
(g147
g3
NtRp171
(dp172
g157
F5.457478438073462
sg158
g168
sg151
I5
sg160
F11.436024796659922
sg161
g165
sbag1
(g147
g3
NtRp173
(dp174
g157
F-2.7051571206089999
sg158
g168
sg151
I6
sg160
F1.2328816949687442
sg161
g165
sbag1
(g147
g3
NtRp175
(dp176
g157
F-1.8674666802064528
sg158
g168
sg151
I7
sg160
F7.0369068974873601
sg161
g165
sbag1
(g147
g3
NtRp177
(dp178
g157
F-1.1145442181127201
sg158
g168
sg151
I8
sg160
F9.668574532795752
sg161
g165
sbag1
(g147
g3
NtRp179
(dp180
g157
F0.36019831982317019
sg158
g168
sg151
I9
sg160
F7.8209290630829713
sg161
g165
sbag1
(g147
g3
NtRp181
(dp182
g157
F0.21492312962303112
sg158
g168
sg151
I10
sg160
F4.3370305272564957
sg161
g165
sbag1
(g147
g3
NtRp183
(dp184
g157
F-0.49195876840838609
sg158
g168
sg151
I11
sg160
F6.1710997804568892
sg161
g165
sbag1
(g147
g3
NtRp185
(dp186
g157
I0
sg158
g168
sg151
I12
sg160
F4.9242730000000003
sg161
g165
sbasb.