ccopy_reg
_reconstructor
p1
(cneat.chromosome
Chromosome
p2
c__builtin__
object
p3
NtRp4
(dp5
S'species_id'
p6
I71
sS'_connection_genes'
p7
(dp8
(I1
I3
tp9
g1
(cneat.genome
ConnectionGene
p10
g3
NtRp11
(dp12
S'_ConnectionGene__weight'
p13
F25.903590382169476
sS'_ConnectionGene__in'
p14
I1
sS'_ConnectionGene__enabled'
p15
I00
sS'_ConnectionGene__out'
p16
I3
sS'_ConnectionGene__innov_number'
p17
I3
sbs(I6
I6
tp18
g1
(g10
g3
NtRp19
(dp20
g13
F18.666968833521899
sg14
I6
sg15
I01
sg16
I6
sg17
I39
sbs(I5
I6
tp21
g1
(g10
g3
NtRp22
(dp23
g13
F8.3903641623756791
sg14
I5
sg15
I01
sg16
I6
sg17
I16
sbs(I14
I4
tp24
g1
(g10
g3
NtRp25
(dp26
g13
F-10.164703940646948
sg14
I14
sg15
I01
sg16
I4
sg17
I159
sbs(I9
I8
tp27
g1
(g10
g3
NtRp28
(dp29
g13
F-26.25274952971489
sg14
I9
sg15
I01
sg16
I8
sg17
I60
sbs(I1
I15
tp30
g1
(g10
g3
NtRp31
(dp32
g13
F-7.6483829881999732
sg14
I1
sg15
I01
sg16
I15
sg17
I168
sbs(I4
I12
tp33
g1
(g10
g3
NtRp34
(dp35
g13
F19.961312624799877
sg14
I4
sg15
I01
sg16
I12
sg17
I102
sbs(I9
I4
tp36
g1
(g10
g3
NtRp37
(dp38
g13
F15.631037351949132
sg14
I9
sg15
I01
sg16
I4
sg17
I77
sbs(I7
I2
tp39
g1
(g10
g3
NtRp40
(dp41
g13
F-26.628191925902119
sg14
I7
sg15
I01
sg16
I2
sg17
I33
sbs(I1
I2
tp42
g1
(g10
g3
NtRp43
(dp44
g13
F10.979672823661209
sg14
I1
sg15
I01
sg16
I2
sg17
I1
sbs(I4
I9
tp45
g1
(g10
g3
NtRp46
(dp47
g13
F1.7948842990998692
sg14
I4
sg15
I01
sg16
I9
sg17
I44
sbs(I3
I3
tp48
g1
(g10
g3
NtRp49
(dp50
g13
F21.300716196826997
sg14
I3
sg15
I01
sg16
I3
sg17
I9
sbs(I4
I4
tp51
g1
(g10
g3
NtRp52
(dp53
g13
F12.667591970025143
sg14
I4
sg15
I00
sg16
I4
sg17
I15
sbs(I4
I13
tp54
g1
(g10
g3
NtRp55
(dp56
g13
F-3.6469670747523337
sg14
I4
sg15
I01
sg16
I13
sg17
I119
sbs(I1
I5
tp57
g1
(g10
g3
NtRp58
(dp59
g13
F17.90601753974412
sg14
I1
sg15
I01
sg16
I5
sg17
I10
sbs(I6
I5
tp60
g1
(g10
g3
NtRp61
(dp62
g13
F27.454484843095784
sg14
I6
sg15
I01
sg16
I5
sg17
I23
sbs(I3
I6
tp63
g1
(g10
g3
NtRp64
(dp65
g13
F-22.276470287363679
sg14
I3
sg15
I01
sg16
I6
sg17
I19
sbs(I2
I2
tp66
g1
(g10
g3
NtRp67
(dp68
g13
F18.237868223080845
sg14
I2
sg15
I01
sg16
I2
sg17
I2
sbs(I5
I7
tp69
g1
(g10
g3
NtRp70
(dp71
g13
F6.9499163623658387
sg14
I5
sg15
I01
sg16
I7
sg17
I28
sbs(I5
I3
tp72
g1
(g10
g3
NtRp73
(dp74
g13
F-5.0907562012478298
sg14
I5
sg15
I01
sg16
I3
sg17
I14
sbs(I11
I2
tp75
g1
(g10
g3
NtRp76
(dp77
g13
F26.413239843928132
sg14
I11
sg15
I01
sg16
I2
sg17
I74
sbs(I4
I10
tp78
g1
(g10
g3
NtRp79
(dp80
g13
F3.7617106853676656
sg14
I4
sg15
I01
sg16
I10
sg17
I63
sbs(I3
I2
tp81
g1
(g10
g3
NtRp82
(dp83
g13
F-4.2699510117079322
sg14
I3
sg15
I01
sg16
I2
sg17
I4
sbs(I17
I6
tp84
g1
(g10
g3
NtRp85
(dp86
g13
F24.094427050666891
sg14
I17
sg15
I01
sg16
I6
sg17
I188
sbs(I10
I4
tp87
g1
(g10
g3
NtRp88
(dp89
g13
F-25.189334280933451
sg14
I10
sg15
I01
sg16
I4
sg17
I90
sbs(I16
I4
tp90
g1
(g10
g3
NtRp91
(dp92
g13
F20.272125614680707
sg14
I16
sg15
I01
sg16
I4
sg17
I175
sbs(I4
I5
tp93
g1
(g10
g3
NtRp94
(dp95
g13
F-30
sg14
I4
sg15
I01
sg16
I5
sg17
I30
sbs(I15
I3
tp96
g1
(g10
g3
NtRp97
(dp98
g13
F8.3687344909732246
sg14
I15
sg15
I01
sg16
I3
sg17
I169
sbs(I5
I17
tp99
g1
(g10
g3
NtRp100
(dp101
g13
F-20.797404056059701
sg14
I5
sg15
I01
sg16
I17
sg17
I187
sbs(I1
I4
tp102
g1
(g10
g3
NtRp103
(dp104
g13
F14.623134457547064
sg14
I1
sg15
I01
sg16
I4
sg17
I8
sbs(I2
I10
tp105
g1
(g10
g3
NtRp106
(dp107
g13
F-28.652868273500101
sg14
I2
sg15
I01
sg16
I10
sg17
I57
sbs(I12
I18
tp108
g1
(g10
g3
NtRp109
(dp110
g13
F-25.209113520408664
sg14
I12
sg15
I01
sg16
I18
sg17
I189
sbs(I2
I3
tp111
g1
(g10
g3
NtRp112
(dp113
g13
F-11.149605124136356
sg14
I2
sg15
I01
sg16
I3
sg17
I7
sbs(I12
I11
tp114
g1
(g10
g3
NtRp115
(dp116
g13
F12.406315862688363
sg14
I12
sg15
I00
sg16
I11
sg17
I84
sbs(I4
I2
tp117
g1
(g10
g3
NtRp118
(dp119
g13
F22.856941085504399
sg14
I4
sg15
I01
sg16
I2
sg17
I6
sbs(I2
I14
tp120
g1
(g10
g3
NtRp121
(dp122
g13
F-8.800035782903171
sg14
I2
sg15
I01
sg16
I14
sg17
I142
sbs(I4
I11
tp123
g1
(g10
g3
NtRp124
(dp125
g13
F8.0181861782539343
sg14
I4
sg15
I00
sg16
I11
sg17
I75
sbs(I7
I9
tp126
g1
(g10
g3
NtRp127
(dp128
g13
F-2.2117461668495411
sg14
I7
sg15
I01
sg16
I9
sg17
I41
sbs(I3
I5
tp129
g1
(g10
g3
NtRp130
(dp131
g13
F16.421140319536335
sg14
I3
sg15
I01
sg16
I5
sg17
I13
sbs(I8
I3
tp132
g1
(g10
g3
NtRp133
(dp134
g13
F10.192004508149711
sg14
I8
sg15
I01
sg16
I3
sg17
I71
sbs(I14
I16
tp135
g1
(g10
g3
NtRp136
(dp137
g13
F-2.1632446913118963
sg14
I14
sg15
I01
sg16
I16
sg17
I174
sbs(I18
I11
tp138
g1
(g10
g3
NtRp139
(dp140
g13
F-3.1029665718731585
sg14
I18
sg15
I01
sg16
I11
sg17
I190
sbs(I7
I13
tp141
g1
(g10
g3
NtRp142
(dp143
g13
F-0.42151226444383383
sg14
I7
sg15
I01
sg16
I13
sg17
I136
sbs(I5
I2
tp144
g1
(g10
g3
NtRp145
(dp146
g13
F26.769593556789399
sg14
I5
sg15
I01
sg16
I2
sg17
I11
sbs(I3
I8
tp147
g1
(g10
g3
NtRp148
(dp149
g13
F16.108303705249668
sg14
I3
sg15
I01
sg16
I8
sg17
I49
sbs(I6
I2
tp150
g1
(g10
g3
NtRp151
(dp152
g13
F4.1856914173486377
sg14
I6
sg15
I01
sg16
I2
sg17
I17
sbs(I4
I3
tp153
g1
(g10
g3
NtRp154
(dp155
g13
F-15.105430655451702
sg14
I4
sg15
I01
sg16
I3
sg17
I12
sbs(I13
I9
tp156
g1
(g10
g3
NtRp157
(dp158
g13
F-3.2323856363415033
sg14
I13
sg15
I01
sg16
I9
sg17
I137
sbs(I3
I4
tp159
g1
(g10
g3
NtRp160
(dp161
g13
F-26.27767594983704
sg14
I3
sg15
I01
sg16
I4
sg17
I5
sbs(I2
I4
tp162
g1
(g10
g3
NtRp163
(dp164
g13
F2.154837683511035
sg14
I2
sg15
I00
sg16
I4
sg17
I24
sbs(I8
I4
tp165
g1
(g10
g3
NtRp166
(dp167
g13
F-26.047280575207495
sg14
I8
sg15
I01
sg16
I4
sg17
I40
sbssS'_input_nodes'
p168
I1
sS'_output_nodes'
p169
I1
sS'_node_gene_type'
p170
cneat.genome
NodeGene
p171
sS'_conn_gene_type'
p172
g10
sS'fitness'
p173
F0.99305046910431449
sS'parent2_id'
p174
I7547
sS'_id'
p175
I7554
sS'parent1_id'
p176
I7535
sS'_node_genes'
p177
(lp178
g1
(g171
g3
NtRp179
(dp180
S'_bias'
p181
I0
sS'_type'
p182
S'INPUT'
p183
sg175
I1
sS'_response'
p184
F4.9242730000000003
sS'_activation_type'
p185
Nsbag1
(g171
g3
NtRp186
(dp187
g181
F-3.0730966378626587
sg182
S'OUTPUT'
p188
sg175
I2
sg184
F7.0491965734171291
sg185
S'tanh'
p189
sbag1
(g171
g3
NtRp190
(dp191
g181
F-7.4292830618498318
sg182
S'HIDDEN'
p192
sg175
I3
sg184
F-0.10802100811320378
sg185
g189
sbag1
(g171
g3
NtRp193
(dp194
g181
F-4.2868954417739982
sg182
g192
sg175
I4
sg184
F2.5976336173840386
sg185
g189
sbag1
(g171
g3
NtRp195
(dp196
g181
F-0.036166905102548719
sg182
g192
sg175
I5
sg184
F6.1698872815300074
sg185
g189
sbag1
(g171
g3
NtRp197
(dp198
g181
F0.27413864739440508
sg182
g192
sg175
I6
sg184
F0.75865161123861735
sg185
g189
sbag1
(g171
g3
NtRp199
(dp200
g181
F-2.0088157156459987
sg182
g192
sg175
I7
sg184
F3.7144858442396727
sg185
g189
sbag1
(g171
g3
NtRp201
(dp202
g181
F-2.5482840445086343
sg182
g192
sg175
I8
sg184
F8.2307043286228794
sg185
g189
sbag1
(g171
g3
NtRp203
(dp204
g181
F0.12456605729660075
sg182
g192
sg175
I9
sg184
F3.8382066783176425
sg185
g189
sbag1
(g171
g3
NtRp205
(dp206
g181
F-3.1020385209480796
sg182
g192
sg175
I10
sg184
F2.0139038815438619
sg185
g189
sbag1
(g171
g3
NtRp207
(dp208
g181
F0.880850264478653
sg182
g192
sg175
I11
sg184
F6.8926261216431177
sg185
g189
sbag1
(g171
g3
NtRp209
(dp210
g181
F-1.1588462595441598
sg182
g192
sg175
I12
sg184
F6.0064924654519585
sg185
g189
sbag1
(g171
g3
NtRp211
(dp212
g181
F3.2964578289136748
sg182
g192
sg175
I13
sg184
F2.7815756433047647
sg185
g189
sbag1
(g171
g3
NtRp213
(dp214
g181
F-0.35308174827654015
sg182
g192
sg175
I14
sg184
F3.5885370076579308
sg185
g189
sbag1
(g171
g3
NtRp215
(dp216
g181
F1.3365584899205767
sg182
g192
sg175
I15
sg184
F6.8693933952620805
sg185
g189
sbag1
(g171
g3
NtRp217
(dp218
g181
F0.56823592756286789
sg182
g192
sg175
I16
sg184
F5.9749563870164977
sg185
g189
sbag1
(g171
g3
NtRp219
(dp220
g181
F-1.7767377990967939
sg182
g192
sg175
I17
sg184
F5.6747180567272082
sg185
g189
sbag1
(g171
g3
NtRp221
(dp222
g181
F0.32398174656783446
sg182
g192
sg175
I18
sg184
F8.2858821969092755
sg185
g189
sbasb.