ccopy_reg
_reconstructor
p1
(cneat.chromosome
Chromosome
p2
c__builtin__
object
p3
NtRp4
(dp5
S'species_id'
p6
I37
sS'_connection_genes'
p7
(dp8
(I1
I3
tp9
g1
(cneat.genome
ConnectionGene
p10
g3
NtRp11
(dp12
S'_ConnectionGene__weight'
p13
F19.033058645854059
sS'_ConnectionGene__in'
p14
I1
sS'_ConnectionGene__enabled'
p15
I01
sS'_ConnectionGene__out'
p16
I3
sS'_ConnectionGene__innov_number'
p17
I3
sbs(I6
I6
tp18
g1
(g10
g3
NtRp19
(dp20
g13
F21.174429205555512
sg14
I6
sg15
I01
sg16
I6
sg17
I39
sbs(I5
I6
tp21
g1
(g10
g3
NtRp22
(dp23
g13
F-13.503988944429086
sg14
I5
sg15
I01
sg16
I6
sg17
I16
sbs(I9
I4
tp24
g1
(g10
g3
NtRp25
(dp26
g13
F8.4679553783426496
sg14
I9
sg15
I01
sg16
I4
sg17
I77
sbs(I7
I2
tp27
g1
(g10
g3
NtRp28
(dp29
g13
F3.410237550233254
sg14
I7
sg15
I01
sg16
I2
sg17
I33
sbs(I1
I2
tp30
g1
(g10
g3
NtRp31
(dp32
g13
F5.6552670058888648
sg14
I1
sg15
I01
sg16
I2
sg17
I1
sbs(I4
I9
tp33
g1
(g10
g3
NtRp34
(dp35
g13
F-0.35802934379909312
sg14
I4
sg15
I01
sg16
I9
sg17
I44
sbs(I3
I3
tp36
g1
(g10
g3
NtRp37
(dp38
g13
F15.789412788022538
sg14
I3
sg15
I01
sg16
I3
sg17
I9
sbs(I4
I4
tp39
g1
(g10
g3
NtRp40
(dp41
g13
F7.2610521963616268
sg14
I4
sg15
I00
sg16
I4
sg17
I15
sbs(I1
I5
tp42
g1
(g10
g3
NtRp43
(dp44
g13
F-5.4437068213026389
sg14
I1
sg15
I01
sg16
I5
sg17
I10
sbs(I3
I6
tp45
g1
(g10
g3
NtRp46
(dp47
g13
F8.2064816042030309
sg14
I3
sg15
I01
sg16
I6
sg17
I19
sbs(I2
I2
tp48
g1
(g10
g3
NtRp49
(dp50
g13
F3.7254496393998631
sg14
I2
sg15
I01
sg16
I2
sg17
I2
sbs(I3
I5
tp51
g1
(g10
g3
NtRp52
(dp53
g13
F3.3779984406041934
sg14
I3
sg15
I01
sg16
I5
sg17
I13
sbs(I3
I2
tp54
g1
(g10
g3
NtRp55
(dp56
g13
F7.5558058725081043
sg14
I3
sg15
I01
sg16
I2
sg17
I4
sbs(I4
I5
tp57
g1
(g10
g3
NtRp58
(dp59
g13
F-0.62037770412167548
sg14
I4
sg15
I01
sg16
I5
sg17
I30
sbs(I1
I4
tp60
g1
(g10
g3
NtRp61
(dp62
g13
F8.2466117599335416
sg14
I1
sg15
I01
sg16
I4
sg17
I8
sbs(I2
I3
tp63
g1
(g10
g3
NtRp64
(dp65
g13
F-23.946060727988652
sg14
I2
sg15
I01
sg16
I3
sg17
I7
sbs(I4
I2
tp66
g1
(g10
g3
NtRp67
(dp68
g13
F-5.0994431962883651
sg14
I4
sg15
I01
sg16
I2
sg17
I6
sbs(I6
I5
tp69
g1
(g10
g3
NtRp70
(dp71
g13
F7.0775209673060075
sg14
I6
sg15
I01
sg16
I5
sg17
I23
sbs(I5
I3
tp72
g1
(g10
g3
NtRp73
(dp74
g13
F30
sg14
I5
sg15
I01
sg16
I3
sg17
I14
sbs(I8
I3
tp75
g1
(g10
g3
NtRp76
(dp77
g13
F9.22617833082891
sg14
I8
sg15
I01
sg16
I3
sg17
I71
sbs(I3
I4
tp78
g1
(g10
g3
NtRp79
(dp80
g13
F-2.7690366782654565
sg14
I3
sg15
I00
sg16
I4
sg17
I5
sbs(I5
I7
tp81
g1
(g10
g3
NtRp82
(dp83
g13
F9.5864484465009134
sg14
I5
sg15
I01
sg16
I7
sg17
I28
sbs(I3
I8
tp84
g1
(g10
g3
NtRp85
(dp86
g13
F14.775004555801862
sg14
I3
sg15
I01
sg16
I8
sg17
I49
sbs(I4
I3
tp87
g1
(g10
g3
NtRp88
(dp89
g13
F4.3742387481964506
sg14
I4
sg15
I01
sg16
I3
sg17
I12
sbs(I5
I2
tp90
g1
(g10
g3
NtRp91
(dp92
g13
F29.30505722252159
sg14
I5
sg15
I01
sg16
I2
sg17
I11
sbs(I2
I4
tp93
g1
(g10
g3
NtRp94
(dp95
g13
F6.5772649491460733
sg14
I2
sg15
I01
sg16
I4
sg17
I24
sbs(I8
I4
tp96
g1
(g10
g3
NtRp97
(dp98
g13
F3.6939621522142021
sg14
I8
sg15
I01
sg16
I4
sg17
I40
sbssS'_input_nodes'
p99
I1
sS'_output_nodes'
p100
I1
sS'_node_gene_type'
p101
cneat.genome
NodeGene
p102
sS'_conn_gene_type'
p103
g10
sS'fitness'
p104
F0.79705956258716459
sS'parent2_id'
p105
I3823
sS'_id'
p106
I3848
sS'parent1_id'
p107
I3823
sS'_node_genes'
p108
(lp109
g1
(g102
g3
NtRp110
(dp111
S'_bias'
p112
I0
sS'_type'
p113
S'INPUT'
p114
sg106
I1
sS'_response'
p115
F4.9242730000000003
sS'_activation_type'
p116
Nsbag1
(g102
g3
NtRp117
(dp118
g112
F-0.50728987487722554
sg113
S'OUTPUT'
p119
sg106
I2
sg115
F4.7836167008933304
sg116
S'tanh'
p120
sbag1
(g102
g3
NtRp121
(dp122
g112
F-1.1078868937746371
sg113
S'HIDDEN'
p123
sg106
I3
sg115
F0.068205936141895129
sg116
g120
sbag1
(g102
g3
NtRp124
(dp125
g112
F-0.23468623316609508
sg113
g123
sg106
I4
sg115
F4.641524971859365
sg116
g120
sbag1
(g102
g3
NtRp126
(dp127
g112
F3.9516146386872868
sg113
g123
sg106
I5
sg115
F5.0609192447018954
sg116
g120
sbag1
(g102
g3
NtRp128
(dp129
g112
F-2.4558449475292186
sg113
g123
sg106
I6
sg115
F3.2649848227216394
sg116
g120
sbag1
(g102
g3
NtRp130
(dp131
g112
F-1.5810735877578475
sg113
g123
sg106
I7
sg115
F5.8663212104452933
sg116
g120
sbag1
(g102
g3
NtRp132
(dp133
g112
F0.32765878440291568
sg113
g123
sg106
I8
sg115
F5.0759179818958806
sg116
g120
sbag1
(g102
g3
NtRp134
(dp135
g112
F-0.056358074360499354
sg113
g123
sg106
I9
sg115
F4.9242730000000003
sg116
g120
sbasb.