ccopy_reg
_reconstructor
p1
(cneat.chromosome
Chromosome
p2
c__builtin__
object
p3
NtRp4
(dp5
S'species_id'
p6
I49
sS'_connection_genes'
p7
(dp8
(I1
I3
tp9
g1
(cneat.genome
ConnectionGene
p10
g3
NtRp11
(dp12
S'_ConnectionGene__weight'
p13
F23.534075427618159
sS'_ConnectionGene__in'
p14
I1
sS'_ConnectionGene__enabled'
p15
I01
sS'_ConnectionGene__out'
p16
I3
sS'_ConnectionGene__innov_number'
p17
I3
sbs(I6
I6
tp18
g1
(g10
g3
NtRp19
(dp20
g13
F7.412371762147596
sg14
I6
sg15
I01
sg16
I6
sg17
I39
sbs(I5
I6
tp21
g1
(g10
g3
NtRp22
(dp23
g13
F-1.9397825671855702
sg14
I5
sg15
I01
sg16
I6
sg17
I16
sbs(I14
I4
tp24
g1
(g10
g3
NtRp25
(dp26
g13
F-16.374699624464853
sg14
I14
sg15
I01
sg16
I4
sg17
I159
sbs(I9
I8
tp27
g1
(g10
g3
NtRp28
(dp29
g13
F-17.741774012285074
sg14
I9
sg15
I01
sg16
I8
sg17
I60
sbs(I4
I12
tp30
g1
(g10
g3
NtRp31
(dp32
g13
F-4.5026551906127139
sg14
I4
sg15
I01
sg16
I12
sg17
I102
sbs(I9
I4
tp33
g1
(g10
g3
NtRp34
(dp35
g13
F23.923810940236525
sg14
I9
sg15
I01
sg16
I4
sg17
I77
sbs(I7
I2
tp36
g1
(g10
g3
NtRp37
(dp38
g13
F-10.016599225390244
sg14
I7
sg15
I01
sg16
I2
sg17
I33
sbs(I1
I2
tp39
g1
(g10
g3
NtRp40
(dp41
g13
F8.6242213120011897
sg14
I1
sg15
I01
sg16
I2
sg17
I1
sbs(I4
I9
tp42
g1
(g10
g3
NtRp43
(dp44
g13
F3.2970789199981145
sg14
I4
sg15
I01
sg16
I9
sg17
I44
sbs(I3
I3
tp45
g1
(g10
g3
NtRp46
(dp47
g13
F29.172776807791891
sg14
I3
sg15
I01
sg16
I3
sg17
I9
sbs(I4
I4
tp48
g1
(g10
g3
NtRp49
(dp50
g13
F4.8535888426024361
sg14
I4
sg15
I00
sg16
I4
sg17
I15
sbs(I4
I13
tp51
g1
(g10
g3
NtRp52
(dp53
g13
F-0.89086287955470678
sg14
I4
sg15
I01
sg16
I13
sg17
I119
sbs(I1
I5
tp54
g1
(g10
g3
NtRp55
(dp56
g13
F4.1397719993359781
sg14
I1
sg15
I01
sg16
I5
sg17
I10
sbs(I4
I11
tp57
g1
(g10
g3
NtRp58
(dp59
g13
F10.034360571301532
sg14
I4
sg15
I00
sg16
I11
sg17
I75
sbs(I3
I6
tp60
g1
(g10
g3
NtRp61
(dp62
g13
F-6.6715144194280462
sg14
I3
sg15
I01
sg16
I6
sg17
I19
sbs(I2
I2
tp63
g1
(g10
g3
NtRp64
(dp65
g13
F14.044175411357042
sg14
I2
sg15
I01
sg16
I2
sg17
I2
sbs(I7
I9
tp66
g1
(g10
g3
NtRp67
(dp68
g13
F10.671377947263096
sg14
I7
sg15
I01
sg16
I9
sg17
I41
sbs(I11
I2
tp69
g1
(g10
g3
NtRp70
(dp71
g13
F26.566325892738213
sg14
I11
sg15
I01
sg16
I2
sg17
I74
sbs(I3
I2
tp72
g1
(g10
g3
NtRp73
(dp74
g13
F-7.0612979727720715
sg14
I3
sg15
I01
sg16
I2
sg17
I4
sbs(I10
I4
tp75
g1
(g10
g3
NtRp76
(dp77
g13
F-11.978541823294366
sg14
I10
sg15
I01
sg16
I4
sg17
I90
sbs(I4
I5
tp78
g1
(g10
g3
NtRp79
(dp80
g13
F-20.522737271953595
sg14
I4
sg15
I01
sg16
I5
sg17
I30
sbs(I7
I13
tp81
g1
(g10
g3
NtRp82
(dp83
g13
F0.91660160302185667
sg14
I7
sg15
I01
sg16
I13
sg17
I136
sbs(I1
I4
tp84
g1
(g10
g3
NtRp85
(dp86
g13
F29.559457843000715
sg14
I1
sg15
I01
sg16
I4
sg17
I8
sbs(I2
I10
tp87
g1
(g10
g3
NtRp88
(dp89
g13
F-1.4146799868643167
sg14
I2
sg15
I01
sg16
I10
sg17
I57
sbs(I2
I3
tp90
g1
(g10
g3
NtRp91
(dp92
g13
F-18.062459145202912
sg14
I2
sg15
I01
sg16
I3
sg17
I7
sbs(I12
I11
tp93
g1
(g10
g3
NtRp94
(dp95
g13
F13.322265067054461
sg14
I12
sg15
I01
sg16
I11
sg17
I84
sbs(I4
I2
tp96
g1
(g10
g3
NtRp97
(dp98
g13
F25.112473978809209
sg14
I4
sg15
I00
sg16
I2
sg17
I6
sbs(I2
I14
tp99
g1
(g10
g3
NtRp100
(dp101
g13
F1
sg14
I2
sg15
I01
sg16
I14
sg17
I142
sbs(I6
I5
tp102
g1
(g10
g3
NtRp103
(dp104
g13
F17.889803136292066
sg14
I6
sg15
I01
sg16
I5
sg17
I23
sbs(I5
I3
tp105
g1
(g10
g3
NtRp106
(dp107
g13
F-5.3192416557050759
sg14
I5
sg15
I01
sg16
I3
sg17
I14
sbs(I3
I5
tp108
g1
(g10
g3
NtRp109
(dp110
g13
F23.646208387949716
sg14
I3
sg15
I01
sg16
I5
sg17
I13
sbs(I8
I3
tp111
g1
(g10
g3
NtRp112
(dp113
g13
F7.8892566552926695
sg14
I8
sg15
I01
sg16
I3
sg17
I71
sbs(I3
I4
tp114
g1
(g10
g3
NtRp115
(dp116
g13
F-19.320747282608441
sg14
I3
sg15
I00
sg16
I4
sg17
I5
sbs(I5
I7
tp117
g1
(g10
g3
NtRp118
(dp119
g13
F0.67067538715035879
sg14
I5
sg15
I01
sg16
I7
sg17
I28
sbs(I3
I8
tp120
g1
(g10
g3
NtRp121
(dp122
g13
F12.631452998230813
sg14
I3
sg15
I01
sg16
I8
sg17
I49
sbs(I6
I2
tp123
g1
(g10
g3
NtRp124
(dp125
g13
F9.4157238922964659
sg14
I6
sg15
I01
sg16
I2
sg17
I17
sbs(I4
I3
tp126
g1
(g10
g3
NtRp127
(dp128
g13
F-6.293078371680723
sg14
I4
sg15
I01
sg16
I3
sg17
I12
sbs(I13
I9
tp129
g1
(g10
g3
NtRp130
(dp131
g13
F-2.8211874918899582
sg14
I13
sg15
I01
sg16
I9
sg17
I137
sbs(I5
I2
tp132
g1
(g10
g3
NtRp133
(dp134
g13
F30
sg14
I5
sg15
I01
sg16
I2
sg17
I11
sbs(I2
I4
tp135
g1
(g10
g3
NtRp136
(dp137
g13
F-16.159062517926817
sg14
I2
sg15
I00
sg16
I4
sg17
I24
sbs(I8
I4
tp138
g1
(g10
g3
NtRp139
(dp140
g13
F-14.329776031254626
sg14
I8
sg15
I01
sg16
I4
sg17
I40
sbssS'_input_nodes'
p141
I1
sS'_output_nodes'
p142
I1
sS'_node_gene_type'
p143
cneat.genome
NodeGene
p144
sS'_conn_gene_type'
p145
g10
sS'fitness'
p146
F0.93852578674246356
sS'parent2_id'
p147
I5693
sS'_id'
p148
I5709
sS'parent1_id'
p149
I5693
sS'_node_genes'
p150
(lp151
g1
(g144
g3
NtRp152
(dp153
S'_bias'
p154
I0
sS'_type'
p155
S'INPUT'
p156
sg148
I1
sS'_response'
p157
F4.9242730000000003
sS'_activation_type'
p158
Nsbag1
(g144
g3
NtRp159
(dp160
g154
F-0.87531994190081486
sg155
S'OUTPUT'
p161
sg148
I2
sg157
F5.4521261454634411
sg158
S'tanh'
p162
sbag1
(g144
g3
NtRp163
(dp164
g154
F-4.471578315261203
sg155
S'HIDDEN'
p165
sg148
I3
sg157
F-0.21212420812764107
sg158
g162
sbag1
(g144
g3
NtRp166
(dp167
g154
F-2.5921556393409291
sg155
g165
sg148
I4
sg157
F3.794353018629975
sg158
g162
sbag1
(g144
g3
NtRp168
(dp169
g154
F0.86814659463955135
sg155
g165
sg148
I5
sg157
F5.8979662244932189
sg158
g162
sbag1
(g144
g3
NtRp170
(dp171
g154
F-1.4378034251039455
sg155
g165
sg148
I6
sg157
F0.37228071990533318
sg158
g162
sbag1
(g144
g3
NtRp172
(dp173
g154
F-2.6317897565150195
sg155
g165
sg148
I7
sg157
F4.2955778310769315
sg158
g162
sbag1
(g144
g3
NtRp174
(dp175
g154
F-2.6318627807210047
sg155
g165
sg148
I8
sg157
F5.7527604567785575
sg158
g162
sbag1
(g144
g3
NtRp176
(dp177
g154
F1.4934515469502618
sg155
g165
sg148
I9
sg157
F5.381463396997785
sg158
g162
sbag1
(g144
g3
NtRp178
(dp179
g154
F-0.41838359849451723
sg155
g165
sg148
I10
sg157
F2.7563274179627237
sg158
g162
sbag1
(g144
g3
NtRp180
(dp181
g154
F0.52464952577289692
sg155
g165
sg148
I11
sg157
F7.4002562214957353
sg158
g162
sbag1
(g144
g3
NtRp182
(dp183
g154
F-1.6356797523244329
sg155
g165
sg148
I12
sg157
F5.2151743851951116
sg158
g162
sbag1
(g144
g3
NtRp184
(dp185
g154
F0.88026493259728156
sg155
g165
sg148
I13
sg157
F4.4629351802744992
sg158
g162
sbag1
(g144
g3
NtRp186
(dp187
g154
I0
sg155
g165
sg148
I14
sg157
F4.9242730000000003
sg158
g162
sbasb.