ccopy_reg
_reconstructor
p1
(cneat.chromosome
Chromosome
p2
c__builtin__
object
p3
NtRp4
(dp5
S'species_id'
p6
I58
sS'_connection_genes'
p7
(dp8
(I1
I3
tp9
g1
(cneat.genome
ConnectionGene
p10
g3
NtRp11
(dp12
S'_ConnectionGene__weight'
p13
F28.025046464390602
sS'_ConnectionGene__in'
p14
I1
sS'_ConnectionGene__enabled'
p15
I00
sS'_ConnectionGene__out'
p16
I3
sS'_ConnectionGene__innov_number'
p17
I3
sbs(I6
I6
tp18
g1
(g10
g3
NtRp19
(dp20
g13
F9.1480625451516584
sg14
I6
sg15
I01
sg16
I6
sg17
I39
sbs(I5
I6
tp21
g1
(g10
g3
NtRp22
(dp23
g13
F12.751285294852531
sg14
I5
sg15
I01
sg16
I6
sg17
I16
sbs(I14
I4
tp24
g1
(g10
g3
NtRp25
(dp26
g13
F-6.7568593331164069
sg14
I14
sg15
I01
sg16
I4
sg17
I159
sbs(I9
I8
tp27
g1
(g10
g3
NtRp28
(dp29
g13
F-11.18551284604137
sg14
I9
sg15
I01
sg16
I8
sg17
I60
sbs(I1
I15
tp30
g1
(g10
g3
NtRp31
(dp32
g13
F0.9568238627445147
sg14
I1
sg15
I01
sg16
I15
sg17
I168
sbs(I4
I12
tp33
g1
(g10
g3
NtRp34
(dp35
g13
F13.75723302498621
sg14
I4
sg15
I01
sg16
I12
sg17
I102
sbs(I9
I4
tp36
g1
(g10
g3
NtRp37
(dp38
g13
F23.854974817651296
sg14
I9
sg15
I01
sg16
I4
sg17
I77
sbs(I7
I2
tp39
g1
(g10
g3
NtRp40
(dp41
g13
F-8.9588913384594164
sg14
I7
sg15
I01
sg16
I2
sg17
I33
sbs(I1
I2
tp42
g1
(g10
g3
NtRp43
(dp44
g13
F20.464989679815048
sg14
I1
sg15
I01
sg16
I2
sg17
I1
sbs(I4
I9
tp45
g1
(g10
g3
NtRp46
(dp47
g13
F5.0203381996672309
sg14
I4
sg15
I01
sg16
I9
sg17
I44
sbs(I3
I3
tp48
g1
(g10
g3
NtRp49
(dp50
g13
F26.860842611046792
sg14
I3
sg15
I01
sg16
I3
sg17
I9
sbs(I4
I4
tp51
g1
(g10
g3
NtRp52
(dp53
g13
F-11.954345972790804
sg14
I4
sg15
I00
sg16
I4
sg17
I15
sbs(I13
I16
tp54
g1
(g10
g3
NtRp55
(dp56
g13
F1.1385880933666679
sg14
I13
sg15
I01
sg16
I16
sg17
I179
sbs(I4
I13
tp57
g1
(g10
g3
NtRp58
(dp59
g13
F-11.550713850267256
sg14
I4
sg15
I01
sg16
I13
sg17
I119
sbs(I1
I5
tp60
g1
(g10
g3
NtRp61
(dp62
g13
F12.575401781377947
sg14
I1
sg15
I01
sg16
I5
sg17
I10
sbs(I4
I11
tp63
g1
(g10
g3
NtRp64
(dp65
g13
F7.5922379603761989
sg14
I4
sg15
I01
sg16
I11
sg17
I75
sbs(I3
I6
tp66
g1
(g10
g3
NtRp67
(dp68
g13
F-13.474353062390742
sg14
I3
sg15
I01
sg16
I6
sg17
I19
sbs(I2
I2
tp69
g1
(g10
g3
NtRp70
(dp71
g13
F18.731588390030502
sg14
I2
sg15
I01
sg16
I2
sg17
I2
sbs(I7
I9
tp72
g1
(g10
g3
NtRp73
(dp74
g13
F13.291858747406659
sg14
I7
sg15
I01
sg16
I9
sg17
I41
sbs(I11
I2
tp75
g1
(g10
g3
NtRp76
(dp77
g13
F30
sg14
I11
sg15
I01
sg16
I2
sg17
I74
sbs(I4
I10
tp78
g1
(g10
g3
NtRp79
(dp80
g13
F-3.3021919301048852
sg14
I4
sg15
I01
sg16
I10
sg17
I63
sbs(I3
I2
tp81
g1
(g10
g3
NtRp82
(dp83
g13
F-5.2685333660103764
sg14
I3
sg15
I01
sg16
I2
sg17
I4
sbs(I10
I4
tp84
g1
(g10
g3
NtRp85
(dp86
g13
F-15.083997947559055
sg14
I10
sg15
I01
sg16
I4
sg17
I90
sbs(I4
I5
tp87
g1
(g10
g3
NtRp88
(dp89
g13
F-30
sg14
I4
sg15
I01
sg16
I5
sg17
I30
sbs(I15
I3
tp90
g1
(g10
g3
NtRp91
(dp92
g13
F19.36469587666295
sg14
I15
sg15
I01
sg16
I3
sg17
I169
sbs(I8
I11
tp93
g1
(g10
g3
NtRp94
(dp95
g13
F4.2674124092108006
sg14
I8
sg15
I01
sg16
I11
sg17
I80
sbs(I7
I13
tp96
g1
(g10
g3
NtRp97
(dp98
g13
F-5.4672080754056722
sg14
I7
sg15
I01
sg16
I13
sg17
I136
sbs(I1
I4
tp99
g1
(g10
g3
NtRp100
(dp101
g13
F22.830855170351157
sg14
I1
sg15
I01
sg16
I4
sg17
I8
sbs(I2
I10
tp102
g1
(g10
g3
NtRp103
(dp104
g13
F-9.3651790959392294
sg14
I2
sg15
I01
sg16
I10
sg17
I57
sbs(I2
I3
tp105
g1
(g10
g3
NtRp106
(dp107
g13
F-17.429531608501804
sg14
I2
sg15
I01
sg16
I3
sg17
I7
sbs(I12
I11
tp108
g1
(g10
g3
NtRp109
(dp110
g13
F7.5633757139741906
sg14
I12
sg15
I01
sg16
I11
sg17
I84
sbs(I4
I2
tp111
g1
(g10
g3
NtRp112
(dp113
g13
F18.631547176011285
sg14
I4
sg15
I00
sg16
I2
sg17
I6
sbs(I2
I14
tp114
g1
(g10
g3
NtRp115
(dp116
g13
F-6.4974520213474403
sg14
I2
sg15
I01
sg16
I14
sg17
I142
sbs(I6
I5
tp117
g1
(g10
g3
NtRp118
(dp119
g13
F21.63033389402424
sg14
I6
sg15
I01
sg16
I5
sg17
I23
sbs(I5
I3
tp120
g1
(g10
g3
NtRp121
(dp122
g13
F-6.0568138883860936
sg14
I5
sg15
I01
sg16
I3
sg17
I14
sbs(I3
I5
tp123
g1
(g10
g3
NtRp124
(dp125
g13
F20.957351542169562
sg14
I3
sg15
I01
sg16
I5
sg17
I13
sbs(I8
I3
tp126
g1
(g10
g3
NtRp127
(dp128
g13
F-0.34348965302434076
sg14
I8
sg15
I01
sg16
I3
sg17
I71
sbs(I3
I4
tp129
g1
(g10
g3
NtRp130
(dp131
g13
F-21.097039399542634
sg14
I3
sg15
I00
sg16
I4
sg17
I5
sbs(I5
I7
tp132
g1
(g10
g3
NtRp133
(dp134
g13
F1.8895967281591473
sg14
I5
sg15
I01
sg16
I7
sg17
I28
sbs(I16
I9
tp135
g1
(g10
g3
NtRp136
(dp137
g13
F-7.7949153286088011
sg14
I16
sg15
I01
sg16
I9
sg17
I180
sbs(I3
I8
tp138
g1
(g10
g3
NtRp139
(dp140
g13
F14.014523387891108
sg14
I3
sg15
I01
sg16
I8
sg17
I49
sbs(I6
I2
tp141
g1
(g10
g3
NtRp142
(dp143
g13
F6.7920245694483086
sg14
I6
sg15
I01
sg16
I2
sg17
I17
sbs(I4
I3
tp144
g1
(g10
g3
NtRp145
(dp146
g13
F-5.4699378231505742
sg14
I4
sg15
I01
sg16
I3
sg17
I12
sbs(I13
I9
tp147
g1
(g10
g3
NtRp148
(dp149
g13
F-9.2424650655214915
sg14
I13
sg15
I01
sg16
I9
sg17
I137
sbs(I5
I2
tp150
g1
(g10
g3
NtRp151
(dp152
g13
F25.646204458261007
sg14
I5
sg15
I01
sg16
I2
sg17
I11
sbs(I2
I4
tp153
g1
(g10
g3
NtRp154
(dp155
g13
F-27.842095892847816
sg14
I2
sg15
I00
sg16
I4
sg17
I24
sbs(I8
I4
tp156
g1
(g10
g3
NtRp157
(dp158
g13
F-19.430135277176067
sg14
I8
sg15
I01
sg16
I4
sg17
I40
sbssS'_input_nodes'
p159
I1
sS'_output_nodes'
p160
I1
sS'_node_gene_type'
p161
cneat.genome
NodeGene
p162
sS'_conn_gene_type'
p163
g10
sS'fitness'
p164
F0.95472818424342432
sS'parent2_id'
p165
I6327
sS'_id'
p166
I6343
sS'parent1_id'
p167
I6327
sS'_node_genes'
p168
(lp169
g1
(g162
g3
NtRp170
(dp171
S'_bias'
p172
I0
sS'_type'
p173
S'INPUT'
p174
sg166
I1
sS'_response'
p175
F4.9242730000000003
sS'_activation_type'
p176
Nsbag1
(g162
g3
NtRp177
(dp178
g172
F-0.36778671233830795
sg173
S'OUTPUT'
p179
sg166
I2
sg175
F7.0930289463885927
sg176
S'tanh'
p180
sbag1
(g162
g3
NtRp181
(dp182
g172
F-4.7293099505060008
sg173
S'HIDDEN'
p183
sg166
I3
sg175
F0.53854576228818485
sg176
g180
sbag1
(g162
g3
NtRp184
(dp185
g172
F-2.5432330706358983
sg173
g183
sg166
I4
sg175
F3.8701196715126072
sg176
g180
sbag1
(g162
g3
NtRp186
(dp187
g172
F2.7369014421177429
sg173
g183
sg166
I5
sg175
F6.0214763775460902
sg176
g180
sbag1
(g162
g3
NtRp188
(dp189
g172
F-2.2489821785289332
sg173
g183
sg166
I6
sg175
F0.68457196655848618
sg176
g180
sbag1
(g162
g3
NtRp190
(dp191
g172
F-3.4422296295933528
sg173
g183
sg166
I7
sg175
F5.5535645499982653
sg176
g180
sbag1
(g162
g3
NtRp192
(dp193
g172
F-1.8950883009378992
sg173
g183
sg166
I8
sg175
F5.1695974956886346
sg176
g180
sbag1
(g162
g3
NtRp194
(dp195
g172
F1.5524932301230727
sg173
g183
sg166
I9
sg175
F5.2004550868738306
sg176
g180
sbag1
(g162
g3
NtRp196
(dp197
g172
F-2.2975940713384984
sg173
g183
sg166
I10
sg175
F1.3827992943460046
sg176
g180
sbag1
(g162
g3
NtRp198
(dp199
g172
F0.78910657941112794
sg173
g183
sg166
I11
sg175
F7.2305868292618944
sg176
g180
sbag1
(g162
g3
NtRp200
(dp201
g172
F-0.62446078993225884
sg173
g183
sg166
I12
sg175
F5.165674186831188
sg176
g180
sbag1
(g162
g3
NtRp202
(dp203
g172
F1.380327419554503
sg173
g183
sg166
I13
sg175
F3.731797908758272
sg176
g180
sbag1
(g162
g3
NtRp204
(dp205
g172
F0.35029699062870917
sg173
g183
sg166
I14
sg175
F3.9111153801649023
sg176
g180
sbag1
(g162
g3
NtRp206
(dp207
g172
F0.090995893658313246
sg173
g183
sg166
I15
sg175
F5.0848984594496374
sg176
g180
sbag1
(g162
g3
NtRp208
(dp209
g172
I0
sg173
g183
sg166
I16
sg175
F4.998254772932281
sg176
g180
sbasb.