ccopy_reg
_reconstructor
p1
(cneat.chromosome
Chromosome
p2
c__builtin__
object
p3
NtRp4
(dp5
S'species_id'
p6
I24
sS'_connection_genes'
p7
(dp8
(I7
I3
tp9
g1
(cneat.genome
ConnectionGene
p10
g3
NtRp11
(dp12
S'_ConnectionGene__weight'
p13
F10.257511206685461
sS'_ConnectionGene__in'
p14
I7
sS'_ConnectionGene__enabled'
p15
I01
sS'_ConnectionGene__out'
p16
I3
sS'_ConnectionGene__innov_number'
p17
I29
sbs(I1
I3
tp18
g1
(g10
g3
NtRp19
(dp20
g13
F-5.9843962394857435
sg14
I1
sg15
I01
sg16
I3
sg17
I3
sbs(I4
I8
tp21
g1
(g10
g3
NtRp22
(dp23
g13
F-0.85555084753529997
sg14
I4
sg15
I01
sg16
I8
sg17
I35
sbs(I5
I6
tp24
g1
(g10
g3
NtRp25
(dp26
g13
F-10.461943776820352
sg14
I5
sg15
I01
sg16
I6
sg17
I16
sbs(I7
I7
tp27
g1
(g10
g3
NtRp28
(dp29
g13
F3.8400188432289415
sg14
I7
sg15
I01
sg16
I7
sg17
I47
sbs(I6
I2
tp30
g1
(g10
g3
NtRp31
(dp32
g13
F-19.874606278857541
sg14
I6
sg15
I01
sg16
I2
sg17
I17
sbs(I8
I5
tp33
g1
(g10
g3
NtRp34
(dp35
g13
F-6.5088170211424394
sg14
I8
sg15
I01
sg16
I5
sg17
I36
sbs(I1
I2
tp36
g1
(g10
g3
NtRp37
(dp38
g13
F-2.364169042411973
sg14
I1
sg15
I01
sg16
I2
sg17
I1
sbs(I2
I9
tp39
g1
(g10
g3
NtRp40
(dp41
g13
F-3.2104946021392906
sg14
I2
sg15
I01
sg16
I9
sg17
I51
sbs(I2
I2
tp42
g1
(g10
g3
NtRp43
(dp44
g13
F3.2189652029099047
sg14
I2
sg15
I00
sg16
I2
sg17
I2
sbs(I3
I2
tp45
g1
(g10
g3
NtRp46
(dp47
g13
F-10.925038251102329
sg14
I3
sg15
I01
sg16
I2
sg17
I4
sbs(I4
I5
tp48
g1
(g10
g3
NtRp49
(dp50
g13
F-11.463324136287007
sg14
I4
sg15
I00
sg16
I5
sg17
I30
sbs(I9
I3
tp51
g1
(g10
g3
NtRp52
(dp53
g13
F2.908589366044894
sg14
I9
sg15
I01
sg16
I3
sg17
I42
sbs(I1
I4
tp54
g1
(g10
g3
NtRp55
(dp56
g13
F11.672094585246562
sg14
I1
sg15
I01
sg16
I4
sg17
I8
sbs(I2
I10
tp57
g1
(g10
g3
NtRp58
(dp59
g13
F-1.1612428109875812
sg14
I2
sg15
I01
sg16
I10
sg17
I57
sbs(I2
I3
tp60
g1
(g10
g3
NtRp61
(dp62
g13
F7.5445050649871748
sg14
I2
sg15
I00
sg16
I3
sg17
I7
sbs(I4
I2
tp63
g1
(g10
g3
NtRp64
(dp65
g13
F-7.4250388850798617
sg14
I4
sg15
I01
sg16
I2
sg17
I6
sbs(I3
I5
tp66
g1
(g10
g3
NtRp67
(dp68
g13
F1.3817641565421304
sg14
I3
sg15
I01
sg16
I5
sg17
I13
sbs(I2
I7
tp69
g1
(g10
g3
NtRp70
(dp71
g13
F13.898281042561727
sg14
I2
sg15
I01
sg16
I7
sg17
I34
sbs(I5
I2
tp72
g1
(g10
g3
NtRp73
(dp74
g13
F-1.1539641261381641
sg14
I5
sg15
I00
sg16
I2
sg17
I11
sbs(I3
I4
tp75
g1
(g10
g3
NtRp76
(dp77
g13
F1.4905787934254784
sg14
I3
sg15
I01
sg16
I4
sg17
I5
sbs(I10
I2
tp78
g1
(g10
g3
NtRp79
(dp80
g13
F3.7826617754948857
sg14
I10
sg15
I01
sg16
I2
sg17
I65
sbssS'_input_nodes'
p81
I1
sS'_output_nodes'
p82
I1
sS'_node_gene_type'
p83
cneat.genome
NodeGene
p84
sS'_conn_gene_type'
p85
g10
sS'fitness'
p86
F0.99338508534101921
sS'parent2_id'
p87
I1839
sS'_id'
p88
I1856
sS'parent1_id'
p89
I1839
sS'_node_genes'
p90
(lp91
g1
(g84
g3
NtRp92
(dp93
S'_bias'
p94
I0
sS'_type'
p95
S'INPUT'
p96
sg88
I1
sS'_response'
p97
F4.9242730000000003
sS'_activation_type'
p98
Nsbag1
(g84
g3
NtRp99
(dp100
g94
F-2.7332947388006468
sg95
S'OUTPUT'
p101
sg88
I2
sg97
F5.9828463686068911
sg98
S'tanh'
p102
sbag1
(g84
g3
NtRp103
(dp104
g94
F1.6539037522566926
sg95
S'HIDDEN'
p105
sg88
I3
sg97
F1.6502761509387154
sg98
g102
sbag1
(g84
g3
NtRp106
(dp107
g94
F-1.8315440624993924
sg95
g105
sg88
I4
sg97
F6.7886730553077301
sg98
g102
sbag1
(g84
g3
NtRp108
(dp109
g94
F0.70474080371031023
sg95
g105
sg88
I5
sg97
F4.2269590370190269
sg98
g102
sbag1
(g84
g3
NtRp110
(dp111
g94
F-2.7626516436498316
sg95
g105
sg88
I6
sg97
F4.470598061165437
sg98
g102
sbag1
(g84
g3
NtRp112
(dp113
g94
F1.1304134984965331
sg95
g105
sg88
I7
sg97
F4.2870547210135079
sg98
g102
sbag1
(g84
g3
NtRp114
(dp115
g94
F0.41621492306113733
sg95
g105
sg88
I8
sg97
F4.404434598066695
sg98
g102
sbag1
(g84
g3
NtRp116
(dp117
g94
F-0.24966536343518753
sg95
g105
sg88
I9
sg97
F4.7599976390384917
sg98
g102
sbag1
(g84
g3
NtRp118
(dp119
g94
I0
sg95
g105
sg88
I10
sg97
F5.0452802141934123
sg98
g102
sbasb.