ccopy_reg
_reconstructor
p1
(cneat.chromosome
Chromosome
p2
c__builtin__
object
p3
NtRp4
(dp5
S'species_id'
p6
I39
sS'_connection_genes'
p7
(dp8
(I1
I3
tp9
g1
(cneat.genome
ConnectionGene
p10
g3
NtRp11
(dp12
S'_ConnectionGene__weight'
p13
F21.8902724814454
sS'_ConnectionGene__in'
p14
I1
sS'_ConnectionGene__enabled'
p15
I01
sS'_ConnectionGene__out'
p16
I3
sS'_ConnectionGene__innov_number'
p17
I3
sbs(I6
I6
tp18
g1
(g10
g3
NtRp19
(dp20
g13
F10.05576050652345
sg14
I6
sg15
I01
sg16
I6
sg17
I39
sbs(I5
I6
tp21
g1
(g10
g3
NtRp22
(dp23
g13
F-5.2459620343828108
sg14
I5
sg15
I01
sg16
I6
sg17
I16
sbs(I9
I8
tp24
g1
(g10
g3
NtRp25
(dp26
g13
F-12.931409331748206
sg14
I9
sg15
I01
sg16
I8
sg17
I60
sbs(I9
I4
tp27
g1
(g10
g3
NtRp28
(dp29
g13
F15.234168101161895
sg14
I9
sg15
I01
sg16
I4
sg17
I77
sbs(I7
I2
tp30
g1
(g10
g3
NtRp31
(dp32
g13
F-4.7706610454995673
sg14
I7
sg15
I01
sg16
I2
sg17
I33
sbs(I1
I2
tp33
g1
(g10
g3
NtRp34
(dp35
g13
F12.882962091421323
sg14
I1
sg15
I01
sg16
I2
sg17
I1
sbs(I4
I9
tp36
g1
(g10
g3
NtRp37
(dp38
g13
F0.97977605321702865
sg14
I4
sg15
I01
sg16
I9
sg17
I44
sbs(I3
I3
tp39
g1
(g10
g3
NtRp40
(dp41
g13
F21.972360000886102
sg14
I3
sg15
I01
sg16
I3
sg17
I9
sbs(I4
I4
tp42
g1
(g10
g3
NtRp43
(dp44
g13
F13.058221224713892
sg14
I4
sg15
I00
sg16
I4
sg17
I15
sbs(I1
I5
tp45
g1
(g10
g3
NtRp46
(dp47
g13
F-0.22500508344365558
sg14
I1
sg15
I01
sg16
I5
sg17
I10
sbs(I3
I6
tp48
g1
(g10
g3
NtRp49
(dp50
g13
F-0.92525815365672104
sg14
I3
sg15
I01
sg16
I6
sg17
I19
sbs(I2
I2
tp51
g1
(g10
g3
NtRp52
(dp53
g13
F5.2198911436954063
sg14
I2
sg15
I01
sg16
I2
sg17
I2
sbs(I7
I9
tp54
g1
(g10
g3
NtRp55
(dp56
g13
F1.1110269672726982
sg14
I7
sg15
I01
sg16
I9
sg17
I41
sbs(I3
I2
tp57
g1
(g10
g3
NtRp58
(dp59
g13
F-2.188413596836905
sg14
I3
sg15
I01
sg16
I2
sg17
I4
sbs(I4
I5
tp60
g1
(g10
g3
NtRp61
(dp62
g13
F-0.59017160659333223
sg14
I4
sg15
I01
sg16
I5
sg17
I30
sbs(I8
I3
tp63
g1
(g10
g3
NtRp64
(dp65
g13
F14.911210321532936
sg14
I8
sg15
I01
sg16
I3
sg17
I71
sbs(I1
I4
tp66
g1
(g10
g3
NtRp67
(dp68
g13
F12.863220608693688
sg14
I1
sg15
I01
sg16
I4
sg17
I8
sbs(I2
I3
tp69
g1
(g10
g3
NtRp70
(dp71
g13
F-23.331182066581604
sg14
I2
sg15
I01
sg16
I3
sg17
I7
sbs(I4
I2
tp72
g1
(g10
g3
NtRp73
(dp74
g13
F16.540850873893127
sg14
I4
sg15
I01
sg16
I2
sg17
I6
sbs(I6
I5
tp75
g1
(g10
g3
NtRp76
(dp77
g13
F3.0998797531166953
sg14
I6
sg15
I01
sg16
I5
sg17
I23
sbs(I3
I5
tp78
g1
(g10
g3
NtRp79
(dp80
g13
F9.0744184483681316
sg14
I3
sg15
I01
sg16
I5
sg17
I13
sbs(I5
I3
tp81
g1
(g10
g3
NtRp82
(dp83
g13
F4.5510110115027302
sg14
I5
sg15
I01
sg16
I3
sg17
I14
sbs(I5
I2
tp84
g1
(g10
g3
NtRp85
(dp86
g13
F16.680933330301919
sg14
I5
sg15
I01
sg16
I2
sg17
I11
sbs(I5
I7
tp87
g1
(g10
g3
NtRp88
(dp89
g13
F11.199146423348267
sg14
I5
sg15
I01
sg16
I7
sg17
I28
sbs(I3
I8
tp90
g1
(g10
g3
NtRp91
(dp92
g13
F22.936185603171726
sg14
I3
sg15
I01
sg16
I8
sg17
I49
sbs(I4
I3
tp93
g1
(g10
g3
NtRp94
(dp95
g13
F-9.7733304504905618
sg14
I4
sg15
I01
sg16
I3
sg17
I12
sbs(I3
I4
tp96
g1
(g10
g3
NtRp97
(dp98
g13
F-1.7552011300958046
sg14
I3
sg15
I00
sg16
I4
sg17
I5
sbs(I2
I4
tp99
g1
(g10
g3
NtRp100
(dp101
g13
F-9.0151293429077395
sg14
I2
sg15
I01
sg16
I4
sg17
I24
sbs(I8
I4
tp102
g1
(g10
g3
NtRp103
(dp104
g13
F-9.5772345598189315
sg14
I8
sg15
I01
sg16
I4
sg17
I40
sbssS'_input_nodes'
p105
I1
sS'_output_nodes'
p106
I1
sS'_node_gene_type'
p107
cneat.genome
NodeGene
p108
sS'_conn_gene_type'
p109
g10
sS'fitness'
p110
F0.87246388147049803
sS'parent2_id'
p111
I4590
sS'_id'
p112
I4648
sS'parent1_id'
p113
I4590
sS'_node_genes'
p114
(lp115
g1
(g108
g3
NtRp116
(dp117
S'_bias'
p118
I0
sS'_type'
p119
S'INPUT'
p120
sg112
I1
sS'_response'
p121
F4.9242730000000003
sS'_activation_type'
p122
Nsbag1
(g108
g3
NtRp123
(dp124
g118
F0.057346884807495002
sg119
S'OUTPUT'
p125
sg112
I2
sg121
F3.9867895585312216
sg122
S'tanh'
p126
sbag1
(g108
g3
NtRp127
(dp128
g118
F-3.8676873809424128
sg119
S'HIDDEN'
p129
sg112
I3
sg121
F0.57814120023205218
sg122
g126
sbag1
(g108
g3
NtRp130
(dp131
g118
F-0.20064730022344862
sg119
g129
sg112
I4
sg121
F5.57145045163732
sg122
g126
sbag1
(g108
g3
NtRp132
(dp133
g118
F2.8621917099072678
sg119
g129
sg112
I5
sg121
F5.5938252310506842
sg122
g126
sbag1
(g108
g3
NtRp134
(dp135
g118
F-3.2902382358866786
sg119
g129
sg112
I6
sg121
F2.7704227704110331
sg122
g126
sbag1
(g108
g3
NtRp136
(dp137
g118
F-1.6360267737481331
sg119
g129
sg112
I7
sg121
F5.8012501462124231
sg122
g126
sbag1
(g108
g3
NtRp138
(dp139
g118
F-1.0935397693196856
sg119
g129
sg112
I8
sg121
F5.7886830467065238
sg122
g126
sbag1
(g108
g3
NtRp140
(dp141
g118
F0.74481328619107445
sg119
g129
sg112
I9
sg121
F5.2406955301174998
sg122
g126
sbasb.