ccopy_reg
_reconstructor
p1
(cneat.chromosome
Chromosome
p2
c__builtin__
object
p3
NtRp4
(dp5
S'species_id'
p6
I24
sS'_connection_genes'
p7
(dp8
(I7
I3
tp9
g1
(cneat.genome
ConnectionGene
p10
g3
NtRp11
(dp12
S'_ConnectionGene__weight'
p13
F14.171212190479011
sS'_ConnectionGene__in'
p14
I7
sS'_ConnectionGene__enabled'
p15
I01
sS'_ConnectionGene__out'
p16
I3
sS'_ConnectionGene__innov_number'
p17
I29
sbs(I1
I3
tp18
g1
(g10
g3
NtRp19
(dp20
g13
F-9.4838693012259103
sg14
I1
sg15
I01
sg16
I3
sg17
I3
sbs(I4
I8
tp21
g1
(g10
g3
NtRp22
(dp23
g13
F-2.8051237402180305
sg14
I4
sg15
I01
sg16
I8
sg17
I35
sbs(I5
I6
tp24
g1
(g10
g3
NtRp25
(dp26
g13
F-8.0464162685959977
sg14
I5
sg15
I01
sg16
I6
sg17
I16
sbs(I7
I7
tp27
g1
(g10
g3
NtRp28
(dp29
g13
F7.5627949744252252
sg14
I7
sg15
I01
sg16
I7
sg17
I47
sbs(I6
I2
tp30
g1
(g10
g3
NtRp31
(dp32
g13
F-14.135292929442516
sg14
I6
sg15
I01
sg16
I2
sg17
I17
sbs(I8
I5
tp33
g1
(g10
g3
NtRp34
(dp35
g13
F-2.6854950466817358
sg14
I8
sg15
I01
sg16
I5
sg17
I36
sbs(I1
I2
tp36
g1
(g10
g3
NtRp37
(dp38
g13
F-6.0727669480584732
sg14
I1
sg15
I01
sg16
I2
sg17
I1
sbs(I2
I9
tp39
g1
(g10
g3
NtRp40
(dp41
g13
F-3.4346641590582756
sg14
I2
sg15
I01
sg16
I9
sg17
I51
sbs(I2
I2
tp42
g1
(g10
g3
NtRp43
(dp44
g13
F1.2314248422615584
sg14
I2
sg15
I00
sg16
I2
sg17
I2
sbs(I3
I2
tp45
g1
(g10
g3
NtRp46
(dp47
g13
F-17.205336796319632
sg14
I3
sg15
I01
sg16
I2
sg17
I4
sbs(I4
I5
tp48
g1
(g10
g3
NtRp49
(dp50
g13
F-10.378606358753629
sg14
I4
sg15
I01
sg16
I5
sg17
I30
sbs(I9
I3
tp51
g1
(g10
g3
NtRp52
(dp53
g13
F12.396729220920669
sg14
I9
sg15
I01
sg16
I3
sg17
I42
sbs(I1
I4
tp54
g1
(g10
g3
NtRp55
(dp56
g13
F15.05947800839639
sg14
I1
sg15
I01
sg16
I4
sg17
I8
sbs(I2
I10
tp57
g1
(g10
g3
NtRp58
(dp59
g13
F3.6534246431649153
sg14
I2
sg15
I01
sg16
I10
sg17
I57
sbs(I2
I3
tp60
g1
(g10
g3
NtRp61
(dp62
g13
F14.40374928315118
sg14
I2
sg15
I00
sg16
I3
sg17
I7
sbs(I4
I2
tp63
g1
(g10
g3
NtRp64
(dp65
g13
F-8.2085215109932541
sg14
I4
sg15
I01
sg16
I2
sg17
I6
sbs(I3
I5
tp66
g1
(g10
g3
NtRp67
(dp68
g13
F7.4922490267199224
sg14
I3
sg15
I01
sg16
I5
sg17
I13
sbs(I2
I7
tp69
g1
(g10
g3
NtRp70
(dp71
g13
F12.633246298331548
sg14
I2
sg15
I01
sg16
I7
sg17
I34
sbs(I10
I10
tp72
g1
(g10
g3
NtRp73
(dp74
g13
F-3.0262965472756842
sg14
I10
sg15
I01
sg16
I10
sg17
I72
sbs(I5
I2
tp75
g1
(g10
g3
NtRp76
(dp77
g13
F4.0658705680262006
sg14
I5
sg15
I00
sg16
I2
sg17
I11
sbs(I3
I4
tp78
g1
(g10
g3
NtRp79
(dp80
g13
F-1.89377588384567
sg14
I3
sg15
I01
sg16
I4
sg17
I5
sbs(I10
I2
tp81
g1
(g10
g3
NtRp82
(dp83
g13
F4.9094681573605152
sg14
I10
sg15
I01
sg16
I2
sg17
I65
sbssS'_input_nodes'
p84
I1
sS'_output_nodes'
p85
I1
sS'_node_gene_type'
p86
cneat.genome
NodeGene
p87
sS'_conn_gene_type'
p88
g10
sS'fitness'
p89
F0.97574474383438192
sS'parent2_id'
p90
I2019
sS'_id'
p91
I2037
sS'parent1_id'
p92
I2019
sS'_node_genes'
p93
(lp94
g1
(g87
g3
NtRp95
(dp96
S'_bias'
p97
I0
sS'_type'
p98
S'INPUT'
p99
sg91
I1
sS'_response'
p100
F4.9242730000000003
sS'_activation_type'
p101
Nsbag1
(g87
g3
NtRp102
(dp103
g97
F-1.4533202399737433
sg98
S'OUTPUT'
p104
sg91
I2
sg100
F6.3249328876075444
sg101
S'tanh'
p105
sbag1
(g87
g3
NtRp106
(dp107
g97
F2.5823881547529419
sg98
S'HIDDEN'
p108
sg91
I3
sg100
F2.041470698914079
sg101
g105
sbag1
(g87
g3
NtRp109
(dp110
g97
F-1.513395686374895
sg98
g108
sg91
I4
sg100
F7.5263517913779658
sg101
g105
sbag1
(g87
g3
NtRp111
(dp112
g97
F0.27909792450515913
sg98
g108
sg91
I5
sg100
F5.4373677526378543
sg101
g105
sbag1
(g87
g3
NtRp113
(dp114
g97
F-2.4700031343128162
sg98
g108
sg91
I6
sg100
F3.4960365171418983
sg101
g105
sbag1
(g87
g3
NtRp115
(dp116
g97
F1.6094431296450242
sg98
g108
sg91
I7
sg100
F4.561054830986623
sg101
g105
sbag1
(g87
g3
NtRp117
(dp118
g97
F0.53911133591250637
sg98
g108
sg91
I8
sg100
F5.1507824616858677
sg101
g105
sbag1
(g87
g3
NtRp119
(dp120
g97
F0.0653187441431336
sg98
g108
sg91
I9
sg100
F5.7991344456895355
sg101
g105
sbag1
(g87
g3
NtRp121
(dp122
g97
F-0.54475721654335729
sg98
g108
sg91
I10
sg100
F4.2400082198427107
sg101
g105
sbasb.