ccopy_reg
_reconstructor
p1
(cneat.chromosome
Chromosome
p2
c__builtin__
object
p3
NtRp4
(dp5
S'species_id'
p6
I24
sS'_connection_genes'
p7
(dp8
(I7
I3
tp9
g1
(cneat.genome
ConnectionGene
p10
g3
NtRp11
(dp12
S'_ConnectionGene__weight'
p13
F10.469810453880894
sS'_ConnectionGene__in'
p14
I7
sS'_ConnectionGene__enabled'
p15
I01
sS'_ConnectionGene__out'
p16
I3
sS'_ConnectionGene__innov_number'
p17
I29
sbs(I1
I3
tp18
g1
(g10
g3
NtRp19
(dp20
g13
F-7.6881825684611478
sg14
I1
sg15
I01
sg16
I3
sg17
I3
sbs(I4
I8
tp21
g1
(g10
g3
NtRp22
(dp23
g13
F-2.3423674128026803
sg14
I4
sg15
I01
sg16
I8
sg17
I35
sbs(I5
I6
tp24
g1
(g10
g3
NtRp25
(dp26
g13
F-13.157185846341179
sg14
I5
sg15
I01
sg16
I6
sg17
I16
sbs(I7
I7
tp27
g1
(g10
g3
NtRp28
(dp29
g13
F5.8788990183175249
sg14
I7
sg15
I01
sg16
I7
sg17
I47
sbs(I6
I2
tp30
g1
(g10
g3
NtRp31
(dp32
g13
F-19.735143437209317
sg14
I6
sg15
I01
sg16
I2
sg17
I17
sbs(I8
I5
tp33
g1
(g10
g3
NtRp34
(dp35
g13
F-5.1961308761660483
sg14
I8
sg15
I01
sg16
I5
sg17
I36
sbs(I1
I2
tp36
g1
(g10
g3
NtRp37
(dp38
g13
F-4.1433238040550631
sg14
I1
sg15
I01
sg16
I2
sg17
I1
sbs(I2
I9
tp39
g1
(g10
g3
NtRp40
(dp41
g13
F-1.5463339263272879
sg14
I2
sg15
I01
sg16
I9
sg17
I51
sbs(I2
I2
tp42
g1
(g10
g3
NtRp43
(dp44
g13
F-0.86063998370746209
sg14
I2
sg15
I00
sg16
I2
sg17
I2
sbs(I3
I2
tp45
g1
(g10
g3
NtRp46
(dp47
g13
F-10.546225038608723
sg14
I3
sg15
I01
sg16
I2
sg17
I4
sbs(I4
I5
tp48
g1
(g10
g3
NtRp49
(dp50
g13
F-10.845570163063284
sg14
I4
sg15
I00
sg16
I5
sg17
I30
sbs(I9
I3
tp51
g1
(g10
g3
NtRp52
(dp53
g13
F2.1661469847220758
sg14
I9
sg15
I01
sg16
I3
sg17
I42
sbs(I1
I4
tp54
g1
(g10
g3
NtRp55
(dp56
g13
F9.4801920517372924
sg14
I1
sg15
I01
sg16
I4
sg17
I8
sbs(I2
I10
tp57
g1
(g10
g3
NtRp58
(dp59
g13
F0.93237421677232835
sg14
I2
sg15
I01
sg16
I10
sg17
I57
sbs(I2
I3
tp60
g1
(g10
g3
NtRp61
(dp62
g13
F6.9280647174074765
sg14
I2
sg15
I00
sg16
I3
sg17
I7
sbs(I4
I2
tp63
g1
(g10
g3
NtRp64
(dp65
g13
F-7.4130136059909608
sg14
I4
sg15
I01
sg16
I2
sg17
I6
sbs(I3
I5
tp66
g1
(g10
g3
NtRp67
(dp68
g13
F0.596245443805002
sg14
I3
sg15
I01
sg16
I5
sg17
I13
sbs(I2
I7
tp69
g1
(g10
g3
NtRp70
(dp71
g13
F11.049077116084618
sg14
I2
sg15
I01
sg16
I7
sg17
I34
sbs(I3
I4
tp72
g1
(g10
g3
NtRp73
(dp74
g13
F1.2239448888382656
sg14
I3
sg15
I01
sg16
I4
sg17
I5
sbs(I5
I2
tp75
g1
(g10
g3
NtRp76
(dp77
g13
F0.49070165239540253
sg14
I5
sg15
I00
sg16
I2
sg17
I11
sbs(I10
I2
tp78
g1
(g10
g3
NtRp79
(dp80
g13
F5.2608572581931119
sg14
I10
sg15
I01
sg16
I2
sg17
I65
sbssS'_input_nodes'
p81
I1
sS'_output_nodes'
p82
I1
sS'_node_gene_type'
p83
cneat.genome
NodeGene
p84
sS'_conn_gene_type'
p85
g10
sS'fitness'
p86
F0.92506460387477407
sS'parent2_id'
p87
I1839
sS'_id'
p88
I1879
sS'parent1_id'
p89
I1857
sS'_node_genes'
p90
(lp91
g1
(g84
g3
NtRp92
(dp93
S'_bias'
p94
I0
sS'_type'
p95
S'INPUT'
p96
sg88
I1
sS'_response'
p97
F4.9242730000000003
sS'_activation_type'
p98
Nsbag1
(g84
g3
NtRp99
(dp100
g94
F-2.5957197899514854
sg95
S'OUTPUT'
p101
sg88
I2
sg97
F6.3249328876075444
sg98
S'tanh'
p102
sbag1
(g84
g3
NtRp103
(dp104
g94
F2.5823881547529419
sg95
S'HIDDEN'
p105
sg88
I3
sg97
F1.6502761509387154
sg98
g102
sbag1
(g84
g3
NtRp106
(dp107
g94
F-1.8315440624993924
sg95
g105
sg88
I4
sg97
F6.9953791721441396
sg98
g102
sbag1
(g84
g3
NtRp108
(dp109
g94
F0.70474080371031023
sg95
g105
sg88
I5
sg97
F4.9164159425252194
sg98
g102
sbag1
(g84
g3
NtRp110
(dp111
g94
F-2.7626516436498316
sg95
g105
sg88
I6
sg97
F3.4960365171418983
sg98
g102
sbag1
(g84
g3
NtRp112
(dp113
g94
F1.1304134984965331
sg95
g105
sg88
I7
sg97
F4.2158527481597057
sg98
g102
sbag1
(g84
g3
NtRp114
(dp115
g94
F-8.1447280493252006e-05
sg95
g105
sg88
I8
sg97
F4.404434598066695
sg98
g102
sbag1
(g84
g3
NtRp116
(dp117
g94
F0.55432888897834398
sg95
g105
sg88
I9
sg97
F4.7599976390384917
sg98
g102
sbag1
(g84
g3
NtRp118
(dp119
g94
I0
sg95
g105
sg88
I10
sg97
F5.0452802141934123
sg98
g102
sbasb.