ccopy_reg
_reconstructor
p1
(cneat.chromosome
Chromosome
p2
c__builtin__
object
p3
NtRp4
(dp5
S'species_id'
p6
I68
sS'_connection_genes'
p7
(dp8
(I1
I3
tp9
g1
(cneat.genome
ConnectionGene
p10
g3
NtRp11
(dp12
S'_ConnectionGene__weight'
p13
F23.964524182747365
sS'_ConnectionGene__in'
p14
I1
sS'_ConnectionGene__enabled'
p15
I00
sS'_ConnectionGene__out'
p16
I3
sS'_ConnectionGene__innov_number'
p17
I3
sbs(I6
I6
tp18
g1
(g10
g3
NtRp19
(dp20
g13
F20.92660410207948
sg14
I6
sg15
I01
sg16
I6
sg17
I39
sbs(I5
I6
tp21
g1
(g10
g3
NtRp22
(dp23
g13
F-0.82397606858854733
sg14
I5
sg15
I01
sg16
I6
sg17
I16
sbs(I14
I4
tp24
g1
(g10
g3
NtRp25
(dp26
g13
F-10.646033245236016
sg14
I14
sg15
I00
sg16
I4
sg17
I159
sbs(I9
I8
tp27
g1
(g10
g3
NtRp28
(dp29
g13
F-23.635001910210711
sg14
I9
sg15
I01
sg16
I8
sg17
I60
sbs(I1
I15
tp30
g1
(g10
g3
NtRp31
(dp32
g13
F-3.5001019332037533
sg14
I1
sg15
I01
sg16
I15
sg17
I168
sbs(I4
I12
tp33
g1
(g10
g3
NtRp34
(dp35
g13
F14.976501373809608
sg14
I4
sg15
I01
sg16
I12
sg17
I102
sbs(I9
I4
tp36
g1
(g10
g3
NtRp37
(dp38
g13
F16.857523229776049
sg14
I9
sg15
I01
sg16
I4
sg17
I77
sbs(I4
I2
tp39
g1
(g10
g3
NtRp40
(dp41
g13
F15.018570116256971
sg14
I4
sg15
I01
sg16
I2
sg17
I6
sbs(I7
I2
tp42
g1
(g10
g3
NtRp43
(dp44
g13
F-14.144744142163121
sg14
I7
sg15
I01
sg16
I2
sg17
I33
sbs(I1
I2
tp45
g1
(g10
g3
NtRp46
(dp47
g13
F15.531549248133841
sg14
I1
sg15
I01
sg16
I2
sg17
I1
sbs(I4
I9
tp48
g1
(g10
g3
NtRp49
(dp50
g13
F1.2719051158769985
sg14
I4
sg15
I01
sg16
I9
sg17
I44
sbs(I3
I3
tp51
g1
(g10
g3
NtRp52
(dp53
g13
F25.849534807792338
sg14
I3
sg15
I01
sg16
I3
sg17
I9
sbs(I4
I4
tp54
g1
(g10
g3
NtRp55
(dp56
g13
F2.4072932965120213
sg14
I4
sg15
I00
sg16
I4
sg17
I15
sbs(I4
I13
tp57
g1
(g10
g3
NtRp58
(dp59
g13
F-4.4614435555956087
sg14
I4
sg15
I01
sg16
I13
sg17
I119
sbs(I1
I5
tp60
g1
(g10
g3
NtRp61
(dp62
g13
F22.685500817837383
sg14
I1
sg15
I01
sg16
I5
sg17
I10
sbs(I4
I11
tp63
g1
(g10
g3
NtRp64
(dp65
g13
F19.351086531264912
sg14
I4
sg15
I00
sg16
I11
sg17
I75
sbs(I3
I6
tp66
g1
(g10
g3
NtRp67
(dp68
g13
F-18.578354601322676
sg14
I3
sg15
I01
sg16
I6
sg17
I19
sbs(I2
I2
tp69
g1
(g10
g3
NtRp70
(dp71
g13
F29.511328177336246
sg14
I2
sg15
I01
sg16
I2
sg17
I2
sbs(I3
I4
tp72
g1
(g10
g3
NtRp73
(dp74
g13
F-27.892681736712191
sg14
I3
sg15
I00
sg16
I4
sg17
I5
sbs(I7
I9
tp75
g1
(g10
g3
NtRp76
(dp77
g13
F3.8833260364316304
sg14
I7
sg15
I01
sg16
I9
sg17
I41
sbs(I11
I2
tp78
g1
(g10
g3
NtRp79
(dp80
g13
F29.549013415795514
sg14
I11
sg15
I01
sg16
I2
sg17
I74
sbs(I4
I10
tp81
g1
(g10
g3
NtRp82
(dp83
g13
F-0.067126456896442477
sg14
I4
sg15
I01
sg16
I10
sg17
I63
sbs(I3
I2
tp84
g1
(g10
g3
NtRp85
(dp86
g13
F-3.3857888627564954
sg14
I3
sg15
I01
sg16
I2
sg17
I4
sbs(I10
I4
tp87
g1
(g10
g3
NtRp88
(dp89
g13
F-23.914375660374258
sg14
I10
sg15
I01
sg16
I4
sg17
I90
sbs(I16
I4
tp90
g1
(g10
g3
NtRp91
(dp92
g13
F0.41869105825182096
sg14
I16
sg15
I01
sg16
I4
sg17
I175
sbs(I4
I5
tp93
g1
(g10
g3
NtRp94
(dp95
g13
F-22.698033821088845
sg14
I4
sg15
I01
sg16
I5
sg17
I30
sbs(I15
I3
tp96
g1
(g10
g3
NtRp97
(dp98
g13
F5.9154469584057958
sg14
I15
sg15
I01
sg16
I3
sg17
I169
sbs(I5
I17
tp99
g1
(g10
g3
NtRp100
(dp101
g13
F-4.5912930943403323
sg14
I5
sg15
I01
sg16
I17
sg17
I187
sbs(I7
I13
tp102
g1
(g10
g3
NtRp103
(dp104
g13
F-10.760080115101184
sg14
I7
sg15
I01
sg16
I13
sg17
I136
sbs(I1
I4
tp105
g1
(g10
g3
NtRp106
(dp107
g13
F13.012030417571877
sg14
I1
sg15
I01
sg16
I4
sg17
I8
sbs(I2
I10
tp108
g1
(g10
g3
NtRp109
(dp110
g13
F-24.759621003983835
sg14
I2
sg15
I01
sg16
I10
sg17
I57
sbs(I12
I18
tp111
g1
(g10
g3
NtRp112
(dp113
g13
F-17.48577514054514
sg14
I12
sg15
I01
sg16
I18
sg17
I189
sbs(I2
I3
tp114
g1
(g10
g3
NtRp115
(dp116
g13
F-5.6795112810329247
sg14
I2
sg15
I01
sg16
I3
sg17
I7
sbs(I12
I11
tp117
g1
(g10
g3
NtRp118
(dp119
g13
F4.8532689336382537
sg14
I12
sg15
I00
sg16
I11
sg17
I84
sbs(I17
I6
tp120
g1
(g10
g3
NtRp121
(dp122
g13
F3.5807539491456737
sg14
I17
sg15
I01
sg16
I6
sg17
I188
sbs(I2
I14
tp123
g1
(g10
g3
NtRp124
(dp125
g13
F-7.0319899746553922
sg14
I2
sg15
I01
sg16
I14
sg17
I142
sbs(I6
I5
tp126
g1
(g10
g3
NtRp127
(dp128
g13
F24.268629290348006
sg14
I6
sg15
I01
sg16
I5
sg17
I23
sbs(I5
I3
tp129
g1
(g10
g3
NtRp130
(dp131
g13
F-7.8224699075647504
sg14
I5
sg15
I01
sg16
I3
sg17
I14
sbs(I3
I5
tp132
g1
(g10
g3
NtRp133
(dp134
g13
F19.556276979597872
sg14
I3
sg15
I01
sg16
I5
sg17
I13
sbs(I8
I3
tp135
g1
(g10
g3
NtRp136
(dp137
g13
F11.543110408797965
sg14
I8
sg15
I01
sg16
I3
sg17
I71
sbs(I14
I16
tp138
g1
(g10
g3
NtRp139
(dp140
g13
F4.4421727005425025
sg14
I14
sg15
I01
sg16
I16
sg17
I174
sbs(I5
I2
tp141
g1
(g10
g3
NtRp142
(dp143
g13
F29.996622595428114
sg14
I5
sg15
I01
sg16
I2
sg17
I11
sbs(I5
I7
tp144
g1
(g10
g3
NtRp145
(dp146
g13
F1.7018237317108973
sg14
I5
sg15
I01
sg16
I7
sg17
I28
sbs(I3
I8
tp147
g1
(g10
g3
NtRp148
(dp149
g13
F2.8880037004329928
sg14
I3
sg15
I01
sg16
I8
sg17
I49
sbs(I6
I2
tp150
g1
(g10
g3
NtRp151
(dp152
g13
F2.8399443955263819
sg14
I6
sg15
I01
sg16
I2
sg17
I17
sbs(I4
I3
tp153
g1
(g10
g3
NtRp154
(dp155
g13
F-4.4543012994347642
sg14
I4
sg15
I01
sg16
I3
sg17
I12
sbs(I13
I9
tp156
g1
(g10
g3
NtRp157
(dp158
g13
F-10.618983313649922
sg14
I13
sg15
I01
sg16
I9
sg17
I137
sbs(I18
I11
tp159
g1
(g10
g3
NtRp160
(dp161
g13
F4.5823060209699618
sg14
I18
sg15
I01
sg16
I11
sg17
I190
sbs(I2
I4
tp162
g1
(g10
g3
NtRp163
(dp164
g13
F-16.087996888865945
sg14
I2
sg15
I00
sg16
I4
sg17
I24
sbs(I8
I4
tp165
g1
(g10
g3
NtRp166
(dp167
g13
F-15.596519228353053
sg14
I8
sg15
I01
sg16
I4
sg17
I40
sbssS'_input_nodes'
p168
I1
sS'_output_nodes'
p169
I1
sS'_node_gene_type'
p170
cneat.genome
NodeGene
p171
sS'_conn_gene_type'
p172
g10
sS'fitness'
p173
F0.93080673372604716
sS'parent2_id'
p174
I6842
sS'_id'
p175
I6882
sS'parent1_id'
p176
I6858
sS'_node_genes'
p177
(lp178
g1
(g171
g3
NtRp179
(dp180
S'_bias'
p181
I0
sS'_type'
p182
S'INPUT'
p183
sg175
I1
sS'_response'
p184
F4.9242730000000003
sS'_activation_type'
p185
Nsbag1
(g171
g3
NtRp186
(dp187
g181
F-1.3149799451986894
sg182
S'OUTPUT'
p188
sg175
I2
sg184
F5.8898429066599789
sg185
S'tanh'
p189
sbag1
(g171
g3
NtRp190
(dp191
g181
F-5.7011133210482194
sg182
S'HIDDEN'
p192
sg175
I3
sg184
F-0.00061415817488652547
sg185
g189
sbag1
(g171
g3
NtRp193
(dp194
g181
F-3.2020477085650341
sg182
g192
sg175
I4
sg184
F2.5026167353669635
sg185
g189
sbag1
(g171
g3
NtRp195
(dp196
g181
F0.94847835204507924
sg182
g192
sg175
I5
sg184
F7.2041966838649492
sg185
g189
sbag1
(g171
g3
NtRp197
(dp198
g181
F0.39864831872551104
sg182
g192
sg175
I6
sg184
F2.9863084567828917
sg185
g189
sbag1
(g171
g3
NtRp199
(dp200
g181
F-3.1617678743225701
sg182
g192
sg175
I7
sg184
F4.237034083398191
sg185
g189
sbag1
(g171
g3
NtRp201
(dp202
g181
F-2.1054000261949191
sg182
g192
sg175
I8
sg184
F6.4768743140963947
sg185
g189
sbag1
(g171
g3
NtRp203
(dp204
g181
F0.11301481220937171
sg182
g192
sg175
I9
sg184
F2.7468934656628998
sg185
g189
sbag1
(g171
g3
NtRp205
(dp206
g181
F-1.228022801589421
sg182
g192
sg175
I10
sg184
F1.2371650508797667
sg185
g189
sbag1
(g171
g3
NtRp207
(dp208
g181
F1.6175887031658709
sg182
g192
sg175
I11
sg184
F7.4275368209043346
sg185
g189
sbag1
(g171
g3
NtRp209
(dp210
g181
F-2.2853567507233206
sg182
g192
sg175
I12
sg184
F6.0971624844732828
sg185
g189
sbag1
(g171
g3
NtRp211
(dp212
g181
F1.2542738580494723
sg182
g192
sg175
I13
sg184
F3.5833215384207118
sg185
g189
sbag1
(g171
g3
NtRp213
(dp214
g181
F-0.325572380660197
sg182
g192
sg175
I14
sg184
F6.3595563095623344
sg185
g189
sbag1
(g171
g3
NtRp215
(dp216
g181
F-0.14505620273788755
sg182
g192
sg175
I15
sg184
F5.340407766720328
sg185
g189
sbag1
(g171
g3
NtRp217
(dp218
g181
F-0.38650384241462099
sg182
g192
sg175
I16
sg184
F5.5532570729181838
sg185
g189
sbag1
(g171
g3
NtRp219
(dp220
g181
F-0.67992916665899716
sg182
g192
sg175
I17
sg184
F5.6352229966485892
sg185
g189
sbag1
(g171
g3
NtRp221
(dp222
g181
I0
sg182
g192
sg175
I18
sg184
F5.4698578527133428
sg185
g189
sbasb.