ccopy_reg
_reconstructor
p1
(cneat.chromosome
Chromosome
p2
c__builtin__
object
p3
NtRp4
(dp5
S'species_id'
p6
I76
sS'_connection_genes'
p7
(dp8
(I1
I3
tp9
g1
(cneat.genome
ConnectionGene
p10
g3
NtRp11
(dp12
S'_ConnectionGene__weight'
p13
F14.487729056386367
sS'_ConnectionGene__in'
p14
I1
sS'_ConnectionGene__enabled'
p15
I01
sS'_ConnectionGene__out'
p16
I3
sS'_ConnectionGene__innov_number'
p17
I3
sbs(I11
I11
tp18
g1
(g10
g3
NtRp19
(dp20
g13
F9.953704460618896
sg14
I11
sg15
I01
sg16
I11
sg17
I122
sbs(I6
I6
tp21
g1
(g10
g3
NtRp22
(dp23
g13
F16.675698149623805
sg14
I6
sg15
I01
sg16
I6
sg17
I39
sbs(I5
I6
tp24
g1
(g10
g3
NtRp25
(dp26
g13
F30
sg14
I5
sg15
I01
sg16
I6
sg17
I16
sbs(I9
I8
tp27
g1
(g10
g3
NtRp28
(dp29
g13
F-25.370797657390899
sg14
I9
sg15
I01
sg16
I8
sg17
I60
sbs(I10
I6
tp30
g1
(g10
g3
NtRp31
(dp32
g13
F-19.446086362080795
sg14
I10
sg15
I01
sg16
I6
sg17
I103
sbs(I9
I4
tp33
g1
(g10
g3
NtRp34
(dp35
g13
F22.574276378055469
sg14
I9
sg15
I01
sg16
I4
sg17
I77
sbs(I3
I8
tp36
g1
(g10
g3
NtRp37
(dp38
g13
F1.3160571902866345
sg14
I3
sg15
I01
sg16
I8
sg17
I49
sbs(I11
I4
tp39
g1
(g10
g3
NtRp40
(dp41
g13
F23.728890436857441
sg14
I11
sg15
I01
sg16
I4
sg17
I101
sbs(I7
I2
tp42
g1
(g10
g3
NtRp43
(dp44
g13
F-16.220141559061585
sg14
I7
sg15
I01
sg16
I2
sg17
I33
sbs(I1
I2
tp45
g1
(g10
g3
NtRp46
(dp47
g13
F28.019177776107075
sg14
I1
sg15
I01
sg16
I2
sg17
I1
sbs(I6
I3
tp48
g1
(g10
g3
NtRp49
(dp50
g13
F5.518944866484893
sg14
I6
sg15
I01
sg16
I3
sg17
I22
sbs(I11
I10
tp51
g1
(g10
g3
NtRp52
(dp53
g13
F-16.112905609522425
sg14
I11
sg15
I01
sg16
I10
sg17
I89
sbs(I4
I9
tp54
g1
(g10
g3
NtRp55
(dp56
g13
F19.637822849044205
sg14
I4
sg15
I01
sg16
I9
sg17
I44
sbs(I3
I3
tp57
g1
(g10
g3
NtRp58
(dp59
g13
F26.986132527293115
sg14
I3
sg15
I00
sg16
I3
sg17
I9
sbs(I3
I10
tp60
g1
(g10
g3
NtRp61
(dp62
g13
F-13.053215990732912
sg14
I3
sg15
I01
sg16
I10
sg17
I94
sbs(I4
I4
tp63
g1
(g10
g3
NtRp64
(dp65
g13
F24.870051564855277
sg14
I4
sg15
I01
sg16
I4
sg17
I15
sbs(I4
I13
tp66
g1
(g10
g3
NtRp67
(dp68
g13
F-1.5107605360325622
sg14
I4
sg15
I01
sg16
I13
sg17
I119
sbs(I1
I5
tp69
g1
(g10
g3
NtRp70
(dp71
g13
F23.104981596876513
sg14
I1
sg15
I01
sg16
I5
sg17
I10
sbs(I9
I11
tp72
g1
(g10
g3
NtRp73
(dp74
g13
F-15.241997946967565
sg14
I9
sg15
I01
sg16
I11
sg17
I106
sbs(I3
I6
tp75
g1
(g10
g3
NtRp76
(dp77
g13
F-13.104810404281608
sg14
I3
sg15
I01
sg16
I6
sg17
I19
sbs(I2
I2
tp78
g1
(g10
g3
NtRp79
(dp80
g13
F26.393385422937698
sg14
I2
sg15
I01
sg16
I2
sg17
I2
sbs(I7
I9
tp81
g1
(g10
g3
NtRp82
(dp83
g13
F25.848918844600007
sg14
I7
sg15
I01
sg16
I9
sg17
I41
sbs(I10
I9
tp84
g1
(g10
g3
NtRp85
(dp86
g13
F6.944001192784329
sg14
I10
sg15
I01
sg16
I9
sg17
I58
sbs(I9
I7
tp87
g1
(g10
g3
NtRp88
(dp89
g13
F12.481077644841688
sg14
I9
sg15
I01
sg16
I7
sg17
I53
sbs(I3
I2
tp90
g1
(g10
g3
NtRp91
(dp92
g13
F-3.1432416001276775
sg14
I3
sg15
I01
sg16
I2
sg17
I4
sbs(I13
I2
tp93
g1
(g10
g3
NtRp94
(dp95
g13
F-1.9511136257297166
sg14
I13
sg15
I01
sg16
I2
sg17
I133
sbs(I10
I4
tp96
g1
(g10
g3
NtRp97
(dp98
g13
F-0.959331979724944
sg14
I10
sg15
I01
sg16
I4
sg17
I90
sbs(I4
I5
tp99
g1
(g10
g3
NtRp100
(dp101
g13
F-17.832150379308359
sg14
I4
sg15
I01
sg16
I5
sg17
I30
sbs(I8
I11
tp102
g1
(g10
g3
NtRp103
(dp104
g13
F-7.9972543393390403
sg14
I8
sg15
I01
sg16
I11
sg17
I80
sbs(I1
I4
tp105
g1
(g10
g3
NtRp106
(dp107
g13
F-4.2439047384918247
sg14
I1
sg15
I01
sg16
I4
sg17
I8
sbs(I2
I3
tp108
g1
(g10
g3
NtRp109
(dp110
g13
F-24.942681965308509
sg14
I2
sg15
I01
sg16
I3
sg17
I7
sbs(I4
I2
tp111
g1
(g10
g3
NtRp112
(dp113
g13
F4.4406433614668064
sg14
I4
sg15
I00
sg16
I2
sg17
I6
sbs(I6
I5
tp114
g1
(g10
g3
NtRp115
(dp116
g13
F8.2416574087613412
sg14
I6
sg15
I01
sg16
I5
sg17
I23
sbs(I5
I3
tp117
g1
(g10
g3
NtRp118
(dp119
g13
F0.052470304699382631
sg14
I5
sg15
I01
sg16
I3
sg17
I14
sbs(I3
I5
tp120
g1
(g10
g3
NtRp121
(dp122
g13
F-12.973797367838957
sg14
I3
sg15
I01
sg16
I5
sg17
I13
sbs(I8
I3
tp123
g1
(g10
g3
NtRp124
(dp125
g13
F16.571311712379472
sg14
I8
sg15
I01
sg16
I3
sg17
I71
sbs(I3
I12
tp126
g1
(g10
g3
NtRp127
(dp128
g13
F0.36611933508551475
sg14
I3
sg15
I01
sg16
I12
sg17
I99
sbs(I3
I4
tp129
g1
(g10
g3
NtRp130
(dp131
g13
F5.6779891961299924
sg14
I3
sg15
I01
sg16
I4
sg17
I5
sbs(I5
I7
tp132
g1
(g10
g3
NtRp133
(dp134
g13
F-24.68227625318751
sg14
I5
sg15
I01
sg16
I7
sg17
I28
sbs(I7
I4
tp135
g1
(g10
g3
NtRp136
(dp137
g13
F-1.9309052554012378
sg14
I7
sg15
I01
sg16
I4
sg17
I46
sbs(I12
I3
tp138
g1
(g10
g3
NtRp139
(dp140
g13
F21.700029940082452
sg14
I12
sg15
I01
sg16
I3
sg17
I88
sbs(I4
I3
tp141
g1
(g10
g3
NtRp142
(dp143
g13
F6.5691693962037254
sg14
I4
sg15
I01
sg16
I3
sg17
I12
sbs(I5
I2
tp144
g1
(g10
g3
NtRp145
(dp146
g13
F12.544298599750269
sg14
I5
sg15
I01
sg16
I2
sg17
I11
sbs(I2
I4
tp147
g1
(g10
g3
NtRp148
(dp149
g13
F25.474624712475226
sg14
I2
sg15
I01
sg16
I4
sg17
I24
sbs(I8
I4
tp150
g1
(g10
g3
NtRp151
(dp152
g13
F-28.489444114566908
sg14
I8
sg15
I01
sg16
I4
sg17
I40
sbssS'_input_nodes'
p153
I1
sS'_output_nodes'
p154
I1
sS'_node_gene_type'
p155
cneat.genome
NodeGene
p156
sS'_conn_gene_type'
p157
g10
sS'fitness'
p158
F0.93483440473470292
sS'parent2_id'
p159
I8251
sS'_id'
p160
I8270
sS'parent1_id'
p161
I8251
sS'_node_genes'
p162
(lp163
g1
(g156
g3
NtRp164
(dp165
S'_bias'
p166
I0
sS'_type'
p167
S'INPUT'
p168
sg160
I1
sS'_response'
p169
F4.9242730000000003
sS'_activation_type'
p170
Nsbag1
(g156
g3
NtRp171
(dp172
g166
F-4.9865647635756112
sg167
S'OUTPUT'
p173
sg160
I2
sg169
F3.0604130988122313
sg170
S'tanh'
p174
sbag1
(g156
g3
NtRp175
(dp176
g166
F-2.4758284389798564
sg167
S'HIDDEN'
p177
sg160
I3
sg169
F4.036611473763962
sg170
g174
sbag1
(g156
g3
NtRp178
(dp179
g166
F4.2319470643141663
sg167
g177
sg160
I4
sg169
F4.1611326418655219
sg170
g174
sbag1
(g156
g3
NtRp180
(dp181
g166
F4.8308775163013715
sg167
g177
sg160
I5
sg169
F12.037164266742824
sg170
g174
sbag1
(g156
g3
NtRp182
(dp183
g166
F-2.4006208622640912
sg167
g177
sg160
I6
sg169
F1.7817138679808686
sg170
g174
sbag1
(g156
g3
NtRp184
(dp185
g166
F-1.7121847331917839
sg167
g177
sg160
I7
sg169
F7.0369068974873601
sg170
g174
sbag1
(g156
g3
NtRp186
(dp187
g166
F-1.3951154275022597
sg167
g177
sg160
I8
sg169
F9.7559450742722209
sg170
g174
sbag1
(g156
g3
NtRp188
(dp189
g166
F0.064670779863283512
sg167
g177
sg160
I9
sg169
F8.2458064311167849
sg170
g174
sbag1
(g156
g3
NtRp190
(dp191
g166
F0.96634740128256169
sg167
g177
sg160
I10
sg169
F5.1252368124960661
sg170
g174
sbag1
(g156
g3
NtRp192
(dp193
g166
F-0.72157465501994988
sg167
g177
sg160
I11
sg169
F6.1710997804568892
sg170
g174
sbag1
(g156
g3
NtRp194
(dp195
g166
F0.031423919902726728
sg167
g177
sg160
I12
sg169
F5.2352560568925259
sg170
g174
sbag1
(g156
g3
NtRp196
(dp197
g166
F1.2597594971268424
sg167
g177
sg160
I13
sg169
F5.2191531942767444
sg170
g174
sbasb.