ccopy_reg
_reconstructor
p1
(cneat.chromosome
Chromosome
p2
c__builtin__
object
p3
NtRp4
(dp5
S'species_id'
p6
I19
sS'_connection_genes'
p7
(dp8
(I1
I2
tp9
g1
(cneat.genome
ConnectionGene
p10
g3
NtRp11
(dp12
S'_ConnectionGene__weight'
p13
F11.423416314156384
sS'_ConnectionGene__in'
p14
I1
sS'_ConnectionGene__enabled'
p15
I01
sS'_ConnectionGene__out'
p16
I2
sS'_ConnectionGene__innov_number'
p17
I1
sbs(I8
I5
tp18
g1
(g10
g3
NtRp19
(dp20
g13
F15.333149082528683
sg14
I8
sg15
I01
sg16
I5
sg17
I36
sbs(I3
I2
tp21
g1
(g10
g3
NtRp22
(dp23
g13
F8.6111008233493536
sg14
I3
sg15
I00
sg16
I2
sg17
I4
sbs(I1
I3
tp24
g1
(g10
g3
NtRp25
(dp26
g13
F-0.74883782380067365
sg14
I1
sg15
I01
sg16
I3
sg17
I3
sbs(I3
I7
tp27
g1
(g10
g3
NtRp28
(dp29
g13
F3.3224222022949035
sg14
I3
sg15
I01
sg16
I7
sg17
I26
sbs(I3
I3
tp30
g1
(g10
g3
NtRp31
(dp32
g13
F-2.7704334882823725
sg14
I3
sg15
I01
sg16
I3
sg17
I9
sbs(I6
I8
tp33
g1
(g10
g3
NtRp34
(dp35
g13
F-1.6293432126891545
sg14
I6
sg15
I01
sg16
I8
sg17
I56
sbs(I5
I6
tp36
g1
(g10
g3
NtRp37
(dp38
g13
F-6.7231106643763701
sg14
I5
sg15
I01
sg16
I6
sg17
I16
sbs(I5
I2
tp39
g1
(g10
g3
NtRp40
(dp41
g13
F25.844247398697835
sg14
I5
sg15
I01
sg16
I2
sg17
I11
sbs(I1
I4
tp42
g1
(g10
g3
NtRp43
(dp44
g13
F8.39941712991995
sg14
I1
sg15
I01
sg16
I4
sg17
I8
sbs(I2
I3
tp45
g1
(g10
g3
NtRp46
(dp47
g13
F2.9688472235757253
sg14
I2
sg15
I01
sg16
I3
sg17
I7
sbs(I7
I2
tp48
g1
(g10
g3
NtRp49
(dp50
g13
F10.08600073802117
sg14
I7
sg15
I01
sg16
I2
sg17
I33
sbs(I3
I6
tp51
g1
(g10
g3
NtRp52
(dp53
g13
F-3.5528795885043905
sg14
I3
sg15
I01
sg16
I6
sg17
I19
sbs(I2
I2
tp54
g1
(g10
g3
NtRp55
(dp56
g13
F1.4155003211460833
sg14
I2
sg15
I01
sg16
I2
sg17
I2
sbs(I4
I2
tp57
g1
(g10
g3
NtRp58
(dp59
g13
F20.137020359935399
sg14
I4
sg15
I01
sg16
I2
sg17
I6
sbs(I3
I5
tp60
g1
(g10
g3
NtRp61
(dp62
g13
F4.2559561917538868
sg14
I3
sg15
I01
sg16
I5
sg17
I13
sbs(I3
I4
tp63
g1
(g10
g3
NtRp64
(dp65
g13
F13.168457445181634
sg14
I3
sg15
I01
sg16
I4
sg17
I5
sbs(I2
I4
tp66
g1
(g10
g3
NtRp67
(dp68
g13
F-7.7871003054895986
sg14
I2
sg15
I01
sg16
I4
sg17
I24
sbs(I6
I5
tp69
g1
(g10
g3
NtRp70
(dp71
g13
F13.109750437110428
sg14
I6
sg15
I00
sg16
I5
sg17
I23
sbs(I5
I3
tp72
g1
(g10
g3
NtRp73
(dp74
g13
F17.633731440573214
sg14
I5
sg15
I01
sg16
I3
sg17
I14
sbssS'_input_nodes'
p75
I1
sS'_output_nodes'
p76
I1
sS'_node_gene_type'
p77
cneat.genome
NodeGene
p78
sS'_conn_gene_type'
p79
g10
sS'fitness'
p80
F0.99942819425113527
sS'parent2_id'
p81
I1519
sS'_id'
p82
I1536
sS'parent1_id'
p83
I1519
sS'_node_genes'
p84
(lp85
g1
(g78
g3
NtRp86
(dp87
S'_bias'
p88
I0
sS'_type'
p89
S'INPUT'
p90
sg82
I1
sS'_response'
p91
F4.9242730000000003
sS'_activation_type'
p92
Nsbag1
(g78
g3
NtRp93
(dp94
g88
F0.30330827044057401
sg89
S'OUTPUT'
p95
sg82
I2
sg91
F3.7093496388691856
sg92
S'tanh'
p96
sbag1
(g78
g3
NtRp97
(dp98
g88
F1.5706232294010074
sg89
S'HIDDEN'
p99
sg82
I3
sg91
F1.6541774714059014
sg92
g96
sbag1
(g78
g3
NtRp100
(dp101
g88
F-1.4601529644684437
sg89
g99
sg82
I4
sg91
F5.1440528137551462
sg92
g96
sbag1
(g78
g3
NtRp102
(dp103
g88
F0.63940032848157624
sg89
g99
sg82
I5
sg91
F1.6594020877680249
sg92
g96
sbag1
(g78
g3
NtRp104
(dp105
g88
F-2.5217723801193195
sg89
g99
sg82
I6
sg91
F4.6175192749257183
sg92
g96
sbag1
(g78
g3
NtRp106
(dp107
g88
F-0.02089754463441728
sg89
g99
sg82
I7
sg91
F4.091454017938819
sg92
g96
sbag1
(g78
g3
NtRp108
(dp109
g88
I0
sg89
g99
sg82
I8
sg91
F4.9242730000000003
sg92
g96
sbasb.