ccopy_reg
_reconstructor
p1
(cneat.chromosome
Chromosome
p2
c__builtin__
object
p3
NtRp4
(dp5
S'species_id'
p6
I68
sS'_connection_genes'
p7
(dp8
(I1
I3
tp9
g1
(cneat.genome
ConnectionGene
p10
g3
NtRp11
(dp12
S'_ConnectionGene__weight'
p13
F25.272358064663326
sS'_ConnectionGene__in'
p14
I1
sS'_ConnectionGene__enabled'
p15
I00
sS'_ConnectionGene__out'
p16
I3
sS'_ConnectionGene__innov_number'
p17
I3
sbs(I6
I6
tp18
g1
(g10
g3
NtRp19
(dp20
g13
F26.661840459987328
sg14
I6
sg15
I01
sg16
I6
sg17
I39
sbs(I5
I6
tp21
g1
(g10
g3
NtRp22
(dp23
g13
F3.980702800198872
sg14
I5
sg15
I01
sg16
I6
sg17
I16
sbs(I14
I4
tp24
g1
(g10
g3
NtRp25
(dp26
g13
F-7.0859732879104858
sg14
I14
sg15
I00
sg16
I4
sg17
I159
sbs(I9
I8
tp27
g1
(g10
g3
NtRp28
(dp29
g13
F-24.827489762872837
sg14
I9
sg15
I01
sg16
I8
sg17
I60
sbs(I1
I15
tp30
g1
(g10
g3
NtRp31
(dp32
g13
F-2.3718212710092654
sg14
I1
sg15
I01
sg16
I15
sg17
I168
sbs(I4
I12
tp33
g1
(g10
g3
NtRp34
(dp35
g13
F16.708199882994329
sg14
I4
sg15
I01
sg16
I12
sg17
I102
sbs(I9
I4
tp36
g1
(g10
g3
NtRp37
(dp38
g13
F13.035362654986553
sg14
I9
sg15
I01
sg16
I4
sg17
I77
sbs(I7
I2
tp39
g1
(g10
g3
NtRp40
(dp41
g13
F-24.991277891409087
sg14
I7
sg15
I01
sg16
I2
sg17
I33
sbs(I1
I2
tp42
g1
(g10
g3
NtRp43
(dp44
g13
F12.212500015346336
sg14
I1
sg15
I01
sg16
I2
sg17
I1
sbs(I4
I9
tp45
g1
(g10
g3
NtRp46
(dp47
g13
F-2.3785928844980764
sg14
I4
sg15
I01
sg16
I9
sg17
I44
sbs(I3
I3
tp48
g1
(g10
g3
NtRp49
(dp50
g13
F21.382019079420104
sg14
I3
sg15
I01
sg16
I3
sg17
I9
sbs(I4
I4
tp51
g1
(g10
g3
NtRp52
(dp53
g13
F7.1783075009245216
sg14
I4
sg15
I00
sg16
I4
sg17
I15
sbs(I4
I13
tp54
g1
(g10
g3
NtRp55
(dp56
g13
F-2.3817245181130442
sg14
I4
sg15
I01
sg16
I13
sg17
I119
sbs(I1
I5
tp57
g1
(g10
g3
NtRp58
(dp59
g13
F15.624636636750543
sg14
I1
sg15
I01
sg16
I5
sg17
I10
sbs(I6
I5
tp60
g1
(g10
g3
NtRp61
(dp62
g13
F22.445270366026055
sg14
I6
sg15
I01
sg16
I5
sg17
I23
sbs(I3
I6
tp63
g1
(g10
g3
NtRp64
(dp65
g13
F-16.242322772945769
sg14
I3
sg15
I01
sg16
I6
sg17
I19
sbs(I2
I2
tp66
g1
(g10
g3
NtRp67
(dp68
g13
F24.442349689757549
sg14
I2
sg15
I01
sg16
I2
sg17
I2
sbs(I5
I7
tp69
g1
(g10
g3
NtRp70
(dp71
g13
F5.7693676115348014
sg14
I5
sg15
I01
sg16
I7
sg17
I28
sbs(I5
I3
tp72
g1
(g10
g3
NtRp73
(dp74
g13
F-5.9268317556133123
sg14
I5
sg15
I01
sg16
I3
sg17
I14
sbs(I11
I2
tp75
g1
(g10
g3
NtRp76
(dp77
g13
F24.97556411036193
sg14
I11
sg15
I01
sg16
I2
sg17
I74
sbs(I4
I10
tp78
g1
(g10
g3
NtRp79
(dp80
g13
F18.211283441476699
sg14
I4
sg15
I01
sg16
I10
sg17
I63
sbs(I3
I2
tp81
g1
(g10
g3
NtRp82
(dp83
g13
F-5.1184445482708734
sg14
I3
sg15
I01
sg16
I2
sg17
I4
sbs(I17
I6
tp84
g1
(g10
g3
NtRp85
(dp86
g13
F5.8412639147072172
sg14
I17
sg15
I01
sg16
I6
sg17
I188
sbs(I10
I4
tp87
g1
(g10
g3
NtRp88
(dp89
g13
F-22.664605920192834
sg14
I10
sg15
I01
sg16
I4
sg17
I90
sbs(I16
I4
tp90
g1
(g10
g3
NtRp91
(dp92
g13
F3.5958445778392973
sg14
I16
sg15
I01
sg16
I4
sg17
I175
sbs(I4
I5
tp93
g1
(g10
g3
NtRp94
(dp95
g13
F-28.96369634858366
sg14
I4
sg15
I01
sg16
I5
sg17
I30
sbs(I15
I3
tp96
g1
(g10
g3
NtRp97
(dp98
g13
F15.860260846436129
sg14
I15
sg15
I01
sg16
I3
sg17
I169
sbs(I5
I17
tp99
g1
(g10
g3
NtRp100
(dp101
g13
F-1.162635746018212
sg14
I5
sg15
I01
sg16
I17
sg17
I187
sbs(I1
I4
tp102
g1
(g10
g3
NtRp103
(dp104
g13
F13.874499194655156
sg14
I1
sg15
I01
sg16
I4
sg17
I8
sbs(I2
I10
tp105
g1
(g10
g3
NtRp106
(dp107
g13
F-23.735342334117899
sg14
I2
sg15
I01
sg16
I10
sg17
I57
sbs(I12
I18
tp108
g1
(g10
g3
NtRp109
(dp110
g13
F-22.823883456611096
sg14
I12
sg15
I01
sg16
I18
sg17
I189
sbs(I2
I3
tp111
g1
(g10
g3
NtRp112
(dp113
g13
F-7.3809338733972769
sg14
I2
sg15
I01
sg16
I3
sg17
I7
sbs(I12
I11
tp114
g1
(g10
g3
NtRp115
(dp116
g13
F11.379371565930892
sg14
I12
sg15
I00
sg16
I11
sg17
I84
sbs(I4
I2
tp117
g1
(g10
g3
NtRp118
(dp119
g13
F22.329093812526892
sg14
I4
sg15
I01
sg16
I2
sg17
I6
sbs(I2
I14
tp120
g1
(g10
g3
NtRp121
(dp122
g13
F-7.8447273897218048
sg14
I2
sg15
I01
sg16
I14
sg17
I142
sbs(I4
I11
tp123
g1
(g10
g3
NtRp124
(dp125
g13
F19.259092523713235
sg14
I4
sg15
I00
sg16
I11
sg17
I75
sbs(I7
I9
tp126
g1
(g10
g3
NtRp127
(dp128
g13
F-4.220612342527744
sg14
I7
sg15
I01
sg16
I9
sg17
I41
sbs(I3
I5
tp129
g1
(g10
g3
NtRp130
(dp131
g13
F18.017975639969382
sg14
I3
sg15
I01
sg16
I5
sg17
I13
sbs(I8
I3
tp132
g1
(g10
g3
NtRp133
(dp134
g13
F5.5201296627246457
sg14
I8
sg15
I01
sg16
I3
sg17
I71
sbs(I14
I16
tp135
g1
(g10
g3
NtRp136
(dp137
g13
F2.242788515618888
sg14
I14
sg15
I01
sg16
I16
sg17
I174
sbs(I5
I2
tp138
g1
(g10
g3
NtRp139
(dp140
g13
F22.848211838628774
sg14
I5
sg15
I01
sg16
I2
sg17
I11
sbs(I7
I13
tp141
g1
(g10
g3
NtRp142
(dp143
g13
F-5.534135375161207
sg14
I7
sg15
I01
sg16
I13
sg17
I136
sbs(I3
I8
tp144
g1
(g10
g3
NtRp145
(dp146
g13
F10.261972945625786
sg14
I3
sg15
I01
sg16
I8
sg17
I49
sbs(I6
I2
tp147
g1
(g10
g3
NtRp148
(dp149
g13
F7.1375060835943884
sg14
I6
sg15
I01
sg16
I2
sg17
I17
sbs(I18
I11
tp150
g1
(g10
g3
NtRp151
(dp152
g13
F-0.6321012585937924
sg14
I18
sg15
I01
sg16
I11
sg17
I190
sbs(I4
I3
tp153
g1
(g10
g3
NtRp154
(dp155
g13
F-12.341855256884589
sg14
I4
sg15
I01
sg16
I3
sg17
I12
sbs(I13
I9
tp156
g1
(g10
g3
NtRp157
(dp158
g13
F-15.777157414131549
sg14
I13
sg15
I01
sg16
I9
sg17
I137
sbs(I3
I4
tp159
g1
(g10
g3
NtRp160
(dp161
g13
F-30
sg14
I3
sg15
I00
sg16
I4
sg17
I5
sbs(I2
I4
tp162
g1
(g10
g3
NtRp163
(dp164
g13
F-13.71782481877981
sg14
I2
sg15
I00
sg16
I4
sg17
I24
sbs(I8
I4
tp165
g1
(g10
g3
NtRp166
(dp167
g13
F-17.405034688840963
sg14
I8
sg15
I01
sg16
I4
sg17
I40
sbssS'_input_nodes'
p168
I1
sS'_output_nodes'
p169
I1
sS'_node_gene_type'
p170
cneat.genome
NodeGene
p171
sS'_conn_gene_type'
p172
g10
sS'fitness'
p173
F0.99377830548958757
sS'parent2_id'
p174
I7113
sS'_id'
p175
I7136
sS'parent1_id'
p176
I7113
sS'_node_genes'
p177
(lp178
g1
(g171
g3
NtRp179
(dp180
S'_bias'
p181
I0
sS'_type'
p182
S'INPUT'
p183
sg175
I1
sS'_response'
p184
F4.9242730000000003
sS'_activation_type'
p185
Nsbag1
(g171
g3
NtRp186
(dp187
g181
F-2.9343888953061454
sg182
S'OUTPUT'
p188
sg175
I2
sg184
F6.1830887207601375
sg185
S'tanh'
p189
sbag1
(g171
g3
NtRp190
(dp191
g181
F-6.6685671909288686
sg182
S'HIDDEN'
p192
sg175
I3
sg184
F0.53555396524220278
sg185
g189
sbag1
(g171
g3
NtRp193
(dp194
g181
F-3.2020477085650341
sg182
g192
sg175
I4
sg184
F2.5008134630254011
sg185
g189
sbag1
(g171
g3
NtRp195
(dp196
g181
F1.0960089369755608
sg182
g192
sg175
I5
sg184
F7.0119996018663899
sg185
g189
sbag1
(g171
g3
NtRp197
(dp198
g181
F1.3429844729282185
sg182
g192
sg175
I6
sg184
F1.1492447990528301
sg185
g189
sbag1
(g171
g3
NtRp199
(dp200
g181
F-2.9412540138162777
sg182
g192
sg175
I7
sg184
F3.9943741279359144
sg185
g189
sbag1
(g171
g3
NtRp201
(dp202
g181
F-2.3905816364101704
sg182
g192
sg175
I8
sg184
F7.3607511373826471
sg185
g189
sbag1
(g171
g3
NtRp203
(dp204
g181
F0.41119410319381672
sg182
g192
sg175
I9
sg184
F3.8503664093579264
sg185
g189
sbag1
(g171
g3
NtRp205
(dp206
g181
F-1.5904766641307013
sg182
g192
sg175
I10
sg184
F3.4542434425344699
sg185
g189
sbag1
(g171
g3
NtRp207
(dp208
g181
F1.4077029693259795
sg182
g192
sg175
I11
sg184
F6.3119622647439533
sg185
g189
sbag1
(g171
g3
NtRp209
(dp210
g181
F-2.5606011709061285
sg182
g192
sg175
I12
sg184
F6.4713601687928204
sg185
g189
sbag1
(g171
g3
NtRp211
(dp212
g181
F2.0313306477328972
sg182
g192
sg175
I13
sg184
F2.9267176532595931
sg185
g189
sbag1
(g171
g3
NtRp213
(dp214
g181
F-0.94905236333894205
sg182
g192
sg175
I14
sg184
F5.5651089792261459
sg185
g189
sbag1
(g171
g3
NtRp215
(dp216
g181
F0.48641877562624275
sg182
g192
sg175
I15
sg184
F6.0358882663396081
sg185
g189
sbag1
(g171
g3
NtRp217
(dp218
g181
F0.35451794611303955
sg182
g192
sg175
I16
sg184
F5.3355505952782885
sg185
g189
sbag1
(g171
g3
NtRp219
(dp220
g181
F-0.426200179051473
sg182
g192
sg175
I17
sg184
F4.5652321462491923
sg185
g189
sbag1
(g171
g3
NtRp221
(dp222
g181
F-0.73795716889774621
sg182
g192
sg175
I18
sg184
F7.285444842175627
sg185
g189
sbasb.