ccopy_reg
_reconstructor
p1
(cneat.chromosome
Chromosome
p2
c__builtin__
object
p3
NtRp4
(dp5
S'species_id'
p6
I54
sS'_connection_genes'
p7
(dp8
(I1
I3
tp9
g1
(cneat.genome
ConnectionGene
p10
g3
NtRp11
(dp12
S'_ConnectionGene__weight'
p13
F26.856930620774442
sS'_ConnectionGene__in'
p14
I1
sS'_ConnectionGene__enabled'
p15
I00
sS'_ConnectionGene__out'
p16
I3
sS'_ConnectionGene__innov_number'
p17
I3
sbs(I6
I6
tp18
g1
(g10
g3
NtRp19
(dp20
g13
F10.048076796727198
sg14
I6
sg15
I01
sg16
I6
sg17
I39
sbs(I5
I6
tp21
g1
(g10
g3
NtRp22
(dp23
g13
F12.321632195765005
sg14
I5
sg15
I01
sg16
I6
sg17
I16
sbs(I14
I4
tp24
g1
(g10
g3
NtRp25
(dp26
g13
F-6.6121939352639654
sg14
I14
sg15
I01
sg16
I4
sg17
I159
sbs(I9
I8
tp27
g1
(g10
g3
NtRp28
(dp29
g13
F-16.861661198372392
sg14
I9
sg15
I01
sg16
I8
sg17
I60
sbs(I1
I15
tp30
g1
(g10
g3
NtRp31
(dp32
g13
F2.1024061012620567
sg14
I1
sg15
I01
sg16
I15
sg17
I168
sbs(I4
I12
tp33
g1
(g10
g3
NtRp34
(dp35
g13
F3.5332963999303875
sg14
I4
sg15
I01
sg16
I12
sg17
I102
sbs(I9
I4
tp36
g1
(g10
g3
NtRp37
(dp38
g13
F23.511394205736927
sg14
I9
sg15
I01
sg16
I4
sg17
I77
sbs(I7
I2
tp39
g1
(g10
g3
NtRp40
(dp41
g13
F-13.089945890277148
sg14
I7
sg15
I01
sg16
I2
sg17
I33
sbs(I1
I2
tp42
g1
(g10
g3
NtRp43
(dp44
g13
F6.7085937992173985
sg14
I1
sg15
I01
sg16
I2
sg17
I1
sbs(I4
I9
tp45
g1
(g10
g3
NtRp46
(dp47
g13
F0.39585585050290373
sg14
I4
sg15
I01
sg16
I9
sg17
I44
sbs(I3
I3
tp48
g1
(g10
g3
NtRp49
(dp50
g13
F28.113127168402301
sg14
I3
sg15
I01
sg16
I3
sg17
I9
sbs(I4
I4
tp51
g1
(g10
g3
NtRp52
(dp53
g13
F-5.4795046434258454
sg14
I4
sg15
I00
sg16
I4
sg17
I15
sbs(I4
I13
tp54
g1
(g10
g3
NtRp55
(dp56
g13
F-10.234717468875271
sg14
I4
sg15
I01
sg16
I13
sg17
I119
sbs(I1
I5
tp57
g1
(g10
g3
NtRp58
(dp59
g13
F10.736257070992615
sg14
I1
sg15
I01
sg16
I5
sg17
I10
sbs(I6
I5
tp60
g1
(g10
g3
NtRp61
(dp62
g13
F23.47221585247706
sg14
I6
sg15
I01
sg16
I5
sg17
I23
sbs(I3
I6
tp63
g1
(g10
g3
NtRp64
(dp65
g13
F-12.108133311819385
sg14
I3
sg15
I01
sg16
I6
sg17
I19
sbs(I2
I2
tp66
g1
(g10
g3
NtRp67
(dp68
g13
F16.028063668605398
sg14
I2
sg15
I01
sg16
I2
sg17
I2
sbs(I5
I7
tp69
g1
(g10
g3
NtRp70
(dp71
g13
F-5.2114227777069333
sg14
I5
sg15
I01
sg16
I7
sg17
I28
sbs(I5
I3
tp72
g1
(g10
g3
NtRp73
(dp74
g13
F-10.2516863385368
sg14
I5
sg15
I01
sg16
I3
sg17
I14
sbs(I11
I2
tp75
g1
(g10
g3
NtRp76
(dp77
g13
F23.4011711608326
sg14
I11
sg15
I01
sg16
I2
sg17
I74
sbs(I4
I10
tp78
g1
(g10
g3
NtRp79
(dp80
g13
F-1.5435029854079421
sg14
I4
sg15
I01
sg16
I10
sg17
I63
sbs(I3
I2
tp81
g1
(g10
g3
NtRp82
(dp83
g13
F-4.9156180858591938
sg14
I3
sg15
I01
sg16
I2
sg17
I4
sbs(I10
I4
tp84
g1
(g10
g3
NtRp85
(dp86
g13
F-17.881030641761068
sg14
I10
sg15
I01
sg16
I4
sg17
I90
sbs(I4
I5
tp87
g1
(g10
g3
NtRp88
(dp89
g13
F-24.194272786337745
sg14
I4
sg15
I01
sg16
I5
sg17
I30
sbs(I15
I3
tp90
g1
(g10
g3
NtRp91
(dp92
g13
F23.962319917748555
sg14
I15
sg15
I01
sg16
I3
sg17
I169
sbs(I1
I4
tp93
g1
(g10
g3
NtRp94
(dp95
g13
F25.558960326952544
sg14
I1
sg15
I01
sg16
I4
sg17
I8
sbs(I2
I10
tp96
g1
(g10
g3
NtRp97
(dp98
g13
F-8.4560182248347573
sg14
I2
sg15
I01
sg16
I10
sg17
I57
sbs(I2
I3
tp99
g1
(g10
g3
NtRp100
(dp101
g13
F-16.667017431522599
sg14
I2
sg15
I01
sg16
I3
sg17
I7
sbs(I12
I11
tp102
g1
(g10
g3
NtRp103
(dp104
g13
F6.1519050131886939
sg14
I12
sg15
I01
sg16
I11
sg17
I84
sbs(I4
I2
tp105
g1
(g10
g3
NtRp106
(dp107
g13
F21.001222862574714
sg14
I4
sg15
I00
sg16
I2
sg17
I6
sbs(I2
I14
tp108
g1
(g10
g3
NtRp109
(dp110
g13
F-9.2413131566402438
sg14
I2
sg15
I01
sg16
I14
sg17
I142
sbs(I4
I11
tp111
g1
(g10
g3
NtRp112
(dp113
g13
F7.7622832757859772
sg14
I4
sg15
I00
sg16
I11
sg17
I75
sbs(I7
I9
tp114
g1
(g10
g3
NtRp115
(dp116
g13
F16.459807423555162
sg14
I7
sg15
I01
sg16
I9
sg17
I41
sbs(I3
I5
tp117
g1
(g10
g3
NtRp118
(dp119
g13
F24.274687970206585
sg14
I3
sg15
I01
sg16
I5
sg17
I13
sbs(I8
I3
tp120
g1
(g10
g3
NtRp121
(dp122
g13
F3.5082965393599101
sg14
I8
sg15
I01
sg16
I3
sg17
I71
sbs(I5
I2
tp123
g1
(g10
g3
NtRp124
(dp125
g13
F27.798834251117626
sg14
I5
sg15
I01
sg16
I2
sg17
I11
sbs(I7
I13
tp126
g1
(g10
g3
NtRp127
(dp128
g13
F-3.1927299606087258
sg14
I7
sg15
I01
sg16
I13
sg17
I136
sbs(I3
I8
tp129
g1
(g10
g3
NtRp130
(dp131
g13
F11.444591774876287
sg14
I3
sg15
I01
sg16
I8
sg17
I49
sbs(I6
I2
tp132
g1
(g10
g3
NtRp133
(dp134
g13
F3.9276474625054112
sg14
I6
sg15
I01
sg16
I2
sg17
I17
sbs(I4
I3
tp135
g1
(g10
g3
NtRp136
(dp137
g13
F-11.043396602079559
sg14
I4
sg15
I01
sg16
I3
sg17
I12
sbs(I13
I9
tp138
g1
(g10
g3
NtRp139
(dp140
g13
F-6.8251844678709199
sg14
I13
sg15
I01
sg16
I9
sg17
I137
sbs(I3
I4
tp141
g1
(g10
g3
NtRp142
(dp143
g13
F-13.505777569050343
sg14
I3
sg15
I00
sg16
I4
sg17
I5
sbs(I2
I4
tp144
g1
(g10
g3
NtRp145
(dp146
g13
F-23.54637762096656
sg14
I2
sg15
I00
sg16
I4
sg17
I24
sbs(I8
I4
tp147
g1
(g10
g3
NtRp148
(dp149
g13
F-17.502733488104266
sg14
I8
sg15
I01
sg16
I4
sg17
I40
sbssS'_input_nodes'
p150
I1
sS'_output_nodes'
p151
I1
sS'_node_gene_type'
p152
cneat.genome
NodeGene
p153
sS'_conn_gene_type'
p154
g10
sS'fitness'
p155
F0.98567567563406033
sS'parent2_id'
p156
I6054
sS'_id'
p157
I6068
sS'parent1_id'
p158
I6054
sS'_node_genes'
p159
(lp160
g1
(g153
g3
NtRp161
(dp162
S'_bias'
p163
I0
sS'_type'
p164
S'INPUT'
p165
sg157
I1
sS'_response'
p166
F4.9242730000000003
sS'_activation_type'
p167
Nsbag1
(g153
g3
NtRp168
(dp169
g163
F-1.6580607638631608
sg164
S'OUTPUT'
p170
sg157
I2
sg166
F6.1446767813085676
sg167
S'tanh'
p171
sbag1
(g153
g3
NtRp172
(dp173
g163
F-5.0454915544193115
sg164
S'HIDDEN'
p174
sg157
I3
sg166
F-0.146513004234925
sg167
g171
sbag1
(g153
g3
NtRp175
(dp176
g163
F-2.5432330706358983
sg164
g174
sg157
I4
sg166
F4.9399568490138819
sg167
g171
sbag1
(g153
g3
NtRp177
(dp178
g163
F1.4633750498935074
sg164
g174
sg157
I5
sg166
F6.0973133545458946
sg167
g171
sbag1
(g153
g3
NtRp179
(dp180
g163
F-1.9667548622065447
sg164
g174
sg157
I6
sg166
F1.5311771886258951
sg167
g171
sbag1
(g153
g3
NtRp181
(dp182
g163
F-3.4311061883308716
sg164
g174
sg157
I7
sg166
F4.5855441498778218
sg167
g171
sbag1
(g153
g3
NtRp183
(dp184
g163
F-2.0210205716331924
sg164
g174
sg157
I8
sg166
F5.1101736915546994
sg167
g171
sbag1
(g153
g3
NtRp185
(dp186
g163
F0.82352689655119882
sg164
g174
sg157
I9
sg166
F5.1731119714499947
sg167
g171
sbag1
(g153
g3
NtRp187
(dp188
g163
F-2.3466505872263466
sg164
g174
sg157
I10
sg166
F1.8910281083488769
sg167
g171
sbag1
(g153
g3
NtRp189
(dp190
g163
F-0.046480555312023247
sg164
g174
sg157
I11
sg166
F7.1682736407162224
sg167
g171
sbag1
(g153
g3
NtRp191
(dp192
g163
F-0.84564522653293861
sg164
g174
sg157
I12
sg166
F5.1573512849704972
sg167
g171
sbag1
(g153
g3
NtRp193
(dp194
g163
F1.8555008628673906
sg164
g174
sg157
I13
sg166
F4.2350136071345341
sg167
g171
sbag1
(g153
g3
NtRp195
(dp196
g163
F0.35029699062870917
sg164
g174
sg157
I14
sg166
F3.8323755306487959
sg167
g171
sbag1
(g153
g3
NtRp197
(dp198
g163
I0
sg164
g174
sg157
I15
sg166
F5.0848984594496374
sg167
g171
sbasb.