ccopy_reg
_reconstructor
p1
(cneat.chromosome
Chromosome
p2
c__builtin__
object
p3
NtRp4
(dp5
S'species_id'
p6
I60
sS'_connection_genes'
p7
(dp8
(I3
I15
tp9
g1
(cneat.genome
ConnectionGene
p10
g3
NtRp11
(dp12
S'_ConnectionGene__weight'
p13
F-3.3006610943020407
sS'_ConnectionGene__in'
p14
I3
sS'_ConnectionGene__enabled'
p15
I01
sS'_ConnectionGene__out'
p16
I15
sS'_ConnectionGene__innov_number'
p17
I151
sbs(I1
I3
tp18
g1
(g10
g3
NtRp19
(dp20
g13
F30
sg14
I1
sg15
I01
sg16
I3
sg17
I3
sbs(I6
I6
tp21
g1
(g10
g3
NtRp22
(dp23
g13
F18.087224035133023
sg14
I6
sg15
I01
sg16
I6
sg17
I39
sbs(I5
I6
tp24
g1
(g10
g3
NtRp25
(dp26
g13
F-0.54341987420887616
sg14
I5
sg15
I01
sg16
I6
sg17
I16
sbs(I9
I8
tp27
g1
(g10
g3
NtRp28
(dp29
g13
F2.4277096113448065
sg14
I9
sg15
I01
sg16
I8
sg17
I60
sbs(I4
I12
tp30
g1
(g10
g3
NtRp31
(dp32
g13
F-11.607646190095291
sg14
I4
sg15
I01
sg16
I12
sg17
I102
sbs(I9
I4
tp33
g1
(g10
g3
NtRp34
(dp35
g13
F28.182959351313698
sg14
I9
sg15
I01
sg16
I4
sg17
I77
sbs(I1
I11
tp36
g1
(g10
g3
NtRp37
(dp38
g13
F-3.5032767109106988
sg14
I1
sg15
I01
sg16
I11
sg17
I98
sbs(I7
I2
tp39
g1
(g10
g3
NtRp40
(dp41
g13
F-5.9771785127517614
sg14
I7
sg15
I01
sg16
I2
sg17
I33
sbs(I12
I14
tp42
g1
(g10
g3
NtRp43
(dp44
g13
F2.2938444898479151
sg14
I12
sg15
I01
sg16
I14
sg17
I147
sbs(I1
I2
tp45
g1
(g10
g3
NtRp46
(dp47
g13
F13.655621444998928
sg14
I1
sg15
I01
sg16
I2
sg17
I1
sbs(I4
I9
tp48
g1
(g10
g3
NtRp49
(dp50
g13
F25.524075241749809
sg14
I4
sg15
I01
sg16
I9
sg17
I44
sbs(I3
I3
tp51
g1
(g10
g3
NtRp52
(dp53
g13
F19.766055617709515
sg14
I3
sg15
I01
sg16
I3
sg17
I9
sbs(I4
I4
tp54
g1
(g10
g3
NtRp55
(dp56
g13
F12.091244538124512
sg14
I4
sg15
I01
sg16
I4
sg17
I15
sbs(I1
I5
tp57
g1
(g10
g3
NtRp58
(dp59
g13
F9.7251780613274992
sg14
I1
sg15
I01
sg16
I5
sg17
I10
sbs(I6
I5
tp60
g1
(g10
g3
NtRp61
(dp62
g13
F12.307942837314696
sg14
I6
sg15
I01
sg16
I5
sg17
I23
sbs(I3
I6
tp63
g1
(g10
g3
NtRp64
(dp65
g13
F-0.73189538172348012
sg14
I3
sg15
I00
sg16
I6
sg17
I19
sbs(I2
I2
tp66
g1
(g10
g3
NtRp67
(dp68
g13
F-10.861592885059537
sg14
I2
sg15
I01
sg16
I2
sg17
I2
sbs(I5
I7
tp69
g1
(g10
g3
NtRp70
(dp71
g13
F21.27141692694045
sg14
I5
sg15
I01
sg16
I7
sg17
I28
sbs(I3
I5
tp72
g1
(g10
g3
NtRp73
(dp74
g13
F28.555628573114298
sg14
I3
sg15
I01
sg16
I5
sg17
I13
sbs(I11
I2
tp75
g1
(g10
g3
NtRp76
(dp77
g13
F10.751972045852542
sg14
I11
sg15
I01
sg16
I2
sg17
I74
sbs(I3
I2
tp78
g1
(g10
g3
NtRp79
(dp80
g13
F-9.7927401021038119
sg14
I3
sg15
I01
sg16
I2
sg17
I4
sbs(I10
I4
tp81
g1
(g10
g3
NtRp82
(dp83
g13
F-10.57607467025735
sg14
I10
sg15
I01
sg16
I4
sg17
I90
sbs(I4
I5
tp84
g1
(g10
g3
NtRp85
(dp86
g13
F-13.206906435527378
sg14
I4
sg15
I01
sg16
I5
sg17
I30
sbs(I8
I3
tp87
g1
(g10
g3
NtRp88
(dp89
g13
F5.9581212032837323
sg14
I8
sg15
I01
sg16
I3
sg17
I71
sbs(I1
I4
tp90
g1
(g10
g3
NtRp91
(dp92
g13
F25.247046934454858
sg14
I1
sg15
I01
sg16
I4
sg17
I8
sbs(I2
I10
tp93
g1
(g10
g3
NtRp94
(dp95
g13
F0.10966238211064394
sg14
I2
sg15
I01
sg16
I10
sg17
I57
sbs(I14
I15
tp96
g1
(g10
g3
NtRp97
(dp98
g13
F3.8372174031128692
sg14
I14
sg15
I01
sg16
I15
sg17
I156
sbs(I12
I11
tp99
g1
(g10
g3
NtRp100
(dp101
g13
F1.4516899620042276
sg14
I12
sg15
I01
sg16
I11
sg17
I84
sbs(I13
I9
tp102
g1
(g10
g3
NtRp103
(dp104
g13
F2.2481831380925943
sg14
I13
sg15
I01
sg16
I9
sg17
I137
sbs(I4
I2
tp105
g1
(g10
g3
NtRp106
(dp107
g13
F23.073248809042425
sg14
I4
sg15
I01
sg16
I2
sg17
I6
sbs(I4
I11
tp108
g1
(g10
g3
NtRp109
(dp110
g13
F6.843874154986163
sg14
I4
sg15
I00
sg16
I11
sg17
I75
sbs(I7
I9
tp111
g1
(g10
g3
NtRp112
(dp113
g13
F-14.344218526969396
sg14
I7
sg15
I01
sg16
I9
sg17
I41
sbs(I14
I11
tp114
g1
(g10
g3
NtRp115
(dp116
g13
F16.082138078404803
sg14
I14
sg15
I01
sg16
I11
sg17
I148
sbs(I5
I3
tp117
g1
(g10
g3
NtRp118
(dp119
g13
F8.7818609770298934
sg14
I5
sg15
I01
sg16
I3
sg17
I14
sbs(I5
I2
tp120
g1
(g10
g3
NtRp121
(dp122
g13
F24.918350462089805
sg14
I5
sg15
I01
sg16
I2
sg17
I11
sbs(I7
I13
tp123
g1
(g10
g3
NtRp124
(dp125
g13
F12.554607901574547
sg14
I7
sg15
I01
sg16
I13
sg17
I136
sbs(I14
I7
tp126
g1
(g10
g3
NtRp127
(dp128
g13
F-5.4238466247621915
sg14
I14
sg15
I01
sg16
I7
sg17
I149
sbs(I3
I8
tp129
g1
(g10
g3
NtRp130
(dp131
g13
F6.1444492761063181
sg14
I3
sg15
I01
sg16
I8
sg17
I49
sbs(I15
I6
tp132
g1
(g10
g3
NtRp133
(dp134
g13
F-15.596496881030944
sg14
I15
sg15
I01
sg16
I6
sg17
I152
sbs(I4
I3
tp135
g1
(g10
g3
NtRp136
(dp137
g13
F-11.471119051027172
sg14
I4
sg15
I01
sg16
I3
sg17
I12
sbs(I2
I3
tp138
g1
(g10
g3
NtRp139
(dp140
g13
F-12.389785570631561
sg14
I2
sg15
I01
sg16
I3
sg17
I7
sbs(I3
I4
tp141
g1
(g10
g3
NtRp142
(dp143
g13
F-6.8188693655526436
sg14
I3
sg15
I01
sg16
I4
sg17
I5
sbs(I2
I4
tp144
g1
(g10
g3
NtRp145
(dp146
g13
F-27.159972154308182
sg14
I2
sg15
I01
sg16
I4
sg17
I24
sbs(I8
I4
tp147
g1
(g10
g3
NtRp148
(dp149
g13
F-17.855728822426737
sg14
I8
sg15
I01
sg16
I4
sg17
I40
sbssS'_input_nodes'
p150
I1
sS'_output_nodes'
p151
I1
sS'_node_gene_type'
p152
cneat.genome
NodeGene
p153
sS'_conn_gene_type'
p154
g10
sS'fitness'
p155
F0.96890593557819016
sS'parent2_id'
p156
I6451
sS'_id'
p157
I6465
sS'parent1_id'
p158
I6451
sS'_node_genes'
p159
(lp160
g1
(g153
g3
NtRp161
(dp162
S'_bias'
p163
I0
sS'_type'
p164
S'INPUT'
p165
sg157
I1
sS'_response'
p166
F4.9242730000000003
sS'_activation_type'
p167
Nsbag1
(g153
g3
NtRp168
(dp169
g163
F0.32968477309953126
sg164
S'OUTPUT'
p170
sg157
I2
sg166
F3.3674399407195152
sg167
S'tanh'
p171
sbag1
(g153
g3
NtRp172
(dp173
g163
F-3.9309620831224317
sg164
S'HIDDEN'
p174
sg157
I3
sg166
F-1.710772276101495
sg167
g171
sbag1
(g153
g3
NtRp175
(dp176
g163
F0.42650977668699563
sg164
g174
sg157
I4
sg166
F2.9218666275941185
sg167
g171
sbag1
(g153
g3
NtRp177
(dp178
g163
F0.51251030556126609
sg164
g174
sg157
I5
sg166
F2.8450438166446248
sg167
g171
sbag1
(g153
g3
NtRp179
(dp180
g163
F1.7010262594446253
sg164
g174
sg157
I6
sg166
F-0.82391531350833325
sg167
g171
sbag1
(g153
g3
NtRp181
(dp182
g163
F-3.5455289629663769
sg164
g174
sg157
I7
sg166
F3.1616868839549319
sg167
g171
sbag1
(g153
g3
NtRp183
(dp184
g163
F2.0036748773707238
sg164
g174
sg157
I8
sg166
F4.2598474323421884
sg167
g171
sbag1
(g153
g3
NtRp185
(dp186
g163
F0.88006499022628781
sg164
g174
sg157
I9
sg166
F7.3303774352048388
sg167
g171
sbag1
(g153
g3
NtRp187
(dp188
g163
F-2.3590623284476351
sg164
g174
sg157
I10
sg166
F4.8351142047953335
sg167
g171
sbag1
(g153
g3
NtRp189
(dp190
g163
F1.0974177276212858
sg164
g174
sg157
I11
sg166
F5.0165419223077317
sg167
g171
sbag1
(g153
g3
NtRp191
(dp192
g163
F-0.0087820625211340736
sg164
g174
sg157
I12
sg166
F5.4407457868514477
sg167
g171
sbag1
(g153
g3
NtRp193
(dp194
g163
F0.42106612451827558
sg164
g174
sg157
I13
sg166
F4.1517617273406868
sg167
g171
sbag1
(g153
g3
NtRp195
(dp196
g163
F0.33800675935713687
sg164
g174
sg157
I14
sg166
F4.4515990534887395
sg167
g171
sbag1
(g153
g3
NtRp197
(dp198
g163
F0.89840306916449675
sg164
g174
sg157
I15
sg166
F4.8325243239259272
sg167
g171
sbasb.