ccopy_reg
_reconstructor
p1
(cneat.chromosome
Chromosome
p2
c__builtin__
object
p3
NtRp4
(dp5
S'species_id'
p6
I71
sS'_connection_genes'
p7
(dp8
(I1
I3
tp9
g1
(cneat.genome
ConnectionGene
p10
g3
NtRp11
(dp12
S'_ConnectionGene__weight'
p13
F24.637217482419384
sS'_ConnectionGene__in'
p14
I1
sS'_ConnectionGene__enabled'
p15
I00
sS'_ConnectionGene__out'
p16
I3
sS'_ConnectionGene__innov_number'
p17
I3
sbs(I6
I6
tp18
g1
(g10
g3
NtRp19
(dp20
g13
F21.647614487683946
sg14
I6
sg15
I01
sg16
I6
sg17
I39
sbs(I5
I6
tp21
g1
(g10
g3
NtRp22
(dp23
g13
F7.9772201848390765
sg14
I5
sg15
I01
sg16
I6
sg17
I16
sbs(I14
I4
tp24
g1
(g10
g3
NtRp25
(dp26
g13
F-9.6110005861293608
sg14
I14
sg15
I01
sg16
I4
sg17
I159
sbs(I9
I8
tp27
g1
(g10
g3
NtRp28
(dp29
g13
F-30
sg14
I9
sg15
I01
sg16
I8
sg17
I60
sbs(I1
I15
tp30
g1
(g10
g3
NtRp31
(dp32
g13
F-5.7920894592321783
sg14
I1
sg15
I01
sg16
I15
sg17
I168
sbs(I4
I12
tp33
g1
(g10
g3
NtRp34
(dp35
g13
F20.081292389666604
sg14
I4
sg15
I01
sg16
I12
sg17
I102
sbs(I9
I4
tp36
g1
(g10
g3
NtRp37
(dp38
g13
F14.68268986893311
sg14
I9
sg15
I01
sg16
I4
sg17
I77
sbs(I7
I2
tp39
g1
(g10
g3
NtRp40
(dp41
g13
F-24.783077818850032
sg14
I7
sg15
I01
sg16
I2
sg17
I33
sbs(I1
I2
tp42
g1
(g10
g3
NtRp43
(dp44
g13
F14.228872866766643
sg14
I1
sg15
I01
sg16
I2
sg17
I1
sbs(I4
I9
tp45
g1
(g10
g3
NtRp46
(dp47
g13
F1.5872504334136344
sg14
I4
sg15
I01
sg16
I9
sg17
I44
sbs(I3
I3
tp48
g1
(g10
g3
NtRp49
(dp50
g13
F23.075632492753169
sg14
I3
sg15
I01
sg16
I3
sg17
I9
sbs(I4
I4
tp51
g1
(g10
g3
NtRp52
(dp53
g13
F23.172605262366105
sg14
I4
sg15
I00
sg16
I4
sg17
I15
sbs(I4
I13
tp54
g1
(g10
g3
NtRp55
(dp56
g13
F0.63311831986174716
sg14
I4
sg15
I01
sg16
I13
sg17
I119
sbs(I1
I5
tp57
g1
(g10
g3
NtRp58
(dp59
g13
F17.001245741661378
sg14
I1
sg15
I01
sg16
I5
sg17
I10
sbs(I6
I5
tp60
g1
(g10
g3
NtRp61
(dp62
g13
F20.541660640610701
sg14
I6
sg15
I01
sg16
I5
sg17
I23
sbs(I3
I6
tp63
g1
(g10
g3
NtRp64
(dp65
g13
F-19.119783527412704
sg14
I3
sg15
I01
sg16
I6
sg17
I19
sbs(I2
I2
tp66
g1
(g10
g3
NtRp67
(dp68
g13
F17.878061362424202
sg14
I2
sg15
I01
sg16
I2
sg17
I2
sbs(I5
I7
tp69
g1
(g10
g3
NtRp70
(dp71
g13
F7.8307284502620353
sg14
I5
sg15
I01
sg16
I7
sg17
I28
sbs(I5
I3
tp72
g1
(g10
g3
NtRp73
(dp74
g13
F-4.7044831126470701
sg14
I5
sg15
I01
sg16
I3
sg17
I14
sbs(I11
I2
tp75
g1
(g10
g3
NtRp76
(dp77
g13
F29.992327474436472
sg14
I11
sg15
I01
sg16
I2
sg17
I74
sbs(I4
I10
tp78
g1
(g10
g3
NtRp79
(dp80
g13
F5.898928090913298
sg14
I4
sg15
I01
sg16
I10
sg17
I63
sbs(I3
I2
tp81
g1
(g10
g3
NtRp82
(dp83
g13
F-2.645455212341592
sg14
I3
sg15
I01
sg16
I2
sg17
I4
sbs(I17
I6
tp84
g1
(g10
g3
NtRp85
(dp86
g13
F21.407596357040784
sg14
I17
sg15
I01
sg16
I6
sg17
I188
sbs(I10
I4
tp87
g1
(g10
g3
NtRp88
(dp89
g13
F-22.552717223191593
sg14
I10
sg15
I01
sg16
I4
sg17
I90
sbs(I16
I4
tp90
g1
(g10
g3
NtRp91
(dp92
g13
F13.213920369935526
sg14
I16
sg15
I01
sg16
I4
sg17
I175
sbs(I4
I5
tp93
g1
(g10
g3
NtRp94
(dp95
g13
F-28.233315524986725
sg14
I4
sg15
I01
sg16
I5
sg17
I30
sbs(I15
I3
tp96
g1
(g10
g3
NtRp97
(dp98
g13
F9.3110091420768537
sg14
I15
sg15
I01
sg16
I3
sg17
I169
sbs(I5
I17
tp99
g1
(g10
g3
NtRp100
(dp101
g13
F-18.867378383906601
sg14
I5
sg15
I01
sg16
I17
sg17
I187
sbs(I1
I4
tp102
g1
(g10
g3
NtRp103
(dp104
g13
F15.629769741952249
sg14
I1
sg15
I01
sg16
I4
sg17
I8
sbs(I2
I10
tp105
g1
(g10
g3
NtRp106
(dp107
g13
F-26.281468349003219
sg14
I2
sg15
I01
sg16
I10
sg17
I57
sbs(I12
I18
tp108
g1
(g10
g3
NtRp109
(dp110
g13
F-23.905086926113228
sg14
I12
sg15
I01
sg16
I18
sg17
I189
sbs(I2
I3
tp111
g1
(g10
g3
NtRp112
(dp113
g13
F-14.393324538048297
sg14
I2
sg15
I01
sg16
I3
sg17
I7
sbs(I12
I11
tp114
g1
(g10
g3
NtRp115
(dp116
g13
F11.779959588751881
sg14
I12
sg15
I00
sg16
I11
sg17
I84
sbs(I4
I2
tp117
g1
(g10
g3
NtRp118
(dp119
g13
F19.80044649403505
sg14
I4
sg15
I01
sg16
I2
sg17
I6
sbs(I2
I14
tp120
g1
(g10
g3
NtRp121
(dp122
g13
F-9.3820551140105319
sg14
I2
sg15
I01
sg16
I14
sg17
I142
sbs(I4
I11
tp123
g1
(g10
g3
NtRp124
(dp125
g13
F11.378113566108398
sg14
I4
sg15
I00
sg16
I11
sg17
I75
sbs(I7
I9
tp126
g1
(g10
g3
NtRp127
(dp128
g13
F2.3946298380777655
sg14
I7
sg15
I01
sg16
I9
sg17
I41
sbs(I3
I5
tp129
g1
(g10
g3
NtRp130
(dp131
g13
F10.859799258040438
sg14
I3
sg15
I01
sg16
I5
sg17
I13
sbs(I8
I3
tp132
g1
(g10
g3
NtRp133
(dp134
g13
F7.957495527373367
sg14
I8
sg15
I01
sg16
I3
sg17
I71
sbs(I14
I16
tp135
g1
(g10
g3
NtRp136
(dp137
g13
F-1.2163735170961667
sg14
I14
sg15
I01
sg16
I16
sg17
I174
sbs(I5
I2
tp138
g1
(g10
g3
NtRp139
(dp140
g13
F28.760046857152279
sg14
I5
sg15
I01
sg16
I2
sg17
I11
sbs(I7
I13
tp141
g1
(g10
g3
NtRp142
(dp143
g13
F-5.6411490145503542
sg14
I7
sg15
I01
sg16
I13
sg17
I136
sbs(I3
I8
tp144
g1
(g10
g3
NtRp145
(dp146
g13
F13.12254889375277
sg14
I3
sg15
I01
sg16
I8
sg17
I49
sbs(I6
I2
tp147
g1
(g10
g3
NtRp148
(dp149
g13
F4.1423324957357757
sg14
I6
sg15
I01
sg16
I2
sg17
I17
sbs(I18
I11
tp150
g1
(g10
g3
NtRp151
(dp152
g13
F-3.0577645079745519
sg14
I18
sg15
I01
sg16
I11
sg17
I190
sbs(I4
I3
tp153
g1
(g10
g3
NtRp154
(dp155
g13
F-17.455967293380517
sg14
I4
sg15
I01
sg16
I3
sg17
I12
sbs(I13
I9
tp156
g1
(g10
g3
NtRp157
(dp158
g13
F-8.0064932130756574
sg14
I13
sg15
I01
sg16
I9
sg17
I137
sbs(I3
I4
tp159
g1
(g10
g3
NtRp160
(dp161
g13
F-27.047712506786567
sg14
I3
sg15
I01
sg16
I4
sg17
I5
sbs(I2
I4
tp162
g1
(g10
g3
NtRp163
(dp164
g13
F-2.9318282670038238
sg14
I2
sg15
I00
sg16
I4
sg17
I24
sbs(I8
I4
tp165
g1
(g10
g3
NtRp166
(dp167
g13
F-22.832856333973385
sg14
I8
sg15
I01
sg16
I4
sg17
I40
sbssS'_input_nodes'
p168
I1
sS'_output_nodes'
p169
I1
sS'_node_gene_type'
p170
cneat.genome
NodeGene
p171
sS'_conn_gene_type'
p172
g10
sS'fitness'
p173
F0.94661713118096924
sS'parent2_id'
p174
I7419
sS'_id'
p175
I7434
sS'parent1_id'
p176
I7419
sS'_node_genes'
p177
(lp178
g1
(g171
g3
NtRp179
(dp180
S'_bias'
p181
I0
sS'_type'
p182
S'INPUT'
p183
sg175
I1
sS'_response'
p184
F4.9242730000000003
sS'_activation_type'
p185
Nsbag1
(g171
g3
NtRp186
(dp187
g181
F-2.9267874221214449
sg182
S'OUTPUT'
p188
sg175
I2
sg184
F6.7412347849446705
sg185
S'tanh'
p189
sbag1
(g171
g3
NtRp190
(dp191
g181
F-6.9586262219711559
sg182
S'HIDDEN'
p192
sg175
I3
sg184
F0.55619505579180617
sg185
g189
sbag1
(g171
g3
NtRp193
(dp194
g181
F-3.2020477085650341
sg182
g192
sg175
I4
sg184
F2.5008134630254011
sg185
g189
sbag1
(g171
g3
NtRp195
(dp196
g181
F-0.036166905102548719
sg182
g192
sg175
I5
sg184
F7.0119996018663899
sg185
g189
sbag1
(g171
g3
NtRp197
(dp198
g181
F0.89229195544909656
sg182
g192
sg175
I6
sg184
F0.57762215130041217
sg185
g189
sbag1
(g171
g3
NtRp199
(dp200
g181
F-2.0284846221633193
sg182
g192
sg175
I7
sg184
F4.3938825104906414
sg185
g189
sbag1
(g171
g3
NtRp201
(dp202
g181
F-2.3905816364101704
sg182
g192
sg175
I8
sg184
F6.9909519150690631
sg185
g189
sbag1
(g171
g3
NtRp203
(dp204
g181
F0.037787078687953057
sg182
g192
sg175
I9
sg184
F4.0229111580383581
sg185
g189
sbag1
(g171
g3
NtRp205
(dp206
g181
F-3.0100373027497103
sg182
g192
sg175
I10
sg184
F1.7140101883953032
sg185
g189
sbag1
(g171
g3
NtRp207
(dp208
g181
F1.588287731343264
sg182
g192
sg175
I11
sg184
F6.3119622647439533
sg185
g189
sbag1
(g171
g3
NtRp209
(dp210
g181
F-2.1718322537898818
sg182
g192
sg175
I12
sg184
F5.8734441001982374
sg185
g189
sbag1
(g171
g3
NtRp211
(dp212
g181
F2.3541782300213892
sg182
g192
sg175
I13
sg184
F2.7815756433047647
sg185
g189
sbag1
(g171
g3
NtRp213
(dp214
g181
F-0.23041322406916531
sg182
g192
sg175
I14
sg184
F3.362245622558647
sg185
g189
sbag1
(g171
g3
NtRp215
(dp216
g181
F1.0292085882654065
sg182
g192
sg175
I15
sg184
F6.9897610272594646
sg185
g189
sbag1
(g171
g3
NtRp217
(dp218
g181
F0.56823592756286789
sg182
g192
sg175
I16
sg184
F5.9788944219189242
sg185
g189
sbag1
(g171
g3
NtRp219
(dp220
g181
F-0.7152489222219105
sg182
g192
sg175
I17
sg184
F5.2562370619371555
sg185
g189
sbag1
(g171
g3
NtRp221
(dp222
g181
F-0.071993438921906516
sg182
g192
sg175
I18
sg184
F8.2858821969092755
sg185
g189
sbasb.