ccopy_reg
_reconstructor
p1
(cneat.chromosome
Chromosome
p2
c__builtin__
object
p3
NtRp4
(dp5
S'species_id'
p6
I8
sS'_connection_genes'
p7
(dp8
(I1
I2
tp9
g1
(cneat.genome
ConnectionGene
p10
g3
NtRp11
(dp12
S'_ConnectionGene__weight'
p13
F5.6130477873135245
sS'_ConnectionGene__in'
p14
I1
sS'_ConnectionGene__enabled'
p15
I01
sS'_ConnectionGene__out'
p16
I2
sS'_ConnectionGene__innov_number'
p17
I1
sbs(I3
I2
tp18
g1
(g10
g3
NtRp19
(dp20
g13
F8.9816726689033892
sg14
I3
sg15
I00
sg16
I2
sg17
I4
sbs(I1
I3
tp21
g1
(g10
g3
NtRp22
(dp23
g13
F5.996131167028703
sg14
I1
sg15
I01
sg16
I3
sg17
I3
sbs(I5
I6
tp24
g1
(g10
g3
NtRp25
(dp26
g13
F1.0246089919155199
sg14
I5
sg15
I01
sg16
I6
sg17
I16
sbs(I5
I2
tp27
g1
(g10
g3
NtRp28
(dp29
g13
F26.770742288320768
sg14
I5
sg15
I01
sg16
I2
sg17
I11
sbs(I1
I4
tp30
g1
(g10
g3
NtRp31
(dp32
g13
F10.936541127583684
sg14
I1
sg15
I01
sg16
I4
sg17
I8
sbs(I2
I3
tp33
g1
(g10
g3
NtRp34
(dp35
g13
F-4.391605960391237
sg14
I2
sg15
I01
sg16
I3
sg17
I7
sbs(I3
I6
tp36
g1
(g10
g3
NtRp37
(dp38
g13
F-0.079702680478346277
sg14
I3
sg15
I01
sg16
I6
sg17
I19
sbs(I4
I2
tp39
g1
(g10
g3
NtRp40
(dp41
g13
F10.559948344081032
sg14
I4
sg15
I01
sg16
I2
sg17
I6
sbs(I3
I5
tp42
g1
(g10
g3
NtRp43
(dp44
g13
F3.4779328533945901
sg14
I3
sg15
I01
sg16
I5
sg17
I13
sbs(I3
I4
tp45
g1
(g10
g3
NtRp46
(dp47
g13
F12.519564266703224
sg14
I3
sg15
I01
sg16
I4
sg17
I5
sbs(I6
I5
tp48
g1
(g10
g3
NtRp49
(dp50
g13
F5.7319784839201926
sg14
I6
sg15
I01
sg16
I5
sg17
I23
sbs(I5
I3
tp51
g1
(g10
g3
NtRp52
(dp53
g13
F6.0088198380666231
sg14
I5
sg15
I01
sg16
I3
sg17
I14
sbssS'_input_nodes'
p54
I1
sS'_output_nodes'
p55
I1
sS'_node_gene_type'
p56
cneat.genome
NodeGene
p57
sS'_conn_gene_type'
p58
g10
sS'fitness'
p59
F0.90055097111318072
sS'parent2_id'
p60
I927
sS'_id'
p61
I964
sS'parent1_id'
p62
I927
sS'_node_genes'
p63
(lp64
g1
(g57
g3
NtRp65
(dp66
S'_bias'
p67
I0
sS'_type'
p68
S'INPUT'
p69
sg61
I1
sS'_response'
p70
F4.9242730000000003
sS'_activation_type'
p71
Nsbag1
(g57
g3
NtRp72
(dp73
g67
F0.48404620005134019
sg68
S'OUTPUT'
p74
sg61
I2
sg70
F4.7773723022757011
sg71
S'tanh'
p75
sbag1
(g57
g3
NtRp76
(dp77
g67
F1.593749640580558
sg68
S'HIDDEN'
p78
sg61
I3
sg70
F3.5396418421555289
sg71
g75
sbag1
(g57
g3
NtRp79
(dp80
g67
F-1.5236145826702181
sg68
g78
sg61
I4
sg70
F4.7225179522302501
sg71
g75
sbag1
(g57
g3
NtRp81
(dp82
g67
F1.6935301064725881
sg68
g78
sg61
I5
sg70
F3.8786147496858026
sg71
g75
sbag1
(g57
g3
NtRp83
(dp84
g67
F-2.2863514761020252
sg68
g78
sg61
I6
sg70
F5.1050854514409103
sg71
g75
sbasb.