ccopy_reg
_reconstructor
p1
(cneat.chromosome
Chromosome
p2
c__builtin__
object
p3
NtRp4
(dp5
S'species_id'
p6
I38
sS'_connection_genes'
p7
(dp8
(I1
I3
tp9
g1
(cneat.genome
ConnectionGene
p10
g3
NtRp11
(dp12
S'_ConnectionGene__weight'
p13
F30
sS'_ConnectionGene__in'
p14
I1
sS'_ConnectionGene__enabled'
p15
I00
sS'_ConnectionGene__out'
p16
I3
sS'_ConnectionGene__innov_number'
p17
I3
sbs(I6
I6
tp18
g1
(g10
g3
NtRp19
(dp20
g13
F16.776270295326956
sg14
I6
sg15
I01
sg16
I6
sg17
I39
sbs(I5
I6
tp21
g1
(g10
g3
NtRp22
(dp23
g13
F-10.19974447866335
sg14
I5
sg15
I01
sg16
I6
sg17
I16
sbs(I11
I2
tp24
g1
(g10
g3
NtRp25
(dp26
g13
F-6.3572013924224233
sg14
I11
sg15
I01
sg16
I2
sg17
I74
sbs(I7
I2
tp27
g1
(g10
g3
NtRp28
(dp29
g13
F-3.3880958146353071
sg14
I7
sg15
I01
sg16
I2
sg17
I33
sbs(I1
I2
tp30
g1
(g10
g3
NtRp31
(dp32
g13
F17.04582082558996
sg14
I1
sg15
I01
sg16
I2
sg17
I1
sbs(I12
I2
tp33
g1
(g10
g3
NtRp34
(dp35
g13
F19.05159245590513
sg14
I12
sg15
I01
sg16
I2
sg17
I93
sbs(I3
I3
tp36
g1
(g10
g3
NtRp37
(dp38
g13
F13.037599573182536
sg14
I3
sg15
I01
sg16
I3
sg17
I9
sbs(I5
I12
tp39
g1
(g10
g3
NtRp40
(dp41
g13
F-1.7284018957253555
sg14
I5
sg15
I01
sg16
I12
sg17
I118
sbs(I4
I4
tp42
g1
(g10
g3
NtRp43
(dp44
g13
F-2.417007756669594
sg14
I4
sg15
I01
sg16
I4
sg17
I15
sbs(I1
I5
tp45
g1
(g10
g3
NtRp46
(dp47
g13
F-6.3862776511819819
sg14
I1
sg15
I01
sg16
I5
sg17
I10
sbs(I9
I11
tp48
g1
(g10
g3
NtRp49
(dp50
g13
F-5.6475340832638858
sg14
I9
sg15
I01
sg16
I11
sg17
I106
sbs(I6
I5
tp51
g1
(g10
g3
NtRp52
(dp53
g13
F10.476027455705536
sg14
I6
sg15
I01
sg16
I5
sg17
I23
sbs(I3
I6
tp54
g1
(g10
g3
NtRp55
(dp56
g13
F8.2735072903529705
sg14
I3
sg15
I01
sg16
I6
sg17
I19
sbs(I2
I2
tp57
g1
(g10
g3
NtRp58
(dp59
g13
F0.78628108444390654
sg14
I2
sg15
I01
sg16
I2
sg17
I2
sbs(I5
I3
tp60
g1
(g10
g3
NtRp61
(dp62
g13
F27.510057653671698
sg14
I5
sg15
I01
sg16
I3
sg17
I14
sbs(I3
I2
tp63
g1
(g10
g3
NtRp64
(dp65
g13
F8.4036875761613565
sg14
I3
sg15
I01
sg16
I2
sg17
I4
sbs(I10
I4
tp66
g1
(g10
g3
NtRp67
(dp68
g13
F-7.5304305497548398
sg14
I10
sg15
I01
sg16
I4
sg17
I90
sbs(I4
I5
tp69
g1
(g10
g3
NtRp70
(dp71
g13
F17.733163155984457
sg14
I4
sg15
I01
sg16
I5
sg17
I30
sbs(I9
I3
tp72
g1
(g10
g3
NtRp73
(dp74
g13
F28.775254438828025
sg14
I9
sg15
I01
sg16
I3
sg17
I42
sbs(I1
I4
tp75
g1
(g10
g3
NtRp76
(dp77
g13
F11.560034079788945
sg14
I1
sg15
I01
sg16
I4
sg17
I8
sbs(I2
I3
tp78
g1
(g10
g3
NtRp79
(dp80
g13
F-15.787448299376063
sg14
I2
sg15
I01
sg16
I3
sg17
I7
sbs(I1
I9
tp81
g1
(g10
g3
NtRp82
(dp83
g13
F3.5586761373221298
sg14
I1
sg15
I01
sg16
I9
sg17
I50
sbs(I4
I2
tp84
g1
(g10
g3
NtRp85
(dp86
g13
F-11.605650959916643
sg14
I4
sg15
I01
sg16
I2
sg17
I6
sbs(I4
I11
tp87
g1
(g10
g3
NtRp88
(dp89
g13
F10.487862993457469
sg14
I4
sg15
I01
sg16
I11
sg17
I75
sbs(I3
I5
tp90
g1
(g10
g3
NtRp91
(dp92
g13
F12.28024102467921
sg14
I3
sg15
I01
sg16
I5
sg17
I13
sbs(I8
I3
tp93
g1
(g10
g3
NtRp94
(dp95
g13
F-2.0114051740159069
sg14
I8
sg15
I01
sg16
I3
sg17
I71
sbs(I5
I2
tp96
g1
(g10
g3
NtRp97
(dp98
g13
F25.341434249442184
sg14
I5
sg15
I00
sg16
I2
sg17
I11
sbs(I5
I7
tp99
g1
(g10
g3
NtRp100
(dp101
g13
F6.9706726156660981
sg14
I5
sg15
I01
sg16
I7
sg17
I28
sbs(I2
I4
tp102
g1
(g10
g3
NtRp103
(dp104
g13
F10.823599064121591
sg14
I2
sg15
I01
sg16
I4
sg17
I24
sbs(I3
I8
tp105
g1
(g10
g3
NtRp106
(dp107
g13
F23.255706247608646
sg14
I3
sg15
I01
sg16
I8
sg17
I49
sbs(I4
I3
tp108
g1
(g10
g3
NtRp109
(dp110
g13
F-5.5057320814110886
sg14
I4
sg15
I01
sg16
I3
sg17
I12
sbs(I3
I4
tp111
g1
(g10
g3
NtRp112
(dp113
g13
F-3.3330659334415715
sg14
I3
sg15
I00
sg16
I4
sg17
I5
sbs(I3
I10
tp114
g1
(g10
g3
NtRp115
(dp116
g13
F7.022396868230441
sg14
I3
sg15
I01
sg16
I10
sg17
I94
sbs(I8
I4
tp117
g1
(g10
g3
NtRp118
(dp119
g13
F15.460022216746156
sg14
I8
sg15
I01
sg16
I4
sg17
I40
sbssS'_input_nodes'
p120
I1
sS'_output_nodes'
p121
I1
sS'_node_gene_type'
p122
cneat.genome
NodeGene
p123
sS'_conn_gene_type'
p124
g10
sS'fitness'
p125
F0.96099369567286996
sS'parent2_id'
p126
I4640
sS'_id'
p127
I4657
sS'parent1_id'
p128
I4640
sS'_node_genes'
p129
(lp130
g1
(g123
g3
NtRp131
(dp132
S'_bias'
p133
I0
sS'_type'
p134
S'INPUT'
p135
sg127
I1
sS'_response'
p136
F4.9242730000000003
sS'_activation_type'
p137
Nsbag1
(g123
g3
NtRp138
(dp139
g133
F2.0545433195678346
sg134
S'OUTPUT'
p140
sg127
I2
sg136
F5.5541827392538332
sg137
S'tanh'
p141
sbag1
(g123
g3
NtRp142
(dp143
g133
F-2.8051354121858267
sg134
S'HIDDEN'
p144
sg127
I3
sg136
F1.8478342286999383
sg137
g141
sbag1
(g123
g3
NtRp145
(dp146
g133
F0.12762090646687452
sg134
g144
sg127
I4
sg136
F3.7888336251954637
sg137
g141
sbag1
(g123
g3
NtRp147
(dp148
g133
F4.0445220071372701
sg134
g144
sg127
I5
sg136
F5.0859637351778391
sg137
g141
sbag1
(g123
g3
NtRp149
(dp150
g133
F-3.8909515917579882
sg134
g144
sg127
I6
sg136
F3.3013356548030917
sg137
g141
sbag1
(g123
g3
NtRp151
(dp152
g133
F0.86512927164502096
sg134
g144
sg127
I7
sg136
F4.9188212611455731
sg137
g141
sbag1
(g123
g3
NtRp153
(dp154
g133
F-2.0829332557699409
sg134
g144
sg127
I8
sg136
F7.9387311219418395
sg137
g141
sbag1
(g123
g3
NtRp155
(dp156
g133
F0.17882387087310675
sg134
g144
sg127
I9
sg136
F5.0077745441758399
sg137
g141
sbag1
(g123
g3
NtRp157
(dp158
g133
F-0.23331617542015948
sg134
g144
sg127
I10
sg136
F4.7433850538050786
sg137
g141
sbag1
(g123
g3
NtRp159
(dp160
g133
F1.9309307351134055
sg134
g144
sg127
I11
sg136
F2.8662994813729759
sg137
g141
sbag1
(g123
g3
NtRp161
(dp162
g133
I0
sg134
g144
sg127
I12
sg136
F5.2599220718395614
sg137
g141
sbasb.