ccopy_reg
_reconstructor
p1
(cneat.chromosome
Chromosome
p2
c__builtin__
object
p3
NtRp4
(dp5
S'species_id'
p6
I28
sS'_connection_genes'
p7
(dp8
(I1
I3
tp9
g1
(cneat.genome
ConnectionGene
p10
g3
NtRp11
(dp12
S'_ConnectionGene__weight'
p13
F18.511895572118529
sS'_ConnectionGene__in'
p14
I1
sS'_ConnectionGene__enabled'
p15
I01
sS'_ConnectionGene__out'
p16
I3
sS'_ConnectionGene__innov_number'
p17
I3
sbs(I5
I6
tp18
g1
(g10
g3
NtRp19
(dp20
g13
F-18.023673991752585
sg14
I5
sg15
I01
sg16
I6
sg17
I16
sbs(I3
I7
tp21
g1
(g10
g3
NtRp22
(dp23
g13
F0.83602776450106353
sg14
I3
sg15
I00
sg16
I7
sg17
I26
sbs(I8
I5
tp24
g1
(g10
g3
NtRp25
(dp26
g13
F2.7226247626811331
sg14
I8
sg15
I01
sg16
I5
sg17
I36
sbs(I7
I2
tp27
g1
(g10
g3
NtRp28
(dp29
g13
F-5.2210313009231122
sg14
I7
sg15
I01
sg16
I2
sg17
I33
sbs(I1
I2
tp30
g1
(g10
g3
NtRp31
(dp32
g13
F6.1727899639345569
sg14
I1
sg15
I01
sg16
I2
sg17
I1
sbs(I3
I3
tp33
g1
(g10
g3
NtRp34
(dp35
g13
F-0.70562197002887972
sg14
I3
sg15
I01
sg16
I3
sg17
I9
sbs(I3
I10
tp36
g1
(g10
g3
NtRp37
(dp38
g13
F1.1189737887599462
sg14
I3
sg15
I01
sg16
I10
sg17
I94
sbs(I3
I6
tp39
g1
(g10
g3
NtRp40
(dp41
g13
F2.8747696981167459
sg14
I3
sg15
I01
sg16
I6
sg17
I19
sbs(I2
I2
tp42
g1
(g10
g3
NtRp43
(dp44
g13
F2.4045241075124366
sg14
I2
sg15
I01
sg16
I2
sg17
I2
sbs(I5
I3
tp45
g1
(g10
g3
NtRp46
(dp47
g13
F14.651618821148043
sg14
I5
sg15
I01
sg16
I3
sg17
I14
sbs(I9
I7
tp48
g1
(g10
g3
NtRp49
(dp50
g13
F-3.534238872305139
sg14
I9
sg15
I01
sg16
I7
sg17
I53
sbs(I3
I2
tp51
g1
(g10
g3
NtRp52
(dp53
g13
F16.849184056257698
sg14
I3
sg15
I00
sg16
I2
sg17
I4
sbs(I1
I4
tp54
g1
(g10
g3
NtRp55
(dp56
g13
F9.3308204969749173
sg14
I1
sg15
I01
sg16
I4
sg17
I8
sbs(I3
I9
tp57
g1
(g10
g3
NtRp58
(dp59
g13
F1.7820642953599881
sg14
I3
sg15
I01
sg16
I9
sg17
I61
sbs(I2
I3
tp60
g1
(g10
g3
NtRp61
(dp62
g13
F10.934732689235293
sg14
I2
sg15
I01
sg16
I3
sg17
I7
sbs(I4
I2
tp63
g1
(g10
g3
NtRp64
(dp65
g13
F18.712872107433885
sg14
I4
sg15
I01
sg16
I2
sg17
I6
sbs(I6
I5
tp66
g1
(g10
g3
NtRp67
(dp68
g13
F1.7859038978176915
sg14
I6
sg15
I00
sg16
I5
sg17
I23
sbs(I3
I5
tp69
g1
(g10
g3
NtRp70
(dp71
g13
F1.4188431001896178
sg14
I3
sg15
I01
sg16
I5
sg17
I13
sbs(I6
I8
tp72
g1
(g10
g3
NtRp73
(dp74
g13
F-10.800142409421976
sg14
I6
sg15
I01
sg16
I8
sg17
I56
sbs(I3
I4
tp75
g1
(g10
g3
NtRp76
(dp77
g13
F19.593865135735825
sg14
I3
sg15
I01
sg16
I4
sg17
I5
sbs(I9
I9
tp78
g1
(g10
g3
NtRp79
(dp80
g13
F5.6106287509203199
sg14
I9
sg15
I01
sg16
I9
sg17
I86
sbs(I5
I2
tp81
g1
(g10
g3
NtRp82
(dp83
g13
F17.530385575483365
sg14
I5
sg15
I01
sg16
I2
sg17
I11
sbs(I2
I4
tp84
g1
(g10
g3
NtRp85
(dp86
g13
F-7.5148955250705542
sg14
I2
sg15
I01
sg16
I4
sg17
I24
sbs(I10
I2
tp87
g1
(g10
g3
NtRp88
(dp89
g13
F16.426050128887162
sg14
I10
sg15
I01
sg16
I2
sg17
I65
sbssS'_input_nodes'
p90
I1
sS'_output_nodes'
p91
I1
sS'_node_gene_type'
p92
cneat.genome
NodeGene
p93
sS'_conn_gene_type'
p94
g10
sS'fitness'
p95
F0.99600881619019266
sS'parent2_id'
p96
I2277
sS'_id'
p97
I2303
sS'parent1_id'
p98
I2277
sS'_node_genes'
p99
(lp100
g1
(g93
g3
NtRp101
(dp102
S'_bias'
p103
I0
sS'_type'
p104
S'INPUT'
p105
sg97
I1
sS'_response'
p106
F4.9242730000000003
sS'_activation_type'
p107
Nsbag1
(g93
g3
NtRp108
(dp109
g103
F0.65085701642137095
sg104
S'OUTPUT'
p110
sg97
I2
sg106
F3.9345946984831373
sg107
S'tanh'
p111
sbag1
(g93
g3
NtRp112
(dp113
g103
F0.74040883543028069
sg104
S'HIDDEN'
p114
sg97
I3
sg106
F1.1404703924081654
sg107
g111
sbag1
(g93
g3
NtRp115
(dp116
g103
F-1.0408888006074544
sg104
g114
sg97
I4
sg106
F4.7307562512793879
sg107
g111
sbag1
(g93
g3
NtRp117
(dp118
g103
F3.0273747101128494
sg104
g114
sg97
I5
sg106
F2.3261241577140166
sg107
g111
sbag1
(g93
g3
NtRp119
(dp120
g103
F-4.2438846426057957
sg104
g114
sg97
I6
sg106
F4.7778712127121663
sg107
g111
sbag1
(g93
g3
NtRp121
(dp122
g103
F0.44771144328529677
sg104
g114
sg97
I7
sg106
F5.6210507761867312
sg107
g111
sbag1
(g93
g3
NtRp123
(dp124
g103
F1.6368567398204492
sg104
g114
sg97
I8
sg106
F3.0106166952895039
sg107
g111
sbag1
(g93
g3
NtRp125
(dp126
g103
F0.20137949498980626
sg104
g114
sg97
I9
sg106
F4.9913146411430551
sg107
g111
sbag1
(g93
g3
NtRp127
(dp128
g103
I0
sg104
g114
sg97
I10
sg106
F4.9242730000000003
sg107
g111
sbasb.