ccopy_reg
_reconstructor
p1
(cneat.chromosome
Chromosome
p2
c__builtin__
object
p3
NtRp4
(dp5
S'species_id'
p6
I56
sS'_connection_genes'
p7
(dp8
(I1
I3
tp9
g1
(cneat.genome
ConnectionGene
p10
g3
NtRp11
(dp12
S'_ConnectionGene__weight'
p13
F23.305680974005092
sS'_ConnectionGene__in'
p14
I1
sS'_ConnectionGene__enabled'
p15
I01
sS'_ConnectionGene__out'
p16
I3
sS'_ConnectionGene__innov_number'
p17
I3
sbs(I11
I11
tp18
g1
(g10
g3
NtRp19
(dp20
g13
F3.7571205180441893
sg14
I11
sg15
I01
sg16
I11
sg17
I122
sbs(I6
I6
tp21
g1
(g10
g3
NtRp22
(dp23
g13
F4.3495821513352144
sg14
I6
sg15
I01
sg16
I6
sg17
I39
sbs(I5
I6
tp24
g1
(g10
g3
NtRp25
(dp26
g13
F14.662473641684878
sg14
I5
sg15
I01
sg16
I6
sg17
I16
sbs(I9
I8
tp27
g1
(g10
g3
NtRp28
(dp29
g13
F-24.612437043228596
sg14
I9
sg15
I01
sg16
I8
sg17
I60
sbs(I9
I4
tp30
g1
(g10
g3
NtRp31
(dp32
g13
F21.772509239405959
sg14
I9
sg15
I01
sg16
I4
sg17
I77
sbs(I7
I2
tp33
g1
(g10
g3
NtRp34
(dp35
g13
F-2.7604319568117361
sg14
I7
sg15
I01
sg16
I2
sg17
I33
sbs(I1
I2
tp36
g1
(g10
g3
NtRp37
(dp38
g13
F15.38661434065196
sg14
I1
sg15
I01
sg16
I2
sg17
I1
sbs(I4
I9
tp39
g1
(g10
g3
NtRp40
(dp41
g13
F10.326100921252056
sg14
I4
sg15
I01
sg16
I9
sg17
I44
sbs(I3
I3
tp42
g1
(g10
g3
NtRp43
(dp44
g13
F30
sg14
I3
sg15
I01
sg16
I3
sg17
I9
sbs(I3
I10
tp45
g1
(g10
g3
NtRp46
(dp47
g13
F7.3042064860338023
sg14
I3
sg15
I01
sg16
I10
sg17
I94
sbs(I4
I4
tp48
g1
(g10
g3
NtRp49
(dp50
g13
F17.86069736416594
sg14
I4
sg15
I01
sg16
I4
sg17
I15
sbs(I1
I5
tp51
g1
(g10
g3
NtRp52
(dp53
g13
F-12.318380069402272
sg14
I1
sg15
I01
sg16
I5
sg17
I10
sbs(I9
I11
tp54
g1
(g10
g3
NtRp55
(dp56
g13
F-16.003877787097771
sg14
I9
sg15
I01
sg16
I11
sg17
I106
sbs(I3
I6
tp57
g1
(g10
g3
NtRp58
(dp59
g13
F-3.1535651018467088
sg14
I3
sg15
I01
sg16
I6
sg17
I19
sbs(I2
I2
tp60
g1
(g10
g3
NtRp61
(dp62
g13
F14.736650015863706
sg14
I2
sg15
I01
sg16
I2
sg17
I2
sbs(I5
I3
tp63
g1
(g10
g3
NtRp64
(dp65
g13
F7.0148054571418612
sg14
I5
sg15
I01
sg16
I3
sg17
I14
sbs(I3
I2
tp66
g1
(g10
g3
NtRp67
(dp68
g13
F-8.9412163597979504
sg14
I3
sg15
I01
sg16
I2
sg17
I4
sbs(I11
I4
tp69
g1
(g10
g3
NtRp70
(dp71
g13
F17.983138954091999
sg14
I11
sg15
I01
sg16
I4
sg17
I101
sbs(I10
I4
tp72
g1
(g10
g3
NtRp73
(dp74
g13
F4.9981697714511455
sg14
I10
sg15
I01
sg16
I4
sg17
I90
sbs(I4
I5
tp75
g1
(g10
g3
NtRp76
(dp77
g13
F-6.5007413420842068
sg14
I4
sg15
I01
sg16
I5
sg17
I30
sbs(I8
I11
tp78
g1
(g10
g3
NtRp79
(dp80
g13
F1.9765249610034599
sg14
I8
sg15
I01
sg16
I11
sg17
I80
sbs(I1
I4
tp81
g1
(g10
g3
NtRp82
(dp83
g13
F7.1700023739578995
sg14
I1
sg15
I01
sg16
I4
sg17
I8
sbs(I2
I3
tp84
g1
(g10
g3
NtRp85
(dp86
g13
F-15.706015296502244
sg14
I2
sg15
I01
sg16
I3
sg17
I7
sbs(I4
I2
tp87
g1
(g10
g3
NtRp88
(dp89
g13
F20.644273536461146
sg14
I4
sg15
I01
sg16
I2
sg17
I6
sbs(I6
I5
tp90
g1
(g10
g3
NtRp91
(dp92
g13
F2.1015769734999656
sg14
I6
sg15
I01
sg16
I5
sg17
I23
sbs(I7
I9
tp93
g1
(g10
g3
NtRp94
(dp95
g13
F23.805307302575578
sg14
I7
sg15
I01
sg16
I9
sg17
I41
sbs(I3
I5
tp96
g1
(g10
g3
NtRp97
(dp98
g13
F-1.7659852653546739
sg14
I3
sg15
I01
sg16
I5
sg17
I13
sbs(I8
I3
tp99
g1
(g10
g3
NtRp100
(dp101
g13
F19.399521258025736
sg14
I8
sg15
I01
sg16
I3
sg17
I71
sbs(I5
I2
tp102
g1
(g10
g3
NtRp103
(dp104
g13
F27.897086808195258
sg14
I5
sg15
I01
sg16
I2
sg17
I11
sbs(I5
I7
tp105
g1
(g10
g3
NtRp106
(dp107
g13
F0.69770275280499594
sg14
I5
sg15
I01
sg16
I7
sg17
I28
sbs(I3
I8
tp108
g1
(g10
g3
NtRp109
(dp110
g13
F9.4777043998948383
sg14
I3
sg15
I01
sg16
I8
sg17
I49
sbs(I4
I3
tp111
g1
(g10
g3
NtRp112
(dp113
g13
F1.8380652636222898
sg14
I4
sg15
I01
sg16
I3
sg17
I12
sbs(I3
I4
tp114
g1
(g10
g3
NtRp115
(dp116
g13
F2.0181122574347872
sg14
I3
sg15
I00
sg16
I4
sg17
I5
sbs(I2
I4
tp117
g1
(g10
g3
NtRp118
(dp119
g13
F11.377935694119751
sg14
I2
sg15
I01
sg16
I4
sg17
I24
sbs(I8
I4
tp120
g1
(g10
g3
NtRp121
(dp122
g13
F-15.612912680232295
sg14
I8
sg15
I01
sg16
I4
sg17
I40
sbssS'_input_nodes'
p123
I1
sS'_output_nodes'
p124
I1
sS'_node_gene_type'
p125
cneat.genome
NodeGene
p126
sS'_conn_gene_type'
p127
g10
sS'fitness'
p128
F0.97221959369874145
sS'parent2_id'
p129
I6095
sS'_id'
p130
I6110
sS'parent1_id'
p131
I6095
sS'_node_genes'
p132
(lp133
g1
(g126
g3
NtRp134
(dp135
S'_bias'
p136
I0
sS'_type'
p137
S'INPUT'
p138
sg130
I1
sS'_response'
p139
F4.9242730000000003
sS'_activation_type'
p140
Nsbag1
(g126
g3
NtRp141
(dp142
g136
F-4.153342577524632
sg137
S'OUTPUT'
p143
sg130
I2
sg139
F5.2713926064646426
sg140
S'tanh'
p144
sbag1
(g126
g3
NtRp145
(dp146
g136
F-3.7039162740406861
sg137
S'HIDDEN'
p147
sg130
I3
sg139
F-0.19029685796480417
sg140
g144
sbag1
(g126
g3
NtRp148
(dp149
g136
F4.2018316417263719
sg137
g147
sg130
I4
sg139
F2.8643104433655013
sg140
g144
sbag1
(g126
g3
NtRp150
(dp151
g136
F4.7271538956985362
sg137
g147
sg130
I5
sg139
F8.818243386957354
sg140
g144
sbag1
(g126
g3
NtRp152
(dp153
g136
F-1.8101380467744854
sg137
g147
sg130
I6
sg139
F2.21867756887228
sg140
g144
sbag1
(g126
g3
NtRp154
(dp155
g136
F-2.2131412943824031
sg137
g147
sg130
I7
sg139
F5.3756531712933215
sg140
g144
sbag1
(g126
g3
NtRp156
(dp157
g136
F-1.9737177069314393
sg137
g147
sg130
I8
sg139
F9.5877630333857091
sg140
g144
sbag1
(g126
g3
NtRp158
(dp159
g136
F0.38345089957529344
sg137
g147
sg130
I9
sg139
F7.0358106307646171
sg140
g144
sbag1
(g126
g3
NtRp160
(dp161
g136
F0.63078377042863376
sg137
g147
sg130
I10
sg139
F6.1013846755831613
sg140
g144
sbag1
(g126
g3
NtRp162
(dp163
g136
F-1.3691631254497891
sg137
g147
sg130
I11
sg139
F5.4826941509819092
sg140
g144
sbasb.