ccopy_reg
_reconstructor
p1
(cneat.chromosome
Chromosome
p2
c__builtin__
object
p3
NtRp4
(dp5
S'species_id'
p6
I34
sS'_connection_genes'
p7
(dp8
(I7
I3
tp9
g1
(cneat.genome
ConnectionGene
p10
g3
NtRp11
(dp12
S'_ConnectionGene__weight'
p13
F6.0472192745810904
sS'_ConnectionGene__in'
p14
I7
sS'_ConnectionGene__enabled'
p15
I01
sS'_ConnectionGene__out'
p16
I3
sS'_ConnectionGene__innov_number'
p17
I29
sbs(I1
I3
tp18
g1
(g10
g3
NtRp19
(dp20
g13
F-5.9506928149345493
sg14
I1
sg15
I01
sg16
I3
sg17
I3
sbs(I4
I8
tp21
g1
(g10
g3
NtRp22
(dp23
g13
F-5.0235112456547517
sg14
I4
sg15
I01
sg16
I8
sg17
I35
sbs(I5
I6
tp24
g1
(g10
g3
NtRp25
(dp26
g13
F-7.0904174239041131
sg14
I5
sg15
I01
sg16
I6
sg17
I16
sbs(I3
I11
tp27
g1
(g10
g3
NtRp28
(dp29
g13
F4.1638275985569519
sg14
I3
sg15
I01
sg16
I11
sg17
I91
sbs(I6
I2
tp30
g1
(g10
g3
NtRp31
(dp32
g13
F-24.212323934210971
sg14
I6
sg15
I01
sg16
I2
sg17
I17
sbs(I8
I5
tp33
g1
(g10
g3
NtRp34
(dp35
g13
F7.8470603601552984
sg14
I8
sg15
I00
sg16
I5
sg17
I36
sbs(I1
I2
tp36
g1
(g10
g3
NtRp37
(dp38
g13
F-9.9193540773446163
sg14
I1
sg15
I01
sg16
I2
sg17
I1
sbs(I2
I9
tp39
g1
(g10
g3
NtRp40
(dp41
g13
F6.2468492123060857
sg14
I2
sg15
I01
sg16
I9
sg17
I51
sbs(I11
I5
tp42
g1
(g10
g3
NtRp43
(dp44
g13
F-2.5766961438856013
sg14
I11
sg15
I01
sg16
I5
sg17
I81
sbs(I2
I2
tp45
g1
(g10
g3
NtRp46
(dp47
g13
F5.1850526923648186
sg14
I2
sg15
I01
sg16
I2
sg17
I2
sbs(I3
I2
tp48
g1
(g10
g3
NtRp49
(dp50
g13
F-28.919378090812746
sg14
I3
sg15
I01
sg16
I2
sg17
I4
sbs(I4
I5
tp51
g1
(g10
g3
NtRp52
(dp53
g13
F-8.579653653911409
sg14
I4
sg15
I01
sg16
I5
sg17
I30
sbs(I8
I11
tp54
g1
(g10
g3
NtRp55
(dp56
g13
F29.92865548979573
sg14
I8
sg15
I01
sg16
I11
sg17
I80
sbs(I9
I3
tp57
g1
(g10
g3
NtRp58
(dp59
g13
F16.35231722368405
sg14
I9
sg15
I01
sg16
I3
sg17
I42
sbs(I1
I4
tp60
g1
(g10
g3
NtRp61
(dp62
g13
F28.127741927626769
sg14
I1
sg15
I01
sg16
I4
sg17
I8
sbs(I7
I7
tp63
g1
(g10
g3
NtRp64
(dp65
g13
F18.915920563125145
sg14
I7
sg15
I01
sg16
I7
sg17
I47
sbs(I2
I3
tp66
g1
(g10
g3
NtRp67
(dp68
g13
F19.728182370662914
sg14
I2
sg15
I01
sg16
I3
sg17
I7
sbs(I1
I9
tp69
g1
(g10
g3
NtRp70
(dp71
g13
F0.13969203467326285
sg14
I1
sg15
I01
sg16
I9
sg17
I50
sbs(I4
I2
tp72
g1
(g10
g3
NtRp73
(dp74
g13
F-14.960721855332281
sg14
I4
sg15
I01
sg16
I2
sg17
I6
sbs(I2
I10
tp75
g1
(g10
g3
NtRp76
(dp77
g13
F0.66209595663086374
sg14
I2
sg15
I01
sg16
I10
sg17
I57
sbs(I3
I5
tp78
g1
(g10
g3
NtRp79
(dp80
g13
F14.630285694530279
sg14
I3
sg15
I01
sg16
I5
sg17
I13
sbs(I2
I7
tp81
g1
(g10
g3
NtRp82
(dp83
g13
F17.620537627027474
sg14
I2
sg15
I01
sg16
I7
sg17
I34
sbs(I8
I3
tp84
g1
(g10
g3
NtRp85
(dp86
g13
F-7.9778831439170474
sg14
I8
sg15
I01
sg16
I3
sg17
I71
sbs(I10
I10
tp87
g1
(g10
g3
NtRp88
(dp89
g13
F-9.2830427305967049
sg14
I10
sg15
I01
sg16
I10
sg17
I72
sbs(I3
I4
tp90
g1
(g10
g3
NtRp91
(dp92
g13
F12.536795553390254
sg14
I3
sg15
I01
sg16
I4
sg17
I5
sbs(I5
I2
tp93
g1
(g10
g3
NtRp94
(dp95
g13
F22.192499292546351
sg14
I5
sg15
I00
sg16
I2
sg17
I11
sbs(I10
I2
tp96
g1
(g10
g3
NtRp97
(dp98
g13
F5.9033836643011304
sg14
I10
sg15
I01
sg16
I2
sg17
I65
sbssS'_input_nodes'
p99
I1
sS'_output_nodes'
p100
I1
sS'_node_gene_type'
p101
cneat.genome
NodeGene
p102
sS'_conn_gene_type'
p103
g10
sS'fitness'
p104
F0.99946108062520855
sS'parent2_id'
p105
I3182
sS'_id'
p106
I3199
sS'parent1_id'
p107
I3182
sS'_node_genes'
p108
(lp109
g1
(g102
g3
NtRp110
(dp111
S'_bias'
p112
I0
sS'_type'
p113
S'INPUT'
p114
sg106
I1
sS'_response'
p115
F4.9242730000000003
sS'_activation_type'
p116
Nsbag1
(g102
g3
NtRp117
(dp118
g112
F-3.4308594428017205
sg113
S'OUTPUT'
p119
sg106
I2
sg115
F5.4377130808017942
sg116
S'tanh'
p120
sbag1
(g102
g3
NtRp121
(dp122
g112
F0.43843066065041397
sg113
S'HIDDEN'
p123
sg106
I3
sg115
F0.94105357735057482
sg116
g120
sbag1
(g102
g3
NtRp124
(dp125
g112
F-2.584917006156588
sg113
g123
sg106
I4
sg115
F8.3007168154024047
sg116
g120
sbag1
(g102
g3
NtRp126
(dp127
g112
F-0.39431475483120076
sg113
g123
sg106
I5
sg115
F3.3277763975335093
sg116
g120
sbag1
(g102
g3
NtRp128
(dp129
g112
F-1.6601546470774031
sg113
g123
sg106
I6
sg115
F3.2424301446665273
sg116
g120
sbag1
(g102
g3
NtRp130
(dp131
g112
F2.5170083931528096
sg113
g123
sg106
I7
sg115
F2.6274463514272588
sg116
g120
sbag1
(g102
g3
NtRp132
(dp133
g112
F-1.3949386165133542
sg113
g123
sg106
I8
sg115
F7.0274167346334986
sg116
g120
sbag1
(g102
g3
NtRp134
(dp135
g112
F0.094784347783012757
sg113
g123
sg106
I9
sg115
F5.7264885261207494
sg116
g120
sbag1
(g102
g3
NtRp136
(dp137
g112
F-0.50174921443591414
sg113
g123
sg106
I10
sg115
F3.8050933610045883
sg116
g120
sbag1
(g102
g3
NtRp138
(dp139
g112
F-0.62665317384181995
sg113
g123
sg106
I11
sg115
F5.6027474607312016
sg116
g120
sbasb.