ccopy_reg
_reconstructor
p1
(cneat.chromosome
Chromosome
p2
c__builtin__
object
p3
NtRp4
(dp5
S'species_id'
p6
I55
sS'_connection_genes'
p7
(dp8
(I3
I15
tp9
g1
(cneat.genome
ConnectionGene
p10
g3
NtRp11
(dp12
S'_ConnectionGene__weight'
p13
F-6.790599590994387
sS'_ConnectionGene__in'
p14
I3
sS'_ConnectionGene__enabled'
p15
I01
sS'_ConnectionGene__out'
p16
I15
sS'_ConnectionGene__innov_number'
p17
I151
sbs(I1
I3
tp18
g1
(g10
g3
NtRp19
(dp20
g13
F23.329610083734703
sg14
I1
sg15
I01
sg16
I3
sg17
I3
sbs(I6
I6
tp21
g1
(g10
g3
NtRp22
(dp23
g13
F17.982082336124908
sg14
I6
sg15
I01
sg16
I6
sg17
I39
sbs(I5
I6
tp24
g1
(g10
g3
NtRp25
(dp26
g13
F4.5661144375171627
sg14
I5
sg15
I01
sg16
I6
sg17
I16
sbs(I9
I8
tp27
g1
(g10
g3
NtRp28
(dp29
g13
F-5.3832262293129096
sg14
I9
sg15
I01
sg16
I8
sg17
I60
sbs(I4
I12
tp30
g1
(g10
g3
NtRp31
(dp32
g13
F-1.7692907213753108
sg14
I4
sg15
I01
sg16
I12
sg17
I102
sbs(I9
I4
tp33
g1
(g10
g3
NtRp34
(dp35
g13
F19.805671513189324
sg14
I9
sg15
I01
sg16
I4
sg17
I77
sbs(I1
I11
tp36
g1
(g10
g3
NtRp37
(dp38
g13
F0.37251331829276912
sg14
I1
sg15
I01
sg16
I11
sg17
I98
sbs(I7
I2
tp39
g1
(g10
g3
NtRp40
(dp41
g13
F-13.39691778151659
sg14
I7
sg15
I01
sg16
I2
sg17
I33
sbs(I12
I14
tp42
g1
(g10
g3
NtRp43
(dp44
g13
F-9.3271626104292853
sg14
I12
sg15
I01
sg16
I14
sg17
I147
sbs(I1
I2
tp45
g1
(g10
g3
NtRp46
(dp47
g13
F18.470985107318423
sg14
I1
sg15
I01
sg16
I2
sg17
I1
sbs(I4
I9
tp48
g1
(g10
g3
NtRp49
(dp50
g13
F13.338497307651389
sg14
I4
sg15
I01
sg16
I9
sg17
I44
sbs(I3
I3
tp51
g1
(g10
g3
NtRp52
(dp53
g13
F22.280318418080775
sg14
I3
sg15
I01
sg16
I3
sg17
I9
sbs(I4
I4
tp54
g1
(g10
g3
NtRp55
(dp56
g13
F20.034228310342279
sg14
I4
sg15
I01
sg16
I4
sg17
I15
sbs(I1
I5
tp57
g1
(g10
g3
NtRp58
(dp59
g13
F12.061876280738256
sg14
I1
sg15
I01
sg16
I5
sg17
I10
sbs(I6
I5
tp60
g1
(g10
g3
NtRp61
(dp62
g13
F18.939148911475097
sg14
I6
sg15
I01
sg16
I5
sg17
I23
sbs(I3
I6
tp63
g1
(g10
g3
NtRp64
(dp65
g13
F6.1491979654553672
sg14
I3
sg15
I00
sg16
I6
sg17
I19
sbs(I2
I2
tp66
g1
(g10
g3
NtRp67
(dp68
g13
F6.0815883296932238
sg14
I2
sg15
I01
sg16
I2
sg17
I2
sbs(I5
I7
tp69
g1
(g10
g3
NtRp70
(dp71
g13
F14.861038060211637
sg14
I5
sg15
I01
sg16
I7
sg17
I28
sbs(I5
I3
tp72
g1
(g10
g3
NtRp73
(dp74
g13
F1.9247421242003067
sg14
I5
sg15
I01
sg16
I3
sg17
I14
sbs(I11
I2
tp75
g1
(g10
g3
NtRp76
(dp77
g13
F13.570610336447988
sg14
I11
sg15
I01
sg16
I2
sg17
I74
sbs(I14
I11
tp78
g1
(g10
g3
NtRp79
(dp80
g13
F5.190807176950246
sg14
I14
sg15
I01
sg16
I11
sg17
I148
sbs(I3
I2
tp81
g1
(g10
g3
NtRp82
(dp83
g13
F-13.083890910436917
sg14
I3
sg15
I01
sg16
I2
sg17
I4
sbs(I10
I4
tp84
g1
(g10
g3
NtRp85
(dp86
g13
F-12.051550695267149
sg14
I10
sg15
I01
sg16
I4
sg17
I90
sbs(I4
I5
tp87
g1
(g10
g3
NtRp88
(dp89
g13
F-5.8978006741186588
sg14
I4
sg15
I01
sg16
I5
sg17
I30
sbs(I1
I4
tp90
g1
(g10
g3
NtRp91
(dp92
g13
F29.555454486185504
sg14
I1
sg15
I01
sg16
I4
sg17
I8
sbs(I2
I10
tp93
g1
(g10
g3
NtRp94
(dp95
g13
F10.780472334742802
sg14
I2
sg15
I01
sg16
I10
sg17
I57
sbs(I2
I3
tp96
g1
(g10
g3
NtRp97
(dp98
g13
F-12.132359767644344
sg14
I2
sg15
I01
sg16
I3
sg17
I7
sbs(I12
I11
tp99
g1
(g10
g3
NtRp100
(dp101
g13
F3.225595296029967
sg14
I12
sg15
I00
sg16
I11
sg17
I84
sbs(I4
I2
tp102
g1
(g10
g3
NtRp103
(dp104
g13
F27.415919714743627
sg14
I4
sg15
I00
sg16
I2
sg17
I6
sbs(I4
I11
tp105
g1
(g10
g3
NtRp106
(dp107
g13
F7.7197168440944726
sg14
I4
sg15
I00
sg16
I11
sg17
I75
sbs(I7
I9
tp108
g1
(g10
g3
NtRp109
(dp110
g13
F-8.2394101029125295
sg14
I7
sg15
I01
sg16
I9
sg17
I41
sbs(I3
I5
tp111
g1
(g10
g3
NtRp112
(dp113
g13
F24.918771912433044
sg14
I3
sg15
I01
sg16
I5
sg17
I13
sbs(I8
I3
tp114
g1
(g10
g3
NtRp115
(dp116
g13
F13.600989973488767
sg14
I8
sg15
I01
sg16
I3
sg17
I71
sbs(I5
I2
tp117
g1
(g10
g3
NtRp118
(dp119
g13
F23.617386590197242
sg14
I5
sg15
I01
sg16
I2
sg17
I11
sbs(I7
I13
tp120
g1
(g10
g3
NtRp121
(dp122
g13
F13.527209061738485
sg14
I7
sg15
I01
sg16
I13
sg17
I136
sbs(I14
I7
tp123
g1
(g10
g3
NtRp124
(dp125
g13
F-1.1818385083356659
sg14
I14
sg15
I01
sg16
I7
sg17
I149
sbs(I3
I8
tp126
g1
(g10
g3
NtRp127
(dp128
g13
F7.747130343497215
sg14
I3
sg15
I01
sg16
I8
sg17
I49
sbs(I15
I6
tp129
g1
(g10
g3
NtRp130
(dp131
g13
F-9.8708623745933775
sg14
I15
sg15
I01
sg16
I6
sg17
I152
sbs(I4
I3
tp132
g1
(g10
g3
NtRp133
(dp134
g13
F-7.9596994892213528
sg14
I4
sg15
I01
sg16
I3
sg17
I12
sbs(I13
I9
tp135
g1
(g10
g3
NtRp136
(dp137
g13
F6.4840677878633866
sg14
I13
sg15
I01
sg16
I9
sg17
I137
sbs(I3
I4
tp138
g1
(g10
g3
NtRp139
(dp140
g13
F-18.631499903721295
sg14
I3
sg15
I01
sg16
I4
sg17
I5
sbs(I2
I4
tp141
g1
(g10
g3
NtRp142
(dp143
g13
F-21.873996651759647
sg14
I2
sg15
I01
sg16
I4
sg17
I24
sbs(I8
I4
tp144
g1
(g10
g3
NtRp145
(dp146
g13
F-14.315731230677402
sg14
I8
sg15
I01
sg16
I4
sg17
I40
sbssS'_input_nodes'
p147
I1
sS'_output_nodes'
p148
I1
sS'_node_gene_type'
p149
cneat.genome
NodeGene
p150
sS'_conn_gene_type'
p151
g10
sS'fitness'
p152
F0.97958521093603079
sS'parent2_id'
p153
I5871
sS'_id'
p154
I5882
sS'parent1_id'
p155
I5871
sS'_node_genes'
p156
(lp157
g1
(g150
g3
NtRp158
(dp159
S'_bias'
p160
I0
sS'_type'
p161
S'INPUT'
p162
sg154
I1
sS'_response'
p163
F4.9242730000000003
sS'_activation_type'
p164
Nsbag1
(g150
g3
NtRp165
(dp166
g160
F-0.91324798132264617
sg161
S'OUTPUT'
p167
sg154
I2
sg163
F4.321599958882449
sg164
S'tanh'
p168
sbag1
(g150
g3
NtRp169
(dp170
g160
F-4.2288846588961668
sg161
S'HIDDEN'
p171
sg154
I3
sg163
F0.72293988180268298
sg164
g168
sbag1
(g150
g3
NtRp172
(dp173
g160
F-0.96880389241803577
sg161
g171
sg154
I4
sg163
F2.8384711192679202
sg164
g168
sbag1
(g150
g3
NtRp174
(dp175
g160
F1.957857866468365
sg161
g171
sg154
I5
sg163
F3.7867491458700755
sg164
g168
sbag1
(g150
g3
NtRp176
(dp177
g160
F-1.969365160217535
sg161
g171
sg154
I6
sg163
F0.079335483162871645
sg164
g168
sbag1
(g150
g3
NtRp178
(dp179
g160
F-4.6657768287724029
sg161
g171
sg154
I7
sg163
F3.2569988596515569
sg164
g168
sbag1
(g150
g3
NtRp180
(dp181
g160
F0.60093613632022913
sg161
g171
sg154
I8
sg163
F6.1003829246362136
sg164
g168
sbag1
(g150
g3
NtRp182
(dp183
g160
F2.1095444250163315
sg161
g171
sg154
I9
sg163
F6.4730037391558097
sg164
g168
sbag1
(g150
g3
NtRp184
(dp185
g160
F1.3699169321949793
sg161
g171
sg154
I10
sg163
F5.3697971765486967
sg164
g168
sbag1
(g150
g3
NtRp186
(dp187
g160
F0.96873795437656063
sg161
g171
sg154
I11
sg163
F4.8047917901015849
sg164
g168
sbag1
(g150
g3
NtRp188
(dp189
g160
F-1.0326384831616886
sg161
g171
sg154
I12
sg163
F6.8807677309714821
sg164
g168
sbag1
(g150
g3
NtRp190
(dp191
g160
F0.94028144650268342
sg161
g171
sg154
I13
sg163
F4.268452710693392
sg164
g168
sbag1
(g150
g3
NtRp192
(dp193
g160
F1.0217120246957956
sg161
g171
sg154
I14
sg163
F4.5550234424228915
sg164
g168
sbag1
(g150
g3
NtRp194
(dp195
g160
F0.22770390134942212
sg161
g171
sg154
I15
sg163
F4.3630485615523211
sg164
g168
sbasb.