ccopy_reg
_reconstructor
p1
(cneat.chromosome
Chromosome
p2
c__builtin__
object
p3
NtRp4
(dp5
S'species_id'
p6
I48
sS'_connection_genes'
p7
(dp8
(I1
I3
tp9
g1
(cneat.genome
ConnectionGene
p10
g3
NtRp11
(dp12
S'_ConnectionGene__weight'
p13
F29.785693243850695
sS'_ConnectionGene__in'
p14
I1
sS'_ConnectionGene__enabled'
p15
I01
sS'_ConnectionGene__out'
p16
I3
sS'_ConnectionGene__innov_number'
p17
I3
sbs(I6
I6
tp18
g1
(g10
g3
NtRp19
(dp20
g13
F14.65431780806178
sg14
I6
sg15
I01
sg16
I6
sg17
I39
sbs(I5
I6
tp21
g1
(g10
g3
NtRp22
(dp23
g13
F8.978573247636076
sg14
I5
sg15
I01
sg16
I6
sg17
I16
sbs(I9
I8
tp24
g1
(g10
g3
NtRp25
(dp26
g13
F-13.568442134189338
sg14
I9
sg15
I01
sg16
I8
sg17
I60
sbs(I9
I4
tp27
g1
(g10
g3
NtRp28
(dp29
g13
F21.36612124563862
sg14
I9
sg15
I00
sg16
I4
sg17
I77
sbs(I7
I2
tp30
g1
(g10
g3
NtRp31
(dp32
g13
F-14.946565920820104
sg14
I7
sg15
I01
sg16
I2
sg17
I33
sbs(I1
I2
tp33
g1
(g10
g3
NtRp34
(dp35
g13
F17.544648896266018
sg14
I1
sg15
I01
sg16
I2
sg17
I1
sbs(I4
I9
tp36
g1
(g10
g3
NtRp37
(dp38
g13
F1.7423930545016537
sg14
I4
sg15
I01
sg16
I9
sg17
I44
sbs(I3
I3
tp39
g1
(g10
g3
NtRp40
(dp41
g13
F26.365566737241558
sg14
I3
sg15
I01
sg16
I3
sg17
I9
sbs(I3
I10
tp42
g1
(g10
g3
NtRp43
(dp44
g13
F-0.14372425491110397
sg14
I3
sg15
I01
sg16
I10
sg17
I94
sbs(I4
I4
tp45
g1
(g10
g3
NtRp46
(dp47
g13
F8.7731275846937447
sg14
I4
sg15
I01
sg16
I4
sg17
I15
sbs(I1
I5
tp48
g1
(g10
g3
NtRp49
(dp50
g13
F-7.1785127519009082
sg14
I1
sg15
I01
sg16
I5
sg17
I10
sbs(I9
I11
tp51
g1
(g10
g3
NtRp52
(dp53
g13
F-5.6851338511512326
sg14
I9
sg15
I01
sg16
I11
sg17
I106
sbs(I3
I6
tp54
g1
(g10
g3
NtRp55
(dp56
g13
F-7.5837514524037157
sg14
I3
sg15
I01
sg16
I6
sg17
I19
sbs(I2
I2
tp57
g1
(g10
g3
NtRp58
(dp59
g13
F15.197457294228629
sg14
I2
sg15
I01
sg16
I2
sg17
I2
sbs(I7
I9
tp60
g1
(g10
g3
NtRp61
(dp62
g13
F3.8217592142176375
sg14
I7
sg15
I01
sg16
I9
sg17
I41
sbs(I3
I2
tp63
g1
(g10
g3
NtRp64
(dp65
g13
F0.92777606720742511
sg14
I3
sg15
I01
sg16
I2
sg17
I4
sbs(I11
I4
tp66
g1
(g10
g3
NtRp67
(dp68
g13
F19.835060795064766
sg14
I11
sg15
I01
sg16
I4
sg17
I101
sbs(I10
I4
tp69
g1
(g10
g3
NtRp70
(dp71
g13
F0.6538517967502997
sg14
I10
sg15
I01
sg16
I4
sg17
I90
sbs(I4
I5
tp72
g1
(g10
g3
NtRp73
(dp74
g13
F-11.82892104083486
sg14
I4
sg15
I01
sg16
I5
sg17
I30
sbs(I8
I11
tp75
g1
(g10
g3
NtRp76
(dp77
g13
F-1.1503989130934651
sg14
I8
sg15
I01
sg16
I11
sg17
I80
sbs(I1
I4
tp78
g1
(g10
g3
NtRp79
(dp80
g13
F12.547589636949208
sg14
I1
sg15
I01
sg16
I4
sg17
I8
sbs(I2
I3
tp81
g1
(g10
g3
NtRp82
(dp83
g13
F-29.120819017605843
sg14
I2
sg15
I01
sg16
I3
sg17
I7
sbs(I4
I2
tp84
g1
(g10
g3
NtRp85
(dp86
g13
F14.430943956658338
sg14
I4
sg15
I01
sg16
I2
sg17
I6
sbs(I6
I5
tp87
g1
(g10
g3
NtRp88
(dp89
g13
F4.4002892059834098
sg14
I6
sg15
I01
sg16
I5
sg17
I23
sbs(I5
I3
tp90
g1
(g10
g3
NtRp91
(dp92
g13
F1.953306469491765
sg14
I5
sg15
I01
sg16
I3
sg17
I14
sbs(I3
I5
tp93
g1
(g10
g3
NtRp94
(dp95
g13
F-2.2004542731113208
sg14
I3
sg15
I01
sg16
I5
sg17
I13
sbs(I8
I3
tp96
g1
(g10
g3
NtRp97
(dp98
g13
F23.990088681647492
sg14
I8
sg15
I01
sg16
I3
sg17
I71
sbs(I3
I4
tp99
g1
(g10
g3
NtRp100
(dp101
g13
F-0.48982353266350709
sg14
I3
sg15
I00
sg16
I4
sg17
I5
sbs(I5
I7
tp102
g1
(g10
g3
NtRp103
(dp104
g13
F12.795026532973134
sg14
I5
sg15
I01
sg16
I7
sg17
I28
sbs(I3
I8
tp105
g1
(g10
g3
NtRp106
(dp107
g13
F20.310365062745277
sg14
I3
sg15
I01
sg16
I8
sg17
I49
sbs(I4
I3
tp108
g1
(g10
g3
NtRp109
(dp110
g13
F-3.4934933179055765
sg14
I4
sg15
I01
sg16
I3
sg17
I12
sbs(I5
I2
tp111
g1
(g10
g3
NtRp112
(dp113
g13
F27.637502021055173
sg14
I5
sg15
I01
sg16
I2
sg17
I11
sbs(I2
I4
tp114
g1
(g10
g3
NtRp115
(dp116
g13
F8.5177199005163526
sg14
I2
sg15
I01
sg16
I4
sg17
I24
sbs(I8
I4
tp117
g1
(g10
g3
NtRp118
(dp119
g13
F-8.2303526843119883
sg14
I8
sg15
I01
sg16
I4
sg17
I40
sbssS'_input_nodes'
p120
I1
sS'_output_nodes'
p121
I1
sS'_node_gene_type'
p122
cneat.genome
NodeGene
p123
sS'_conn_gene_type'
p124
g10
sS'fitness'
p125
F0.99010108822218768
sS'parent2_id'
p126
I5296
sS'_id'
p127
I5316
sS'parent1_id'
p128
I5296
sS'_node_genes'
p129
(lp130
g1
(g123
g3
NtRp131
(dp132
S'_bias'
p133
I0
sS'_type'
p134
S'INPUT'
p135
sg127
I1
sS'_response'
p136
F4.9242730000000003
sS'_activation_type'
p137
Nsbag1
(g123
g3
NtRp138
(dp139
g133
F-2.3630821273452547
sg134
S'OUTPUT'
p140
sg127
I2
sg136
F6.5101778118443949
sg137
S'tanh'
p141
sbag1
(g123
g3
NtRp142
(dp143
g133
F-3.8922292332306103
sg134
S'HIDDEN'
p144
sg127
I3
sg136
F1.5647193429932305
sg137
g141
sbag1
(g123
g3
NtRp145
(dp146
g133
F2.8530604811387859
sg134
g144
sg127
I4
sg136
F4.7925837795657218
sg137
g141
sbag1
(g123
g3
NtRp147
(dp148
g133
F4.2016842836388069
sg134
g144
sg127
I5
sg136
F7.3936004841037359
sg137
g141
sbag1
(g123
g3
NtRp149
(dp150
g133
F-3.4375354187222635
sg134
g144
sg127
I6
sg136
F3.5884243683907369
sg137
g141
sbag1
(g123
g3
NtRp151
(dp152
g133
F-0.69111890066960779
sg134
g144
sg127
I7
sg136
F6.3360031597657631
sg137
g141
sbag1
(g123
g3
NtRp153
(dp154
g133
F-2.5634412499909676
sg134
g144
sg127
I8
sg136
F7.6018662728221207
sg137
g141
sbag1
(g123
g3
NtRp155
(dp156
g133
F1.2142379230156783
sg134
g144
sg127
I9
sg136
F6.4696034100440807
sg137
g141
sbag1
(g123
g3
NtRp157
(dp158
g133
F-0.27641527106868252
sg134
g144
sg127
I10
sg136
F7.9184332184855526
sg137
g141
sbag1
(g123
g3
NtRp159
(dp160
g133
F0.076295779665078306
sg134
g144
sg127
I11
sg136
F5.3410799699959286
sg137
g141
sbasb.