ccopy_reg
_reconstructor
p1
(cneat.chromosome
Chromosome
p2
c__builtin__
object
p3
NtRp4
(dp5
S'species_id'
p6
I43
sS'_connection_genes'
p7
(dp8
(I1
I3
tp9
g1
(cneat.genome
ConnectionGene
p10
g3
NtRp11
(dp12
S'_ConnectionGene__weight'
p13
F24.765512797309203
sS'_ConnectionGene__in'
p14
I1
sS'_ConnectionGene__enabled'
p15
I01
sS'_ConnectionGene__out'
p16
I3
sS'_ConnectionGene__innov_number'
p17
I3
sbs(I6
I6
tp18
g1
(g10
g3
NtRp19
(dp20
g13
F13.656997212859949
sg14
I6
sg15
I01
sg16
I6
sg17
I39
sbs(I5
I6
tp21
g1
(g10
g3
NtRp22
(dp23
g13
F0.59967619415719886
sg14
I5
sg15
I01
sg16
I6
sg17
I16
sbs(I9
I8
tp24
g1
(g10
g3
NtRp25
(dp26
g13
F-7.1689845980386941
sg14
I9
sg15
I01
sg16
I8
sg17
I60
sbs(I9
I4
tp27
g1
(g10
g3
NtRp28
(dp29
g13
F18.542926330524185
sg14
I9
sg15
I01
sg16
I4
sg17
I77
sbs(I7
I2
tp30
g1
(g10
g3
NtRp31
(dp32
g13
F-5.2989186283567413
sg14
I7
sg15
I01
sg16
I2
sg17
I33
sbs(I1
I2
tp33
g1
(g10
g3
NtRp34
(dp35
g13
F13.497166424351843
sg14
I1
sg15
I01
sg16
I2
sg17
I1
sbs(I4
I9
tp36
g1
(g10
g3
NtRp37
(dp38
g13
F7.0415869260467447
sg14
I4
sg15
I01
sg16
I9
sg17
I44
sbs(I3
I3
tp39
g1
(g10
g3
NtRp40
(dp41
g13
F28.559600506644465
sg14
I3
sg15
I01
sg16
I3
sg17
I9
sbs(I4
I4
tp42
g1
(g10
g3
NtRp43
(dp44
g13
F15.48506421117099
sg14
I4
sg15
I00
sg16
I4
sg17
I15
sbs(I1
I5
tp45
g1
(g10
g3
NtRp46
(dp47
g13
F-4.0949594859380367
sg14
I1
sg15
I01
sg16
I5
sg17
I10
sbs(I6
I5
tp48
g1
(g10
g3
NtRp49
(dp50
g13
F7.9618477761876383
sg14
I6
sg15
I01
sg16
I5
sg17
I23
sbs(I3
I6
tp51
g1
(g10
g3
NtRp52
(dp53
g13
F-3.0483346177073938
sg14
I3
sg15
I01
sg16
I6
sg17
I19
sbs(I2
I2
tp54
g1
(g10
g3
NtRp55
(dp56
g13
F2.2175273883544095
sg14
I2
sg15
I01
sg16
I2
sg17
I2
sbs(I5
I3
tp57
g1
(g10
g3
NtRp58
(dp59
g13
F0.93343502089563235
sg14
I5
sg15
I01
sg16
I3
sg17
I14
sbs(I11
I2
tp60
g1
(g10
g3
NtRp61
(dp62
g13
F22.141528602535779
sg14
I11
sg15
I01
sg16
I2
sg17
I74
sbs(I3
I2
tp63
g1
(g10
g3
NtRp64
(dp65
g13
F-11.351065525024472
sg14
I3
sg15
I01
sg16
I2
sg17
I4
sbs(I10
I4
tp66
g1
(g10
g3
NtRp67
(dp68
g13
F-14.097994729796447
sg14
I10
sg15
I01
sg16
I4
sg17
I90
sbs(I4
I5
tp69
g1
(g10
g3
NtRp70
(dp71
g13
F-12.970126521132363
sg14
I4
sg15
I01
sg16
I5
sg17
I30
sbs(I1
I4
tp72
g1
(g10
g3
NtRp73
(dp74
g13
F23.390749933022988
sg14
I1
sg15
I01
sg16
I4
sg17
I8
sbs(I2
I10
tp75
g1
(g10
g3
NtRp76
(dp77
g13
F2.2886830748034757
sg14
I2
sg15
I01
sg16
I10
sg17
I57
sbs(I2
I3
tp78
g1
(g10
g3
NtRp79
(dp80
g13
F-15.977831423856841
sg14
I2
sg15
I01
sg16
I3
sg17
I7
sbs(I4
I2
tp81
g1
(g10
g3
NtRp82
(dp83
g13
F22.531092842520227
sg14
I4
sg15
I00
sg16
I2
sg17
I6
sbs(I4
I11
tp84
g1
(g10
g3
NtRp85
(dp86
g13
F5.7402091925479972
sg14
I4
sg15
I01
sg16
I11
sg17
I75
sbs(I3
I5
tp87
g1
(g10
g3
NtRp88
(dp89
g13
F16.433823483390768
sg14
I3
sg15
I01
sg16
I5
sg17
I13
sbs(I8
I3
tp90
g1
(g10
g3
NtRp91
(dp92
g13
F21.252790600144984
sg14
I8
sg15
I01
sg16
I3
sg17
I71
sbs(I5
I2
tp93
g1
(g10
g3
NtRp94
(dp95
g13
F18.344329591246666
sg14
I5
sg15
I01
sg16
I2
sg17
I11
sbs(I5
I7
tp96
g1
(g10
g3
NtRp97
(dp98
g13
F14.647570977990018
sg14
I5
sg15
I01
sg16
I7
sg17
I28
sbs(I3
I8
tp99
g1
(g10
g3
NtRp100
(dp101
g13
F20.683383087564465
sg14
I3
sg15
I01
sg16
I8
sg17
I49
sbs(I7
I9
tp102
g1
(g10
g3
NtRp103
(dp104
g13
F0.95300396623035322
sg14
I7
sg15
I01
sg16
I9
sg17
I41
sbs(I4
I3
tp105
g1
(g10
g3
NtRp106
(dp107
g13
F-6.8373512745485057
sg14
I4
sg15
I01
sg16
I3
sg17
I12
sbs(I3
I4
tp108
g1
(g10
g3
NtRp109
(dp110
g13
F-16.595158136664523
sg14
I3
sg15
I00
sg16
I4
sg17
I5
sbs(I2
I4
tp111
g1
(g10
g3
NtRp112
(dp113
g13
F-8.447005047506444
sg14
I2
sg15
I01
sg16
I4
sg17
I24
sbs(I8
I4
tp114
g1
(g10
g3
NtRp115
(dp116
g13
F-6.9654010965334594
sg14
I8
sg15
I01
sg16
I4
sg17
I40
sbssS'_input_nodes'
p117
I1
sS'_output_nodes'
p118
I1
sS'_node_gene_type'
p119
cneat.genome
NodeGene
p120
sS'_conn_gene_type'
p121
g10
sS'fitness'
p122
F0.91054373485991669
sS'parent2_id'
p123
I4978
sS'_id'
p124
I5009
sS'parent1_id'
p125
I4978
sS'_node_genes'
p126
(lp127
g1
(g120
g3
NtRp128
(dp129
S'_bias'
p130
I0
sS'_type'
p131
S'INPUT'
p132
sg124
I1
sS'_response'
p133
F4.9242730000000003
sS'_activation_type'
p134
Nsbag1
(g120
g3
NtRp135
(dp136
g130
F-1.2795144670468945
sg131
S'OUTPUT'
p137
sg124
I2
sg133
F3.9867895585312216
sg134
S'tanh'
p138
sbag1
(g120
g3
NtRp139
(dp140
g130
F-5.0748541817551907
sg131
S'HIDDEN'
p141
sg124
I3
sg133
F0.50514251564578605
sg134
g138
sbag1
(g120
g3
NtRp142
(dp143
g130
F-0.50932996076831305
sg131
g141
sg124
I4
sg133
F4.3051375804907268
sg134
g138
sbag1
(g120
g3
NtRp144
(dp145
g130
F2.4375688258766495
sg131
g141
sg124
I5
sg133
F5.2964457890741876
sg134
g138
sbag1
(g120
g3
NtRp146
(dp147
g130
F-3.2416838461793667
sg131
g141
sg124
I6
sg133
F2.8298261400940223
sg134
g138
sbag1
(g120
g3
NtRp148
(dp149
g130
F-2.7907664051346934
sg131
g141
sg124
I7
sg133
F5.247318440136385
sg134
g138
sbag1
(g120
g3
NtRp150
(dp151
g130
F-1.0935397693196856
sg131
g141
sg124
I8
sg133
F6.4183119625337985
sg134
g138
sbag1
(g120
g3
NtRp152
(dp153
g130
F0.7166570618456154
sg131
g141
sg124
I9
sg133
F5.0447833964088309
sg134
g138
sbag1
(g120
g3
NtRp154
(dp155
g130
I0
sg131
g141
sg124
I10
sg133
F4.9242730000000003
sg134
g138
sbag1
(g120
g3
NtRp156
(dp157
g130
F0.63884020398026098
sg131
g141
sg124
I11
sg133
F5.5078084914624226
sg134
g138
sbasb.