ccopy_reg
_reconstructor
p1
(cneat.chromosome
Chromosome
p2
c__builtin__
object
p3
NtRp4
(dp5
S'species_id'
p6
I51
sS'_connection_genes'
p7
(dp8
(I3
I15
tp9
g1
(cneat.genome
ConnectionGene
p10
g3
NtRp11
(dp12
S'_ConnectionGene__weight'
p13
F-0.64559524107997812
sS'_ConnectionGene__in'
p14
I3
sS'_ConnectionGene__enabled'
p15
I01
sS'_ConnectionGene__out'
p16
I15
sS'_ConnectionGene__innov_number'
p17
I151
sbs(I1
I3
tp18
g1
(g10
g3
NtRp19
(dp20
g13
F26.756557969061738
sg14
I1
sg15
I01
sg16
I3
sg17
I3
sbs(I6
I6
tp21
g1
(g10
g3
NtRp22
(dp23
g13
F11.314662603009706
sg14
I6
sg15
I01
sg16
I6
sg17
I39
sbs(I5
I6
tp24
g1
(g10
g3
NtRp25
(dp26
g13
F1.7740110675388734
sg14
I5
sg15
I01
sg16
I6
sg17
I16
sbs(I9
I8
tp27
g1
(g10
g3
NtRp28
(dp29
g13
F-7.153403779069043
sg14
I9
sg15
I01
sg16
I8
sg17
I60
sbs(I4
I12
tp30
g1
(g10
g3
NtRp31
(dp32
g13
F-4.7235638931661388
sg14
I4
sg15
I01
sg16
I12
sg17
I102
sbs(I9
I4
tp33
g1
(g10
g3
NtRp34
(dp35
g13
F19.094845644955448
sg14
I9
sg15
I01
sg16
I4
sg17
I77
sbs(I7
I2
tp36
g1
(g10
g3
NtRp37
(dp38
g13
F-14.586700825566442
sg14
I7
sg15
I01
sg16
I2
sg17
I33
sbs(I10
I4
tp39
g1
(g10
g3
NtRp40
(dp41
g13
F-16.114247753712071
sg14
I10
sg15
I01
sg16
I4
sg17
I90
sbs(I1
I2
tp42
g1
(g10
g3
NtRp43
(dp44
g13
F12.477482398951041
sg14
I1
sg15
I01
sg16
I2
sg17
I1
sbs(I4
I9
tp45
g1
(g10
g3
NtRp46
(dp47
g13
F6.2856130345072039
sg14
I4
sg15
I01
sg16
I9
sg17
I44
sbs(I3
I3
tp48
g1
(g10
g3
NtRp49
(dp50
g13
F21.87702535320415
sg14
I3
sg15
I01
sg16
I3
sg17
I9
sbs(I4
I4
tp51
g1
(g10
g3
NtRp52
(dp53
g13
F15.894841928011292
sg14
I4
sg15
I01
sg16
I4
sg17
I15
sbs(I1
I5
tp54
g1
(g10
g3
NtRp55
(dp56
g13
F10.723196937089511
sg14
I1
sg15
I01
sg16
I5
sg17
I10
sbs(I4
I11
tp57
g1
(g10
g3
NtRp58
(dp59
g13
F12.039693412095511
sg14
I4
sg15
I00
sg16
I11
sg17
I75
sbs(I3
I6
tp60
g1
(g10
g3
NtRp61
(dp62
g13
F-0.20069347788065656
sg14
I3
sg15
I00
sg16
I6
sg17
I19
sbs(I2
I2
tp63
g1
(g10
g3
NtRp64
(dp65
g13
F3.5890085433182666
sg14
I2
sg15
I01
sg16
I2
sg17
I2
sbs(I7
I9
tp66
g1
(g10
g3
NtRp67
(dp68
g13
F3.5643453345222347
sg14
I7
sg15
I01
sg16
I9
sg17
I41
sbs(I11
I2
tp69
g1
(g10
g3
NtRp70
(dp71
g13
F12.108710948295306
sg14
I11
sg15
I01
sg16
I2
sg17
I74
sbs(I3
I2
tp72
g1
(g10
g3
NtRp73
(dp74
g13
F-7.0520313645089558
sg14
I3
sg15
I01
sg16
I2
sg17
I4
sbs(I12
I14
tp75
g1
(g10
g3
NtRp76
(dp77
g13
F-8.3657708982245715
sg14
I12
sg15
I01
sg16
I14
sg17
I147
sbs(I4
I5
tp78
g1
(g10
g3
NtRp79
(dp80
g13
F-15.44296938954054
sg14
I4
sg15
I01
sg16
I5
sg17
I30
sbs(I7
I13
tp81
g1
(g10
g3
NtRp82
(dp83
g13
F2.7112312166668557
sg14
I7
sg15
I01
sg16
I13
sg17
I136
sbs(I1
I4
tp84
g1
(g10
g3
NtRp85
(dp86
g13
F30
sg14
I1
sg15
I01
sg16
I4
sg17
I8
sbs(I2
I10
tp87
g1
(g10
g3
NtRp88
(dp89
g13
F6.1076991327454504
sg14
I2
sg15
I01
sg16
I10
sg17
I57
sbs(I3
I5
tp90
g1
(g10
g3
NtRp91
(dp92
g13
F20.83886337110944
sg14
I3
sg15
I01
sg16
I5
sg17
I13
sbs(I2
I3
tp93
g1
(g10
g3
NtRp94
(dp95
g13
F-12.652848531736428
sg14
I2
sg15
I01
sg16
I3
sg17
I7
sbs(I12
I11
tp96
g1
(g10
g3
NtRp97
(dp98
g13
F10.527816920693347
sg14
I12
sg15
I00
sg16
I11
sg17
I84
sbs(I4
I2
tp99
g1
(g10
g3
NtRp100
(dp101
g13
F29.287703700745045
sg14
I4
sg15
I00
sg16
I2
sg17
I6
sbs(I6
I5
tp102
g1
(g10
g3
NtRp103
(dp104
g13
F15.206473639005145
sg14
I6
sg15
I01
sg16
I5
sg17
I23
sbs(I5
I3
tp105
g1
(g10
g3
NtRp106
(dp107
g13
F1.6379348974666019
sg14
I5
sg15
I01
sg16
I3
sg17
I14
sbs(I14
I11
tp108
g1
(g10
g3
NtRp109
(dp110
g13
F7.5612814093077976
sg14
I14
sg15
I01
sg16
I11
sg17
I148
sbs(I8
I3
tp111
g1
(g10
g3
NtRp112
(dp113
g13
F10.2265903291554
sg14
I8
sg15
I01
sg16
I3
sg17
I71
sbs(I3
I4
tp114
g1
(g10
g3
NtRp115
(dp116
g13
F-19.827773434550835
sg14
I3
sg15
I01
sg16
I4
sg17
I5
sbs(I5
I7
tp117
g1
(g10
g3
NtRp118
(dp119
g13
F10.229382029300654
sg14
I5
sg15
I01
sg16
I7
sg17
I28
sbs(I14
I7
tp120
g1
(g10
g3
NtRp121
(dp122
g13
F-2.3768821754654352
sg14
I14
sg15
I01
sg16
I7
sg17
I149
sbs(I3
I8
tp123
g1
(g10
g3
NtRp124
(dp125
g13
F13.017951996353954
sg14
I3
sg15
I01
sg16
I8
sg17
I49
sbs(I15
I6
tp126
g1
(g10
g3
NtRp127
(dp128
g13
F-10.989192234871542
sg14
I15
sg15
I01
sg16
I6
sg17
I152
sbs(I4
I3
tp129
g1
(g10
g3
NtRp130
(dp131
g13
F-7.8142517166917589
sg14
I4
sg15
I01
sg16
I3
sg17
I12
sbs(I13
I9
tp132
g1
(g10
g3
NtRp133
(dp134
g13
F13.56278585407733
sg14
I13
sg15
I01
sg16
I9
sg17
I137
sbs(I5
I2
tp135
g1
(g10
g3
NtRp136
(dp137
g13
F25.973867762757781
sg14
I5
sg15
I01
sg16
I2
sg17
I11
sbs(I2
I4
tp138
g1
(g10
g3
NtRp139
(dp140
g13
F-20.43827324571663
sg14
I2
sg15
I01
sg16
I4
sg17
I24
sbs(I8
I4
tp141
g1
(g10
g3
NtRp142
(dp143
g13
F-7.971506945028314
sg14
I8
sg15
I01
sg16
I4
sg17
I40
sbssS'_input_nodes'
p144
I1
sS'_output_nodes'
p145
I1
sS'_node_gene_type'
p146
cneat.genome
NodeGene
p147
sS'_conn_gene_type'
p148
g10
sS'fitness'
p149
F0.97169781059519522
sS'parent2_id'
p150
I5595
sS'_id'
p151
I5625
sS'parent1_id'
p152
I5595
sS'_node_genes'
p153
(lp154
g1
(g147
g3
NtRp155
(dp156
S'_bias'
p157
I0
sS'_type'
p158
S'INPUT'
p159
sg151
I1
sS'_response'
p160
F4.9242730000000003
sS'_activation_type'
p161
Nsbag1
(g147
g3
NtRp162
(dp163
g157
F-1.2067995514579599
sg158
S'OUTPUT'
p164
sg151
I2
sg160
F4.4668429864808941
sg161
S'tanh'
p165
sbag1
(g147
g3
NtRp166
(dp167
g157
F-4.1861011577150924
sg158
S'HIDDEN'
p168
sg151
I3
sg160
F0.012292605801739194
sg161
g165
sbag1
(g147
g3
NtRp169
(dp170
g157
F-0.29617068009888725
sg158
g168
sg151
I4
sg160
F2.8384711192679202
sg161
g165
sbag1
(g147
g3
NtRp171
(dp172
g157
F1.8190784972988938
sg158
g168
sg151
I5
sg160
F4.9532382727791777
sg161
g165
sbag1
(g147
g3
NtRp173
(dp174
g157
F-1.9322646506864058
sg158
g168
sg151
I6
sg160
F0.079335483162871645
sg161
g165
sbag1
(g147
g3
NtRp175
(dp176
g157
F-3.2412853199343079
sg158
g168
sg151
I7
sg160
F2.9938462241914037
sg161
g165
sbag1
(g147
g3
NtRp177
(dp178
g157
F-0.0050930993789143897
sg158
g168
sg151
I8
sg160
F5.7527604567785575
sg161
g165
sbag1
(g147
g3
NtRp179
(dp180
g157
F1.8947953559173778
sg158
g168
sg151
I9
sg160
F6.0672756230945826
sg161
g165
sbag1
(g147
g3
NtRp181
(dp182
g157
F0.82807420637775098
sg158
g168
sg151
I10
sg160
F4.609029340552226
sg161
g165
sbag1
(g147
g3
NtRp183
(dp184
g157
F0.67328941764182448
sg158
g168
sg151
I11
sg160
F6.1185995992534181
sg161
g165
sbag1
(g147
g3
NtRp185
(dp186
g157
F-1.694188288410976
sg158
g168
sg151
I12
sg160
F7.0349817503305418
sg161
g165
sbag1
(g147
g3
NtRp187
(dp188
g157
F1.2138942378737856
sg158
g168
sg151
I13
sg160
F4.268452710693392
sg161
g165
sbag1
(g147
g3
NtRp189
(dp190
g157
F0.056549932713625073
sg158
g168
sg151
I14
sg160
F4.9242730000000003
sg161
g165
sbag1
(g147
g3
NtRp191
(dp192
g157
I0
sg158
g168
sg151
I15
sg160
F4.9242730000000003
sg161
g165
sbasb.