ccopy_reg
_reconstructor
p1
(cneat.chromosome
Chromosome
p2
c__builtin__
object
p3
NtRp4
(dp5
S'species_id'
p6
I32
sS'_connection_genes'
p7
(dp8
(I7
I3
tp9
g1
(cneat.genome
ConnectionGene
p10
g3
NtRp11
(dp12
S'_ConnectionGene__weight'
p13
F13.267261988701394
sS'_ConnectionGene__in'
p14
I7
sS'_ConnectionGene__enabled'
p15
I01
sS'_ConnectionGene__out'
p16
I3
sS'_ConnectionGene__innov_number'
p17
I29
sbs(I1
I3
tp18
g1
(g10
g3
NtRp19
(dp20
g13
F-8.4405504390969366
sg14
I1
sg15
I01
sg16
I3
sg17
I3
sbs(I4
I8
tp21
g1
(g10
g3
NtRp22
(dp23
g13
F-9.0614589960764675
sg14
I4
sg15
I01
sg16
I8
sg17
I35
sbs(I5
I6
tp24
g1
(g10
g3
NtRp25
(dp26
g13
F-14.885002061512308
sg14
I5
sg15
I01
sg16
I6
sg17
I16
sbs(I3
I11
tp27
g1
(g10
g3
NtRp28
(dp29
g13
F-2.4727699429895069
sg14
I3
sg15
I01
sg16
I11
sg17
I91
sbs(I6
I2
tp30
g1
(g10
g3
NtRp31
(dp32
g13
F-24.282790786487457
sg14
I6
sg15
I01
sg16
I2
sg17
I17
sbs(I8
I5
tp33
g1
(g10
g3
NtRp34
(dp35
g13
F9.1615227047369814
sg14
I8
sg15
I00
sg16
I5
sg17
I36
sbs(I1
I2
tp36
g1
(g10
g3
NtRp37
(dp38
g13
F-5.2747813591228452
sg14
I1
sg15
I01
sg16
I2
sg17
I1
sbs(I2
I9
tp39
g1
(g10
g3
NtRp40
(dp41
g13
F7.4762413573641258
sg14
I2
sg15
I01
sg16
I9
sg17
I51
sbs(I11
I5
tp42
g1
(g10
g3
NtRp43
(dp44
g13
F1.8333872030434808
sg14
I11
sg15
I01
sg16
I5
sg17
I81
sbs(I2
I2
tp45
g1
(g10
g3
NtRp46
(dp47
g13
F-2.3561260607951717
sg14
I2
sg15
I01
sg16
I2
sg17
I2
sbs(I3
I2
tp48
g1
(g10
g3
NtRp49
(dp50
g13
F-14.517851913536486
sg14
I3
sg15
I01
sg16
I2
sg17
I4
sbs(I4
I5
tp51
g1
(g10
g3
NtRp52
(dp53
g13
F-4.7792360204854338
sg14
I4
sg15
I01
sg16
I5
sg17
I30
sbs(I8
I11
tp54
g1
(g10
g3
NtRp55
(dp56
g13
F21.009556035076248
sg14
I8
sg15
I01
sg16
I11
sg17
I80
sbs(I9
I3
tp57
g1
(g10
g3
NtRp58
(dp59
g13
F22.921276373214898
sg14
I9
sg15
I01
sg16
I3
sg17
I42
sbs(I1
I4
tp60
g1
(g10
g3
NtRp61
(dp62
g13
F12.727303086419905
sg14
I1
sg15
I01
sg16
I4
sg17
I8
sbs(I7
I7
tp63
g1
(g10
g3
NtRp64
(dp65
g13
F11.57724831035928
sg14
I7
sg15
I01
sg16
I7
sg17
I47
sbs(I2
I3
tp66
g1
(g10
g3
NtRp67
(dp68
g13
F13.684528707703787
sg14
I2
sg15
I01
sg16
I3
sg17
I7
sbs(I4
I2
tp69
g1
(g10
g3
NtRp70
(dp71
g13
F-8.8623938560698949
sg14
I4
sg15
I01
sg16
I2
sg17
I6
sbs(I2
I10
tp72
g1
(g10
g3
NtRp73
(dp74
g13
F1.1879792854814393
sg14
I2
sg15
I01
sg16
I10
sg17
I57
sbs(I3
I5
tp75
g1
(g10
g3
NtRp76
(dp77
g13
F13.556595580930985
sg14
I3
sg15
I01
sg16
I5
sg17
I13
sbs(I2
I7
tp78
g1
(g10
g3
NtRp79
(dp80
g13
F16.703800802469175
sg14
I2
sg15
I01
sg16
I7
sg17
I34
sbs(I8
I3
tp81
g1
(g10
g3
NtRp82
(dp83
g13
F-7.326274553266904
sg14
I8
sg15
I01
sg16
I3
sg17
I71
sbs(I10
I10
tp84
g1
(g10
g3
NtRp85
(dp86
g13
F-8.4442114723190063
sg14
I10
sg15
I01
sg16
I10
sg17
I72
sbs(I3
I4
tp87
g1
(g10
g3
NtRp88
(dp89
g13
F10.282053225984233
sg14
I3
sg15
I01
sg16
I4
sg17
I5
sbs(I5
I2
tp90
g1
(g10
g3
NtRp91
(dp92
g13
F11.480242150281736
sg14
I5
sg15
I00
sg16
I2
sg17
I11
sbs(I10
I2
tp93
g1
(g10
g3
NtRp94
(dp95
g13
F9.3101449882561624
sg14
I10
sg15
I01
sg16
I2
sg17
I65
sbssS'_input_nodes'
p96
I1
sS'_output_nodes'
p97
I1
sS'_node_gene_type'
p98
cneat.genome
NodeGene
p99
sS'_conn_gene_type'
p100
g10
sS'fitness'
p101
F0.88384273536900237
sS'parent2_id'
p102
I2703
sS'_id'
p103
I2715
sS'parent1_id'
p104
I2703
sS'_node_genes'
p105
(lp106
g1
(g99
g3
NtRp107
(dp108
S'_bias'
p109
I0
sS'_type'
p110
S'INPUT'
p111
sg103
I1
sS'_response'
p112
F4.9242730000000003
sS'_activation_type'
p113
Nsbag1
(g99
g3
NtRp114
(dp115
g109
F-3.5010110471454241
sg110
S'OUTPUT'
p116
sg103
I2
sg112
F5.2812732468525088
sg113
S'tanh'
p117
sbag1
(g99
g3
NtRp118
(dp119
g109
F1.0136203892873596
sg110
S'HIDDEN'
p120
sg103
I3
sg112
F1.2066513378779939
sg113
g117
sbag1
(g99
g3
NtRp121
(dp122
g109
F-1.6767913536029848
sg110
g120
sg103
I4
sg112
F7.9088096509910688
sg113
g117
sbag1
(g99
g3
NtRp123
(dp124
g109
F-0.31101621021025383
sg110
g120
sg103
I5
sg112
F4.871073302064449
sg113
g117
sbag1
(g99
g3
NtRp125
(dp126
g109
F-1.0294562558365925
sg110
g120
sg103
I6
sg112
F2.6201779299705343
sg113
g117
sbag1
(g99
g3
NtRp127
(dp128
g109
F1.0852337779405488
sg110
g120
sg103
I7
sg112
F2.8465495126407503
sg113
g117
sbag1
(g99
g3
NtRp129
(dp130
g109
F-0.096178941155819264
sg110
g120
sg103
I8
sg112
F6.5454400377083912
sg113
g117
sbag1
(g99
g3
NtRp131
(dp132
g109
F-1.8012684923962281
sg110
g120
sg103
I9
sg112
F6.1301497643602998
sg113
g117
sbag1
(g99
g3
NtRp133
(dp134
g109
F-0.70611089521261483
sg110
g120
sg103
I10
sg112
F4.8170689305762409
sg113
g117
sbag1
(g99
g3
NtRp135
(dp136
g109
F0.3339016358797211
sg110
g120
sg103
I11
sg112
F5.8481767833937033
sg113
g117
sbasb.