ccopy_reg
_reconstructor
p1
(cneat.chromosome
Chromosome
p2
c__builtin__
object
p3
NtRp4
(dp5
S'species_id'
p6
I68
sS'_connection_genes'
p7
(dp8
(I1
I3
tp9
g1
(cneat.genome
ConnectionGene
p10
g3
NtRp11
(dp12
S'_ConnectionGene__weight'
p13
F22.186901569596063
sS'_ConnectionGene__in'
p14
I1
sS'_ConnectionGene__enabled'
p15
I00
sS'_ConnectionGene__out'
p16
I3
sS'_ConnectionGene__innov_number'
p17
I3
sbs(I6
I6
tp18
g1
(g10
g3
NtRp19
(dp20
g13
F21.53675096221507
sg14
I6
sg15
I01
sg16
I6
sg17
I39
sbs(I5
I6
tp21
g1
(g10
g3
NtRp22
(dp23
g13
F-2.2355133358637538
sg14
I5
sg15
I01
sg16
I6
sg17
I16
sbs(I14
I4
tp24
g1
(g10
g3
NtRp25
(dp26
g13
F-11.278047518445064
sg14
I14
sg15
I00
sg16
I4
sg17
I159
sbs(I9
I8
tp27
g1
(g10
g3
NtRp28
(dp29
g13
F-22.284349322872501
sg14
I9
sg15
I01
sg16
I8
sg17
I60
sbs(I1
I15
tp30
g1
(g10
g3
NtRp31
(dp32
g13
F-0.35724159846101955
sg14
I1
sg15
I01
sg16
I15
sg17
I168
sbs(I4
I12
tp33
g1
(g10
g3
NtRp34
(dp35
g13
F16.46197144121626
sg14
I4
sg15
I01
sg16
I12
sg17
I102
sbs(I9
I4
tp36
g1
(g10
g3
NtRp37
(dp38
g13
F18.189367672004934
sg14
I9
sg15
I01
sg16
I4
sg17
I77
sbs(I7
I2
tp39
g1
(g10
g3
NtRp40
(dp41
g13
F-14.012116672600385
sg14
I7
sg15
I01
sg16
I2
sg17
I33
sbs(I1
I2
tp42
g1
(g10
g3
NtRp43
(dp44
g13
F18.013315092462559
sg14
I1
sg15
I01
sg16
I2
sg17
I1
sbs(I4
I9
tp45
g1
(g10
g3
NtRp46
(dp47
g13
F1.0065145415022514
sg14
I4
sg15
I01
sg16
I9
sg17
I44
sbs(I3
I3
tp48
g1
(g10
g3
NtRp49
(dp50
g13
F27.20796370790962
sg14
I3
sg15
I01
sg16
I3
sg17
I9
sbs(I4
I4
tp51
g1
(g10
g3
NtRp52
(dp53
g13
F3.0829111553575275
sg14
I4
sg15
I00
sg16
I4
sg17
I15
sbs(I4
I13
tp54
g1
(g10
g3
NtRp55
(dp56
g13
F-4.4614435555956087
sg14
I4
sg15
I01
sg16
I13
sg17
I119
sbs(I1
I5
tp57
g1
(g10
g3
NtRp58
(dp59
g13
F22.005264238114247
sg14
I1
sg15
I01
sg16
I5
sg17
I10
sbs(I6
I5
tp60
g1
(g10
g3
NtRp61
(dp62
g13
F24.36648988844447
sg14
I6
sg15
I01
sg16
I5
sg17
I23
sbs(I3
I6
tp63
g1
(g10
g3
NtRp64
(dp65
g13
F-20.58636564478185
sg14
I3
sg15
I01
sg16
I6
sg17
I19
sbs(I2
I2
tp66
g1
(g10
g3
NtRp67
(dp68
g13
F30
sg14
I2
sg15
I01
sg16
I2
sg17
I2
sbs(I5
I7
tp69
g1
(g10
g3
NtRp70
(dp71
g13
F2.9434697306528044
sg14
I5
sg15
I01
sg16
I7
sg17
I28
sbs(I5
I3
tp72
g1
(g10
g3
NtRp73
(dp74
g13
F-12.480726303234858
sg14
I5
sg15
I01
sg16
I3
sg17
I14
sbs(I11
I2
tp75
g1
(g10
g3
NtRp76
(dp77
g13
F28.211036464036052
sg14
I11
sg15
I01
sg16
I2
sg17
I74
sbs(I4
I10
tp78
g1
(g10
g3
NtRp79
(dp80
g13
F-0.99162062575040588
sg14
I4
sg15
I01
sg16
I10
sg17
I63
sbs(I3
I2
tp81
g1
(g10
g3
NtRp82
(dp83
g13
F-2.5846898262734661
sg14
I3
sg15
I01
sg16
I2
sg17
I4
sbs(I17
I6
tp84
g1
(g10
g3
NtRp85
(dp86
g13
F5.0294832138460901
sg14
I17
sg15
I01
sg16
I6
sg17
I188
sbs(I10
I4
tp87
g1
(g10
g3
NtRp88
(dp89
g13
F-23.207251075546875
sg14
I10
sg15
I01
sg16
I4
sg17
I90
sbs(I16
I4
tp90
g1
(g10
g3
NtRp91
(dp92
g13
F-1.7792787508014525
sg14
I16
sg15
I01
sg16
I4
sg17
I175
sbs(I4
I5
tp93
g1
(g10
g3
NtRp94
(dp95
g13
F-22.243773294737196
sg14
I4
sg15
I01
sg16
I5
sg17
I30
sbs(I15
I3
tp96
g1
(g10
g3
NtRp97
(dp98
g13
F6.2148828746000397
sg14
I15
sg15
I01
sg16
I3
sg17
I169
sbs(I5
I17
tp99
g1
(g10
g3
NtRp100
(dp101
g13
F-4.8694712015232922
sg14
I5
sg15
I01
sg16
I17
sg17
I187
sbs(I1
I4
tp102
g1
(g10
g3
NtRp103
(dp104
g13
F10.454200386196909
sg14
I1
sg15
I01
sg16
I4
sg17
I8
sbs(I2
I10
tp105
g1
(g10
g3
NtRp106
(dp107
g13
F-23.324723964347619
sg14
I2
sg15
I01
sg16
I10
sg17
I57
sbs(I12
I18
tp108
g1
(g10
g3
NtRp109
(dp110
g13
F-15.074829990063916
sg14
I12
sg15
I01
sg16
I18
sg17
I189
sbs(I2
I3
tp111
g1
(g10
g3
NtRp112
(dp113
g13
F-7.4468377760588673
sg14
I2
sg15
I01
sg16
I3
sg17
I7
sbs(I12
I11
tp114
g1
(g10
g3
NtRp115
(dp116
g13
F8.2343512338286562
sg14
I12
sg15
I00
sg16
I11
sg17
I84
sbs(I4
I2
tp117
g1
(g10
g3
NtRp118
(dp119
g13
F13.904174208695707
sg14
I4
sg15
I01
sg16
I2
sg17
I6
sbs(I2
I14
tp120
g1
(g10
g3
NtRp121
(dp122
g13
F-6.0538659180047176
sg14
I2
sg15
I01
sg16
I14
sg17
I142
sbs(I4
I11
tp123
g1
(g10
g3
NtRp124
(dp125
g13
F18.061876228702165
sg14
I4
sg15
I00
sg16
I11
sg17
I75
sbs(I7
I9
tp126
g1
(g10
g3
NtRp127
(dp128
g13
F6.5783868752346857
sg14
I7
sg15
I01
sg16
I9
sg17
I41
sbs(I3
I5
tp129
g1
(g10
g3
NtRp130
(dp131
g13
F21.653121949290899
sg14
I3
sg15
I01
sg16
I5
sg17
I13
sbs(I8
I3
tp132
g1
(g10
g3
NtRp133
(dp134
g13
F10.414782238630792
sg14
I8
sg15
I01
sg16
I3
sg17
I71
sbs(I14
I16
tp135
g1
(g10
g3
NtRp136
(dp137
g13
F0.49293141741072977
sg14
I14
sg15
I01
sg16
I16
sg17
I174
sbs(I18
I11
tp138
g1
(g10
g3
NtRp139
(dp140
g13
F5.5289387717715917
sg14
I18
sg15
I01
sg16
I11
sg17
I190
sbs(I7
I13
tp141
g1
(g10
g3
NtRp142
(dp143
g13
F-10.015781406312401
sg14
I7
sg15
I01
sg16
I13
sg17
I136
sbs(I5
I2
tp144
g1
(g10
g3
NtRp145
(dp146
g13
F29.929510280669124
sg14
I5
sg15
I01
sg16
I2
sg17
I11
sbs(I3
I8
tp147
g1
(g10
g3
NtRp148
(dp149
g13
F5.0250378389238648
sg14
I3
sg15
I01
sg16
I8
sg17
I49
sbs(I6
I2
tp150
g1
(g10
g3
NtRp151
(dp152
g13
F2.3030900051291265
sg14
I6
sg15
I01
sg16
I2
sg17
I17
sbs(I4
I3
tp153
g1
(g10
g3
NtRp154
(dp155
g13
F-2.8747111659762661
sg14
I4
sg15
I01
sg16
I3
sg17
I12
sbs(I13
I9
tp156
g1
(g10
g3
NtRp157
(dp158
g13
F-10.068367618504086
sg14
I13
sg15
I01
sg16
I9
sg17
I137
sbs(I3
I4
tp159
g1
(g10
g3
NtRp160
(dp161
g13
F-27.892681736712191
sg14
I3
sg15
I00
sg16
I4
sg17
I5
sbs(I2
I4
tp162
g1
(g10
g3
NtRp163
(dp164
g13
F-18.16422190890205
sg14
I2
sg15
I00
sg16
I4
sg17
I24
sbs(I8
I4
tp165
g1
(g10
g3
NtRp166
(dp167
g13
F-14.19441123712908
sg14
I8
sg15
I01
sg16
I4
sg17
I40
sbssS'_input_nodes'
p168
I1
sS'_output_nodes'
p169
I1
sS'_node_gene_type'
p170
cneat.genome
NodeGene
p171
sS'_conn_gene_type'
p172
g10
sS'fitness'
p173
F0.94144131751455573
sS'parent2_id'
p174
I6803
sS'_id'
p175
I6842
sS'parent1_id'
p176
I6803
sS'_node_genes'
p177
(lp178
g1
(g171
g3
NtRp179
(dp180
S'_bias'
p181
I0
sS'_type'
p182
S'INPUT'
p183
sg175
I1
sS'_response'
p184
F4.9242730000000003
sS'_activation_type'
p185
Nsbag1
(g171
g3
NtRp186
(dp187
g181
F-1.3149799451986894
sg182
S'OUTPUT'
p188
sg175
I2
sg184
F5.8898429066599789
sg185
S'tanh'
p189
sbag1
(g171
g3
NtRp190
(dp191
g181
F-5.7011133210482194
sg182
S'HIDDEN'
p192
sg175
I3
sg184
F-0.00061415817488652547
sg185
g189
sbag1
(g171
g3
NtRp193
(dp194
g181
F-3.2020477085650341
sg182
g192
sg175
I4
sg184
F2.5026167353669635
sg185
g189
sbag1
(g171
g3
NtRp195
(dp196
g181
F0.94847835204507924
sg182
g192
sg175
I5
sg184
F7.3407662501577793
sg185
g189
sbag1
(g171
g3
NtRp197
(dp198
g181
F-0.06518213710278542
sg182
g192
sg175
I6
sg184
F3.1906884408560359
sg185
g189
sbag1
(g171
g3
NtRp199
(dp200
g181
F-3.677172225894191
sg182
g192
sg175
I7
sg184
F4.237034083398191
sg185
g189
sbag1
(g171
g3
NtRp201
(dp202
g181
F-2.1054000261949191
sg182
g192
sg175
I8
sg184
F6.477451188390587
sg185
g189
sbag1
(g171
g3
NtRp203
(dp204
g181
F0.11301481220937171
sg182
g192
sg175
I9
sg184
F2.7468934656628998
sg185
g189
sbag1
(g171
g3
NtRp205
(dp206
g181
F-0.46357254654645402
sg182
g192
sg175
I10
sg184
F1.2371650508797667
sg185
g189
sbag1
(g171
g3
NtRp207
(dp208
g181
F1.6175887031658709
sg182
g192
sg175
I11
sg184
F7.4275368209043346
sg185
g189
sbag1
(g171
g3
NtRp209
(dp210
g181
F-2.2853567507233206
sg182
g192
sg175
I12
sg184
F6.0971624844732828
sg185
g189
sbag1
(g171
g3
NtRp211
(dp212
g181
F1.2542738580494723
sg182
g192
sg175
I13
sg184
F3.5833215384207118
sg185
g189
sbag1
(g171
g3
NtRp213
(dp214
g181
F-0.3627121836948724
sg182
g192
sg175
I14
sg184
F6.3595563095623344
sg185
g189
sbag1
(g171
g3
NtRp215
(dp216
g181
F0.5026393718400568
sg182
g192
sg175
I15
sg184
F5.340407766720328
sg185
g189
sbag1
(g171
g3
NtRp217
(dp218
g181
F-0.38650384241462099
sg182
g192
sg175
I16
sg184
F5.1751146433315336
sg185
g189
sbag1
(g171
g3
NtRp219
(dp220
g181
F-0.67992916665899716
sg182
g192
sg175
I17
sg184
F4.8953427517219881
sg185
g189
sbag1
(g171
g3
NtRp221
(dp222
g181
I0
sg182
g192
sg175
I18
sg184
F5.4698578527133428
sg185
g189
sbasb.