ccopy_reg
_reconstructor
p1
(cneat.chromosome
Chromosome
p2
c__builtin__
object
p3
NtRp4
(dp5
S'species_id'
p6
I77
sS'_connection_genes'
p7
(dp8
(I1
I3
tp9
g1
(cneat.genome
ConnectionGene
p10
g3
NtRp11
(dp12
S'_ConnectionGene__weight'
p13
F30
sS'_ConnectionGene__in'
p14
I1
sS'_ConnectionGene__enabled'
p15
I00
sS'_ConnectionGene__out'
p16
I3
sS'_ConnectionGene__innov_number'
p17
I3
sbs(I6
I6
tp18
g1
(g10
g3
NtRp19
(dp20
g13
F21.539760472677248
sg14
I6
sg15
I01
sg16
I6
sg17
I39
sbs(I5
I6
tp21
g1
(g10
g3
NtRp22
(dp23
g13
F6.9266709861725833
sg14
I5
sg15
I01
sg16
I6
sg17
I16
sbs(I14
I4
tp24
g1
(g10
g3
NtRp25
(dp26
g13
F-14.203446722703223
sg14
I14
sg15
I01
sg16
I4
sg17
I159
sbs(I9
I8
tp27
g1
(g10
g3
NtRp28
(dp29
g13
F-17.334766782560742
sg14
I9
sg15
I01
sg16
I8
sg17
I60
sbs(I18
I4
tp30
g1
(g10
g3
NtRp31
(dp32
g13
F0.26450521955180234
sg14
I18
sg15
I01
sg16
I4
sg17
I238
sbs(I1
I15
tp33
g1
(g10
g3
NtRp34
(dp35
g13
F-4.43819995351922
sg14
I1
sg15
I01
sg16
I15
sg17
I168
sbs(I13
I17
tp36
g1
(g10
g3
NtRp37
(dp38
g13
F2.1409529354669621
sg14
I13
sg15
I01
sg16
I17
sg17
I183
sbs(I4
I12
tp39
g1
(g10
g3
NtRp40
(dp41
g13
F28.54780301664206
sg14
I4
sg15
I01
sg16
I12
sg17
I102
sbs(I9
I4
tp42
g1
(g10
g3
NtRp43
(dp44
g13
F2.8954485514234416
sg14
I9
sg15
I01
sg16
I4
sg17
I77
sbs(I7
I2
tp45
g1
(g10
g3
NtRp46
(dp47
g13
F-27.318609566112904
sg14
I7
sg15
I01
sg16
I2
sg17
I33
sbs(I16
I17
tp48
g1
(g10
g3
NtRp49
(dp50
g13
F-1.7547547671188028
sg14
I16
sg15
I01
sg16
I17
sg17
I247
sbs(I4
I9
tp51
g1
(g10
g3
NtRp52
(dp53
g13
F-15.691480157128817
sg14
I4
sg15
I01
sg16
I9
sg17
I44
sbs(I3
I3
tp54
g1
(g10
g3
NtRp55
(dp56
g13
F19.458065218305705
sg14
I3
sg15
I01
sg16
I3
sg17
I9
sbs(I4
I4
tp57
g1
(g10
g3
NtRp58
(dp59
g13
F21.688777937639031
sg14
I4
sg15
I00
sg16
I4
sg17
I15
sbs(I4
I13
tp60
g1
(g10
g3
NtRp61
(dp62
g13
F-8.0512729980100843
sg14
I4
sg15
I01
sg16
I13
sg17
I119
sbs(I1
I5
tp63
g1
(g10
g3
NtRp64
(dp65
g13
F24.375784476926871
sg14
I1
sg15
I01
sg16
I5
sg17
I10
sbs(I6
I5
tp66
g1
(g10
g3
NtRp67
(dp68
g13
F25.68982346639585
sg14
I6
sg15
I01
sg16
I5
sg17
I23
sbs(I3
I6
tp69
g1
(g10
g3
NtRp70
(dp71
g13
F-12.465645728386402
sg14
I3
sg15
I01
sg16
I6
sg17
I19
sbs(I2
I2
tp72
g1
(g10
g3
NtRp73
(dp74
g13
F19.203408695040029
sg14
I2
sg15
I01
sg16
I2
sg17
I2
sbs(I5
I7
tp75
g1
(g10
g3
NtRp76
(dp77
g13
F4.5959511315581709
sg14
I5
sg15
I01
sg16
I7
sg17
I28
sbs(I5
I3
tp78
g1
(g10
g3
NtRp79
(dp80
g13
F-8.3259833965411616
sg14
I5
sg15
I01
sg16
I3
sg17
I14
sbs(I11
I2
tp81
g1
(g10
g3
NtRp82
(dp83
g13
F17.881546179904788
sg14
I11
sg15
I01
sg16
I2
sg17
I74
sbs(I1
I2
tp84
g1
(g10
g3
NtRp85
(dp86
g13
F10.441519525229854
sg14
I1
sg15
I01
sg16
I2
sg17
I1
sbs(I3
I2
tp87
g1
(g10
g3
NtRp88
(dp89
g13
F-11.449117116488519
sg14
I3
sg15
I01
sg16
I2
sg17
I4
sbs(I17
I6
tp90
g1
(g10
g3
NtRp91
(dp92
g13
F28.247866922327979
sg14
I17
sg15
I01
sg16
I6
sg17
I188
sbs(I10
I4
tp93
g1
(g10
g3
NtRp94
(dp95
g13
F-25.79894411190886
sg14
I10
sg15
I01
sg16
I4
sg17
I90
sbs(I4
I10
tp96
g1
(g10
g3
NtRp97
(dp98
g13
F4.3423565535233877
sg14
I4
sg15
I01
sg16
I10
sg17
I63
sbs(I16
I4
tp99
g1
(g10
g3
NtRp100
(dp101
g13
F23.381863933517728
sg14
I16
sg15
I01
sg16
I4
sg17
I175
sbs(I4
I5
tp102
g1
(g10
g3
NtRp103
(dp104
g13
F-28.455779469222428
sg14
I4
sg15
I01
sg16
I5
sg17
I30
sbs(I15
I3
tp105
g1
(g10
g3
NtRp106
(dp107
g13
F8.1799720668262417
sg14
I15
sg15
I01
sg16
I3
sg17
I169
sbs(I5
I17
tp108
g1
(g10
g3
NtRp109
(dp110
g13
F-19.268332598655292
sg14
I5
sg15
I01
sg16
I17
sg17
I187
sbs(I1
I4
tp111
g1
(g10
g3
NtRp112
(dp113
g13
F5.1417718658391269
sg14
I1
sg15
I01
sg16
I4
sg17
I8
sbs(I2
I10
tp114
g1
(g10
g3
NtRp115
(dp116
g13
F-18.837145260429384
sg14
I2
sg15
I01
sg16
I10
sg17
I57
sbs(I12
I18
tp117
g1
(g10
g3
NtRp118
(dp119
g13
F-9.7434386689041279
sg14
I12
sg15
I01
sg16
I18
sg17
I189
sbs(I2
I3
tp120
g1
(g10
g3
NtRp121
(dp122
g13
F-4.088090407616213
sg14
I2
sg15
I01
sg16
I3
sg17
I7
sbs(I12
I11
tp123
g1
(g10
g3
NtRp124
(dp125
g13
F27.429015153733022
sg14
I12
sg15
I00
sg16
I11
sg17
I84
sbs(I4
I2
tp126
g1
(g10
g3
NtRp127
(dp128
g13
F15.900381530830224
sg14
I4
sg15
I01
sg16
I2
sg17
I6
sbs(I2
I14
tp129
g1
(g10
g3
NtRp130
(dp131
g13
F-12.184493792182034
sg14
I2
sg15
I01
sg16
I14
sg17
I142
sbs(I4
I11
tp132
g1
(g10
g3
NtRp133
(dp134
g13
F10.116980713158506
sg14
I4
sg15
I01
sg16
I11
sg17
I75
sbs(I7
I9
tp135
g1
(g10
g3
NtRp136
(dp137
g13
F3.8418463304773121
sg14
I7
sg15
I01
sg16
I9
sg17
I41
sbs(I3
I5
tp138
g1
(g10
g3
NtRp139
(dp140
g13
F11.036699252622604
sg14
I3
sg15
I01
sg16
I5
sg17
I13
sbs(I8
I3
tp141
g1
(g10
g3
NtRp142
(dp143
g13
F0.79311407058566519
sg14
I8
sg15
I01
sg16
I3
sg17
I71
sbs(I14
I16
tp144
g1
(g10
g3
NtRp145
(dp146
g13
F5.2608965257058466
sg14
I14
sg15
I01
sg16
I16
sg17
I174
sbs(I5
I2
tp147
g1
(g10
g3
NtRp148
(dp149
g13
F30
sg14
I5
sg15
I01
sg16
I2
sg17
I11
sbs(I7
I13
tp150
g1
(g10
g3
NtRp151
(dp152
g13
F2.0020387593963553
sg14
I7
sg15
I01
sg16
I13
sg17
I136
sbs(I3
I8
tp153
g1
(g10
g3
NtRp154
(dp155
g13
F18.817429458891361
sg14
I3
sg15
I01
sg16
I8
sg17
I49
sbs(I6
I2
tp156
g1
(g10
g3
NtRp157
(dp158
g13
F5.5322753939114939
sg14
I6
sg15
I01
sg16
I2
sg17
I17
sbs(I18
I11
tp159
g1
(g10
g3
NtRp160
(dp161
g13
F-6.5658165098142263
sg14
I18
sg15
I01
sg16
I11
sg17
I190
sbs(I4
I3
tp162
g1
(g10
g3
NtRp163
(dp164
g13
F-13.695316583575368
sg14
I4
sg15
I01
sg16
I3
sg17
I12
sbs(I13
I9
tp165
g1
(g10
g3
NtRp166
(dp167
g13
F5.6770148186270877
sg14
I13
sg15
I01
sg16
I9
sg17
I137
sbs(I3
I4
tp168
g1
(g10
g3
NtRp169
(dp170
g13
F-27.389726506634339
sg14
I3
sg15
I01
sg16
I4
sg17
I5
sbs(I2
I4
tp171
g1
(g10
g3
NtRp172
(dp173
g13
F0.36482869383667393
sg14
I2
sg15
I00
sg16
I4
sg17
I24
sbs(I8
I4
tp174
g1
(g10
g3
NtRp175
(dp176
g13
F-29.160229650782743
sg14
I8
sg15
I01
sg16
I4
sg17
I40
sbssS'_input_nodes'
p177
I1
sS'_output_nodes'
p178
I1
sS'_node_gene_type'
p179
cneat.genome
NodeGene
p180
sS'_conn_gene_type'
p181
g10
sS'fitness'
p182
F0.93798623750956978
sS'parent2_id'
p183
I8108
sS'_id'
p184
I8124
sS'parent1_id'
p185
I8108
sS'_node_genes'
p186
(lp187
g1
(g180
g3
NtRp188
(dp189
S'_bias'
p190
I0
sS'_type'
p191
S'INPUT'
p192
sg184
I1
sS'_response'
p193
F4.9242730000000003
sS'_activation_type'
p194
Nsbag1
(g180
g3
NtRp195
(dp196
g190
F-4.7990256236334385
sg191
S'OUTPUT'
p197
sg184
I2
sg193
F7.0498193940805347
sg194
S'tanh'
p198
sbag1
(g180
g3
NtRp199
(dp200
g190
F-7.8246938805608135
sg191
S'HIDDEN'
p201
sg184
I3
sg193
F0.30282000075516441
sg194
g198
sbag1
(g180
g3
NtRp202
(dp203
g190
F-3.4106729711537365
sg191
g201
sg184
I4
sg193
F2.2866241771406117
sg194
g198
sbag1
(g180
g3
NtRp204
(dp205
g190
F0.18671687599559061
sg191
g201
sg184
I5
sg193
F4.8714200891635642
sg194
g198
sbag1
(g180
g3
NtRp206
(dp207
g190
F-0.5232880239387997
sg191
g201
sg184
I6
sg193
F0.48129616443153411
sg194
g198
sbag1
(g180
g3
NtRp208
(dp209
g190
F-0.97854120796813393
sg191
g201
sg184
I7
sg193
F2.5714761484836335
sg194
g198
sbag1
(g180
g3
NtRp210
(dp211
g190
F-3.5209733777558401
sg191
g201
sg184
I8
sg193
F4.3273968808235432
sg194
g198
sbag1
(g180
g3
NtRp212
(dp213
g190
F-0.1987685864686487
sg191
g201
sg184
I9
sg193
F2.5261257941768989
sg194
g198
sbag1
(g180
g3
NtRp214
(dp215
g190
F-4.1117200953067652
sg191
g201
sg184
I10
sg193
F0.15253067056120884
sg194
g198
sbag1
(g180
g3
NtRp216
(dp217
g190
F-0.15637995599001775
sg191
g201
sg184
I11
sg193
F9.627946925612946
sg194
g198
sbag1
(g180
g3
NtRp218
(dp219
g190
F-0.90258731009029813
sg191
g201
sg184
I12
sg193
F7.2260971397153906
sg194
g198
sbag1
(g180
g3
NtRp220
(dp221
g190
F1.805948056173575
sg191
g201
sg184
I13
sg193
F2.1596376495049352
sg194
g198
sbag1
(g180
g3
NtRp222
(dp223
g190
F1.3948408028100734
sg191
g201
sg184
I14
sg193
F3.3934862643236663
sg194
g198
sbag1
(g180
g3
NtRp224
(dp225
g190
F0.68897271898718226
sg191
g201
sg184
I15
sg193
F6.8207191714929447
sg194
g198
sbag1
(g180
g3
NtRp226
(dp227
g190
F2.2526137214404049
sg191
g201
sg184
I16
sg193
F4.1994100553055063
sg194
g198
sbag1
(g180
g3
NtRp228
(dp229
g190
F-4.7646421704259829
sg191
g201
sg184
I17
sg193
F7.07562534328809
sg194
g198
sbag1
(g180
g3
NtRp230
(dp231
g190
F-0.16835973932503101
sg191
g201
sg184
I18
sg193
F8.8628326466087053
sg194
g198
sbasb.