ccopy_reg
_reconstructor
p1
(cneat.chromosome
Chromosome
p2
c__builtin__
object
p3
NtRp4
(dp5
S'species_id'
p6
I66
sS'_connection_genes'
p7
(dp8
(I1
I3
tp9
g1
(cneat.genome
ConnectionGene
p10
g3
NtRp11
(dp12
S'_ConnectionGene__weight'
p13
F21.340293010621654
sS'_ConnectionGene__in'
p14
I1
sS'_ConnectionGene__enabled'
p15
I00
sS'_ConnectionGene__out'
p16
I3
sS'_ConnectionGene__innov_number'
p17
I3
sbs(I6
I6
tp18
g1
(g10
g3
NtRp19
(dp20
g13
F8.8092845408997462
sg14
I6
sg15
I01
sg16
I6
sg17
I39
sbs(I5
I6
tp21
g1
(g10
g3
NtRp22
(dp23
g13
F3.2243483552201377
sg14
I5
sg15
I00
sg16
I6
sg17
I16
sbs(I14
I4
tp24
g1
(g10
g3
NtRp25
(dp26
g13
F-9.883055772160418
sg14
I14
sg15
I00
sg16
I4
sg17
I159
sbs(I9
I8
tp27
g1
(g10
g3
NtRp28
(dp29
g13
F-22.550866983201043
sg14
I9
sg15
I01
sg16
I8
sg17
I60
sbs(I1
I15
tp30
g1
(g10
g3
NtRp31
(dp32
g13
F-1.0207106610363019
sg14
I1
sg15
I01
sg16
I15
sg17
I168
sbs(I4
I12
tp33
g1
(g10
g3
NtRp34
(dp35
g13
F15.56916642149865
sg14
I4
sg15
I01
sg16
I12
sg17
I102
sbs(I9
I4
tp36
g1
(g10
g3
NtRp37
(dp38
g13
F24.439882667296594
sg14
I9
sg15
I01
sg16
I4
sg17
I77
sbs(I7
I2
tp39
g1
(g10
g3
NtRp40
(dp41
g13
F-8.9260656926533812
sg14
I7
sg15
I01
sg16
I2
sg17
I33
sbs(I1
I2
tp42
g1
(g10
g3
NtRp43
(dp44
g13
F17.479292298991389
sg14
I1
sg15
I01
sg16
I2
sg17
I1
sbs(I4
I9
tp45
g1
(g10
g3
NtRp46
(dp47
g13
F3.0381451629010972
sg14
I4
sg15
I01
sg16
I9
sg17
I44
sbs(I3
I3
tp48
g1
(g10
g3
NtRp49
(dp50
g13
F30
sg14
I3
sg15
I01
sg16
I3
sg17
I9
sbs(I4
I4
tp51
g1
(g10
g3
NtRp52
(dp53
g13
F2.759226378950741
sg14
I4
sg15
I00
sg16
I4
sg17
I15
sbs(I4
I13
tp54
g1
(g10
g3
NtRp55
(dp56
g13
F-10.50454973779947
sg14
I4
sg15
I01
sg16
I13
sg17
I119
sbs(I1
I5
tp57
g1
(g10
g3
NtRp58
(dp59
g13
F23.510653818899094
sg14
I1
sg15
I01
sg16
I5
sg17
I10
sbs(I6
I5
tp60
g1
(g10
g3
NtRp61
(dp62
g13
F22.504863973679736
sg14
I6
sg15
I01
sg16
I5
sg17
I23
sbs(I3
I6
tp63
g1
(g10
g3
NtRp64
(dp65
g13
F-21.100585990599157
sg14
I3
sg15
I01
sg16
I6
sg17
I19
sbs(I2
I2
tp66
g1
(g10
g3
NtRp67
(dp68
g13
F26.357718599264388
sg14
I2
sg15
I01
sg16
I2
sg17
I2
sbs(I5
I7
tp69
g1
(g10
g3
NtRp70
(dp71
g13
F2.1464000238973129
sg14
I5
sg15
I01
sg16
I7
sg17
I28
sbs(I5
I3
tp72
g1
(g10
g3
NtRp73
(dp74
g13
F-11.066333029349348
sg14
I5
sg15
I01
sg16
I3
sg17
I14
sbs(I11
I2
tp75
g1
(g10
g3
NtRp76
(dp77
g13
F28.840870276854076
sg14
I11
sg15
I01
sg16
I2
sg17
I74
sbs(I4
I10
tp78
g1
(g10
g3
NtRp79
(dp80
g13
F0.85928566228154146
sg14
I4
sg15
I01
sg16
I10
sg17
I63
sbs(I3
I2
tp81
g1
(g10
g3
NtRp82
(dp83
g13
F2.5731841908199322
sg14
I3
sg15
I01
sg16
I2
sg17
I4
sbs(I17
I6
tp84
g1
(g10
g3
NtRp85
(dp86
g13
F1.9327265622056335
sg14
I17
sg15
I01
sg16
I6
sg17
I188
sbs(I10
I4
tp87
g1
(g10
g3
NtRp88
(dp89
g13
F-25.934623817375662
sg14
I10
sg15
I01
sg16
I4
sg17
I90
sbs(I16
I4
tp90
g1
(g10
g3
NtRp91
(dp92
g13
F-7.1880243949528237
sg14
I16
sg15
I01
sg16
I4
sg17
I175
sbs(I4
I5
tp93
g1
(g10
g3
NtRp94
(dp95
g13
F-26.151286802710462
sg14
I4
sg15
I01
sg16
I5
sg17
I30
sbs(I15
I3
tp96
g1
(g10
g3
NtRp97
(dp98
g13
F17.159372299471002
sg14
I15
sg15
I01
sg16
I3
sg17
I169
sbs(I5
I17
tp99
g1
(g10
g3
NtRp100
(dp101
g13
F-5.1192663187712473
sg14
I5
sg15
I01
sg16
I17
sg17
I187
sbs(I1
I4
tp102
g1
(g10
g3
NtRp103
(dp104
g13
F17.862076836403368
sg14
I1
sg15
I01
sg16
I4
sg17
I8
sbs(I2
I10
tp105
g1
(g10
g3
NtRp106
(dp107
g13
F-28.08682713218781
sg14
I2
sg15
I01
sg16
I10
sg17
I57
sbs(I12
I18
tp108
g1
(g10
g3
NtRp109
(dp110
g13
F-11.060408425715758
sg14
I12
sg15
I01
sg16
I18
sg17
I189
sbs(I2
I3
tp111
g1
(g10
g3
NtRp112
(dp113
g13
F-12.9325073664671
sg14
I2
sg15
I01
sg16
I3
sg17
I7
sbs(I12
I11
tp114
g1
(g10
g3
NtRp115
(dp116
g13
F10.572620456294267
sg14
I12
sg15
I00
sg16
I11
sg17
I84
sbs(I4
I2
tp117
g1
(g10
g3
NtRp118
(dp119
g13
F10.058411955715666
sg14
I4
sg15
I01
sg16
I2
sg17
I6
sbs(I2
I14
tp120
g1
(g10
g3
NtRp121
(dp122
g13
F-7.8979270493859568
sg14
I2
sg15
I01
sg16
I14
sg17
I142
sbs(I4
I11
tp123
g1
(g10
g3
NtRp124
(dp125
g13
F14.195930151685518
sg14
I4
sg15
I00
sg16
I11
sg17
I75
sbs(I7
I9
tp126
g1
(g10
g3
NtRp127
(dp128
g13
F5.6089013381270831
sg14
I7
sg15
I01
sg16
I9
sg17
I41
sbs(I3
I5
tp129
g1
(g10
g3
NtRp130
(dp131
g13
F25.033281455934059
sg14
I3
sg15
I01
sg16
I5
sg17
I13
sbs(I8
I3
tp132
g1
(g10
g3
NtRp133
(dp134
g13
F9.0508636206239164
sg14
I8
sg15
I01
sg16
I3
sg17
I71
sbs(I14
I16
tp135
g1
(g10
g3
NtRp136
(dp137
g13
F-0.51516775993716812
sg14
I14
sg15
I01
sg16
I16
sg17
I174
sbs(I18
I11
tp138
g1
(g10
g3
NtRp139
(dp140
g13
F8.8959355543386565
sg14
I18
sg15
I01
sg16
I11
sg17
I190
sbs(I7
I13
tp141
g1
(g10
g3
NtRp142
(dp143
g13
F-6.909104289612233
sg14
I7
sg15
I01
sg16
I13
sg17
I136
sbs(I5
I2
tp144
g1
(g10
g3
NtRp145
(dp146
g13
F30
sg14
I5
sg15
I01
sg16
I2
sg17
I11
sbs(I3
I8
tp147
g1
(g10
g3
NtRp148
(dp149
g13
F7.2423980676692654
sg14
I3
sg15
I01
sg16
I8
sg17
I49
sbs(I6
I2
tp150
g1
(g10
g3
NtRp151
(dp152
g13
F4.8508437020519253
sg14
I6
sg15
I01
sg16
I2
sg17
I17
sbs(I4
I3
tp153
g1
(g10
g3
NtRp154
(dp155
g13
F-9.271302264569897
sg14
I4
sg15
I01
sg16
I3
sg17
I12
sbs(I13
I9
tp156
g1
(g10
g3
NtRp157
(dp158
g13
F-6.2473596165761016
sg14
I13
sg15
I01
sg16
I9
sg17
I137
sbs(I3
I4
tp159
g1
(g10
g3
NtRp160
(dp161
g13
F-24.543196068717158
sg14
I3
sg15
I00
sg16
I4
sg17
I5
sbs(I2
I4
tp162
g1
(g10
g3
NtRp163
(dp164
g13
F-22.38384811107445
sg14
I2
sg15
I00
sg16
I4
sg17
I24
sbs(I8
I4
tp165
g1
(g10
g3
NtRp166
(dp167
g13
F-14.45818154310504
sg14
I8
sg15
I01
sg16
I4
sg17
I40
sbssS'_input_nodes'
p168
I1
sS'_output_nodes'
p169
I1
sS'_node_gene_type'
p170
cneat.genome
NodeGene
p171
sS'_conn_gene_type'
p172
g10
sS'fitness'
p173
F0.9227527331479416
sS'parent2_id'
p174
I6632
sS'_id'
p175
I6651
sS'parent1_id'
p176
I6632
sS'_node_genes'
p177
(lp178
g1
(g171
g3
NtRp179
(dp180
S'_bias'
p181
I0
sS'_type'
p182
S'INPUT'
p183
sg175
I1
sS'_response'
p184
F4.9242730000000003
sS'_activation_type'
p185
Nsbag1
(g171
g3
NtRp186
(dp187
g181
F-0.5088849670641038
sg182
S'OUTPUT'
p188
sg175
I2
sg184
F6.5215080603271085
sg185
S'tanh'
p189
sbag1
(g171
g3
NtRp190
(dp191
g181
F-5.4339256611815596
sg182
S'HIDDEN'
p192
sg175
I3
sg184
F-0.43267321398712166
sg185
g189
sbag1
(g171
g3
NtRp193
(dp194
g181
F-3.2471262280071742
sg182
g192
sg175
I4
sg184
F3.8701196715126072
sg185
g189
sbag1
(g171
g3
NtRp195
(dp196
g181
F0.94847835204507924
sg182
g192
sg175
I5
sg184
F7.3514353223219313
sg185
g189
sbag1
(g171
g3
NtRp197
(dp198
g181
F-0.8220384815845253
sg182
g192
sg175
I6
sg184
F1.2898499747141035
sg185
g189
sbag1
(g171
g3
NtRp199
(dp200
g181
F-2.3279157272221935
sg182
g192
sg175
I7
sg184
F3.9594566129182707
sg185
g189
sbag1
(g171
g3
NtRp201
(dp202
g181
F-1.9761830545295185
sg182
g192
sg175
I8
sg184
F6.1195987357246668
sg185
g189
sbag1
(g171
g3
NtRp203
(dp204
g181
F0.11301481220937171
sg182
g192
sg175
I9
sg184
F3.4782412613450338
sg185
g189
sbag1
(g171
g3
NtRp205
(dp206
g181
F-0.8410188374492481
sg182
g192
sg175
I10
sg184
F0.5257637574667906
sg185
g189
sbag1
(g171
g3
NtRp207
(dp208
g181
F0.8960189488335274
sg182
g192
sg175
I11
sg184
F6.9044985353521424
sg185
g189
sbag1
(g171
g3
NtRp209
(dp210
g181
F-1.0937257901781141
sg182
g192
sg175
I12
sg184
F5.9257716488548136
sg185
g189
sbag1
(g171
g3
NtRp211
(dp212
g181
F1.025623493701284
sg182
g192
sg175
I13
sg184
F2.9141845481225532
sg185
g189
sbag1
(g171
g3
NtRp213
(dp214
g181
F-0.68595595495705564
sg182
g192
sg175
I14
sg184
F6.5279713523538323
sg185
g189
sbag1
(g171
g3
NtRp215
(dp216
g181
F0.4161626459601489
sg182
g192
sg175
I15
sg184
F5.340407766720328
sg185
g189
sbag1
(g171
g3
NtRp217
(dp218
g181
F-0.65307652383395332
sg182
g192
sg175
I16
sg184
F4.7775344662880643
sg185
g189
sbag1
(g171
g3
NtRp219
(dp220
g181
F-1.4518767320938755
sg182
g192
sg175
I17
sg184
F5.0023107568993801
sg185
g189
sbag1
(g171
g3
NtRp221
(dp222
g181
I0
sg182
g192
sg175
I18
sg184
F5.5005500525715343
sg185
g189
sbasb.