ccopy_reg
_reconstructor
p1
(cneat.chromosome
Chromosome
p2
c__builtin__
object
p3
NtRp4
(dp5
S'species_id'
p6
I32
sS'_connection_genes'
p7
(dp8
(I7
I3
tp9
g1
(cneat.genome
ConnectionGene
p10
g3
NtRp11
(dp12
S'_ConnectionGene__weight'
p13
F12.490347872076731
sS'_ConnectionGene__in'
p14
I7
sS'_ConnectionGene__enabled'
p15
I01
sS'_ConnectionGene__out'
p16
I3
sS'_ConnectionGene__innov_number'
p17
I29
sbs(I1
I3
tp18
g1
(g10
g3
NtRp19
(dp20
g13
F-7.5087091622797129
sg14
I1
sg15
I01
sg16
I3
sg17
I3
sbs(I4
I8
tp21
g1
(g10
g3
NtRp22
(dp23
g13
F-8.9893659879127732
sg14
I4
sg15
I01
sg16
I8
sg17
I35
sbs(I5
I6
tp24
g1
(g10
g3
NtRp25
(dp26
g13
F-14.644582706598955
sg14
I5
sg15
I01
sg16
I6
sg17
I16
sbs(I3
I11
tp27
g1
(g10
g3
NtRp28
(dp29
g13
F-4.7146313232390806
sg14
I3
sg15
I01
sg16
I11
sg17
I91
sbs(I6
I2
tp30
g1
(g10
g3
NtRp31
(dp32
g13
F-23.394892776532966
sg14
I6
sg15
I01
sg16
I2
sg17
I17
sbs(I8
I5
tp33
g1
(g10
g3
NtRp34
(dp35
g13
F7.2312078055826534
sg14
I8
sg15
I00
sg16
I5
sg17
I36
sbs(I1
I2
tp36
g1
(g10
g3
NtRp37
(dp38
g13
F-2.8587217027701173
sg14
I1
sg15
I01
sg16
I2
sg17
I1
sbs(I2
I9
tp39
g1
(g10
g3
NtRp40
(dp41
g13
F5.4467589959674445
sg14
I2
sg15
I01
sg16
I9
sg17
I51
sbs(I11
I5
tp42
g1
(g10
g3
NtRp43
(dp44
g13
F-0.9733607515616336
sg14
I11
sg15
I01
sg16
I5
sg17
I81
sbs(I2
I2
tp45
g1
(g10
g3
NtRp46
(dp47
g13
F-3.3544572785797708
sg14
I2
sg15
I01
sg16
I2
sg17
I2
sbs(I3
I2
tp48
g1
(g10
g3
NtRp49
(dp50
g13
F-13.763216731030415
sg14
I3
sg15
I01
sg16
I2
sg17
I4
sbs(I4
I5
tp51
g1
(g10
g3
NtRp52
(dp53
g13
F-10.381611739731721
sg14
I4
sg15
I01
sg16
I5
sg17
I30
sbs(I8
I11
tp54
g1
(g10
g3
NtRp55
(dp56
g13
F21.92523963052242
sg14
I8
sg15
I01
sg16
I11
sg17
I80
sbs(I9
I3
tp57
g1
(g10
g3
NtRp58
(dp59
g13
F22.617861655803523
sg14
I9
sg15
I01
sg16
I3
sg17
I42
sbs(I1
I4
tp60
g1
(g10
g3
NtRp61
(dp62
g13
F11.511892222428386
sg14
I1
sg15
I01
sg16
I4
sg17
I8
sbs(I7
I7
tp63
g1
(g10
g3
NtRp64
(dp65
g13
F13.743028450555236
sg14
I7
sg15
I01
sg16
I7
sg17
I47
sbs(I2
I3
tp66
g1
(g10
g3
NtRp67
(dp68
g13
F16.248563818535935
sg14
I2
sg15
I01
sg16
I3
sg17
I7
sbs(I4
I2
tp69
g1
(g10
g3
NtRp70
(dp71
g13
F-8.1143666876438303
sg14
I4
sg15
I01
sg16
I2
sg17
I6
sbs(I2
I10
tp72
g1
(g10
g3
NtRp73
(dp74
g13
F1.5184329409939736
sg14
I2
sg15
I01
sg16
I10
sg17
I57
sbs(I3
I5
tp75
g1
(g10
g3
NtRp76
(dp77
g13
F9.3562119525084846
sg14
I3
sg15
I01
sg16
I5
sg17
I13
sbs(I2
I7
tp78
g1
(g10
g3
NtRp79
(dp80
g13
F14.916701384015276
sg14
I2
sg15
I01
sg16
I7
sg17
I34
sbs(I8
I3
tp81
g1
(g10
g3
NtRp82
(dp83
g13
F-8.4809229467857836
sg14
I8
sg15
I01
sg16
I3
sg17
I71
sbs(I10
I10
tp84
g1
(g10
g3
NtRp85
(dp86
g13
F-8.4442114723190063
sg14
I10
sg15
I01
sg16
I10
sg17
I72
sbs(I3
I4
tp87
g1
(g10
g3
NtRp88
(dp89
g13
F10.109482154261919
sg14
I3
sg15
I01
sg16
I4
sg17
I5
sbs(I5
I2
tp90
g1
(g10
g3
NtRp91
(dp92
g13
F14.956315394851185
sg14
I5
sg15
I00
sg16
I2
sg17
I11
sbs(I10
I2
tp93
g1
(g10
g3
NtRp94
(dp95
g13
F8.2050692942467673
sg14
I10
sg15
I01
sg16
I2
sg17
I65
sbssS'_input_nodes'
p96
I1
sS'_output_nodes'
p97
I1
sS'_node_gene_type'
p98
cneat.genome
NodeGene
p99
sS'_conn_gene_type'
p100
g10
sS'fitness'
p101
F0.98955344865061212
sS'parent2_id'
p102
I2670
sS'_id'
p103
I2687
sS'parent1_id'
p104
I2670
sS'_node_genes'
p105
(lp106
g1
(g99
g3
NtRp107
(dp108
S'_bias'
p109
I0
sS'_type'
p110
S'INPUT'
p111
sg103
I1
sS'_response'
p112
F4.9242730000000003
sS'_activation_type'
p113
Nsbag1
(g99
g3
NtRp114
(dp115
g109
F-2.6655658381468479
sg110
S'OUTPUT'
p116
sg103
I2
sg112
F6.4324447273278453
sg113
S'tanh'
p117
sbag1
(g99
g3
NtRp118
(dp119
g109
F1.6876748275943838
sg110
S'HIDDEN'
p120
sg103
I3
sg112
F1.2066513378779939
sg113
g117
sbag1
(g99
g3
NtRp121
(dp122
g109
F-1.2778910927570419
sg110
g120
sg103
I4
sg112
F7.9088096509910688
sg113
g117
sbag1
(g99
g3
NtRp123
(dp124
g109
F-0.31101621021025383
sg110
g120
sg103
I5
sg112
F5.7103930193529839
sg113
g117
sbag1
(g99
g3
NtRp125
(dp126
g109
F-1.0526996024308488
sg110
g120
sg103
I6
sg112
F2.6201779299705343
sg113
g117
sbag1
(g99
g3
NtRp127
(dp128
g109
F1.6954412715238596
sg110
g120
sg103
I7
sg112
F2.8853445288718502
sg113
g117
sbag1
(g99
g3
NtRp129
(dp130
g109
F-0.37483650898340581
sg110
g120
sg103
I8
sg112
F6.5454400377083912
sg113
g117
sbag1
(g99
g3
NtRp131
(dp132
g109
F-1.8012684923962281
sg110
g120
sg103
I9
sg112
F6.1301497643602998
sg113
g117
sbag1
(g99
g3
NtRp133
(dp134
g109
F-0.74668632742568042
sg110
g120
sg103
I10
sg112
F4.8170689305762409
sg113
g117
sbag1
(g99
g3
NtRp135
(dp136
g109
F1.3408409292010135
sg110
g120
sg103
I11
sg112
F5.8481767833937033
sg113
g117
sbasb.