ccopy_reg
_reconstructor
p1
(cneat.chromosome
Chromosome
p2
c__builtin__
object
p3
NtRp4
(dp5
S'species_id'
p6
I42
sS'_connection_genes'
p7
(dp8
(I1
I3
tp9
g1
(cneat.genome
ConnectionGene
p10
g3
NtRp11
(dp12
S'_ConnectionGene__weight'
p13
F28.672015460287465
sS'_ConnectionGene__in'
p14
I1
sS'_ConnectionGene__enabled'
p15
I01
sS'_ConnectionGene__out'
p16
I3
sS'_ConnectionGene__innov_number'
p17
I3
sbs(I6
I6
tp18
g1
(g10
g3
NtRp19
(dp20
g13
F5.625975859618209
sg14
I6
sg15
I00
sg16
I6
sg17
I39
sbs(I5
I6
tp21
g1
(g10
g3
NtRp22
(dp23
g13
F-15.545627317873112
sg14
I5
sg15
I01
sg16
I6
sg17
I16
sbs(I9
I8
tp24
g1
(g10
g3
NtRp25
(dp26
g13
F-2.7998327669179321
sg14
I9
sg15
I01
sg16
I8
sg17
I60
sbs(I10
I6
tp27
g1
(g10
g3
NtRp28
(dp29
g13
F19.335415001674065
sg14
I10
sg15
I01
sg16
I6
sg17
I103
sbs(I3
I2
tp30
g1
(g10
g3
NtRp31
(dp32
g13
F2.3539288186995888
sg14
I3
sg15
I01
sg16
I2
sg17
I4
sbs(I9
I4
tp33
g1
(g10
g3
NtRp34
(dp35
g13
F15.11568229417975
sg14
I9
sg15
I01
sg16
I4
sg17
I77
sbs(I7
I2
tp36
g1
(g10
g3
NtRp37
(dp38
g13
F-6.4092190031112768
sg14
I7
sg15
I01
sg16
I2
sg17
I33
sbs(I1
I2
tp39
g1
(g10
g3
NtRp40
(dp41
g13
F16.24534605268704
sg14
I1
sg15
I01
sg16
I2
sg17
I1
sbs(I4
I9
tp42
g1
(g10
g3
NtRp43
(dp44
g13
F-6.474708490217628
sg14
I4
sg15
I01
sg16
I9
sg17
I44
sbs(I3
I3
tp45
g1
(g10
g3
NtRp46
(dp47
g13
F11.360437036445372
sg14
I3
sg15
I01
sg16
I3
sg17
I9
sbs(I6
I10
tp48
g1
(g10
g3
NtRp49
(dp50
g13
F-0.77933958435931494
sg14
I6
sg15
I01
sg16
I10
sg17
I67
sbs(I4
I4
tp51
g1
(g10
g3
NtRp52
(dp53
g13
F13.180190824856933
sg14
I4
sg15
I00
sg16
I4
sg17
I15
sbs(I1
I5
tp54
g1
(g10
g3
NtRp55
(dp56
g13
F-5.0185945039255744
sg14
I1
sg15
I01
sg16
I5
sg17
I10
sbs(I3
I6
tp57
g1
(g10
g3
NtRp58
(dp59
g13
F0.57580670419120139
sg14
I3
sg15
I01
sg16
I6
sg17
I19
sbs(I2
I2
tp60
g1
(g10
g3
NtRp61
(dp62
g13
F8.8831451686611853
sg14
I2
sg15
I01
sg16
I2
sg17
I2
sbs(I5
I3
tp63
g1
(g10
g3
NtRp64
(dp65
g13
F-0.88593071884099595
sg14
I5
sg15
I01
sg16
I3
sg17
I14
sbs(I5
I4
tp66
g1
(g10
g3
NtRp67
(dp68
g13
F3.2752935182849687
sg14
I5
sg15
I01
sg16
I4
sg17
I18
sbs(I4
I5
tp69
g1
(g10
g3
NtRp70
(dp71
g13
F-7.8121057108850813
sg14
I4
sg15
I01
sg16
I5
sg17
I30
sbs(I1
I4
tp72
g1
(g10
g3
NtRp73
(dp74
g13
F14.64881656717996
sg14
I1
sg15
I01
sg16
I4
sg17
I8
sbs(I7
I5
tp75
g1
(g10
g3
NtRp76
(dp77
g13
F-1.0409980477062604
sg14
I7
sg15
I01
sg16
I5
sg17
I68
sbs(I2
I3
tp78
g1
(g10
g3
NtRp79
(dp80
g13
F-17.33064627387812
sg14
I2
sg15
I01
sg16
I3
sg17
I7
sbs(I4
I2
tp81
g1
(g10
g3
NtRp82
(dp83
g13
F12.580557166855566
sg14
I4
sg15
I01
sg16
I2
sg17
I6
sbs(I6
I5
tp84
g1
(g10
g3
NtRp85
(dp86
g13
F1.9080212683658573
sg14
I6
sg15
I01
sg16
I5
sg17
I23
sbs(I7
I9
tp87
g1
(g10
g3
NtRp88
(dp89
g13
F5.0629109999037913
sg14
I7
sg15
I01
sg16
I9
sg17
I41
sbs(I3
I5
tp90
g1
(g10
g3
NtRp91
(dp92
g13
F5.3366709851510361
sg14
I3
sg15
I01
sg16
I5
sg17
I13
sbs(I8
I3
tp93
g1
(g10
g3
NtRp94
(dp95
g13
F16.964344436357894
sg14
I8
sg15
I01
sg16
I3
sg17
I71
sbs(I5
I2
tp96
g1
(g10
g3
NtRp97
(dp98
g13
F30
sg14
I5
sg15
I01
sg16
I2
sg17
I11
sbs(I5
I7
tp99
g1
(g10
g3
NtRp100
(dp101
g13
F20.270661400399646
sg14
I5
sg15
I01
sg16
I7
sg17
I28
sbs(I3
I8
tp102
g1
(g10
g3
NtRp103
(dp104
g13
F19.292033201201164
sg14
I3
sg15
I01
sg16
I8
sg17
I49
sbs(I4
I3
tp105
g1
(g10
g3
NtRp106
(dp107
g13
F-17.216065320744914
sg14
I4
sg15
I01
sg16
I3
sg17
I12
sbs(I3
I4
tp108
g1
(g10
g3
NtRp109
(dp110
g13
F-2.9481610528107933
sg14
I3
sg15
I00
sg16
I4
sg17
I5
sbs(I2
I4
tp111
g1
(g10
g3
NtRp112
(dp113
g13
F-4.9686698082915628
sg14
I2
sg15
I01
sg16
I4
sg17
I24
sbs(I8
I4
tp114
g1
(g10
g3
NtRp115
(dp116
g13
F-9.2378579304613258
sg14
I8
sg15
I01
sg16
I4
sg17
I40
sbssS'_input_nodes'
p117
I1
sS'_output_nodes'
p118
I1
sS'_node_gene_type'
p119
cneat.genome
NodeGene
p120
sS'_conn_gene_type'
p121
g10
sS'fitness'
p122
F0.95649376126651209
sS'parent2_id'
p123
I4972
sS'_id'
p124
I4990
sS'parent1_id'
p125
I4972
sS'_node_genes'
p126
(lp127
g1
(g120
g3
NtRp128
(dp129
S'_bias'
p130
I0
sS'_type'
p131
S'INPUT'
p132
sg124
I1
sS'_response'
p133
F4.9242730000000003
sS'_activation_type'
p134
Nsbag1
(g120
g3
NtRp135
(dp136
g130
F-0.9305053606859599
sg131
S'OUTPUT'
p137
sg124
I2
sg133
F4.0035572871904961
sg134
S'tanh'
p138
sbag1
(g120
g3
NtRp139
(dp140
g130
F-4.179151646636913
sg131
S'HIDDEN'
p141
sg124
I3
sg133
F0.57648855088968565
sg134
g138
sbag1
(g120
g3
NtRp142
(dp143
g130
F-1.4274711938334814
sg131
g141
sg124
I4
sg133
F6.3538984903862081
sg134
g138
sbag1
(g120
g3
NtRp144
(dp145
g130
F3.5992159886537287
sg131
g141
sg124
I5
sg133
F4.6397216676582316
sg134
g138
sbag1
(g120
g3
NtRp146
(dp147
g130
F-3.0093519665251853
sg131
g141
sg124
I6
sg133
F1.1576000971406153
sg134
g138
sbag1
(g120
g3
NtRp148
(dp149
g130
F-0.75279626953115319
sg131
g141
sg124
I7
sg133
F6.1927711602098157
sg134
g138
sbag1
(g120
g3
NtRp150
(dp151
g130
F0.13567587803669207
sg131
g141
sg124
I8
sg133
F7.6217221647851696
sg134
g138
sbag1
(g120
g3
NtRp152
(dp153
g130
F0.3355028192562059
sg131
g141
sg124
I9
sg133
F5.8722812242883551
sg134
g138
sbag1
(g120
g3
NtRp154
(dp155
g130
F-0.55778222753661733
sg131
g141
sg124
I10
sg133
F4.9242730000000003
sg134
g138
sbasb.