ccopy_reg
_reconstructor
p1
(cneat.chromosome
Chromosome
p2
c__builtin__
object
p3
NtRp4
(dp5
S'species_id'
p6
I77
sS'_connection_genes'
p7
(dp8
(I1
I3
tp9
g1
(cneat.genome
ConnectionGene
p10
g3
NtRp11
(dp12
S'_ConnectionGene__weight'
p13
F30
sS'_ConnectionGene__in'
p14
I1
sS'_ConnectionGene__enabled'
p15
I00
sS'_ConnectionGene__out'
p16
I3
sS'_ConnectionGene__innov_number'
p17
I3
sbs(I6
I6
tp18
g1
(g10
g3
NtRp19
(dp20
g13
F17.720532593444158
sg14
I6
sg15
I01
sg16
I6
sg17
I39
sbs(I5
I6
tp21
g1
(g10
g3
NtRp22
(dp23
g13
F5.6867853309358924
sg14
I5
sg15
I01
sg16
I6
sg17
I16
sbs(I14
I4
tp24
g1
(g10
g3
NtRp25
(dp26
g13
F-12.009972488501246
sg14
I14
sg15
I01
sg16
I4
sg17
I159
sbs(I9
I8
tp27
g1
(g10
g3
NtRp28
(dp29
g13
F-21.161412764196267
sg14
I9
sg15
I01
sg16
I8
sg17
I60
sbs(I18
I4
tp30
g1
(g10
g3
NtRp31
(dp32
g13
F-4.133420089690075
sg14
I18
sg15
I01
sg16
I4
sg17
I238
sbs(I1
I15
tp33
g1
(g10
g3
NtRp34
(dp35
g13
F-6.5481286909595955
sg14
I1
sg15
I01
sg16
I15
sg17
I168
sbs(I13
I17
tp36
g1
(g10
g3
NtRp37
(dp38
g13
F5.5280648898439519
sg14
I13
sg15
I01
sg16
I17
sg17
I183
sbs(I4
I12
tp39
g1
(g10
g3
NtRp40
(dp41
g13
F24.24391027225526
sg14
I4
sg15
I01
sg16
I12
sg17
I102
sbs(I9
I4
tp42
g1
(g10
g3
NtRp43
(dp44
g13
F6.0058269443690993
sg14
I9
sg15
I01
sg16
I4
sg17
I77
sbs(I4
I2
tp45
g1
(g10
g3
NtRp46
(dp47
g13
F19.202664547616482
sg14
I4
sg15
I01
sg16
I2
sg17
I6
sbs(I7
I2
tp48
g1
(g10
g3
NtRp49
(dp50
g13
F-30
sg14
I7
sg15
I01
sg16
I2
sg17
I33
sbs(I16
I17
tp51
g1
(g10
g3
NtRp52
(dp53
g13
F8.3633143420861433
sg14
I16
sg15
I01
sg16
I17
sg17
I247
sbs(I4
I9
tp54
g1
(g10
g3
NtRp55
(dp56
g13
F-18.313605062360061
sg14
I4
sg15
I01
sg16
I9
sg17
I44
sbs(I3
I3
tp57
g1
(g10
g3
NtRp58
(dp59
g13
F19.610834089824944
sg14
I3
sg15
I01
sg16
I3
sg17
I9
sbs(I4
I4
tp60
g1
(g10
g3
NtRp61
(dp62
g13
F20.657573419175449
sg14
I4
sg15
I00
sg16
I4
sg17
I15
sbs(I4
I13
tp63
g1
(g10
g3
NtRp64
(dp65
g13
F-3.3670541568082633
sg14
I4
sg15
I01
sg16
I13
sg17
I119
sbs(I1
I5
tp66
g1
(g10
g3
NtRp67
(dp68
g13
F19.480836906967177
sg14
I1
sg15
I01
sg16
I5
sg17
I10
sbs(I4
I11
tp69
g1
(g10
g3
NtRp70
(dp71
g13
F13.342659897106703
sg14
I4
sg15
I01
sg16
I11
sg17
I75
sbs(I3
I6
tp72
g1
(g10
g3
NtRp73
(dp74
g13
F-15.661343574534783
sg14
I3
sg15
I01
sg16
I6
sg17
I19
sbs(I2
I2
tp75
g1
(g10
g3
NtRp76
(dp77
g13
F18.781543761475817
sg14
I2
sg15
I01
sg16
I2
sg17
I2
sbs(I3
I4
tp78
g1
(g10
g3
NtRp79
(dp80
g13
F-25.404677497937378
sg14
I3
sg15
I01
sg16
I4
sg17
I5
sbs(I7
I9
tp81
g1
(g10
g3
NtRp82
(dp83
g13
F4.1773796112604504
sg14
I7
sg15
I01
sg16
I9
sg17
I41
sbs(I11
I2
tp84
g1
(g10
g3
NtRp85
(dp86
g13
F18.783782836140087
sg14
I11
sg15
I01
sg16
I2
sg17
I74
sbs(I1
I2
tp87
g1
(g10
g3
NtRp88
(dp89
g13
F8.9943624179629005
sg14
I1
sg15
I01
sg16
I2
sg17
I1
sbs(I3
I2
tp90
g1
(g10
g3
NtRp91
(dp92
g13
F-12.984511998528147
sg14
I3
sg15
I01
sg16
I2
sg17
I4
sbs(I10
I4
tp93
g1
(g10
g3
NtRp94
(dp95
g13
F-29.774902163362256
sg14
I10
sg15
I01
sg16
I4
sg17
I90
sbs(I4
I10
tp96
g1
(g10
g3
NtRp97
(dp98
g13
F2.8406663261697314
sg14
I4
sg15
I01
sg16
I10
sg17
I63
sbs(I16
I4
tp99
g1
(g10
g3
NtRp100
(dp101
g13
F21.435926911118869
sg14
I16
sg15
I01
sg16
I4
sg17
I175
sbs(I4
I5
tp102
g1
(g10
g3
NtRp103
(dp104
g13
F-28.489680501856963
sg14
I4
sg15
I01
sg16
I5
sg17
I30
sbs(I15
I3
tp105
g1
(g10
g3
NtRp106
(dp107
g13
F2.6087259908435847
sg14
I15
sg15
I01
sg16
I3
sg17
I169
sbs(I5
I17
tp108
g1
(g10
g3
NtRp109
(dp110
g13
F-21.05240780600246
sg14
I5
sg15
I01
sg16
I17
sg17
I187
sbs(I7
I13
tp111
g1
(g10
g3
NtRp112
(dp113
g13
F-3.3399514023880323
sg14
I7
sg15
I01
sg16
I13
sg17
I136
sbs(I1
I4
tp114
g1
(g10
g3
NtRp115
(dp116
g13
F9.5980877292259201
sg14
I1
sg15
I01
sg16
I4
sg17
I8
sbs(I2
I10
tp117
g1
(g10
g3
NtRp118
(dp119
g13
F-18.020035774624134
sg14
I2
sg15
I01
sg16
I10
sg17
I57
sbs(I12
I18
tp120
g1
(g10
g3
NtRp121
(dp122
g13
F-2.6190450790033064
sg14
I12
sg15
I01
sg16
I18
sg17
I189
sbs(I2
I3
tp123
g1
(g10
g3
NtRp124
(dp125
g13
F-8.7985542436545359
sg14
I2
sg15
I01
sg16
I3
sg17
I7
sbs(I12
I11
tp126
g1
(g10
g3
NtRp127
(dp128
g13
F27.558638508600072
sg14
I12
sg15
I00
sg16
I11
sg17
I84
sbs(I17
I6
tp129
g1
(g10
g3
NtRp130
(dp131
g13
F27.210312723259939
sg14
I17
sg15
I01
sg16
I6
sg17
I188
sbs(I2
I14
tp132
g1
(g10
g3
NtRp133
(dp134
g13
F-15.911847304824093
sg14
I2
sg15
I01
sg16
I14
sg17
I142
sbs(I6
I5
tp135
g1
(g10
g3
NtRp136
(dp137
g13
F25.397658581522322
sg14
I6
sg15
I01
sg16
I5
sg17
I23
sbs(I5
I3
tp138
g1
(g10
g3
NtRp139
(dp140
g13
F-12.70388908566084
sg14
I5
sg15
I01
sg16
I3
sg17
I14
sbs(I3
I5
tp141
g1
(g10
g3
NtRp142
(dp143
g13
F6.2307016576208492
sg14
I3
sg15
I01
sg16
I5
sg17
I13
sbs(I8
I3
tp144
g1
(g10
g3
NtRp145
(dp146
g13
F-1.6751170611983996
sg14
I8
sg15
I01
sg16
I3
sg17
I71
sbs(I14
I16
tp147
g1
(g10
g3
NtRp148
(dp149
g13
F7.2352274096840095
sg14
I14
sg15
I01
sg16
I16
sg17
I174
sbs(I5
I2
tp150
g1
(g10
g3
NtRp151
(dp152
g13
F26.901400992383746
sg14
I5
sg15
I01
sg16
I2
sg17
I11
sbs(I5
I7
tp153
g1
(g10
g3
NtRp154
(dp155
g13
F0.54034420793138116
sg14
I5
sg15
I01
sg16
I7
sg17
I28
sbs(I3
I8
tp156
g1
(g10
g3
NtRp157
(dp158
g13
F18.912537211433694
sg14
I3
sg15
I01
sg16
I8
sg17
I49
sbs(I6
I2
tp159
g1
(g10
g3
NtRp160
(dp161
g13
F7.106590419425177
sg14
I6
sg15
I01
sg16
I2
sg17
I17
sbs(I4
I3
tp162
g1
(g10
g3
NtRp163
(dp164
g13
F-12.872109202151549
sg14
I4
sg15
I01
sg16
I3
sg17
I12
sbs(I13
I9
tp165
g1
(g10
g3
NtRp166
(dp167
g13
F8.0375674983986602
sg14
I13
sg15
I01
sg16
I9
sg17
I137
sbs(I18
I11
tp168
g1
(g10
g3
NtRp169
(dp170
g13
F-5.21475343444376
sg14
I18
sg15
I01
sg16
I11
sg17
I190
sbs(I2
I4
tp171
g1
(g10
g3
NtRp172
(dp173
g13
F-2.1411849911397201
sg14
I2
sg15
I00
sg16
I4
sg17
I24
sbs(I8
I4
tp174
g1
(g10
g3
NtRp175
(dp176
g13
F-28.706736614228312
sg14
I8
sg15
I01
sg16
I4
sg17
I40
sbssS'_input_nodes'
p177
I1
sS'_output_nodes'
p178
I1
sS'_node_gene_type'
p179
cneat.genome
NodeGene
p180
sS'_conn_gene_type'
p181
g10
sS'fitness'
p182
F0.99677642336927486
sS'parent2_id'
p183
I8244
sS'_id'
p184
I8262
sS'parent1_id'
p185
I8244
sS'_node_genes'
p186
(lp187
g1
(g180
g3
NtRp188
(dp189
S'_bias'
p190
I0
sS'_type'
p191
S'INPUT'
p192
sg184
I1
sS'_response'
p193
F4.9242730000000003
sS'_activation_type'
p194
Nsbag1
(g180
g3
NtRp195
(dp196
g190
F-4.464704647679679
sg191
S'OUTPUT'
p197
sg184
I2
sg193
F7.0498193940805347
sg194
S'tanh'
p198
sbag1
(g180
g3
NtRp199
(dp200
g190
F-8.5586781665750085
sg191
S'HIDDEN'
p201
sg184
I3
sg193
F0.87537995108221311
sg194
g198
sbag1
(g180
g3
NtRp202
(dp203
g190
F-3.1399053374397843
sg191
g201
sg184
I4
sg193
F3.0444497458957565
sg194
g198
sbag1
(g180
g3
NtRp204
(dp205
g190
F0.11606243252794343
sg191
g201
sg184
I5
sg193
F5.5082759918497253
sg194
g198
sbag1
(g180
g3
NtRp206
(dp207
g190
F-0.24215490665609724
sg191
g201
sg184
I6
sg193
F0.4828799671081615
sg194
g198
sbag1
(g180
g3
NtRp208
(dp209
g190
F-0.52145530023920506
sg191
g201
sg184
I7
sg193
F2.5714761484836335
sg194
g198
sbag1
(g180
g3
NtRp210
(dp211
g190
F-3.2397788725308403
sg191
g201
sg184
I8
sg193
F3.4869111649798192
sg194
g198
sbag1
(g180
g3
NtRp212
(dp213
g190
F0.52178886155585391
sg191
g201
sg184
I9
sg193
F1.9799859646410125
sg194
g198
sbag1
(g180
g3
NtRp214
(dp215
g190
F-4.1117200953067652
sg191
g201
sg184
I10
sg193
F1.0614481123017248
sg194
g198
sbag1
(g180
g3
NtRp216
(dp217
g190
F-0.81395057759838518
sg191
g201
sg184
I11
sg193
F10.046996472741602
sg194
g198
sbag1
(g180
g3
NtRp218
(dp219
g190
F0.037657568662701257
sg191
g201
sg184
I12
sg193
F7.7255140528763055
sg194
g198
sbag1
(g180
g3
NtRp220
(dp221
g190
F1.7519952195212611
sg191
g201
sg184
I13
sg193
F1.5873421801467218
sg194
g198
sbag1
(g180
g3
NtRp222
(dp223
g190
F1.3111123495604797
sg191
g201
sg184
I14
sg193
F4.1747904947165519
sg194
g198
sbag1
(g180
g3
NtRp224
(dp225
g190
F1.3260198468106841
sg191
g201
sg184
I15
sg193
F6.6772068292385924
sg194
g198
sbag1
(g180
g3
NtRp226
(dp227
g190
F2.2526137214404049
sg191
g201
sg184
I16
sg193
F4.1994100553055063
sg194
g198
sbag1
(g180
g3
NtRp228
(dp229
g190
F-5.010173103247423
sg191
g201
sg184
I17
sg193
F6.0369896596631154
sg194
g198
sbag1
(g180
g3
NtRp230
(dp231
g190
F0.48552657044491648
sg191
g201
sg184
I18
sg193
F8.8628326466087053
sg194
g198
sbasb.