ccopy_reg
_reconstructor
p1
(cneat.chromosome
Chromosome
p2
c__builtin__
object
p3
NtRp4
(dp5
S'species_id'
p6
I38
sS'_connection_genes'
p7
(dp8
(I1
I3
tp9
g1
(cneat.genome
ConnectionGene
p10
g3
NtRp11
(dp12
S'_ConnectionGene__weight'
p13
F26.310695415997028
sS'_ConnectionGene__in'
p14
I1
sS'_ConnectionGene__enabled'
p15
I00
sS'_ConnectionGene__out'
p16
I3
sS'_ConnectionGene__innov_number'
p17
I3
sbs(I6
I6
tp18
g1
(g10
g3
NtRp19
(dp20
g13
F15.709751535221027
sg14
I6
sg15
I01
sg16
I6
sg17
I39
sbs(I5
I6
tp21
g1
(g10
g3
NtRp22
(dp23
g13
F-5.7669208474373743
sg14
I5
sg15
I01
sg16
I6
sg17
I16
sbs(I11
I2
tp24
g1
(g10
g3
NtRp25
(dp26
g13
F-9.1569814149911828
sg14
I11
sg15
I01
sg16
I2
sg17
I74
sbs(I7
I2
tp27
g1
(g10
g3
NtRp28
(dp29
g13
F-1.9323177739373023
sg14
I7
sg15
I01
sg16
I2
sg17
I33
sbs(I1
I2
tp30
g1
(g10
g3
NtRp31
(dp32
g13
F14.25514898287822
sg14
I1
sg15
I01
sg16
I2
sg17
I1
sbs(I3
I3
tp33
g1
(g10
g3
NtRp34
(dp35
g13
F14.60774904902034
sg14
I3
sg15
I01
sg16
I3
sg17
I9
sbs(I3
I10
tp36
g1
(g10
g3
NtRp37
(dp38
g13
F-1.5404808986476823
sg14
I3
sg15
I01
sg16
I10
sg17
I94
sbs(I4
I4
tp39
g1
(g10
g3
NtRp40
(dp41
g13
F4.361825335022159
sg14
I4
sg15
I01
sg16
I4
sg17
I15
sbs(I1
I5
tp42
g1
(g10
g3
NtRp43
(dp44
g13
F-8.5286585333518872
sg14
I1
sg15
I01
sg16
I5
sg17
I10
sbs(I9
I11
tp45
g1
(g10
g3
NtRp46
(dp47
g13
F1.0200691192496487
sg14
I9
sg15
I01
sg16
I11
sg17
I106
sbs(I6
I5
tp48
g1
(g10
g3
NtRp49
(dp50
g13
F10.390582647329367
sg14
I6
sg15
I01
sg16
I5
sg17
I23
sbs(I3
I6
tp51
g1
(g10
g3
NtRp52
(dp53
g13
F5.5502133626437482
sg14
I3
sg15
I01
sg16
I6
sg17
I19
sbs(I2
I2
tp54
g1
(g10
g3
NtRp55
(dp56
g13
F2.1923301420684673
sg14
I2
sg15
I01
sg16
I2
sg17
I2
sbs(I5
I3
tp57
g1
(g10
g3
NtRp58
(dp59
g13
F27.987826277696577
sg14
I5
sg15
I01
sg16
I3
sg17
I14
sbs(I3
I2
tp60
g1
(g10
g3
NtRp61
(dp62
g13
F12.877220056781233
sg14
I3
sg15
I01
sg16
I2
sg17
I4
sbs(I10
I4
tp63
g1
(g10
g3
NtRp64
(dp65
g13
F-4.5882955702055881
sg14
I10
sg15
I01
sg16
I4
sg17
I90
sbs(I4
I5
tp66
g1
(g10
g3
NtRp67
(dp68
g13
F15.120996720851407
sg14
I4
sg15
I01
sg16
I5
sg17
I30
sbs(I9
I3
tp69
g1
(g10
g3
NtRp70
(dp71
g13
F30
sg14
I9
sg15
I01
sg16
I3
sg17
I42
sbs(I1
I4
tp72
g1
(g10
g3
NtRp73
(dp74
g13
F14.349183812786579
sg14
I1
sg15
I01
sg16
I4
sg17
I8
sbs(I2
I3
tp75
g1
(g10
g3
NtRp76
(dp77
g13
F-16.773524162819616
sg14
I2
sg15
I01
sg16
I3
sg17
I7
sbs(I1
I9
tp78
g1
(g10
g3
NtRp79
(dp80
g13
F2.7427119640628912
sg14
I1
sg15
I01
sg16
I9
sg17
I50
sbs(I4
I2
tp81
g1
(g10
g3
NtRp82
(dp83
g13
F-8.978837567795912
sg14
I4
sg15
I01
sg16
I2
sg17
I6
sbs(I4
I11
tp84
g1
(g10
g3
NtRp85
(dp86
g13
F3.0981742707159183
sg14
I4
sg15
I01
sg16
I11
sg17
I75
sbs(I3
I5
tp87
g1
(g10
g3
NtRp88
(dp89
g13
F12.772611040664785
sg14
I3
sg15
I01
sg16
I5
sg17
I13
sbs(I8
I3
tp90
g1
(g10
g3
NtRp91
(dp92
g13
F0.41037053977120808
sg14
I8
sg15
I01
sg16
I3
sg17
I71
sbs(I5
I2
tp93
g1
(g10
g3
NtRp94
(dp95
g13
F29.192302167350846
sg14
I5
sg15
I01
sg16
I2
sg17
I11
sbs(I5
I7
tp96
g1
(g10
g3
NtRp97
(dp98
g13
F10.5256181105438
sg14
I5
sg15
I01
sg16
I7
sg17
I28
sbs(I3
I8
tp99
g1
(g10
g3
NtRp100
(dp101
g13
F20.628210668852116
sg14
I3
sg15
I01
sg16
I8
sg17
I49
sbs(I4
I3
tp102
g1
(g10
g3
NtRp103
(dp104
g13
F-4.287745443128431
sg14
I4
sg15
I01
sg16
I3
sg17
I12
sbs(I3
I4
tp105
g1
(g10
g3
NtRp106
(dp107
g13
F-2.2496898885985432
sg14
I3
sg15
I00
sg16
I4
sg17
I5
sbs(I2
I4
tp108
g1
(g10
g3
NtRp109
(dp110
g13
F10.432675427954567
sg14
I2
sg15
I01
sg16
I4
sg17
I24
sbs(I8
I4
tp111
g1
(g10
g3
NtRp112
(dp113
g13
F12.060636846399539
sg14
I8
sg15
I01
sg16
I4
sg17
I40
sbssS'_input_nodes'
p114
I1
sS'_output_nodes'
p115
I1
sS'_node_gene_type'
p116
cneat.genome
NodeGene
p117
sS'_conn_gene_type'
p118
g10
sS'fitness'
p119
F0.92261826526346735
sS'parent2_id'
p120
I4425
sS'_id'
p121
I4445
sS'parent1_id'
p122
I4425
sS'_node_genes'
p123
(lp124
g1
(g117
g3
NtRp125
(dp126
S'_bias'
p127
I0
sS'_type'
p128
S'INPUT'
p129
sg121
I1
sS'_response'
p130
F4.9242730000000003
sS'_activation_type'
p131
Nsbag1
(g117
g3
NtRp132
(dp133
g127
F1.9105985269589159
sg128
S'OUTPUT'
p134
sg121
I2
sg130
F5.6579454877995943
sg131
S'tanh'
p135
sbag1
(g117
g3
NtRp136
(dp137
g127
F-0.97779454201851235
sg128
S'HIDDEN'
p138
sg121
I3
sg130
F1.6504512361812673
sg131
g135
sbag1
(g117
g3
NtRp139
(dp140
g127
F0.65310461803810405
sg128
g138
sg121
I4
sg130
F3.8880419924975147
sg131
g135
sbag1
(g117
g3
NtRp141
(dp142
g127
F3.9357392337785733
sg128
g138
sg121
I5
sg130
F5.1561003758610564
sg131
g135
sbag1
(g117
g3
NtRp143
(dp144
g127
F-3.9550957580044028
sg128
g138
sg121
I6
sg130
F2.783436006445795
sg131
g135
sbag1
(g117
g3
NtRp145
(dp146
g127
F-0.4760170273514257
sg128
g138
sg121
I7
sg130
F5.9850463280292674
sg131
g135
sbag1
(g117
g3
NtRp147
(dp148
g127
F-0.9327269708050937
sg128
g138
sg121
I8
sg130
F7.6384531991728242
sg131
g135
sbag1
(g117
g3
NtRp149
(dp150
g127
F0.82908247244465128
sg128
g138
sg121
I9
sg130
F5.0077745441758399
sg131
g135
sbag1
(g117
g3
NtRp151
(dp152
g127
F0.32432424203873278
sg128
g138
sg121
I10
sg130
F4.8532211085179702
sg131
g135
sbag1
(g117
g3
NtRp153
(dp154
g127
F1.0758293401326229
sg128
g138
sg121
I11
sg130
F3.9499958782489228
sg131
g135
sbasb.