ccopy_reg
_reconstructor
p1
(cneat.chromosome
Chromosome
p2
c__builtin__
object
p3
NtRp4
(dp5
S'species_id'
p6
I46
sS'_connection_genes'
p7
(dp8
(I1
I3
tp9
g1
(cneat.genome
ConnectionGene
p10
g3
NtRp11
(dp12
S'_ConnectionGene__weight'
p13
F25.240196247574456
sS'_ConnectionGene__in'
p14
I1
sS'_ConnectionGene__enabled'
p15
I00
sS'_ConnectionGene__out'
p16
I3
sS'_ConnectionGene__innov_number'
p17
I3
sbs(I6
I6
tp18
g1
(g10
g3
NtRp19
(dp20
g13
F21.801869754390747
sg14
I6
sg15
I01
sg16
I6
sg17
I39
sbs(I5
I6
tp21
g1
(g10
g3
NtRp22
(dp23
g13
F-16.665482088992437
sg14
I5
sg15
I01
sg16
I6
sg17
I16
sbs(I11
I2
tp24
g1
(g10
g3
NtRp25
(dp26
g13
F-10.81416010615022
sg14
I11
sg15
I01
sg16
I2
sg17
I74
sbs(I7
I2
tp27
g1
(g10
g3
NtRp28
(dp29
g13
F4.2569985152901104
sg14
I7
sg15
I01
sg16
I2
sg17
I33
sbs(I1
I2
tp30
g1
(g10
g3
NtRp31
(dp32
g13
F19.666571841421238
sg14
I1
sg15
I01
sg16
I2
sg17
I1
sbs(I12
I2
tp33
g1
(g10
g3
NtRp34
(dp35
g13
F15.575142996179377
sg14
I12
sg15
I01
sg16
I2
sg17
I93
sbs(I3
I3
tp36
g1
(g10
g3
NtRp37
(dp38
g13
F13.640196882777897
sg14
I3
sg15
I01
sg16
I3
sg17
I9
sbs(I5
I12
tp39
g1
(g10
g3
NtRp40
(dp41
g13
F-0.51189566514735252
sg14
I5
sg15
I01
sg16
I12
sg17
I118
sbs(I4
I4
tp42
g1
(g10
g3
NtRp43
(dp44
g13
F3.1537731824257103
sg14
I4
sg15
I01
sg16
I4
sg17
I15
sbs(I1
I5
tp45
g1
(g10
g3
NtRp46
(dp47
g13
F-4.1275812683117765
sg14
I1
sg15
I01
sg16
I5
sg17
I10
sbs(I9
I11
tp48
g1
(g10
g3
NtRp49
(dp50
g13
F10.49878807752545
sg14
I9
sg15
I01
sg16
I11
sg17
I106
sbs(I6
I5
tp51
g1
(g10
g3
NtRp52
(dp53
g13
F18.856246367849486
sg14
I6
sg15
I01
sg16
I5
sg17
I23
sbs(I3
I6
tp54
g1
(g10
g3
NtRp55
(dp56
g13
F10.859412015007088
sg14
I3
sg15
I01
sg16
I6
sg17
I19
sbs(I2
I2
tp57
g1
(g10
g3
NtRp58
(dp59
g13
F-4.3854370186287692
sg14
I2
sg15
I01
sg16
I2
sg17
I2
sbs(I5
I3
tp60
g1
(g10
g3
NtRp61
(dp62
g13
F19.350805190468726
sg14
I5
sg15
I01
sg16
I3
sg17
I14
sbs(I3
I2
tp63
g1
(g10
g3
NtRp64
(dp65
g13
F15.717406647276439
sg14
I3
sg15
I01
sg16
I2
sg17
I4
sbs(I10
I4
tp66
g1
(g10
g3
NtRp67
(dp68
g13
F-4.0700160743173415
sg14
I10
sg15
I01
sg16
I4
sg17
I90
sbs(I4
I5
tp69
g1
(g10
g3
NtRp70
(dp71
g13
F19.765048417798614
sg14
I4
sg15
I01
sg16
I5
sg17
I30
sbs(I9
I3
tp72
g1
(g10
g3
NtRp73
(dp74
g13
F26.893234858212146
sg14
I9
sg15
I01
sg16
I3
sg17
I42
sbs(I1
I4
tp75
g1
(g10
g3
NtRp76
(dp77
g13
F23.235524084141712
sg14
I1
sg15
I01
sg16
I4
sg17
I8
sbs(I3
I9
tp78
g1
(g10
g3
NtRp79
(dp80
g13
F-3.7476211085888402
sg14
I3
sg15
I01
sg16
I9
sg17
I61
sbs(I2
I3
tp81
g1
(g10
g3
NtRp82
(dp83
g13
F-9.5156650769440709
sg14
I2
sg15
I01
sg16
I3
sg17
I7
sbs(I1
I9
tp84
g1
(g10
g3
NtRp85
(dp86
g13
F9.1316141498290246
sg14
I1
sg15
I01
sg16
I9
sg17
I50
sbs(I4
I2
tp87
g1
(g10
g3
NtRp88
(dp89
g13
F-12.495003628134087
sg14
I4
sg15
I01
sg16
I2
sg17
I6
sbs(I4
I11
tp90
g1
(g10
g3
NtRp91
(dp92
g13
F15.941411757304953
sg14
I4
sg15
I01
sg16
I11
sg17
I75
sbs(I3
I5
tp93
g1
(g10
g3
NtRp94
(dp95
g13
F16.692650493079793
sg14
I3
sg15
I01
sg16
I5
sg17
I13
sbs(I8
I3
tp96
g1
(g10
g3
NtRp97
(dp98
g13
F-1.3637808998289369
sg14
I8
sg15
I01
sg16
I3
sg17
I71
sbs(I5
I2
tp99
g1
(g10
g3
NtRp100
(dp101
g13
F30
sg14
I5
sg15
I00
sg16
I2
sg17
I11
sbs(I5
I7
tp102
g1
(g10
g3
NtRp103
(dp104
g13
F14.935976782411879
sg14
I5
sg15
I01
sg16
I7
sg17
I28
sbs(I2
I4
tp105
g1
(g10
g3
NtRp106
(dp107
g13
F-0.75239410649893212
sg14
I2
sg15
I01
sg16
I4
sg17
I24
sbs(I3
I8
tp108
g1
(g10
g3
NtRp109
(dp110
g13
F27.789152225817084
sg14
I3
sg15
I01
sg16
I8
sg17
I49
sbs(I4
I3
tp111
g1
(g10
g3
NtRp112
(dp113
g13
F-13.883027458182399
sg14
I4
sg15
I01
sg16
I3
sg17
I12
sbs(I3
I4
tp114
g1
(g10
g3
NtRp115
(dp116
g13
F-2.318997852375225
sg14
I3
sg15
I00
sg16
I4
sg17
I5
sbs(I3
I10
tp117
g1
(g10
g3
NtRp118
(dp119
g13
F21.431221799039488
sg14
I3
sg15
I01
sg16
I10
sg17
I94
sbs(I8
I4
tp120
g1
(g10
g3
NtRp121
(dp122
g13
F6.4023768969577599
sg14
I8
sg15
I01
sg16
I4
sg17
I40
sbssS'_input_nodes'
p123
I1
sS'_output_nodes'
p124
I1
sS'_node_gene_type'
p125
cneat.genome
NodeGene
p126
sS'_conn_gene_type'
p127
g10
sS'fitness'
p128
F0.99191285147317265
sS'parent2_id'
p129
I5196
sS'_id'
p130
I5212
sS'parent1_id'
p131
I5196
sS'_node_genes'
p132
(lp133
g1
(g126
g3
NtRp134
(dp135
S'_bias'
p136
I0
sS'_type'
p137
S'INPUT'
p138
sg130
I1
sS'_response'
p139
F4.9242730000000003
sS'_activation_type'
p140
Nsbag1
(g126
g3
NtRp141
(dp142
g136
F2.4746859306363964
sg137
S'OUTPUT'
p143
sg130
I2
sg139
F7.4451376627311241
sg140
S'tanh'
p144
sbag1
(g126
g3
NtRp145
(dp146
g136
F-2.1612866876506804
sg137
S'HIDDEN'
p147
sg130
I3
sg139
F2.6016543111868509
sg140
g144
sbag1
(g126
g3
NtRp148
(dp149
g136
F0.2515875763763995
sg137
g147
sg130
I4
sg139
F3.7370146817584016
sg140
g144
sbag1
(g126
g3
NtRp150
(dp151
g136
F3.956603842297759
sg137
g147
sg130
I5
sg139
F5.5516953341741981
sg140
g144
sbag1
(g126
g3
NtRp152
(dp153
g136
F-2.9490380055789975
sg137
g147
sg130
I6
sg139
F2.0275615824436537
sg140
g144
sbag1
(g126
g3
NtRp154
(dp155
g136
F-0.42291935417612148
sg137
g147
sg130
I7
sg139
F4.9746196884095681
sg140
g144
sbag1
(g126
g3
NtRp156
(dp157
g136
F-3.2227151822848534
sg137
g147
sg130
I8
sg139
F8.7385747767814905
sg140
g144
sbag1
(g126
g3
NtRp158
(dp159
g136
F-0.48778352838681666
sg137
g147
sg130
I9
sg139
F5.7618369410722208
sg140
g144
sbag1
(g126
g3
NtRp160
(dp161
g136
F0.97289457337243446
sg137
g147
sg130
I10
sg139
F4.8649738287667041
sg140
g144
sbag1
(g126
g3
NtRp162
(dp163
g136
F1.242798449259011
sg137
g147
sg130
I11
sg139
F1.9759924047038393
sg140
g144
sbag1
(g126
g3
NtRp164
(dp165
g136
F-0.64351946959180595
sg137
g147
sg130
I12
sg139
F4.4066907400387496
sg140
g144
sbasb.