ccopy_reg
_reconstructor
p1
(cneat.chromosome
Chromosome
p2
c__builtin__
object
p3
NtRp4
(dp5
S'species_id'
p6
I28
sS'_connection_genes'
p7
(dp8
(I4
I7
tp9
g1
(cneat.genome
ConnectionGene
p10
g3
NtRp11
(dp12
S'_ConnectionGene__weight'
p13
F1.2419774956777379
sS'_ConnectionGene__in'
p14
I4
sS'_ConnectionGene__enabled'
p15
I01
sS'_ConnectionGene__out'
p16
I7
sS'_ConnectionGene__innov_number'
p17
I54
sbs(I1
I3
tp18
g1
(g10
g3
NtRp19
(dp20
g13
F21.531839094106378
sg14
I1
sg15
I01
sg16
I3
sg17
I3
sbs(I5
I6
tp21
g1
(g10
g3
NtRp22
(dp23
g13
F-16.267992160199654
sg14
I5
sg15
I01
sg16
I6
sg17
I16
sbs(I3
I7
tp24
g1
(g10
g3
NtRp25
(dp26
g13
F-3.3738063830407121
sg14
I3
sg15
I00
sg16
I7
sg17
I26
sbs(I8
I5
tp27
g1
(g10
g3
NtRp28
(dp29
g13
F-0.68111591151749817
sg14
I8
sg15
I01
sg16
I5
sg17
I36
sbs(I7
I2
tp30
g1
(g10
g3
NtRp31
(dp32
g13
F4.0758560587224855
sg14
I7
sg15
I01
sg16
I2
sg17
I33
sbs(I1
I2
tp33
g1
(g10
g3
NtRp34
(dp35
g13
F7.9818451866847084
sg14
I1
sg15
I01
sg16
I2
sg17
I1
sbs(I3
I3
tp36
g1
(g10
g3
NtRp37
(dp38
g13
F-1.7428499647139983
sg14
I3
sg15
I01
sg16
I3
sg17
I9
sbs(I3
I10
tp39
g1
(g10
g3
NtRp40
(dp41
g13
F6.296081783633344
sg14
I3
sg15
I01
sg16
I10
sg17
I94
sbs(I3
I6
tp42
g1
(g10
g3
NtRp43
(dp44
g13
F0.14113108251134338
sg14
I3
sg15
I01
sg16
I6
sg17
I19
sbs(I2
I2
tp45
g1
(g10
g3
NtRp46
(dp47
g13
F-7.4733778268485356
sg14
I2
sg15
I01
sg16
I2
sg17
I2
sbs(I5
I3
tp48
g1
(g10
g3
NtRp49
(dp50
g13
F15.251754551775406
sg14
I5
sg15
I01
sg16
I3
sg17
I14
sbs(I9
I7
tp51
g1
(g10
g3
NtRp52
(dp53
g13
F-1.5891204479790881
sg14
I9
sg15
I01
sg16
I7
sg17
I53
sbs(I3
I2
tp54
g1
(g10
g3
NtRp55
(dp56
g13
F12.413910023082162
sg14
I3
sg15
I00
sg16
I2
sg17
I4
sbs(I1
I4
tp57
g1
(g10
g3
NtRp58
(dp59
g13
F4.8072394206792781
sg14
I1
sg15
I01
sg16
I4
sg17
I8
sbs(I3
I9
tp60
g1
(g10
g3
NtRp61
(dp62
g13
F7.601634192717035
sg14
I3
sg15
I01
sg16
I9
sg17
I61
sbs(I2
I3
tp63
g1
(g10
g3
NtRp64
(dp65
g13
F5.7444425753666462
sg14
I2
sg15
I01
sg16
I3
sg17
I7
sbs(I4
I2
tp66
g1
(g10
g3
NtRp67
(dp68
g13
F19.503601778742983
sg14
I4
sg15
I01
sg16
I2
sg17
I6
sbs(I6
I5
tp69
g1
(g10
g3
NtRp70
(dp71
g13
F2.7367854061303341
sg14
I6
sg15
I00
sg16
I5
sg17
I23
sbs(I3
I5
tp72
g1
(g10
g3
NtRp73
(dp74
g13
F4.1504949818572969
sg14
I3
sg15
I01
sg16
I5
sg17
I13
sbs(I6
I8
tp75
g1
(g10
g3
NtRp76
(dp77
g13
F-9.8606991957895875
sg14
I6
sg15
I01
sg16
I8
sg17
I56
sbs(I3
I4
tp78
g1
(g10
g3
NtRp79
(dp80
g13
F25.095182315667561
sg14
I3
sg15
I01
sg16
I4
sg17
I5
sbs(I9
I9
tp81
g1
(g10
g3
NtRp82
(dp83
g13
F7.3791741189775806
sg14
I9
sg15
I01
sg16
I9
sg17
I86
sbs(I5
I2
tp84
g1
(g10
g3
NtRp85
(dp86
g13
F17.925271027671592
sg14
I5
sg15
I01
sg16
I2
sg17
I11
sbs(I2
I4
tp87
g1
(g10
g3
NtRp88
(dp89
g13
F-6.3483132650342187
sg14
I2
sg15
I01
sg16
I4
sg17
I24
sbs(I10
I2
tp90
g1
(g10
g3
NtRp91
(dp92
g13
F18.820236663230258
sg14
I10
sg15
I01
sg16
I2
sg17
I65
sbssS'_input_nodes'
p93
I1
sS'_output_nodes'
p94
I1
sS'_node_gene_type'
p95
cneat.genome
NodeGene
p96
sS'_conn_gene_type'
p97
g10
sS'fitness'
p98
F0.95812619998668136
sS'parent2_id'
p99
I2548
sS'_id'
p100
I2569
sS'parent1_id'
p101
I2548
sS'_node_genes'
p102
(lp103
g1
(g96
g3
NtRp104
(dp105
S'_bias'
p106
I0
sS'_type'
p107
S'INPUT'
p108
sg100
I1
sS'_response'
p109
F4.9242730000000003
sS'_activation_type'
p110
Nsbag1
(g96
g3
NtRp111
(dp112
g106
F0.65085701642137095
sg107
S'OUTPUT'
p113
sg100
I2
sg109
F4.6928187695828134
sg110
S'tanh'
p114
sbag1
(g96
g3
NtRp115
(dp116
g106
F0.2889725744157875
sg107
S'HIDDEN'
p117
sg100
I3
sg109
F1.9223992783278492
sg110
g114
sbag1
(g96
g3
NtRp118
(dp119
g106
F-0.19428276980877254
sg107
g117
sg100
I4
sg109
F4.6103542158787132
sg110
g114
sbag1
(g96
g3
NtRp120
(dp121
g106
F3.3225189545824403
sg107
g117
sg100
I5
sg109
F2.4819818667936437
sg110
g114
sbag1
(g96
g3
NtRp122
(dp123
g106
F-4.2355121419769857
sg107
g117
sg100
I6
sg109
F4.6565868037396498
sg110
g114
sbag1
(g96
g3
NtRp124
(dp125
g106
F-0.16145017776638443
sg107
g117
sg100
I7
sg109
F5.5274272383320504
sg110
g114
sbag1
(g96
g3
NtRp126
(dp127
g106
F1.8465392140776575
sg107
g117
sg100
I8
sg109
F2.9455031812155013
sg110
g114
sbag1
(g96
g3
NtRp128
(dp129
g106
F1.0550186403185284
sg107
g117
sg100
I9
sg109
F5.0420004855843414
sg110
g114
sbag1
(g96
g3
NtRp130
(dp131
g106
F1.6867815985012804
sg107
g117
sg100
I10
sg109
F3.1064375406803002
sg110
g114
sbasb.