ccopy_reg
_reconstructor
p1
(cneat.chromosome
Chromosome
p2
c__builtin__
object
p3
NtRp4
(dp5
S'species_id'
p6
I36
sS'_connection_genes'
p7
(dp8
(I1
I3
tp9
g1
(cneat.genome
ConnectionGene
p10
g3
NtRp11
(dp12
S'_ConnectionGene__weight'
p13
F29.973147686897427
sS'_ConnectionGene__in'
p14
I1
sS'_ConnectionGene__enabled'
p15
I00
sS'_ConnectionGene__out'
p16
I3
sS'_ConnectionGene__innov_number'
p17
I3
sbs(I6
I6
tp18
g1
(g10
g3
NtRp19
(dp20
g13
F15.963598240299417
sg14
I6
sg15
I01
sg16
I6
sg17
I39
sbs(I5
I6
tp21
g1
(g10
g3
NtRp22
(dp23
g13
F-10.25222028701687
sg14
I5
sg15
I01
sg16
I6
sg17
I16
sbs(I7
I2
tp24
g1
(g10
g3
NtRp25
(dp26
g13
F-1.6542902011305971
sg14
I7
sg15
I01
sg16
I2
sg17
I33
sbs(I1
I2
tp27
g1
(g10
g3
NtRp28
(dp29
g13
F5.530967002941221
sg14
I1
sg15
I01
sg16
I2
sg17
I1
sbs(I3
I3
tp30
g1
(g10
g3
NtRp31
(dp32
g13
F13.531868404805861
sg14
I3
sg15
I01
sg16
I3
sg17
I9
sbs(I4
I4
tp33
g1
(g10
g3
NtRp34
(dp35
g13
F5.889417186345157
sg14
I4
sg15
I01
sg16
I4
sg17
I15
sbs(I1
I5
tp36
g1
(g10
g3
NtRp37
(dp38
g13
F-11.60843520353154
sg14
I1
sg15
I01
sg16
I5
sg17
I10
sbs(I3
I6
tp39
g1
(g10
g3
NtRp40
(dp41
g13
F2.5225638159848724
sg14
I3
sg15
I01
sg16
I6
sg17
I19
sbs(I2
I2
tp42
g1
(g10
g3
NtRp43
(dp44
g13
F2.3788030576012003
sg14
I2
sg15
I01
sg16
I2
sg17
I2
sbs(I3
I5
tp45
g1
(g10
g3
NtRp46
(dp47
g13
F6.5622078985825594
sg14
I3
sg15
I01
sg16
I5
sg17
I13
sbs(I3
I2
tp48
g1
(g10
g3
NtRp49
(dp50
g13
F6.228416885144564
sg14
I3
sg15
I01
sg16
I2
sg17
I4
sbs(I4
I5
tp51
g1
(g10
g3
NtRp52
(dp53
g13
F13.437064855704062
sg14
I4
sg15
I01
sg16
I5
sg17
I30
sbs(I9
I3
tp54
g1
(g10
g3
NtRp55
(dp56
g13
F28.692447270594755
sg14
I9
sg15
I01
sg16
I3
sg17
I42
sbs(I1
I4
tp57
g1
(g10
g3
NtRp58
(dp59
g13
F10.072208353383727
sg14
I1
sg15
I01
sg16
I4
sg17
I8
sbs(I2
I3
tp60
g1
(g10
g3
NtRp61
(dp62
g13
F-11.445545850983997
sg14
I2
sg15
I01
sg16
I3
sg17
I7
sbs(I1
I9
tp63
g1
(g10
g3
NtRp64
(dp65
g13
F0.78623927457006482
sg14
I1
sg15
I01
sg16
I9
sg17
I50
sbs(I4
I2
tp66
g1
(g10
g3
NtRp67
(dp68
g13
F-2.4437837181177389
sg14
I4
sg15
I01
sg16
I2
sg17
I6
sbs(I6
I5
tp69
g1
(g10
g3
NtRp70
(dp71
g13
F2.4410306524529037
sg14
I6
sg15
I01
sg16
I5
sg17
I23
sbs(I5
I3
tp72
g1
(g10
g3
NtRp73
(dp74
g13
F24.310719634596943
sg14
I5
sg15
I01
sg16
I3
sg17
I14
sbs(I8
I3
tp75
g1
(g10
g3
NtRp76
(dp77
g13
F2.3408205137767339
sg14
I8
sg15
I01
sg16
I3
sg17
I71
sbs(I5
I2
tp78
g1
(g10
g3
NtRp79
(dp80
g13
F25.73847414983792
sg14
I5
sg15
I01
sg16
I2
sg17
I11
sbs(I5
I7
tp81
g1
(g10
g3
NtRp82
(dp83
g13
F9.2650683727669936
sg14
I5
sg15
I01
sg16
I7
sg17
I28
sbs(I3
I8
tp84
g1
(g10
g3
NtRp85
(dp86
g13
F20.744389927829371
sg14
I3
sg15
I01
sg16
I8
sg17
I49
sbs(I4
I3
tp87
g1
(g10
g3
NtRp88
(dp89
g13
F-8.0209169305261145
sg14
I4
sg15
I01
sg16
I3
sg17
I12
sbs(I3
I4
tp90
g1
(g10
g3
NtRp91
(dp92
g13
F1.0722428285889523
sg14
I3
sg15
I01
sg16
I4
sg17
I5
sbs(I2
I4
tp93
g1
(g10
g3
NtRp94
(dp95
g13
F9.2479512244296611
sg14
I2
sg15
I01
sg16
I4
sg17
I24
sbs(I8
I4
tp96
g1
(g10
g3
NtRp97
(dp98
g13
F7.4964752998709532
sg14
I8
sg15
I01
sg16
I4
sg17
I40
sbssS'_input_nodes'
p99
I1
sS'_output_nodes'
p100
I1
sS'_node_gene_type'
p101
cneat.genome
NodeGene
p102
sS'_conn_gene_type'
p103
g10
sS'fitness'
p104
F0.96479982285839716
sS'parent2_id'
p105
I3940
sS'_id'
p106
I3962
sS'parent1_id'
p107
I3940
sS'_node_genes'
p108
(lp109
g1
(g102
g3
NtRp110
(dp111
S'_bias'
p112
I0
sS'_type'
p113
S'INPUT'
p114
sg106
I1
sS'_response'
p115
F4.9242730000000003
sS'_activation_type'
p116
Nsbag1
(g102
g3
NtRp117
(dp118
g112
F1.6620119457232199
sg113
S'OUTPUT'
p119
sg106
I2
sg115
F5.0855267258475738
sg116
S'tanh'
p120
sbag1
(g102
g3
NtRp121
(dp122
g112
F-0.97779454201851235
sg113
S'HIDDEN'
p123
sg106
I3
sg115
F1.024743232060364
sg116
g120
sbag1
(g102
g3
NtRp124
(dp125
g112
F1.5216775264574465
sg113
g123
sg106
I4
sg115
F3.4060663948322425
sg116
g120
sbag1
(g102
g3
NtRp126
(dp127
g112
F3.0422795323245815
sg113
g123
sg106
I5
sg115
F4.9845912062665878
sg116
g120
sbag1
(g102
g3
NtRp128
(dp129
g112
F-3.956917909265024
sg113
g123
sg106
I6
sg115
F3.2649848227216394
sg116
g120
sbag1
(g102
g3
NtRp130
(dp131
g112
F-1.3951041529495827
sg113
g123
sg106
I7
sg115
F5.8125796039243101
sg116
g120
sbag1
(g102
g3
NtRp132
(dp133
g112
F-0.49858296146773573
sg113
g123
sg106
I8
sg115
F6.1980201813554316
sg116
g120
sbag1
(g102
g3
NtRp134
(dp135
g112
F0.31754722116362355
sg113
g123
sg106
I9
sg115
F4.1678973550599316
sg116
g120
sbasb.