ccopy_reg
_reconstructor
p1
(cneat.chromosome
Chromosome
p2
c__builtin__
object
p3
NtRp4
(dp5
S'species_id'
p6
I49
sS'_connection_genes'
p7
(dp8
(I1
I3
tp9
g1
(cneat.genome
ConnectionGene
p10
g3
NtRp11
(dp12
S'_ConnectionGene__weight'
p13
F21.80153596597675
sS'_ConnectionGene__in'
p14
I1
sS'_ConnectionGene__enabled'
p15
I01
sS'_ConnectionGene__out'
p16
I3
sS'_ConnectionGene__innov_number'
p17
I3
sbs(I6
I6
tp18
g1
(g10
g3
NtRp19
(dp20
g13
F7.3645782795591774
sg14
I6
sg15
I01
sg16
I6
sg17
I39
sbs(I5
I6
tp21
g1
(g10
g3
NtRp22
(dp23
g13
F0.74527324110336712
sg14
I5
sg15
I01
sg16
I6
sg17
I16
sbs(I9
I8
tp24
g1
(g10
g3
NtRp25
(dp26
g13
F-17.348453904252025
sg14
I9
sg15
I01
sg16
I8
sg17
I60
sbs(I4
I12
tp27
g1
(g10
g3
NtRp28
(dp29
g13
F-4.110629469769143
sg14
I4
sg15
I01
sg16
I12
sg17
I102
sbs(I9
I4
tp30
g1
(g10
g3
NtRp31
(dp32
g13
F23.415350993791105
sg14
I9
sg15
I01
sg16
I4
sg17
I77
sbs(I7
I2
tp33
g1
(g10
g3
NtRp34
(dp35
g13
F-9.1106134159677943
sg14
I7
sg15
I01
sg16
I2
sg17
I33
sbs(I1
I2
tp36
g1
(g10
g3
NtRp37
(dp38
g13
F9.2023653313795659
sg14
I1
sg15
I01
sg16
I2
sg17
I1
sbs(I4
I9
tp39
g1
(g10
g3
NtRp40
(dp41
g13
F2.2349292276336348
sg14
I4
sg15
I01
sg16
I9
sg17
I44
sbs(I3
I3
tp42
g1
(g10
g3
NtRp43
(dp44
g13
F29.277323588734426
sg14
I3
sg15
I01
sg16
I3
sg17
I9
sbs(I4
I4
tp45
g1
(g10
g3
NtRp46
(dp47
g13
F4.6992075499552879
sg14
I4
sg15
I00
sg16
I4
sg17
I15
sbs(I4
I13
tp48
g1
(g10
g3
NtRp49
(dp50
g13
F-0.90269093814212109
sg14
I4
sg15
I01
sg16
I13
sg17
I119
sbs(I1
I5
tp51
g1
(g10
g3
NtRp52
(dp53
g13
F3.4438917261309809
sg14
I1
sg15
I01
sg16
I5
sg17
I10
sbs(I4
I11
tp54
g1
(g10
g3
NtRp55
(dp56
g13
F9.8031871879862607
sg14
I4
sg15
I00
sg16
I11
sg17
I75
sbs(I3
I6
tp57
g1
(g10
g3
NtRp58
(dp59
g13
F-4.3332425882325198
sg14
I3
sg15
I01
sg16
I6
sg17
I19
sbs(I2
I2
tp60
g1
(g10
g3
NtRp61
(dp62
g13
F12.372854069121246
sg14
I2
sg15
I01
sg16
I2
sg17
I2
sbs(I7
I9
tp63
g1
(g10
g3
NtRp64
(dp65
g13
F10.848721293943438
sg14
I7
sg15
I01
sg16
I9
sg17
I41
sbs(I11
I2
tp66
g1
(g10
g3
NtRp67
(dp68
g13
F26.566325892738213
sg14
I11
sg15
I01
sg16
I2
sg17
I74
sbs(I3
I2
tp69
g1
(g10
g3
NtRp70
(dp71
g13
F-7.7880373855163958
sg14
I3
sg15
I01
sg16
I2
sg17
I4
sbs(I10
I4
tp72
g1
(g10
g3
NtRp73
(dp74
g13
F-11.978541823294366
sg14
I10
sg15
I01
sg16
I4
sg17
I90
sbs(I4
I5
tp75
g1
(g10
g3
NtRp76
(dp77
g13
F-19.390651535422339
sg14
I4
sg15
I01
sg16
I5
sg17
I30
sbs(I7
I13
tp78
g1
(g10
g3
NtRp79
(dp80
g13
F1.2407239020662082
sg14
I7
sg15
I01
sg16
I13
sg17
I136
sbs(I1
I4
tp81
g1
(g10
g3
NtRp82
(dp83
g13
F29.784358846888875
sg14
I1
sg15
I01
sg16
I4
sg17
I8
sbs(I2
I10
tp84
g1
(g10
g3
NtRp85
(dp86
g13
F-2.4987759896768811
sg14
I2
sg15
I01
sg16
I10
sg17
I57
sbs(I2
I3
tp87
g1
(g10
g3
NtRp88
(dp89
g13
F-17.070013166976388
sg14
I2
sg15
I01
sg16
I3
sg17
I7
sbs(I12
I11
tp90
g1
(g10
g3
NtRp91
(dp92
g13
F13.146551163319248
sg14
I12
sg15
I01
sg16
I11
sg17
I84
sbs(I4
I2
tp93
g1
(g10
g3
NtRp94
(dp95
g13
F24.494073794535563
sg14
I4
sg15
I00
sg16
I2
sg17
I6
sbs(I6
I5
tp96
g1
(g10
g3
NtRp97
(dp98
g13
F20.1429995480697
sg14
I6
sg15
I01
sg16
I5
sg17
I23
sbs(I5
I3
tp99
g1
(g10
g3
NtRp100
(dp101
g13
F-3.338120290694659
sg14
I5
sg15
I01
sg16
I3
sg17
I14
sbs(I3
I5
tp102
g1
(g10
g3
NtRp103
(dp104
g13
F23.813418349195306
sg14
I3
sg15
I01
sg16
I5
sg17
I13
sbs(I8
I3
tp105
g1
(g10
g3
NtRp106
(dp107
g13
F7.184759419619466
sg14
I8
sg15
I01
sg16
I3
sg17
I71
sbs(I3
I4
tp108
g1
(g10
g3
NtRp109
(dp110
g13
F-21.041023206116805
sg14
I3
sg15
I00
sg16
I4
sg17
I5
sbs(I5
I7
tp111
g1
(g10
g3
NtRp112
(dp113
g13
F-0.46752560439166624
sg14
I5
sg15
I01
sg16
I7
sg17
I28
sbs(I3
I8
tp114
g1
(g10
g3
NtRp115
(dp116
g13
F13.329706347805384
sg14
I3
sg15
I01
sg16
I8
sg17
I49
sbs(I6
I2
tp117
g1
(g10
g3
NtRp118
(dp119
g13
F9.4157238922964659
sg14
I6
sg15
I01
sg16
I2
sg17
I17
sbs(I4
I3
tp120
g1
(g10
g3
NtRp121
(dp122
g13
F-6.9133221510977183
sg14
I4
sg15
I01
sg16
I3
sg17
I12
sbs(I13
I9
tp123
g1
(g10
g3
NtRp124
(dp125
g13
F-1.6499922465889039
sg14
I13
sg15
I01
sg16
I9
sg17
I137
sbs(I5
I2
tp126
g1
(g10
g3
NtRp127
(dp128
g13
F30
sg14
I5
sg15
I01
sg16
I2
sg17
I11
sbs(I2
I4
tp129
g1
(g10
g3
NtRp130
(dp131
g13
F-17.852425849699717
sg14
I2
sg15
I01
sg16
I4
sg17
I24
sbs(I8
I4
tp132
g1
(g10
g3
NtRp133
(dp134
g13
F-15.767500825885419
sg14
I8
sg15
I01
sg16
I4
sg17
I40
sbssS'_input_nodes'
p135
I1
sS'_output_nodes'
p136
I1
sS'_node_gene_type'
p137
cneat.genome
NodeGene
p138
sS'_conn_gene_type'
p139
g10
sS'fitness'
p140
F0.94996763872236722
sS'parent2_id'
p141
I5649
sS'_id'
p142
I5682
sS'parent1_id'
p143
I5649
sS'_node_genes'
p144
(lp145
g1
(g138
g3
NtRp146
(dp147
S'_bias'
p148
I0
sS'_type'
p149
S'INPUT'
p150
sg142
I1
sS'_response'
p151
F4.9242730000000003
sS'_activation_type'
p152
Nsbag1
(g138
g3
NtRp153
(dp154
g148
F-0.62813983987510558
sg149
S'OUTPUT'
p155
sg142
I2
sg151
F5.4521261454634411
sg152
S'tanh'
p156
sbag1
(g138
g3
NtRp157
(dp158
g148
F-4.471578315261203
sg149
S'HIDDEN'
p159
sg142
I3
sg151
F-0.21212420812764107
sg152
g156
sbag1
(g138
g3
NtRp160
(dp161
g148
F-2.5921556393409291
sg149
g159
sg142
I4
sg151
F3.794353018629975
sg152
g156
sbag1
(g138
g3
NtRp162
(dp163
g148
F0.86814659463955135
sg149
g159
sg142
I5
sg151
F5.8979662244932189
sg152
g156
sbag1
(g138
g3
NtRp164
(dp165
g148
F-1.4378034251039455
sg149
g159
sg142
I6
sg151
F0.36391302557995675
sg152
g156
sbag1
(g138
g3
NtRp166
(dp167
g148
F-2.6317897565150195
sg149
g159
sg142
I7
sg151
F4.2955778310769315
sg152
g156
sbag1
(g138
g3
NtRp168
(dp169
g148
F-2.4640601933263042
sg149
g159
sg142
I8
sg151
F5.7527604567785575
sg152
g156
sbag1
(g138
g3
NtRp170
(dp171
g148
F1.4934515469502618
sg149
g159
sg142
I9
sg151
F6.0307972985185039
sg152
g156
sbag1
(g138
g3
NtRp172
(dp173
g148
F-0.41838359849451723
sg149
g159
sg142
I10
sg151
F2.7563274179627237
sg152
g156
sbag1
(g138
g3
NtRp174
(dp175
g148
F0.52464952577289692
sg149
g159
sg142
I11
sg151
F7.198326452228943
sg152
g156
sbag1
(g138
g3
NtRp176
(dp177
g148
F-1.6356797523244329
sg149
g159
sg142
I12
sg151
F5.2151743851951116
sg152
g156
sbag1
(g138
g3
NtRp178
(dp179
g148
F0.88026493259728156
sg149
g159
sg142
I13
sg151
F4.5387400790170069
sg152
g156
sbasb.