ccopy_reg
_reconstructor
p1
(cneat.chromosome
Chromosome
p2
c__builtin__
object
p3
NtRp4
(dp5
S'species_id'
p6
I24
sS'_connection_genes'
p7
(dp8
(I7
I3
tp9
g1
(cneat.genome
ConnectionGene
p10
g3
NtRp11
(dp12
S'_ConnectionGene__weight'
p13
F14.98903807936701
sS'_ConnectionGene__in'
p14
I7
sS'_ConnectionGene__enabled'
p15
I01
sS'_ConnectionGene__out'
p16
I3
sS'_ConnectionGene__innov_number'
p17
I29
sbs(I1
I3
tp18
g1
(g10
g3
NtRp19
(dp20
g13
F-9.1267538653823319
sg14
I1
sg15
I01
sg16
I3
sg17
I3
sbs(I4
I8
tp21
g1
(g10
g3
NtRp22
(dp23
g13
F-1.5592539262018275
sg14
I4
sg15
I01
sg16
I8
sg17
I35
sbs(I5
I6
tp24
g1
(g10
g3
NtRp25
(dp26
g13
F-8.1337030754512298
sg14
I5
sg15
I01
sg16
I6
sg17
I16
sbs(I7
I7
tp27
g1
(g10
g3
NtRp28
(dp29
g13
F11.331604559573888
sg14
I7
sg15
I01
sg16
I7
sg17
I47
sbs(I6
I2
tp30
g1
(g10
g3
NtRp31
(dp32
g13
F-17.266553622665093
sg14
I6
sg15
I01
sg16
I2
sg17
I17
sbs(I8
I5
tp33
g1
(g10
g3
NtRp34
(dp35
g13
F-1.5403446522808513
sg14
I8
sg15
I00
sg16
I5
sg17
I36
sbs(I1
I2
tp36
g1
(g10
g3
NtRp37
(dp38
g13
F-7.4539909131360806
sg14
I1
sg15
I01
sg16
I2
sg17
I1
sbs(I2
I9
tp39
g1
(g10
g3
NtRp40
(dp41
g13
F-4.1474977156636434
sg14
I2
sg15
I01
sg16
I9
sg17
I51
sbs(I11
I5
tp42
g1
(g10
g3
NtRp43
(dp44
g13
F-5.681933253034253
sg14
I11
sg15
I01
sg16
I5
sg17
I81
sbs(I2
I2
tp45
g1
(g10
g3
NtRp46
(dp47
g13
F2.0226964917131331
sg14
I2
sg15
I01
sg16
I2
sg17
I2
sbs(I3
I2
tp48
g1
(g10
g3
NtRp49
(dp50
g13
F-16.393700952024815
sg14
I3
sg15
I01
sg16
I2
sg17
I4
sbs(I4
I5
tp51
g1
(g10
g3
NtRp52
(dp53
g13
F-9.0445728887670853
sg14
I4
sg15
I01
sg16
I5
sg17
I30
sbs(I8
I11
tp54
g1
(g10
g3
NtRp55
(dp56
g13
F6.8070696050927681
sg14
I8
sg15
I01
sg16
I11
sg17
I80
sbs(I9
I3
tp57
g1
(g10
g3
NtRp58
(dp59
g13
F13.285977120136808
sg14
I9
sg15
I01
sg16
I3
sg17
I42
sbs(I1
I4
tp60
g1
(g10
g3
NtRp61
(dp62
g13
F12.389982040173113
sg14
I1
sg15
I01
sg16
I4
sg17
I8
sbs(I2
I10
tp63
g1
(g10
g3
NtRp64
(dp65
g13
F3.1862895857958362
sg14
I2
sg15
I01
sg16
I10
sg17
I57
sbs(I2
I3
tp66
g1
(g10
g3
NtRp67
(dp68
g13
F20.514746322425349
sg14
I2
sg15
I01
sg16
I3
sg17
I7
sbs(I4
I2
tp69
g1
(g10
g3
NtRp70
(dp71
g13
F-5.4433420746187497
sg14
I4
sg15
I01
sg16
I2
sg17
I6
sbs(I3
I5
tp72
g1
(g10
g3
NtRp73
(dp74
g13
F4.6013630011678099
sg14
I3
sg15
I01
sg16
I5
sg17
I13
sbs(I2
I7
tp75
g1
(g10
g3
NtRp76
(dp77
g13
F13.416122702631709
sg14
I2
sg15
I01
sg16
I7
sg17
I34
sbs(I10
I10
tp78
g1
(g10
g3
NtRp79
(dp80
g13
F-5.1729860249138753
sg14
I10
sg15
I01
sg16
I10
sg17
I72
sbs(I3
I4
tp81
g1
(g10
g3
NtRp82
(dp83
g13
F-1.1008607983345007
sg14
I3
sg15
I01
sg16
I4
sg17
I5
sbs(I5
I2
tp84
g1
(g10
g3
NtRp85
(dp86
g13
F5.5251896338800659
sg14
I5
sg15
I00
sg16
I2
sg17
I11
sbs(I10
I2
tp87
g1
(g10
g3
NtRp88
(dp89
g13
F5.2854282193539763
sg14
I10
sg15
I01
sg16
I2
sg17
I65
sbssS'_input_nodes'
p90
I1
sS'_output_nodes'
p91
I1
sS'_node_gene_type'
p92
cneat.genome
NodeGene
p93
sS'_conn_gene_type'
p94
g10
sS'fitness'
p95
F0.98072973107765649
sS'parent2_id'
p96
I2108
sS'_id'
p97
I2123
sS'parent1_id'
p98
I2108
sS'_node_genes'
p99
(lp100
g1
(g93
g3
NtRp101
(dp102
S'_bias'
p103
I0
sS'_type'
p104
S'INPUT'
p105
sg97
I1
sS'_response'
p106
F4.9242730000000003
sS'_activation_type'
p107
Nsbag1
(g93
g3
NtRp108
(dp109
g103
F-1.8195658731521616
sg104
S'OUTPUT'
p110
sg97
I2
sg106
F6.3249328876075444
sg107
S'tanh'
p111
sbag1
(g93
g3
NtRp112
(dp113
g103
F2.5823881547529419
sg104
S'HIDDEN'
p114
sg97
I3
sg106
F1.7558909644730067
sg107
g111
sbag1
(g93
g3
NtRp115
(dp116
g103
F-1.8113778203318622
sg104
g114
sg97
I4
sg106
F7.0205793341442622
sg107
g111
sbag1
(g93
g3
NtRp117
(dp118
g103
F-0.63044662864839729
sg104
g114
sg97
I5
sg106
F5.2440403993015714
sg107
g111
sbag1
(g93
g3
NtRp119
(dp120
g103
F-2.3586804426398316
sg104
g114
sg97
I6
sg106
F3.6092884825380263
sg107
g111
sbag1
(g93
g3
NtRp121
(dp122
g103
F0.99226545783676379
sg104
g114
sg97
I7
sg106
F4.561054830986623
sg107
g111
sbag1
(g93
g3
NtRp123
(dp124
g103
F0.14829539840594569
sg104
g114
sg97
I8
sg106
F5.1507824616858677
sg107
g111
sbag1
(g93
g3
NtRp125
(dp126
g103
F-0.32762153559452206
sg104
g114
sg97
I9
sg106
F5.275042577242731
sg107
g111
sbag1
(g93
g3
NtRp127
(dp128
g103
F-0.54475721654335729
sg104
g114
sg97
I10
sg106
F3.9996376682457151
sg107
g111
sbag1
(g93
g3
NtRp129
(dp130
g103
I0
sg104
g114
sg97
I11
sg106
F5.2395609661756621
sg107
g111
sbasb.