ccopy_reg
_reconstructor
p1
(cneat.chromosome
Chromosome
p2
c__builtin__
object
p3
NtRp4
(dp5
S'species_id'
p6
I44
sS'_connection_genes'
p7
(dp8
(I1
I3
tp9
g1
(cneat.genome
ConnectionGene
p10
g3
NtRp11
(dp12
S'_ConnectionGene__weight'
p13
F29.008473800296162
sS'_ConnectionGene__in'
p14
I1
sS'_ConnectionGene__enabled'
p15
I00
sS'_ConnectionGene__out'
p16
I3
sS'_ConnectionGene__innov_number'
p17
I3
sbs(I6
I6
tp18
g1
(g10
g3
NtRp19
(dp20
g13
F18.066333928870016
sg14
I6
sg15
I01
sg16
I6
sg17
I39
sbs(I5
I6
tp21
g1
(g10
g3
NtRp22
(dp23
g13
F-11.808424905689433
sg14
I5
sg15
I01
sg16
I6
sg17
I16
sbs(I11
I2
tp24
g1
(g10
g3
NtRp25
(dp26
g13
F-6.7204958645043007
sg14
I11
sg15
I01
sg16
I2
sg17
I74
sbs(I3
I10
tp27
g1
(g10
g3
NtRp28
(dp29
g13
F15.620506510135195
sg14
I3
sg15
I01
sg16
I10
sg17
I94
sbs(I7
I2
tp30
g1
(g10
g3
NtRp31
(dp32
g13
F-3.1486665357445096
sg14
I7
sg15
I01
sg16
I2
sg17
I33
sbs(I1
I2
tp33
g1
(g10
g3
NtRp34
(dp35
g13
F21.166902805696832
sg14
I1
sg15
I01
sg16
I2
sg17
I1
sbs(I12
I2
tp36
g1
(g10
g3
NtRp37
(dp38
g13
F16.318935964591699
sg14
I12
sg15
I01
sg16
I2
sg17
I93
sbs(I3
I3
tp39
g1
(g10
g3
NtRp40
(dp41
g13
F8.1556183985275261
sg14
I3
sg15
I01
sg16
I3
sg17
I9
sbs(I5
I12
tp42
g1
(g10
g3
NtRp43
(dp44
g13
F0.55686175954324302
sg14
I5
sg15
I01
sg16
I12
sg17
I118
sbs(I4
I4
tp45
g1
(g10
g3
NtRp46
(dp47
g13
F-3.7444677809025109
sg14
I4
sg15
I01
sg16
I4
sg17
I15
sbs(I1
I5
tp48
g1
(g10
g3
NtRp49
(dp50
g13
F-10.701253530597967
sg14
I1
sg15
I01
sg16
I5
sg17
I10
sbs(I9
I11
tp51
g1
(g10
g3
NtRp52
(dp53
g13
F2.3110510794343559
sg14
I9
sg15
I01
sg16
I11
sg17
I106
sbs(I4
I11
tp54
g1
(g10
g3
NtRp55
(dp56
g13
F14.540700075472447
sg14
I4
sg15
I01
sg16
I11
sg17
I75
sbs(I3
I6
tp57
g1
(g10
g3
NtRp58
(dp59
g13
F16.023099638189017
sg14
I3
sg15
I01
sg16
I6
sg17
I19
sbs(I2
I2
tp60
g1
(g10
g3
NtRp61
(dp62
g13
F-0.65660760916553684
sg14
I2
sg15
I01
sg16
I2
sg17
I2
sbs(I3
I5
tp63
g1
(g10
g3
NtRp64
(dp65
g13
F12.878590695131054
sg14
I3
sg15
I01
sg16
I5
sg17
I13
sbs(I3
I2
tp66
g1
(g10
g3
NtRp67
(dp68
g13
F11.290425637753534
sg14
I3
sg15
I01
sg16
I2
sg17
I4
sbs(I10
I4
tp69
g1
(g10
g3
NtRp70
(dp71
g13
F-10.78639742949008
sg14
I10
sg15
I01
sg16
I4
sg17
I90
sbs(I4
I5
tp72
g1
(g10
g3
NtRp73
(dp74
g13
F20.422938421181229
sg14
I4
sg15
I01
sg16
I5
sg17
I30
sbs(I9
I3
tp75
g1
(g10
g3
NtRp76
(dp77
g13
F29.433360203836823
sg14
I9
sg15
I01
sg16
I3
sg17
I42
sbs(I1
I4
tp78
g1
(g10
g3
NtRp79
(dp80
g13
F22.62881352389838
sg14
I1
sg15
I01
sg16
I4
sg17
I8
sbs(I2
I3
tp81
g1
(g10
g3
NtRp82
(dp83
g13
F-18.719051572554143
sg14
I2
sg15
I01
sg16
I3
sg17
I7
sbs(I1
I9
tp84
g1
(g10
g3
NtRp85
(dp86
g13
F5.0025479179558507
sg14
I1
sg15
I01
sg16
I9
sg17
I50
sbs(I4
I2
tp87
g1
(g10
g3
NtRp88
(dp89
g13
F-15.039563999631181
sg14
I4
sg15
I01
sg16
I2
sg17
I6
sbs(I6
I5
tp90
g1
(g10
g3
NtRp91
(dp92
g13
F16.879512256800801
sg14
I6
sg15
I01
sg16
I5
sg17
I23
sbs(I5
I3
tp93
g1
(g10
g3
NtRp94
(dp95
g13
F26.566163133228116
sg14
I5
sg15
I01
sg16
I3
sg17
I14
sbs(I8
I3
tp96
g1
(g10
g3
NtRp97
(dp98
g13
F-2.0158449702888754
sg14
I8
sg15
I01
sg16
I3
sg17
I71
sbs(I3
I4
tp99
g1
(g10
g3
NtRp100
(dp101
g13
F-2.4844497656985189
sg14
I3
sg15
I00
sg16
I4
sg17
I5
sbs(I5
I7
tp102
g1
(g10
g3
NtRp103
(dp104
g13
F6.3176171898659472
sg14
I5
sg15
I01
sg16
I7
sg17
I28
sbs(I3
I8
tp105
g1
(g10
g3
NtRp106
(dp107
g13
F29.388005171314166
sg14
I3
sg15
I01
sg16
I8
sg17
I49
sbs(I4
I3
tp108
g1
(g10
g3
NtRp109
(dp110
g13
F-9.4669947540591206
sg14
I4
sg15
I01
sg16
I3
sg17
I12
sbs(I5
I2
tp111
g1
(g10
g3
NtRp112
(dp113
g13
F26.009808901425309
sg14
I5
sg15
I00
sg16
I2
sg17
I11
sbs(I2
I4
tp114
g1
(g10
g3
NtRp115
(dp116
g13
F7.3238284689496709
sg14
I2
sg15
I01
sg16
I4
sg17
I24
sbs(I8
I4
tp117
g1
(g10
g3
NtRp118
(dp119
g13
F5.4953742731264548
sg14
I8
sg15
I01
sg16
I4
sg17
I40
sbssS'_input_nodes'
p120
I1
sS'_output_nodes'
p121
I1
sS'_node_gene_type'
p122
cneat.genome
NodeGene
p123
sS'_conn_gene_type'
p124
g10
sS'fitness'
p125
F0.98320191045626559
sS'parent2_id'
p126
I4967
sS'_id'
p127
I4979
sS'parent1_id'
p128
I4967
sS'_node_genes'
p129
(lp130
g1
(g123
g3
NtRp131
(dp132
S'_bias'
p133
I0
sS'_type'
p134
S'INPUT'
p135
sg127
I1
sS'_response'
p136
F4.9242730000000003
sS'_activation_type'
p137
Nsbag1
(g123
g3
NtRp138
(dp139
g133
F1.1645602666149673
sg134
S'OUTPUT'
p140
sg127
I2
sg136
F7.2453825658746664
sg137
S'tanh'
p141
sbag1
(g123
g3
NtRp142
(dp143
g133
F-2.1866286218956681
sg134
S'HIDDEN'
p144
sg127
I3
sg136
F1.7246236368740271
sg137
g141
sbag1
(g123
g3
NtRp145
(dp146
g133
F-0.18597215810834
sg134
g144
sg127
I4
sg136
F3.7567679796868498
sg137
g141
sbag1
(g123
g3
NtRp147
(dp148
g133
F4.0667697325642482
sg134
g144
sg127
I5
sg136
F5.9976968040728513
sg137
g141
sbag1
(g123
g3
NtRp149
(dp150
g133
F-3.8465633999574398
sg134
g144
sg127
I6
sg136
F3.4151947618018235
sg137
g141
sbag1
(g123
g3
NtRp151
(dp152
g133
F0.41807764228624711
sg134
g144
sg127
I7
sg136
F4.8425254313260169
sg137
g141
sbag1
(g123
g3
NtRp153
(dp154
g133
F-1.7940400207496472
sg134
g144
sg127
I8
sg136
F8.3278009235032613
sg137
g141
sbag1
(g123
g3
NtRp155
(dp156
g133
F0.17882387087310675
sg134
g144
sg127
I9
sg136
F5.0077745441758399
sg137
g141
sbag1
(g123
g3
NtRp157
(dp158
g133
F1.529847269362965
sg134
g144
sg127
I10
sg136
F5.3150411208593278
sg137
g141
sbag1
(g123
g3
NtRp159
(dp160
g133
F2.960257686881874
sg134
g144
sg127
I11
sg136
F0.68966466005035854
sg137
g141
sbag1
(g123
g3
NtRp161
(dp162
g133
I0
sg134
g144
sg127
I12
sg136
F4.1721013999286498
sg137
g141
sbasb.