ccopy_reg
_reconstructor
p1
(cneat.chromosome
Chromosome
p2
c__builtin__
object
p3
NtRp4
(dp5
S'species_id'
p6
I64
sS'_connection_genes'
p7
(dp8
(I1
I3
tp9
g1
(cneat.genome
ConnectionGene
p10
g3
NtRp11
(dp12
S'_ConnectionGene__weight'
p13
F27.060312219053571
sS'_ConnectionGene__in'
p14
I1
sS'_ConnectionGene__enabled'
p15
I00
sS'_ConnectionGene__out'
p16
I3
sS'_ConnectionGene__innov_number'
p17
I3
sbs(I6
I6
tp18
g1
(g10
g3
NtRp19
(dp20
g13
F18.220220002219165
sg14
I6
sg15
I01
sg16
I6
sg17
I39
sbs(I5
I6
tp21
g1
(g10
g3
NtRp22
(dp23
g13
F10.267673107264654
sg14
I5
sg15
I01
sg16
I6
sg17
I16
sbs(I14
I4
tp24
g1
(g10
g3
NtRp25
(dp26
g13
F-5.896285736775555
sg14
I14
sg15
I00
sg16
I4
sg17
I159
sbs(I13
I4
tp27
g1
(g10
g3
NtRp28
(dp29
g13
F-0.2953912619026593
sg14
I13
sg15
I01
sg16
I4
sg17
I120
sbs(I1
I15
tp30
g1
(g10
g3
NtRp31
(dp32
g13
F6.6553977463878349
sg14
I1
sg15
I01
sg16
I15
sg17
I168
sbs(I4
I12
tp33
g1
(g10
g3
NtRp34
(dp35
g13
F12.13685762393761
sg14
I4
sg15
I01
sg16
I12
sg17
I102
sbs(I9
I4
tp36
g1
(g10
g3
NtRp37
(dp38
g13
F21.710555441748955
sg14
I9
sg15
I01
sg16
I4
sg17
I77
sbs(I7
I2
tp39
g1
(g10
g3
NtRp40
(dp41
g13
F-9.6072146229534123
sg14
I7
sg15
I01
sg16
I2
sg17
I33
sbs(I1
I2
tp42
g1
(g10
g3
NtRp43
(dp44
g13
F15.123312709442704
sg14
I1
sg15
I01
sg16
I2
sg17
I1
sbs(I4
I9
tp45
g1
(g10
g3
NtRp46
(dp47
g13
F-1.0392413014587751
sg14
I4
sg15
I01
sg16
I9
sg17
I44
sbs(I3
I3
tp48
g1
(g10
g3
NtRp49
(dp50
g13
F29.33186418630876
sg14
I3
sg15
I01
sg16
I3
sg17
I9
sbs(I4
I4
tp51
g1
(g10
g3
NtRp52
(dp53
g13
F0.87892442188218212
sg14
I4
sg15
I00
sg16
I4
sg17
I15
sbs(I4
I13
tp54
g1
(g10
g3
NtRp55
(dp56
g13
F-6.9982562912840622
sg14
I4
sg15
I01
sg16
I13
sg17
I119
sbs(I1
I5
tp57
g1
(g10
g3
NtRp58
(dp59
g13
F20.166012148752728
sg14
I1
sg15
I01
sg16
I5
sg17
I10
sbs(I6
I5
tp60
g1
(g10
g3
NtRp61
(dp62
g13
F25.024812254362256
sg14
I6
sg15
I01
sg16
I5
sg17
I23
sbs(I3
I6
tp63
g1
(g10
g3
NtRp64
(dp65
g13
F-15.410225374334738
sg14
I3
sg15
I01
sg16
I6
sg17
I19
sbs(I2
I2
tp66
g1
(g10
g3
NtRp67
(dp68
g13
F22.46229026313501
sg14
I2
sg15
I01
sg16
I2
sg17
I2
sbs(I5
I7
tp69
g1
(g10
g3
NtRp70
(dp71
g13
F0.65784285861744807
sg14
I5
sg15
I01
sg16
I7
sg17
I28
sbs(I5
I3
tp72
g1
(g10
g3
NtRp73
(dp74
g13
F-11.090042991808799
sg14
I5
sg15
I01
sg16
I3
sg17
I14
sbs(I11
I2
tp75
g1
(g10
g3
NtRp76
(dp77
g13
F29.050397702548693
sg14
I11
sg15
I01
sg16
I2
sg17
I74
sbs(I4
I10
tp78
g1
(g10
g3
NtRp79
(dp80
g13
F4.8951994300323314
sg14
I4
sg15
I01
sg16
I10
sg17
I63
sbs(I3
I2
tp81
g1
(g10
g3
NtRp82
(dp83
g13
F-6.0778479310160272
sg14
I3
sg15
I01
sg16
I2
sg17
I4
sbs(I17
I6
tp84
g1
(g10
g3
NtRp85
(dp86
g13
F5.8994471635361219
sg14
I17
sg15
I01
sg16
I6
sg17
I188
sbs(I10
I4
tp87
g1
(g10
g3
NtRp88
(dp89
g13
F-24.738555926290402
sg14
I10
sg15
I01
sg16
I4
sg17
I90
sbs(I16
I4
tp90
g1
(g10
g3
NtRp91
(dp92
g13
F-6.6676385019181197
sg14
I16
sg15
I01
sg16
I4
sg17
I175
sbs(I4
I5
tp93
g1
(g10
g3
NtRp94
(dp95
g13
F-29.614270651824736
sg14
I4
sg15
I01
sg16
I5
sg17
I30
sbs(I15
I3
tp96
g1
(g10
g3
NtRp97
(dp98
g13
F23.526828946040844
sg14
I15
sg15
I01
sg16
I3
sg17
I169
sbs(I5
I17
tp99
g1
(g10
g3
NtRp100
(dp101
g13
F-0.89098579456370119
sg14
I5
sg15
I01
sg16
I17
sg17
I187
sbs(I1
I4
tp102
g1
(g10
g3
NtRp103
(dp104
g13
F22.114102189261772
sg14
I1
sg15
I01
sg16
I4
sg17
I8
sbs(I2
I10
tp105
g1
(g10
g3
NtRp106
(dp107
g13
F-9.014957191490609
sg14
I2
sg15
I01
sg16
I10
sg17
I57
sbs(I2
I3
tp108
g1
(g10
g3
NtRp109
(dp110
g13
F-11.814276223914813
sg14
I2
sg15
I01
sg16
I3
sg17
I7
sbs(I12
I11
tp111
g1
(g10
g3
NtRp112
(dp113
g13
F11.320841535463888
sg14
I12
sg15
I01
sg16
I11
sg17
I84
sbs(I4
I2
tp114
g1
(g10
g3
NtRp115
(dp116
g13
F18.715167481640339
sg14
I4
sg15
I00
sg16
I2
sg17
I6
sbs(I9
I8
tp117
g1
(g10
g3
NtRp118
(dp119
g13
F-27.918652708108571
sg14
I9
sg15
I01
sg16
I8
sg17
I60
sbs(I2
I14
tp120
g1
(g10
g3
NtRp121
(dp122
g13
F-5.8680015840398418
sg14
I2
sg15
I01
sg16
I14
sg17
I142
sbs(I4
I11
tp123
g1
(g10
g3
NtRp124
(dp125
g13
F13.474555973566947
sg14
I4
sg15
I00
sg16
I11
sg17
I75
sbs(I7
I9
tp126
g1
(g10
g3
NtRp127
(dp128
g13
F9.6353587370306606
sg14
I7
sg15
I01
sg16
I9
sg17
I41
sbs(I3
I5
tp129
g1
(g10
g3
NtRp130
(dp131
g13
F30
sg14
I3
sg15
I01
sg16
I5
sg17
I13
sbs(I8
I3
tp132
g1
(g10
g3
NtRp133
(dp134
g13
F3.133099702593114
sg14
I8
sg15
I01
sg16
I3
sg17
I71
sbs(I14
I16
tp135
g1
(g10
g3
NtRp136
(dp137
g13
F0.78544147514889429
sg14
I14
sg15
I01
sg16
I16
sg17
I174
sbs(I5
I2
tp138
g1
(g10
g3
NtRp139
(dp140
g13
F27.911918059297996
sg14
I5
sg15
I01
sg16
I2
sg17
I11
sbs(I7
I13
tp141
g1
(g10
g3
NtRp142
(dp143
g13
F-7.7925785295716379
sg14
I7
sg15
I01
sg16
I13
sg17
I136
sbs(I3
I8
tp144
g1
(g10
g3
NtRp145
(dp146
g13
F5.828420299870257
sg14
I3
sg15
I01
sg16
I8
sg17
I49
sbs(I6
I2
tp147
g1
(g10
g3
NtRp148
(dp149
g13
F3.8527926253399016
sg14
I6
sg15
I01
sg16
I2
sg17
I17
sbs(I4
I3
tp150
g1
(g10
g3
NtRp151
(dp152
g13
F-3.196290579546873
sg14
I4
sg15
I01
sg16
I3
sg17
I12
sbs(I13
I9
tp153
g1
(g10
g3
NtRp154
(dp155
g13
F-13.117238979083595
sg14
I13
sg15
I01
sg16
I9
sg17
I137
sbs(I3
I4
tp156
g1
(g10
g3
NtRp157
(dp158
g13
F-23.657176537688603
sg14
I3
sg15
I00
sg16
I4
sg17
I5
sbs(I2
I4
tp159
g1
(g10
g3
NtRp160
(dp161
g13
F-25.473376508239941
sg14
I2
sg15
I00
sg16
I4
sg17
I24
sbs(I8
I4
tp162
g1
(g10
g3
NtRp163
(dp164
g13
F-16.112656220845423
sg14
I8
sg15
I01
sg16
I4
sg17
I40
sbssS'_input_nodes'
p165
I1
sS'_output_nodes'
p166
I1
sS'_node_gene_type'
p167
cneat.genome
NodeGene
p168
sS'_conn_gene_type'
p169
g10
sS'fitness'
p170
F0.99196830912114053
sS'parent2_id'
p171
I6433
sS'_id'
p172
I6442
sS'parent1_id'
p173
I6433
sS'_node_genes'
p174
(lp175
g1
(g168
g3
NtRp176
(dp177
S'_bias'
p178
I0
sS'_type'
p179
S'INPUT'
p180
sg172
I1
sS'_response'
p181
F4.9242730000000003
sS'_activation_type'
p182
Nsbag1
(g168
g3
NtRp183
(dp184
g178
F-2.0057515545059443
sg179
S'OUTPUT'
p185
sg172
I2
sg181
F6.3419085953420655
sg182
S'tanh'
p186
sbag1
(g168
g3
NtRp187
(dp188
g178
F-5.1244302011362803
sg179
S'HIDDEN'
p189
sg172
I3
sg181
F0.64693530985633907
sg182
g186
sbag1
(g168
g3
NtRp190
(dp191
g178
F-1.9190300362816419
sg179
g189
sg172
I4
sg181
F4.5190423144141096
sg182
g186
sbag1
(g168
g3
NtRp192
(dp193
g178
F1.808601954654792
sg179
g189
sg172
I5
sg181
F7.3461336960219379
sg182
g186
sbag1
(g168
g3
NtRp194
(dp195
g178
F-1.5812994596954526
sg179
g189
sg172
I6
sg181
F1.4742915698048407
sg182
g186
sbag1
(g168
g3
NtRp196
(dp197
g178
F-2.3101463787458383
sg179
g189
sg172
I7
sg181
F5.3994892036481179
sg182
g186
sbag1
(g168
g3
NtRp198
(dp199
g178
F-1.2671942653831512
sg179
g189
sg172
I8
sg181
F4.7682474772426753
sg182
g186
sbag1
(g168
g3
NtRp200
(dp201
g178
F0.96333620173306556
sg179
g189
sg172
I9
sg181
F3.6041001195853335
sg182
g186
sbag1
(g168
g3
NtRp202
(dp203
g178
F-2.7033650487487408
sg179
g189
sg172
I10
sg181
F0.94996402728323348
sg182
g186
sbag1
(g168
g3
NtRp204
(dp205
g178
F-0.058771222995017303
sg179
g189
sg172
I11
sg181
F7.2305868292618944
sg182
g186
sbag1
(g168
g3
NtRp206
(dp207
g178
F-1.0863828943845941
sg179
g189
sg172
I12
sg181
F5.0298062508590293
sg182
g186
sbag1
(g168
g3
NtRp208
(dp209
g178
F1.2171612632562918
sg179
g189
sg172
I13
sg181
F3.6032376221230189
sg182
g186
sbag1
(g168
g3
NtRp210
(dp211
g178
F0.49018958685803299
sg179
g189
sg172
I14
sg181
F4.9734018862796185
sg182
g186
sbag1
(g168
g3
NtRp212
(dp213
g178
F0.052379709283887008
sg179
g189
sg172
I15
sg181
F4.9205863484433667
sg182
g186
sbag1
(g168
g3
NtRp214
(dp215
g178
F0.40450869833466352
sg179
g189
sg172
I16
sg181
F5.0200283001921093
sg182
g186
sbag1
(g168
g3
NtRp216
(dp217
g178
F-0.30599146367853364
sg179
g189
sg172
I17
sg181
F4.8054354940652981
sg182
g186
sbasb.