ccopy_reg
_reconstructor
p1
(cneat.chromosome
Chromosome
p2
c__builtin__
object
p3
NtRp4
(dp5
S'species_id'
p6
I38
sS'_connection_genes'
p7
(dp8
(I1
I3
tp9
g1
(cneat.genome
ConnectionGene
p10
g3
NtRp11
(dp12
S'_ConnectionGene__weight'
p13
F30
sS'_ConnectionGene__in'
p14
I1
sS'_ConnectionGene__enabled'
p15
I00
sS'_ConnectionGene__out'
p16
I3
sS'_ConnectionGene__innov_number'
p17
I3
sbs(I6
I6
tp18
g1
(g10
g3
NtRp19
(dp20
g13
F15.021762890704505
sg14
I6
sg15
I01
sg16
I6
sg17
I39
sbs(I5
I6
tp21
g1
(g10
g3
NtRp22
(dp23
g13
F-6.7237473305881625
sg14
I5
sg15
I01
sg16
I6
sg17
I16
sbs(I11
I2
tp24
g1
(g10
g3
NtRp25
(dp26
g13
F-5.6104533307047539
sg14
I11
sg15
I01
sg16
I2
sg17
I74
sbs(I7
I2
tp27
g1
(g10
g3
NtRp28
(dp29
g13
F-3.0381738523912372
sg14
I7
sg15
I01
sg16
I2
sg17
I33
sbs(I1
I2
tp30
g1
(g10
g3
NtRp31
(dp32
g13
F17.121116242537472
sg14
I1
sg15
I01
sg16
I2
sg17
I1
sbs(I12
I2
tp33
g1
(g10
g3
NtRp34
(dp35
g13
F18.264434928261174
sg14
I12
sg15
I01
sg16
I2
sg17
I93
sbs(I3
I3
tp36
g1
(g10
g3
NtRp37
(dp38
g13
F13.017291957438488
sg14
I3
sg15
I01
sg16
I3
sg17
I9
sbs(I5
I12
tp39
g1
(g10
g3
NtRp40
(dp41
g13
F-1.665834128771321
sg14
I5
sg15
I01
sg16
I12
sg17
I118
sbs(I4
I4
tp42
g1
(g10
g3
NtRp43
(dp44
g13
F-1.6802602229617962
sg14
I4
sg15
I01
sg16
I4
sg17
I15
sbs(I1
I5
tp45
g1
(g10
g3
NtRp46
(dp47
g13
F-8.5113835488938427
sg14
I1
sg15
I01
sg16
I5
sg17
I10
sbs(I9
I11
tp48
g1
(g10
g3
NtRp49
(dp50
g13
F-4.050302153044905
sg14
I9
sg15
I01
sg16
I11
sg17
I106
sbs(I6
I5
tp51
g1
(g10
g3
NtRp52
(dp53
g13
F9.7925469301615973
sg14
I6
sg15
I01
sg16
I5
sg17
I23
sbs(I3
I6
tp54
g1
(g10
g3
NtRp55
(dp56
g13
F8.271791393820827
sg14
I3
sg15
I01
sg16
I6
sg17
I19
sbs(I2
I2
tp57
g1
(g10
g3
NtRp58
(dp59
g13
F2.0220776369629516
sg14
I2
sg15
I01
sg16
I2
sg17
I2
sbs(I5
I3
tp60
g1
(g10
g3
NtRp61
(dp62
g13
F24.987245618999349
sg14
I5
sg15
I01
sg16
I3
sg17
I14
sbs(I3
I2
tp63
g1
(g10
g3
NtRp64
(dp65
g13
F8.6932043990616563
sg14
I3
sg15
I01
sg16
I2
sg17
I4
sbs(I10
I4
tp66
g1
(g10
g3
NtRp67
(dp68
g13
F-4.3666856681498505
sg14
I10
sg15
I01
sg16
I4
sg17
I90
sbs(I4
I5
tp69
g1
(g10
g3
NtRp70
(dp71
g13
F18.300185844684489
sg14
I4
sg15
I01
sg16
I5
sg17
I30
sbs(I9
I3
tp72
g1
(g10
g3
NtRp73
(dp74
g13
F24.520592651910828
sg14
I9
sg15
I01
sg16
I3
sg17
I42
sbs(I1
I4
tp75
g1
(g10
g3
NtRp76
(dp77
g13
F11.81914224584545
sg14
I1
sg15
I01
sg16
I4
sg17
I8
sbs(I2
I3
tp78
g1
(g10
g3
NtRp79
(dp80
g13
F-15.873541953853456
sg14
I2
sg15
I01
sg16
I3
sg17
I7
sbs(I1
I9
tp81
g1
(g10
g3
NtRp82
(dp83
g13
F0.79675470049488162
sg14
I1
sg15
I01
sg16
I9
sg17
I50
sbs(I4
I2
tp84
g1
(g10
g3
NtRp85
(dp86
g13
F-10.968061275225878
sg14
I4
sg15
I01
sg16
I2
sg17
I6
sbs(I4
I11
tp87
g1
(g10
g3
NtRp88
(dp89
g13
F8.1691899991273704
sg14
I4
sg15
I01
sg16
I11
sg17
I75
sbs(I3
I5
tp90
g1
(g10
g3
NtRp91
(dp92
g13
F14.761190601682149
sg14
I3
sg15
I01
sg16
I5
sg17
I13
sbs(I8
I3
tp93
g1
(g10
g3
NtRp94
(dp95
g13
F-0.94032089143898845
sg14
I8
sg15
I01
sg16
I3
sg17
I71
sbs(I5
I2
tp96
g1
(g10
g3
NtRp97
(dp98
g13
F24.926053817917257
sg14
I5
sg15
I00
sg16
I2
sg17
I11
sbs(I5
I7
tp99
g1
(g10
g3
NtRp100
(dp101
g13
F9.4489928248052415
sg14
I5
sg15
I01
sg16
I7
sg17
I28
sbs(I2
I4
tp102
g1
(g10
g3
NtRp103
(dp104
g13
F12.295524851388974
sg14
I2
sg15
I01
sg16
I4
sg17
I24
sbs(I3
I8
tp105
g1
(g10
g3
NtRp106
(dp107
g13
F24.155629165628376
sg14
I3
sg15
I01
sg16
I8
sg17
I49
sbs(I4
I3
tp108
g1
(g10
g3
NtRp109
(dp110
g13
F-7.0982581498090651
sg14
I4
sg15
I01
sg16
I3
sg17
I12
sbs(I3
I4
tp111
g1
(g10
g3
NtRp112
(dp113
g13
F-1.4423259718330181
sg14
I3
sg15
I00
sg16
I4
sg17
I5
sbs(I3
I10
tp114
g1
(g10
g3
NtRp115
(dp116
g13
F6.6082674848846672
sg14
I3
sg15
I01
sg16
I10
sg17
I94
sbs(I8
I4
tp117
g1
(g10
g3
NtRp118
(dp119
g13
F15.523846542987421
sg14
I8
sg15
I01
sg16
I4
sg17
I40
sbssS'_input_nodes'
p120
I1
sS'_output_nodes'
p121
I1
sS'_node_gene_type'
p122
cneat.genome
NodeGene
p123
sS'_conn_gene_type'
p124
g10
sS'fitness'
p125
F0.89575792979267976
sS'parent2_id'
p126
I4600
sS'_id'
p127
I4625
sS'parent1_id'
p128
I4600
sS'_node_genes'
p129
(lp130
g1
(g123
g3
NtRp131
(dp132
S'_bias'
p133
I0
sS'_type'
p134
S'INPUT'
p135
sg127
I1
sS'_response'
p136
F4.9242730000000003
sS'_activation_type'
p137
Nsbag1
(g123
g3
NtRp138
(dp139
g133
F1.9105985269589159
sg134
S'OUTPUT'
p140
sg127
I2
sg136
F5.4442341660925795
sg137
S'tanh'
p141
sbag1
(g123
g3
NtRp142
(dp143
g133
F-2.0863692010978436
sg134
S'HIDDEN'
p144
sg127
I3
sg136
F1.8478342286999383
sg137
g141
sbag1
(g123
g3
NtRp145
(dp146
g133
F0.12762090646687452
sg134
g144
sg127
I4
sg136
F3.7888336251954637
sg137
g141
sbag1
(g123
g3
NtRp147
(dp148
g133
F4.0445220071372701
sg134
g144
sg127
I5
sg136
F5.0859637351778391
sg137
g141
sbag1
(g123
g3
NtRp149
(dp150
g133
F-3.8909515917579882
sg134
g144
sg127
I6
sg136
F3.3013356548030917
sg137
g141
sbag1
(g123
g3
NtRp151
(dp152
g133
F1.1372402789843217
sg134
g144
sg127
I7
sg136
F5.6925341745665392
sg137
g141
sbag1
(g123
g3
NtRp153
(dp154
g133
F-2.0829332557699409
sg134
g144
sg127
I8
sg136
F7.9387311219418395
sg137
g141
sbag1
(g123
g3
NtRp155
(dp156
g133
F0.17882387087310675
sg134
g144
sg127
I9
sg136
F5.0077745441758399
sg137
g141
sbag1
(g123
g3
NtRp157
(dp158
g133
F-0.23331617542015948
sg134
g144
sg127
I10
sg136
F4.7433850538050786
sg137
g141
sbag1
(g123
g3
NtRp159
(dp160
g133
F1.7049729167352048
sg134
g144
sg127
I11
sg136
F2.8662994813729759
sg137
g141
sbag1
(g123
g3
NtRp161
(dp162
g133
I0
sg134
g144
sg127
I12
sg136
F5.2599220718395614
sg137
g141
sbasb.