ccopy_reg
_reconstructor
p1
(cneat.chromosome
Chromosome
p2
c__builtin__
object
p3
NtRp4
(dp5
S'species_id'
p6
I27
sS'_connection_genes'
p7
(dp8
(I1
I2
tp9
g1
(cneat.genome
ConnectionGene
p10
g3
NtRp11
(dp12
S'_ConnectionGene__weight'
p13
F12.893400554978227
sS'_ConnectionGene__in'
p14
I1
sS'_ConnectionGene__enabled'
p15
I01
sS'_ConnectionGene__out'
p16
I2
sS'_ConnectionGene__innov_number'
p17
I1
sbs(I3
I2
tp18
g1
(g10
g3
NtRp19
(dp20
g13
F19.242223493343701
sg14
I3
sg15
I00
sg16
I2
sg17
I4
sbs(I1
I3
tp21
g1
(g10
g3
NtRp22
(dp23
g13
F11.402248168291312
sg14
I1
sg15
I01
sg16
I3
sg17
I3
sbs(I3
I3
tp24
g1
(g10
g3
NtRp25
(dp26
g13
F10.901681596166449
sg14
I3
sg15
I01
sg16
I3
sg17
I9
sbs(I5
I6
tp27
g1
(g10
g3
NtRp28
(dp29
g13
F9.8137733447926863
sg14
I5
sg15
I01
sg16
I6
sg17
I16
sbs(I3
I4
tp30
g1
(g10
g3
NtRp31
(dp32
g13
F-1.7689210151827766
sg14
I3
sg15
I01
sg16
I4
sg17
I5
sbs(I4
I4
tp33
g1
(g10
g3
NtRp34
(dp35
g13
F-5.3471643954445049
sg14
I4
sg15
I01
sg16
I4
sg17
I15
sbs(I1
I4
tp36
g1
(g10
g3
NtRp37
(dp38
g13
F9.4846087266604329
sg14
I1
sg15
I01
sg16
I4
sg17
I8
sbs(I1
I5
tp39
g1
(g10
g3
NtRp40
(dp41
g13
F5.8547632958985405
sg14
I1
sg15
I01
sg16
I5
sg17
I10
sbs(I2
I3
tp42
g1
(g10
g3
NtRp43
(dp44
g13
F-7.9776169309619593
sg14
I2
sg15
I01
sg16
I3
sg17
I7
sbs(I3
I6
tp45
g1
(g10
g3
NtRp46
(dp47
g13
F-2.2340832338313685
sg14
I3
sg15
I01
sg16
I6
sg17
I19
sbs(I2
I2
tp48
g1
(g10
g3
NtRp49
(dp50
g13
F5.680598442689508
sg14
I2
sg15
I01
sg16
I2
sg17
I2
sbs(I4
I2
tp51
g1
(g10
g3
NtRp52
(dp53
g13
F18.928052336345317
sg14
I4
sg15
I01
sg16
I2
sg17
I6
sbs(I5
I3
tp54
g1
(g10
g3
NtRp55
(dp56
g13
F11.574975224617235
sg14
I5
sg15
I01
sg16
I3
sg17
I14
sbs(I5
I2
tp57
g1
(g10
g3
NtRp58
(dp59
g13
F30
sg14
I5
sg15
I01
sg16
I2
sg17
I11
sbs(I2
I4
tp60
g1
(g10
g3
NtRp61
(dp62
g13
F1.1908530158894362
sg14
I2
sg15
I01
sg16
I4
sg17
I24
sbs(I6
I5
tp63
g1
(g10
g3
NtRp64
(dp65
g13
F19.916661333688424
sg14
I6
sg15
I01
sg16
I5
sg17
I23
sbs(I3
I5
tp66
g1
(g10
g3
NtRp67
(dp68
g13
F4.4898285773736939
sg14
I3
sg15
I01
sg16
I5
sg17
I13
sbssS'_input_nodes'
p69
I1
sS'_output_nodes'
p70
I1
sS'_node_gene_type'
p71
cneat.genome
NodeGene
p72
sS'_conn_gene_type'
p73
g10
sS'fitness'
p74
F0.80579403535340188
sS'parent2_id'
p75
I1967
sS'_id'
p76
I1984
sS'parent1_id'
p77
I1967
sS'_node_genes'
p78
(lp79
g1
(g72
g3
NtRp80
(dp81
S'_bias'
p82
I0
sS'_type'
p83
S'INPUT'
p84
sg76
I1
sS'_response'
p85
F4.9242730000000003
sS'_activation_type'
p86
Nsbag1
(g72
g3
NtRp87
(dp88
g82
F0.41813451466270002
sg83
S'OUTPUT'
p89
sg76
I2
sg85
F6.578003270567744
sg86
S'tanh'
p90
sbag1
(g72
g3
NtRp91
(dp92
g82
F0.70000431227497695
sg83
S'HIDDEN'
p93
sg76
I3
sg85
F3.5395380882003606
sg86
g90
sbag1
(g72
g3
NtRp94
(dp95
g82
F-1.1941221352325404
sg83
g93
sg76
I4
sg85
F3.3975612002668072
sg86
g90
sbag1
(g72
g3
NtRp96
(dp97
g82
F-0.96636512667712804
sg83
g93
sg76
I5
sg85
F3.7673118363010079
sg86
g90
sbag1
(g72
g3
NtRp98
(dp99
g82
F-2.7549672494322079
sg83
g93
sg76
I6
sg85
F4.8103451932303232
sg86
g90
sbasb.