ccopy_reg
_reconstructor
p1
(cneat.chromosome
Chromosome
p2
c__builtin__
object
p3
NtRp4
(dp5
S'species_id'
p6
I55
sS'_connection_genes'
p7
(dp8
(I3
I15
tp9
g1
(cneat.genome
ConnectionGene
p10
g3
NtRp11
(dp12
S'_ConnectionGene__weight'
p13
F-7.4783260832548333
sS'_ConnectionGene__in'
p14
I3
sS'_ConnectionGene__enabled'
p15
I01
sS'_ConnectionGene__out'
p16
I15
sS'_ConnectionGene__innov_number'
p17
I151
sbs(I1
I3
tp18
g1
(g10
g3
NtRp19
(dp20
g13
F25.19810990774501
sg14
I1
sg15
I01
sg16
I3
sg17
I3
sbs(I6
I6
tp21
g1
(g10
g3
NtRp22
(dp23
g13
F19.023978897719402
sg14
I6
sg15
I01
sg16
I6
sg17
I39
sbs(I5
I6
tp24
g1
(g10
g3
NtRp25
(dp26
g13
F4.5046402758039781
sg14
I5
sg15
I01
sg16
I6
sg17
I16
sbs(I9
I8
tp27
g1
(g10
g3
NtRp28
(dp29
g13
F-3.4648511792418355
sg14
I9
sg15
I01
sg16
I8
sg17
I60
sbs(I4
I12
tp30
g1
(g10
g3
NtRp31
(dp32
g13
F-3.3858385119588226
sg14
I4
sg15
I01
sg16
I12
sg17
I102
sbs(I5
I3
tp33
g1
(g10
g3
NtRp34
(dp35
g13
F6.60767479030266
sg14
I5
sg15
I01
sg16
I3
sg17
I14
sbs(I9
I4
tp36
g1
(g10
g3
NtRp37
(dp38
g13
F25.009517906002571
sg14
I9
sg15
I01
sg16
I4
sg17
I77
sbs(I1
I11
tp39
g1
(g10
g3
NtRp40
(dp41
g13
F0.6552271167721645
sg14
I1
sg15
I01
sg16
I11
sg17
I98
sbs(I7
I2
tp42
g1
(g10
g3
NtRp43
(dp44
g13
F-19.249232313802562
sg14
I7
sg15
I01
sg16
I2
sg17
I33
sbs(I10
I4
tp45
g1
(g10
g3
NtRp46
(dp47
g13
F-12.994988815438989
sg14
I10
sg15
I01
sg16
I4
sg17
I90
sbs(I1
I2
tp48
g1
(g10
g3
NtRp49
(dp50
g13
F19.547142387041411
sg14
I1
sg15
I01
sg16
I2
sg17
I1
sbs(I4
I9
tp51
g1
(g10
g3
NtRp52
(dp53
g13
F11.092822832347617
sg14
I4
sg15
I01
sg16
I9
sg17
I44
sbs(I3
I3
tp54
g1
(g10
g3
NtRp55
(dp56
g13
F21.341582765521682
sg14
I3
sg15
I01
sg16
I3
sg17
I9
sbs(I4
I4
tp57
g1
(g10
g3
NtRp58
(dp59
g13
F21.920331337322168
sg14
I4
sg15
I01
sg16
I4
sg17
I15
sbs(I1
I5
tp60
g1
(g10
g3
NtRp61
(dp62
g13
F8.0319822981003011
sg14
I1
sg15
I01
sg16
I5
sg17
I10
sbs(I4
I11
tp63
g1
(g10
g3
NtRp64
(dp65
g13
F7.448360877921786
sg14
I4
sg15
I00
sg16
I11
sg17
I75
sbs(I3
I6
tp66
g1
(g10
g3
NtRp67
(dp68
g13
F7.9877110575253161
sg14
I3
sg15
I00
sg16
I6
sg17
I19
sbs(I2
I2
tp69
g1
(g10
g3
NtRp70
(dp71
g13
F4.9428569688083783
sg14
I2
sg15
I01
sg16
I2
sg17
I2
sbs(I7
I9
tp72
g1
(g10
g3
NtRp73
(dp74
g13
F-10.228290497773944
sg14
I7
sg15
I01
sg16
I9
sg17
I41
sbs(I11
I2
tp75
g1
(g10
g3
NtRp76
(dp77
g13
F10.507244677158056
sg14
I11
sg15
I01
sg16
I2
sg17
I74
sbs(I3
I2
tp78
g1
(g10
g3
NtRp79
(dp80
g13
F-12.554648963264063
sg14
I3
sg15
I01
sg16
I2
sg17
I4
sbs(I12
I14
tp81
g1
(g10
g3
NtRp82
(dp83
g13
F-4.7504978886771365
sg14
I12
sg15
I01
sg16
I14
sg17
I147
sbs(I4
I5
tp84
g1
(g10
g3
NtRp85
(dp86
g13
F-8.1005994646439063
sg14
I4
sg15
I01
sg16
I5
sg17
I30
sbs(I7
I13
tp87
g1
(g10
g3
NtRp88
(dp89
g13
F14.107115208189127
sg14
I7
sg15
I01
sg16
I13
sg17
I136
sbs(I1
I4
tp90
g1
(g10
g3
NtRp91
(dp92
g13
F29.992274950931279
sg14
I1
sg15
I01
sg16
I4
sg17
I8
sbs(I2
I10
tp93
g1
(g10
g3
NtRp94
(dp95
g13
F6.395432065980784
sg14
I2
sg15
I01
sg16
I10
sg17
I57
sbs(I2
I3
tp96
g1
(g10
g3
NtRp97
(dp98
g13
F-13.399219685875083
sg14
I2
sg15
I01
sg16
I3
sg17
I7
sbs(I12
I11
tp99
g1
(g10
g3
NtRp100
(dp101
g13
F0.90163442714432351
sg14
I12
sg15
I00
sg16
I11
sg17
I84
sbs(I4
I2
tp102
g1
(g10
g3
NtRp103
(dp104
g13
F30
sg14
I4
sg15
I00
sg16
I2
sg17
I6
sbs(I6
I5
tp105
g1
(g10
g3
NtRp106
(dp107
g13
F17.576655544260866
sg14
I6
sg15
I01
sg16
I5
sg17
I23
sbs(I3
I5
tp108
g1
(g10
g3
NtRp109
(dp110
g13
F26.792719944877884
sg14
I3
sg15
I01
sg16
I5
sg17
I13
sbs(I14
I11
tp111
g1
(g10
g3
NtRp112
(dp113
g13
F5.9313284012532899
sg14
I14
sg15
I01
sg16
I11
sg17
I148
sbs(I8
I3
tp114
g1
(g10
g3
NtRp115
(dp116
g13
F10.737835800210179
sg14
I8
sg15
I01
sg16
I3
sg17
I71
sbs(I3
I4
tp117
g1
(g10
g3
NtRp118
(dp119
g13
F-19.454709234151473
sg14
I3
sg15
I01
sg16
I4
sg17
I5
sbs(I5
I7
tp120
g1
(g10
g3
NtRp121
(dp122
g13
F13.280035590856039
sg14
I5
sg15
I01
sg16
I7
sg17
I28
sbs(I14
I7
tp123
g1
(g10
g3
NtRp124
(dp125
g13
F-2.6770806522533377
sg14
I14
sg15
I01
sg16
I7
sg17
I149
sbs(I3
I8
tp126
g1
(g10
g3
NtRp127
(dp128
g13
F5.8632724916831158
sg14
I3
sg15
I01
sg16
I8
sg17
I49
sbs(I15
I6
tp129
g1
(g10
g3
NtRp130
(dp131
g13
F-9.3229621903112925
sg14
I15
sg15
I01
sg16
I6
sg17
I152
sbs(I4
I3
tp132
g1
(g10
g3
NtRp133
(dp134
g13
F-7.2086272085530467
sg14
I4
sg15
I01
sg16
I3
sg17
I12
sbs(I13
I9
tp135
g1
(g10
g3
NtRp136
(dp137
g13
F9.6237591696466129
sg14
I13
sg15
I01
sg16
I9
sg17
I137
sbs(I5
I2
tp138
g1
(g10
g3
NtRp139
(dp140
g13
F23.609819545382827
sg14
I5
sg15
I01
sg16
I2
sg17
I11
sbs(I2
I4
tp141
g1
(g10
g3
NtRp142
(dp143
g13
F-22.882237562694502
sg14
I2
sg15
I01
sg16
I4
sg17
I24
sbs(I8
I4
tp144
g1
(g10
g3
NtRp145
(dp146
g13
F-12.754857060126337
sg14
I8
sg15
I01
sg16
I4
sg17
I40
sbssS'_input_nodes'
p147
I1
sS'_output_nodes'
p148
I1
sS'_node_gene_type'
p149
cneat.genome
NodeGene
p150
sS'_conn_gene_type'
p151
g10
sS'fitness'
p152
F0.99288950074057858
sS'parent2_id'
p153
I5915
sS'_id'
p154
I5928
sS'parent1_id'
p155
I5915
sS'_node_genes'
p156
(lp157
g1
(g150
g3
NtRp158
(dp159
S'_bias'
p160
I0
sS'_type'
p161
S'INPUT'
p162
sg154
I1
sS'_response'
p163
F4.9242730000000003
sS'_activation_type'
p164
Nsbag1
(g150
g3
NtRp165
(dp166
g160
F-0.91324798132264617
sg161
S'OUTPUT'
p167
sg154
I2
sg163
F4.321599958882449
sg164
S'tanh'
p168
sbag1
(g150
g3
NtRp169
(dp170
g160
F-4.2288846588961668
sg161
S'HIDDEN'
p171
sg154
I3
sg163
F0.72293988180268298
sg164
g168
sbag1
(g150
g3
NtRp172
(dp173
g160
F-0.57322311030477135
sg161
g171
sg154
I4
sg163
F2.8384711192679202
sg164
g168
sbag1
(g150
g3
NtRp174
(dp175
g160
F1.957857866468365
sg161
g171
sg154
I5
sg163
F3.7867491458700755
sg164
g168
sbag1
(g150
g3
NtRp176
(dp177
g160
F-1.969365160217535
sg161
g171
sg154
I6
sg163
F0.079335483162871645
sg164
g168
sbag1
(g150
g3
NtRp178
(dp179
g160
F-4.9499584028720616
sg161
g171
sg154
I7
sg163
F3.2569988596515569
sg164
g168
sbag1
(g150
g3
NtRp180
(dp181
g160
F1.2981072630363797
sg161
g171
sg154
I8
sg163
F6.4681001404418046
sg164
g168
sbag1
(g150
g3
NtRp182
(dp183
g160
F2.5072303799960287
sg161
g171
sg154
I9
sg163
F6.7824470280374154
sg164
g168
sbag1
(g150
g3
NtRp184
(dp185
g160
F1.3699169321949793
sg161
g171
sg154
I10
sg163
F5.7689622272372079
sg164
g168
sbag1
(g150
g3
NtRp186
(dp187
g160
F0.96873795437656063
sg161
g171
sg154
I11
sg163
F5.0632312673285762
sg164
g168
sbag1
(g150
g3
NtRp188
(dp189
g160
F-0.50245414983532877
sg161
g171
sg154
I12
sg163
F6.0414989991865289
sg164
g168
sbag1
(g150
g3
NtRp190
(dp191
g160
F0.94028144650268342
sg161
g171
sg154
I13
sg163
F4.268452710693392
sg164
g168
sbag1
(g150
g3
NtRp192
(dp193
g160
F1.0217120246957956
sg161
g171
sg154
I14
sg163
F4.5550234424228915
sg164
g168
sbag1
(g150
g3
NtRp194
(dp195
g160
F0.67940873903933097
sg161
g171
sg154
I15
sg163
F4.3630485615523211
sg164
g168
sbasb.