ccopy_reg
_reconstructor
p1
(cneat.chromosome
Chromosome
p2
c__builtin__
object
p3
NtRp4
(dp5
S'species_id'
p6
I51
sS'_connection_genes'
p7
(dp8
(I3
I15
tp9
g1
(cneat.genome
ConnectionGene
p10
g3
NtRp11
(dp12
S'_ConnectionGene__weight'
p13
F1.6260007324545505
sS'_ConnectionGene__in'
p14
I3
sS'_ConnectionGene__enabled'
p15
I01
sS'_ConnectionGene__out'
p16
I15
sS'_ConnectionGene__innov_number'
p17
I151
sbs(I1
I3
tp18
g1
(g10
g3
NtRp19
(dp20
g13
F26.756557969061738
sg14
I1
sg15
I01
sg16
I3
sg17
I3
sbs(I6
I6
tp21
g1
(g10
g3
NtRp22
(dp23
g13
F12.952377585719489
sg14
I6
sg15
I01
sg16
I6
sg17
I39
sbs(I5
I6
tp24
g1
(g10
g3
NtRp25
(dp26
g13
F0.26027424749763961
sg14
I5
sg15
I01
sg16
I6
sg17
I16
sbs(I9
I8
tp27
g1
(g10
g3
NtRp28
(dp29
g13
F-6.7195684385222156
sg14
I9
sg15
I01
sg16
I8
sg17
I60
sbs(I4
I12
tp30
g1
(g10
g3
NtRp31
(dp32
g13
F-3.2762957390356364
sg14
I4
sg15
I01
sg16
I12
sg17
I102
sbs(I9
I4
tp33
g1
(g10
g3
NtRp34
(dp35
g13
F18.531194973587876
sg14
I9
sg15
I01
sg16
I4
sg17
I77
sbs(I7
I2
tp36
g1
(g10
g3
NtRp37
(dp38
g13
F-13.921303783860132
sg14
I7
sg15
I01
sg16
I2
sg17
I33
sbs(I12
I14
tp39
g1
(g10
g3
NtRp40
(dp41
g13
F-4.985107675283003
sg14
I12
sg15
I01
sg16
I14
sg17
I147
sbs(I1
I2
tp42
g1
(g10
g3
NtRp43
(dp44
g13
F11.8597378136296
sg14
I1
sg15
I01
sg16
I2
sg17
I1
sbs(I4
I9
tp45
g1
(g10
g3
NtRp46
(dp47
g13
F7.256715171371007
sg14
I4
sg15
I01
sg16
I9
sg17
I44
sbs(I3
I3
tp48
g1
(g10
g3
NtRp49
(dp50
g13
F23.629311760011266
sg14
I3
sg15
I01
sg16
I3
sg17
I9
sbs(I4
I4
tp51
g1
(g10
g3
NtRp52
(dp53
g13
F16.077283206755656
sg14
I4
sg15
I01
sg16
I4
sg17
I15
sbs(I1
I5
tp54
g1
(g10
g3
NtRp55
(dp56
g13
F10.76373205255649
sg14
I1
sg15
I01
sg16
I5
sg17
I10
sbs(I6
I5
tp57
g1
(g10
g3
NtRp58
(dp59
g13
F15.27109090829777
sg14
I6
sg15
I01
sg16
I5
sg17
I23
sbs(I3
I6
tp60
g1
(g10
g3
NtRp61
(dp62
g13
F0.36622222373388197
sg14
I3
sg15
I00
sg16
I6
sg17
I19
sbs(I2
I2
tp63
g1
(g10
g3
NtRp64
(dp65
g13
F3.0701332265220787
sg14
I2
sg15
I01
sg16
I2
sg17
I2
sbs(I5
I7
tp66
g1
(g10
g3
NtRp67
(dp68
g13
F10.091260220353341
sg14
I5
sg15
I01
sg16
I7
sg17
I28
sbs(I5
I3
tp69
g1
(g10
g3
NtRp70
(dp71
g13
F-0.27606906064628944
sg14
I5
sg15
I01
sg16
I3
sg17
I14
sbs(I11
I2
tp72
g1
(g10
g3
NtRp73
(dp74
g13
F13.360428089925096
sg14
I11
sg15
I01
sg16
I2
sg17
I74
sbs(I14
I11
tp75
g1
(g10
g3
NtRp76
(dp77
g13
F8.6799909723897279
sg14
I14
sg15
I01
sg16
I11
sg17
I148
sbs(I3
I2
tp78
g1
(g10
g3
NtRp79
(dp80
g13
F-7.2068959662103378
sg14
I3
sg15
I01
sg16
I2
sg17
I4
sbs(I10
I4
tp81
g1
(g10
g3
NtRp82
(dp83
g13
F-15.264662188530405
sg14
I10
sg15
I01
sg16
I4
sg17
I90
sbs(I4
I5
tp84
g1
(g10
g3
NtRp85
(dp86
g13
F-13.420044953918868
sg14
I4
sg15
I01
sg16
I5
sg17
I30
sbs(I1
I4
tp87
g1
(g10
g3
NtRp88
(dp89
g13
F28.475037043681688
sg14
I1
sg15
I01
sg16
I4
sg17
I8
sbs(I2
I10
tp90
g1
(g10
g3
NtRp91
(dp92
g13
F4.2114645713903283
sg14
I2
sg15
I01
sg16
I10
sg17
I57
sbs(I2
I3
tp93
g1
(g10
g3
NtRp94
(dp95
g13
F-12.339967117110081
sg14
I2
sg15
I01
sg16
I3
sg17
I7
sbs(I12
I11
tp96
g1
(g10
g3
NtRp97
(dp98
g13
F8.4612658270884094
sg14
I12
sg15
I00
sg16
I11
sg17
I84
sbs(I4
I2
tp99
g1
(g10
g3
NtRp100
(dp101
g13
F26.736263073377771
sg14
I4
sg15
I00
sg16
I2
sg17
I6
sbs(I4
I11
tp102
g1
(g10
g3
NtRp103
(dp104
g13
F12.865537093711438
sg14
I4
sg15
I00
sg16
I11
sg17
I75
sbs(I7
I9
tp105
g1
(g10
g3
NtRp106
(dp107
g13
F4.2332179627162372
sg14
I7
sg15
I01
sg16
I9
sg17
I41
sbs(I3
I5
tp108
g1
(g10
g3
NtRp109
(dp110
g13
F20.83886337110944
sg14
I3
sg15
I01
sg16
I5
sg17
I13
sbs(I8
I3
tp111
g1
(g10
g3
NtRp112
(dp113
g13
F10.609088704636401
sg14
I8
sg15
I01
sg16
I3
sg17
I71
sbs(I5
I2
tp114
g1
(g10
g3
NtRp115
(dp116
g13
F28.515086003007287
sg14
I5
sg15
I01
sg16
I2
sg17
I11
sbs(I7
I13
tp117
g1
(g10
g3
NtRp118
(dp119
g13
F2.192816399209419
sg14
I7
sg15
I01
sg16
I13
sg17
I136
sbs(I14
I7
tp120
g1
(g10
g3
NtRp121
(dp122
g13
F0.88010929043518549
sg14
I14
sg15
I01
sg16
I7
sg17
I149
sbs(I3
I8
tp123
g1
(g10
g3
NtRp124
(dp125
g13
F11.055124526371214
sg14
I3
sg15
I01
sg16
I8
sg17
I49
sbs(I15
I6
tp126
g1
(g10
g3
NtRp127
(dp128
g13
F-9.5326365181407606
sg14
I15
sg15
I01
sg16
I6
sg17
I152
sbs(I4
I3
tp129
g1
(g10
g3
NtRp130
(dp131
g13
F-10.749507064941742
sg14
I4
sg15
I01
sg16
I3
sg17
I12
sbs(I13
I9
tp132
g1
(g10
g3
NtRp133
(dp134
g13
F12.71254672542867
sg14
I13
sg15
I01
sg16
I9
sg17
I137
sbs(I3
I4
tp135
g1
(g10
g3
NtRp136
(dp137
g13
F-22.878481975131017
sg14
I3
sg15
I01
sg16
I4
sg17
I5
sbs(I2
I4
tp138
g1
(g10
g3
NtRp139
(dp140
g13
F-21.699175397001092
sg14
I2
sg15
I01
sg16
I4
sg17
I24
sbs(I8
I4
tp141
g1
(g10
g3
NtRp142
(dp143
g13
F-6.7187190476418071
sg14
I8
sg15
I01
sg16
I4
sg17
I40
sbssS'_input_nodes'
p144
I1
sS'_output_nodes'
p145
I1
sS'_node_gene_type'
p146
cneat.genome
NodeGene
p147
sS'_conn_gene_type'
p148
g10
sS'fitness'
p149
F0.99504579080245981
sS'parent2_id'
p150
I5581
sS'_id'
p151
I5595
sS'parent1_id'
p152
I5581
sS'_node_genes'
p153
(lp154
g1
(g147
g3
NtRp155
(dp156
S'_bias'
p157
I0
sS'_type'
p158
S'INPUT'
p159
sg151
I1
sS'_response'
p160
F4.9242730000000003
sS'_activation_type'
p161
Nsbag1
(g147
g3
NtRp162
(dp163
g157
F-0.6771669265230652
sg158
S'OUTPUT'
p164
sg151
I2
sg160
F4.4668429864808941
sg161
S'tanh'
p165
sbag1
(g147
g3
NtRp166
(dp167
g157
F-4.0554272630184984
sg158
S'HIDDEN'
p168
sg151
I3
sg160
F0.012292605801739194
sg161
g165
sbag1
(g147
g3
NtRp169
(dp170
g157
F-0.29617068009888725
sg158
g168
sg151
I4
sg160
F2.8384711192679202
sg161
g165
sbag1
(g147
g3
NtRp171
(dp172
g157
F1.4759245599865582
sg158
g168
sg151
I5
sg160
F4.9532382727791777
sg161
g165
sbag1
(g147
g3
NtRp173
(dp174
g157
F-1.9322646506864058
sg158
g168
sg151
I6
sg160
F0.079335483162871645
sg161
g165
sbag1
(g147
g3
NtRp175
(dp176
g157
F-3.2412853199343079
sg158
g168
sg151
I7
sg160
F2.9938462241914037
sg161
g165
sbag1
(g147
g3
NtRp177
(dp178
g157
F-0.0050930993789143897
sg158
g168
sg151
I8
sg160
F5.7527604567785575
sg161
g165
sbag1
(g147
g3
NtRp179
(dp180
g157
F1.8947953559173778
sg158
g168
sg151
I9
sg160
F6.0672756230945826
sg161
g165
sbag1
(g147
g3
NtRp181
(dp182
g157
F0.82807420637775098
sg158
g168
sg151
I10
sg160
F4.609029340552226
sg161
g165
sbag1
(g147
g3
NtRp183
(dp184
g157
F0.94841180398491121
sg158
g168
sg151
I11
sg160
F6.2653030289434426
sg161
g165
sbag1
(g147
g3
NtRp185
(dp186
g157
F-2.0557916532073461
sg158
g168
sg151
I12
sg160
F7.0349817503305418
sg161
g165
sbag1
(g147
g3
NtRp187
(dp188
g157
F1.2138942378737856
sg158
g168
sg151
I13
sg160
F4.268452710693392
sg161
g165
sbag1
(g147
g3
NtRp189
(dp190
g157
F0.34525215384397451
sg158
g168
sg151
I14
sg160
F4.9242730000000003
sg161
g165
sbag1
(g147
g3
NtRp191
(dp192
g157
I0
sg158
g168
sg151
I15
sg160
F4.9242730000000003
sg161
g165
sbasb.