ccopy_reg
_reconstructor
p1
(cneat.chromosome
Chromosome
p2
c__builtin__
object
p3
NtRp4
(dp5
S'species_id'
p6
I75
sS'_connection_genes'
p7
(dp8
(I5
I9
tp9
g1
(cneat.genome
ConnectionGene
p10
g3
NtRp11
(dp12
S'_ConnectionGene__weight'
p13
F1.7975047698739095
sS'_ConnectionGene__in'
p14
I5
sS'_ConnectionGene__enabled'
p15
I01
sS'_ConnectionGene__out'
p16
I9
sS'_ConnectionGene__innov_number'
p17
I66
sbs(I1
I3
tp18
g1
(g10
g3
NtRp19
(dp20
g13
F1.4141667287281112
sg14
I1
sg15
I01
sg16
I3
sg17
I3
sbs(I8
I13
tp21
g1
(g10
g3
NtRp22
(dp23
g13
F-8.3815643822139645
sg14
I8
sg15
I01
sg16
I13
sg17
I155
sbs(I11
I11
tp24
g1
(g10
g3
NtRp25
(dp26
g13
F2.6391176218163572
sg14
I11
sg15
I01
sg16
I11
sg17
I122
sbs(I6
I6
tp27
g1
(g10
g3
NtRp28
(dp29
g13
F20.137155268582553
sg14
I6
sg15
I01
sg16
I6
sg17
I39
sbs(I5
I6
tp30
g1
(g10
g3
NtRp31
(dp32
g13
F28.937735020396875
sg14
I5
sg15
I01
sg16
I6
sg17
I16
sbs(I9
I8
tp33
g1
(g10
g3
NtRp34
(dp35
g13
F-19.340003003276149
sg14
I9
sg15
I01
sg16
I8
sg17
I60
sbs(I10
I6
tp36
g1
(g10
g3
NtRp37
(dp38
g13
F-17.486960125122582
sg14
I10
sg15
I01
sg16
I6
sg17
I103
sbs(I9
I4
tp39
g1
(g10
g3
NtRp40
(dp41
g13
F14.869893975539496
sg14
I9
sg15
I01
sg16
I4
sg17
I77
sbs(I3
I14
tp42
g1
(g10
g3
NtRp43
(dp44
g13
F-6.228566712805776
sg14
I3
sg15
I01
sg16
I14
sg17
I150
sbs(I1
I2
tp45
g1
(g10
g3
NtRp46
(dp47
g13
F29.169265141414293
sg14
I1
sg15
I01
sg16
I2
sg17
I1
sbs(I12
I2
tp48
g1
(g10
g3
NtRp49
(dp50
g13
F26.877386057191174
sg14
I12
sg15
I01
sg16
I2
sg17
I93
sbs(I11
I10
tp51
g1
(g10
g3
NtRp52
(dp53
g13
F-4.4737958544189693
sg14
I11
sg15
I01
sg16
I10
sg17
I89
sbs(I4
I9
tp54
g1
(g10
g3
NtRp55
(dp56
g13
F17.823862089351117
sg14
I4
sg15
I01
sg16
I9
sg17
I44
sbs(I3
I3
tp57
g1
(g10
g3
NtRp58
(dp59
g13
F25.030943218199464
sg14
I3
sg15
I01
sg16
I3
sg17
I9
sbs(I14
I5
tp60
g1
(g10
g3
NtRp61
(dp62
g13
F9.9785089983067774
sg14
I14
sg15
I01
sg16
I5
sg17
I237
sbs(I5
I12
tp63
g1
(g10
g3
NtRp64
(dp65
g13
F3.219326948072704
sg14
I5
sg15
I01
sg16
I12
sg17
I118
sbs(I4
I4
tp66
g1
(g10
g3
NtRp67
(dp68
g13
F25.434488002602816
sg14
I4
sg15
I01
sg16
I4
sg17
I15
sbs(I1
I5
tp69
g1
(g10
g3
NtRp70
(dp71
g13
F22.99787572674979
sg14
I1
sg15
I01
sg16
I5
sg17
I10
sbs(I9
I11
tp72
g1
(g10
g3
NtRp73
(dp74
g13
F-15.627415858936494
sg14
I9
sg15
I01
sg16
I11
sg17
I106
sbs(I7
I2
tp75
g1
(g10
g3
NtRp76
(dp77
g13
F-5.3580069528888554
sg14
I7
sg15
I01
sg16
I2
sg17
I33
sbs(I3
I6
tp78
g1
(g10
g3
NtRp79
(dp80
g13
F-10.758038660148527
sg14
I3
sg15
I01
sg16
I6
sg17
I19
sbs(I2
I2
tp81
g1
(g10
g3
NtRp82
(dp83
g13
F26.680312350906618
sg14
I2
sg15
I01
sg16
I2
sg17
I2
sbs(I5
I3
tp84
g1
(g10
g3
NtRp85
(dp86
g13
F14.207386708817372
sg14
I5
sg15
I01
sg16
I3
sg17
I14
sbs(I10
I9
tp87
g1
(g10
g3
NtRp88
(dp89
g13
F22.324296341079268
sg14
I10
sg15
I01
sg16
I9
sg17
I58
sbs(I9
I7
tp90
g1
(g10
g3
NtRp91
(dp92
g13
F25.785271053645424
sg14
I9
sg15
I01
sg16
I7
sg17
I53
sbs(I3
I2
tp93
g1
(g10
g3
NtRp94
(dp95
g13
F-2.4047628245553669
sg14
I3
sg15
I01
sg16
I2
sg17
I4
sbs(I11
I4
tp96
g1
(g10
g3
NtRp97
(dp98
g13
F25.534718050857414
sg14
I11
sg15
I01
sg16
I4
sg17
I101
sbs(I10
I4
tp99
g1
(g10
g3
NtRp100
(dp101
g13
F1.496818226905678
sg14
I10
sg15
I01
sg16
I4
sg17
I90
sbs(I4
I5
tp102
g1
(g10
g3
NtRp103
(dp104
g13
F-19.528772274458166
sg14
I4
sg15
I01
sg16
I5
sg17
I30
sbs(I8
I11
tp105
g1
(g10
g3
NtRp106
(dp107
g13
F-8.5731320849505277
sg14
I8
sg15
I00
sg16
I11
sg17
I80
sbs(I1
I4
tp108
g1
(g10
g3
NtRp109
(dp110
g13
F-6.2099502853713737
sg14
I1
sg15
I01
sg16
I4
sg17
I8
sbs(I2
I3
tp111
g1
(g10
g3
NtRp112
(dp113
g13
F-26.110142824550302
sg14
I2
sg15
I01
sg16
I3
sg17
I7
sbs(I4
I2
tp114
g1
(g10
g3
NtRp115
(dp116
g13
F13.884831948881006
sg14
I4
sg15
I01
sg16
I2
sg17
I6
sbs(I6
I5
tp117
g1
(g10
g3
NtRp118
(dp119
g13
F7.6038475468267217
sg14
I6
sg15
I01
sg16
I5
sg17
I23
sbs(I7
I9
tp120
g1
(g10
g3
NtRp121
(dp122
g13
F23.060046869928541
sg14
I7
sg15
I01
sg16
I9
sg17
I41
sbs(I3
I5
tp123
g1
(g10
g3
NtRp124
(dp125
g13
F2.0124804862151491
sg14
I3
sg15
I00
sg16
I5
sg17
I13
sbs(I8
I3
tp126
g1
(g10
g3
NtRp127
(dp128
g13
F21.677648882103892
sg14
I8
sg15
I01
sg16
I3
sg17
I71
sbs(I5
I2
tp129
g1
(g10
g3
NtRp130
(dp131
g13
F27.80685882410879
sg14
I5
sg15
I01
sg16
I2
sg17
I11
sbs(I5
I7
tp132
g1
(g10
g3
NtRp133
(dp134
g13
F-28.87562515576893
sg14
I5
sg15
I01
sg16
I7
sg17
I28
sbs(I2
I4
tp135
g1
(g10
g3
NtRp136
(dp137
g13
F18.904082737217916
sg14
I2
sg15
I01
sg16
I4
sg17
I24
sbs(I3
I8
tp138
g1
(g10
g3
NtRp139
(dp140
g13
F16.961852088167841
sg14
I3
sg15
I01
sg16
I8
sg17
I49
sbs(I12
I3
tp141
g1
(g10
g3
NtRp142
(dp143
g13
F2.3369922572232453
sg14
I12
sg15
I01
sg16
I3
sg17
I88
sbs(I4
I3
tp144
g1
(g10
g3
NtRp145
(dp146
g13
F4.3607142477152685
sg14
I4
sg15
I01
sg16
I3
sg17
I12
sbs(I13
I11
tp147
g1
(g10
g3
NtRp148
(dp149
g13
F-17.347457213884887
sg14
I13
sg15
I01
sg16
I11
sg17
I235
sbs(I3
I4
tp150
g1
(g10
g3
NtRp151
(dp152
g13
F11.332666691040489
sg14
I3
sg15
I01
sg16
I4
sg17
I5
sbs(I3
I10
tp153
g1
(g10
g3
NtRp154
(dp155
g13
F-5.5612009818002113
sg14
I3
sg15
I01
sg16
I10
sg17
I94
sbs(I8
I4
tp156
g1
(g10
g3
NtRp157
(dp158
g13
F-28.668232069161082
sg14
I8
sg15
I01
sg16
I4
sg17
I40
sbssS'_input_nodes'
p159
I1
sS'_output_nodes'
p160
I1
sS'_node_gene_type'
p161
cneat.genome
NodeGene
p162
sS'_conn_gene_type'
p163
g10
sS'fitness'
p164
F0.99415455692692178
sS'parent2_id'
p165
I7974
sS'_id'
p166
I7990
sS'parent1_id'
p167
I7974
sS'_node_genes'
p168
(lp169
g1
(g162
g3
NtRp170
(dp171
S'_bias'
p172
I0
sS'_type'
p173
S'INPUT'
p174
sg166
I1
sS'_response'
p175
F4.9242730000000003
sS'_activation_type'
p176
Nsbag1
(g162
g3
NtRp177
(dp178
g172
F-5.8699105878108524
sg173
S'OUTPUT'
p179
sg166
I2
sg175
F3.7413258311433624
sg176
S'tanh'
p180
sbag1
(g162
g3
NtRp181
(dp182
g172
F-3.4890131053229805
sg173
S'HIDDEN'
p183
sg166
I3
sg175
F6.4050003058526448
sg176
g180
sbag1
(g162
g3
NtRp184
(dp185
g172
F5.125013806257102
sg173
g183
sg166
I4
sg175
F4.0095889540527159
sg176
g180
sbag1
(g162
g3
NtRp186
(dp187
g172
F3.9794346292367631
sg173
g183
sg166
I5
sg175
F12.549725626857679
sg176
g180
sbag1
(g162
g3
NtRp188
(dp189
g172
F0.16120348313184873
sg173
g183
sg166
I6
sg175
F1.6571793305131299
sg176
g180
sbag1
(g162
g3
NtRp190
(dp191
g172
F-3.1935225484797454
sg173
g183
sg166
I7
sg175
F6.6577618190121663
sg176
g180
sbag1
(g162
g3
NtRp192
(dp193
g172
F-2.6586570718483089
sg173
g183
sg166
I8
sg175
F10.700306761913094
sg176
g180
sbag1
(g162
g3
NtRp194
(dp195
g172
F0.9995444329524128
sg173
g183
sg166
I9
sg175
F8.3144687173027005
sg176
g180
sbag1
(g162
g3
NtRp196
(dp197
g172
F1.6909275862697379
sg173
g183
sg166
I10
sg175
F5.9126850142091234
sg176
g180
sbag1
(g162
g3
NtRp198
(dp199
g172
F0.13236075658481261
sg173
g183
sg166
I11
sg175
F3.8805276535051232
sg176
g180
sbag1
(g162
g3
NtRp200
(dp201
g172
I0
sg173
g183
sg166
I12
sg175
F4.2562300760353589
sg176
g180
sbag1
(g162
g3
NtRp202
(dp203
g172
F-0.709331041488929
sg173
g183
sg166
I13
sg175
F4.9923923240570609
sg176
g180
sbag1
(g162
g3
NtRp204
(dp205
g172
F0.20963216924700709
sg173
g183
sg166
I14
sg175
F3.6311344061621469
sg176
g180
sbasb.