ccopy_reg
_reconstructor
p1
(cneat.chromosome
Chromosome
p2
c__builtin__
object
p3
NtRp4
(dp5
S'species_id'
p6
I51
sS'_connection_genes'
p7
(dp8
(I3
I15
tp9
g1
(cneat.genome
ConnectionGene
p10
g3
NtRp11
(dp12
S'_ConnectionGene__weight'
p13
F-8.0131559483137433
sS'_ConnectionGene__in'
p14
I3
sS'_ConnectionGene__enabled'
p15
I01
sS'_ConnectionGene__out'
p16
I15
sS'_ConnectionGene__innov_number'
p17
I151
sbs(I1
I3
tp18
g1
(g10
g3
NtRp19
(dp20
g13
F26.555696738993209
sg14
I1
sg15
I01
sg16
I3
sg17
I3
sbs(I6
I6
tp21
g1
(g10
g3
NtRp22
(dp23
g13
F18.379854833111345
sg14
I6
sg15
I01
sg16
I6
sg17
I39
sbs(I5
I6
tp24
g1
(g10
g3
NtRp25
(dp26
g13
F2.0335000593719541
sg14
I5
sg15
I01
sg16
I6
sg17
I16
sbs(I9
I8
tp27
g1
(g10
g3
NtRp28
(dp29
g13
F-3.1575404545560977
sg14
I9
sg15
I01
sg16
I8
sg17
I60
sbs(I4
I12
tp30
g1
(g10
g3
NtRp31
(dp32
g13
F-6.5086709470667055
sg14
I4
sg15
I01
sg16
I12
sg17
I102
sbs(I5
I3
tp33
g1
(g10
g3
NtRp34
(dp35
g13
F2.7698348024219821
sg14
I5
sg15
I01
sg16
I3
sg17
I14
sbs(I9
I4
tp36
g1
(g10
g3
NtRp37
(dp38
g13
F17.435667838591716
sg14
I9
sg15
I01
sg16
I4
sg17
I77
sbs(I7
I2
tp39
g1
(g10
g3
NtRp40
(dp41
g13
F-10.37646991825769
sg14
I7
sg15
I01
sg16
I2
sg17
I33
sbs(I10
I4
tp42
g1
(g10
g3
NtRp43
(dp44
g13
F-13.944363029392211
sg14
I10
sg15
I01
sg16
I4
sg17
I90
sbs(I1
I2
tp45
g1
(g10
g3
NtRp46
(dp47
g13
F19.964717762365975
sg14
I1
sg15
I01
sg16
I2
sg17
I1
sbs(I4
I9
tp48
g1
(g10
g3
NtRp49
(dp50
g13
F13.247345919436771
sg14
I4
sg15
I01
sg16
I9
sg17
I44
sbs(I3
I3
tp51
g1
(g10
g3
NtRp52
(dp53
g13
F22.138873682153402
sg14
I3
sg15
I01
sg16
I3
sg17
I9
sbs(I4
I4
tp54
g1
(g10
g3
NtRp55
(dp56
g13
F22.33064708118653
sg14
I4
sg15
I01
sg16
I4
sg17
I15
sbs(I1
I5
tp57
g1
(g10
g3
NtRp58
(dp59
g13
F9.0074810019953677
sg14
I1
sg15
I01
sg16
I5
sg17
I10
sbs(I4
I11
tp60
g1
(g10
g3
NtRp61
(dp62
g13
F10.27568641547429
sg14
I4
sg15
I00
sg16
I11
sg17
I75
sbs(I3
I6
tp63
g1
(g10
g3
NtRp64
(dp65
g13
F1.9694172472348697
sg14
I3
sg15
I00
sg16
I6
sg17
I19
sbs(I2
I2
tp66
g1
(g10
g3
NtRp67
(dp68
g13
F5.0312968655669614
sg14
I2
sg15
I01
sg16
I2
sg17
I2
sbs(I7
I9
tp69
g1
(g10
g3
NtRp70
(dp71
g13
F-2.3553223415536992
sg14
I7
sg15
I01
sg16
I9
sg17
I41
sbs(I11
I2
tp72
g1
(g10
g3
NtRp73
(dp74
g13
F15.434582142637318
sg14
I11
sg15
I01
sg16
I2
sg17
I74
sbs(I3
I2
tp75
g1
(g10
g3
NtRp76
(dp77
g13
F-11.657903563825363
sg14
I3
sg15
I01
sg16
I2
sg17
I4
sbs(I12
I14
tp78
g1
(g10
g3
NtRp79
(dp80
g13
F-10.814350292946237
sg14
I12
sg15
I01
sg16
I14
sg17
I147
sbs(I4
I5
tp81
g1
(g10
g3
NtRp82
(dp83
g13
F-12.60175458100958
sg14
I4
sg15
I01
sg16
I5
sg17
I30
sbs(I7
I13
tp84
g1
(g10
g3
NtRp85
(dp86
g13
F8.3810853508060177
sg14
I7
sg15
I01
sg16
I13
sg17
I136
sbs(I1
I4
tp87
g1
(g10
g3
NtRp88
(dp89
g13
F28.105405927970867
sg14
I1
sg15
I01
sg16
I4
sg17
I8
sbs(I2
I10
tp90
g1
(g10
g3
NtRp91
(dp92
g13
F10.257719690569225
sg14
I2
sg15
I01
sg16
I10
sg17
I57
sbs(I2
I3
tp93
g1
(g10
g3
NtRp94
(dp95
g13
F-13.269117492099523
sg14
I2
sg15
I01
sg16
I3
sg17
I7
sbs(I12
I11
tp96
g1
(g10
g3
NtRp97
(dp98
g13
F4.9461902415329106
sg14
I12
sg15
I00
sg16
I11
sg17
I84
sbs(I4
I2
tp99
g1
(g10
g3
NtRp100
(dp101
g13
F30
sg14
I4
sg15
I00
sg16
I2
sg17
I6
sbs(I6
I5
tp102
g1
(g10
g3
NtRp103
(dp104
g13
F19.713640221071266
sg14
I6
sg15
I01
sg16
I5
sg17
I23
sbs(I3
I5
tp105
g1
(g10
g3
NtRp106
(dp107
g13
F25.821070768501095
sg14
I3
sg15
I01
sg16
I5
sg17
I13
sbs(I14
I11
tp108
g1
(g10
g3
NtRp109
(dp110
g13
F8.513342571762033
sg14
I14
sg15
I01
sg16
I11
sg17
I148
sbs(I8
I3
tp111
g1
(g10
g3
NtRp112
(dp113
g13
F10.535736532923373
sg14
I8
sg15
I01
sg16
I3
sg17
I71
sbs(I3
I4
tp114
g1
(g10
g3
NtRp115
(dp116
g13
F-21.011752080634267
sg14
I3
sg15
I01
sg16
I4
sg17
I5
sbs(I5
I7
tp117
g1
(g10
g3
NtRp118
(dp119
g13
F13.122318419703987
sg14
I5
sg15
I01
sg16
I7
sg17
I28
sbs(I14
I7
tp120
g1
(g10
g3
NtRp121
(dp122
g13
F1.1279102162942716
sg14
I14
sg15
I01
sg16
I7
sg17
I149
sbs(I3
I8
tp123
g1
(g10
g3
NtRp124
(dp125
g13
F11.16461659976278
sg14
I3
sg15
I01
sg16
I8
sg17
I49
sbs(I15
I6
tp126
g1
(g10
g3
NtRp127
(dp128
g13
F-10.404646791871304
sg14
I15
sg15
I01
sg16
I6
sg17
I152
sbs(I4
I3
tp129
g1
(g10
g3
NtRp130
(dp131
g13
F-9.6952712285403262
sg14
I4
sg15
I01
sg16
I3
sg17
I12
sbs(I13
I9
tp132
g1
(g10
g3
NtRp133
(dp134
g13
F6.4397382746784855
sg14
I13
sg15
I01
sg16
I9
sg17
I137
sbs(I5
I2
tp135
g1
(g10
g3
NtRp136
(dp137
g13
F20.092253681117128
sg14
I5
sg15
I01
sg16
I2
sg17
I11
sbs(I2
I4
tp138
g1
(g10
g3
NtRp139
(dp140
g13
F-19.934286097686403
sg14
I2
sg15
I01
sg16
I4
sg17
I24
sbs(I8
I4
tp141
g1
(g10
g3
NtRp142
(dp143
g13
F-12.638844229237774
sg14
I8
sg15
I01
sg16
I4
sg17
I40
sbssS'_input_nodes'
p144
I1
sS'_output_nodes'
p145
I1
sS'_node_gene_type'
p146
cneat.genome
NodeGene
p147
sS'_conn_gene_type'
p148
g10
sS'fitness'
p149
F0.94664892551244351
sS'parent2_id'
p150
I5778
sS'_id'
p151
I5793
sS'parent1_id'
p152
I5778
sS'_node_genes'
p153
(lp154
g1
(g147
g3
NtRp155
(dp156
S'_bias'
p157
I0
sS'_type'
p158
S'INPUT'
p159
sg151
I1
sS'_response'
p160
F4.9242730000000003
sS'_activation_type'
p161
Nsbag1
(g147
g3
NtRp162
(dp163
g157
F-1.0905452534480802
sg158
S'OUTPUT'
p164
sg151
I2
sg160
F4.321599958882449
sg161
S'tanh'
p165
sbag1
(g147
g3
NtRp166
(dp167
g157
F-4.576108977138869
sg158
S'HIDDEN'
p168
sg151
I3
sg160
F0.72293988180268298
sg161
g165
sbag1
(g147
g3
NtRp169
(dp170
g157
F-0.66576163869785865
sg158
g168
sg151
I4
sg160
F2.8384711192679202
sg161
g165
sbag1
(g147
g3
NtRp171
(dp172
g157
F1.957857866468365
sg158
g168
sg151
I5
sg160
F4.6353763618217698
sg161
g165
sbag1
(g147
g3
NtRp173
(dp174
g157
F-1.969365160217535
sg158
g168
sg151
I6
sg160
F0.079335483162871645
sg161
g165
sbag1
(g147
g3
NtRp175
(dp176
g157
F-4.1317015303201385
sg158
g168
sg151
I7
sg160
F2.8075917038242291
sg161
g165
sbag1
(g147
g3
NtRp177
(dp178
g157
F-0.082214179605306997
sg158
g168
sg151
I8
sg160
F5.2109606085944602
sg161
g165
sbag1
(g147
g3
NtRp179
(dp180
g157
F2.1095444250163315
sg158
g168
sg151
I9
sg160
F6.383656213571844
sg161
g165
sbag1
(g147
g3
NtRp181
(dp182
g157
F1.1598725706389188
sg158
g168
sg151
I10
sg160
F4.892543330952221
sg161
g165
sbag1
(g147
g3
NtRp183
(dp184
g157
F0.96873795437656063
sg158
g168
sg151
I11
sg160
F5.72858012990518
sg161
g165
sbag1
(g147
g3
NtRp185
(dp186
g157
F-1.1042570361918043
sg158
g168
sg151
I12
sg160
F6.8807677309714821
sg161
g165
sbag1
(g147
g3
NtRp187
(dp188
g157
F0.82928954060934768
sg158
g168
sg151
I13
sg160
F4.268452710693392
sg161
g165
sbag1
(g147
g3
NtRp189
(dp190
g157
F0.42440535687376646
sg158
g168
sg151
I14
sg160
F4.5550234424228915
sg161
g165
sbag1
(g147
g3
NtRp191
(dp192
g157
F-0.42317321000919367
sg158
g168
sg151
I15
sg160
F4.6396246373147134
sg161
g165
sbasb.