ccopy_reg
_reconstructor
p1
(cneat.chromosome
Chromosome
p2
c__builtin__
object
p3
NtRp4
(dp5
S'species_id'
p6
I32
sS'_connection_genes'
p7
(dp8
(I7
I3
tp9
g1
(cneat.genome
ConnectionGene
p10
g3
NtRp11
(dp12
S'_ConnectionGene__weight'
p13
F9.9680088183640017
sS'_ConnectionGene__in'
p14
I7
sS'_ConnectionGene__enabled'
p15
I01
sS'_ConnectionGene__out'
p16
I3
sS'_ConnectionGene__innov_number'
p17
I29
sbs(I1
I3
tp18
g1
(g10
g3
NtRp19
(dp20
g13
F-8.7156098156675377
sg14
I1
sg15
I01
sg16
I3
sg17
I3
sbs(I4
I8
tp21
g1
(g10
g3
NtRp22
(dp23
g13
F-4.9015754415060364
sg14
I4
sg15
I01
sg16
I8
sg17
I35
sbs(I5
I6
tp24
g1
(g10
g3
NtRp25
(dp26
g13
F-7.9808781036599967
sg14
I5
sg15
I01
sg16
I6
sg17
I16
sbs(I3
I11
tp27
g1
(g10
g3
NtRp28
(dp29
g13
F-3.2924095873480761
sg14
I3
sg15
I01
sg16
I11
sg17
I91
sbs(I6
I2
tp30
g1
(g10
g3
NtRp31
(dp32
g13
F-19.934989411450129
sg14
I6
sg15
I01
sg16
I2
sg17
I17
sbs(I8
I5
tp33
g1
(g10
g3
NtRp34
(dp35
g13
F6.800927476033662
sg14
I8
sg15
I00
sg16
I5
sg17
I36
sbs(I1
I2
tp36
g1
(g10
g3
NtRp37
(dp38
g13
F-10.954154128877793
sg14
I1
sg15
I01
sg16
I2
sg17
I1
sbs(I2
I9
tp39
g1
(g10
g3
NtRp40
(dp41
g13
F8.6913891075287673
sg14
I2
sg15
I01
sg16
I9
sg17
I51
sbs(I11
I5
tp42
g1
(g10
g3
NtRp43
(dp44
g13
F2.7052527050301243
sg14
I11
sg15
I01
sg16
I5
sg17
I81
sbs(I2
I2
tp45
g1
(g10
g3
NtRp46
(dp47
g13
F-3.5314223874762942
sg14
I2
sg15
I01
sg16
I2
sg17
I2
sbs(I3
I2
tp48
g1
(g10
g3
NtRp49
(dp50
g13
F-14.952423187150787
sg14
I3
sg15
I01
sg16
I2
sg17
I4
sbs(I4
I5
tp51
g1
(g10
g3
NtRp52
(dp53
g13
F-7.8132063005934498
sg14
I4
sg15
I01
sg16
I5
sg17
I30
sbs(I8
I11
tp54
g1
(g10
g3
NtRp55
(dp56
g13
F21.295710519688832
sg14
I8
sg15
I01
sg16
I11
sg17
I80
sbs(I9
I3
tp57
g1
(g10
g3
NtRp58
(dp59
g13
F18.042986269556778
sg14
I9
sg15
I01
sg16
I3
sg17
I42
sbs(I1
I4
tp60
g1
(g10
g3
NtRp61
(dp62
g13
F17.164203286751331
sg14
I1
sg15
I01
sg16
I4
sg17
I8
sbs(I7
I7
tp63
g1
(g10
g3
NtRp64
(dp65
g13
F14.708080760863172
sg14
I7
sg15
I01
sg16
I7
sg17
I47
sbs(I2
I3
tp66
g1
(g10
g3
NtRp67
(dp68
g13
F13.748139996958065
sg14
I2
sg15
I01
sg16
I3
sg17
I7
sbs(I4
I2
tp69
g1
(g10
g3
NtRp70
(dp71
g13
F-7.1905537456545492
sg14
I4
sg15
I01
sg16
I2
sg17
I6
sbs(I2
I10
tp72
g1
(g10
g3
NtRp73
(dp74
g13
F1.0255733455594545
sg14
I2
sg15
I01
sg16
I10
sg17
I57
sbs(I3
I5
tp75
g1
(g10
g3
NtRp76
(dp77
g13
F13.403480530350933
sg14
I3
sg15
I01
sg16
I5
sg17
I13
sbs(I2
I7
tp78
g1
(g10
g3
NtRp79
(dp80
g13
F14.931138927075608
sg14
I2
sg15
I01
sg16
I7
sg17
I34
sbs(I8
I3
tp81
g1
(g10
g3
NtRp82
(dp83
g13
F-10.400960295077773
sg14
I8
sg15
I01
sg16
I3
sg17
I71
sbs(I10
I10
tp84
g1
(g10
g3
NtRp85
(dp86
g13
F-10.54885999447416
sg14
I10
sg15
I01
sg16
I10
sg17
I72
sbs(I3
I4
tp87
g1
(g10
g3
NtRp88
(dp89
g13
F9.5802919835772755
sg14
I3
sg15
I01
sg16
I4
sg17
I5
sbs(I5
I2
tp90
g1
(g10
g3
NtRp91
(dp92
g13
F12.047422057643898
sg14
I5
sg15
I00
sg16
I2
sg17
I11
sbs(I10
I2
tp93
g1
(g10
g3
NtRp94
(dp95
g13
F6.271772484552594
sg14
I10
sg15
I01
sg16
I2
sg17
I65
sbssS'_input_nodes'
p96
I1
sS'_output_nodes'
p97
I1
sS'_node_gene_type'
p98
cneat.genome
NodeGene
p99
sS'_conn_gene_type'
p100
g10
sS'fitness'
p101
F0.87082732819089448
sS'parent2_id'
p102
I2764
sS'_id'
p103
I2788
sS'parent1_id'
p104
I2764
sS'_node_genes'
p105
(lp106
g1
(g99
g3
NtRp107
(dp108
S'_bias'
p109
I0
sS'_type'
p110
S'INPUT'
p111
sg103
I1
sS'_response'
p112
F4.9242730000000003
sS'_activation_type'
p113
Nsbag1
(g99
g3
NtRp114
(dp115
g109
F-3.5010110471454241
sg110
S'OUTPUT'
p116
sg103
I2
sg112
F5.2812732468525088
sg113
S'tanh'
p117
sbag1
(g99
g3
NtRp118
(dp119
g109
F1.0298777597746773
sg110
S'HIDDEN'
p120
sg103
I3
sg112
F0.032777404713701497
sg113
g117
sbag1
(g99
g3
NtRp121
(dp122
g109
F-1.9368604649704584
sg110
g120
sg103
I4
sg112
F7.8202237793268443
sg113
g117
sbag1
(g99
g3
NtRp123
(dp124
g109
F-0.31101621021025383
sg110
g120
sg103
I5
sg112
F3.7376037809618565
sg113
g117
sbag1
(g99
g3
NtRp125
(dp126
g109
F-1.6710637627821465
sg110
g120
sg103
I6
sg112
F3.0951953179453158
sg113
g117
sbag1
(g99
g3
NtRp127
(dp128
g109
F1.5660700003248003
sg110
g120
sg103
I7
sg112
F3.0412711481330041
sg113
g117
sbag1
(g99
g3
NtRp129
(dp130
g109
F-1.2405576189351062
sg110
g120
sg103
I8
sg112
F6.5454400377083912
sg113
g117
sbag1
(g99
g3
NtRp131
(dp132
g109
F-1.251471204913289
sg110
g120
sg103
I9
sg112
F6.1301497643602998
sg113
g117
sbag1
(g99
g3
NtRp133
(dp134
g109
F-0.70611089521261483
sg110
g120
sg103
I10
sg112
F3.9915900733995615
sg113
g117
sbag1
(g99
g3
NtRp135
(dp136
g109
F0.3339016358797211
sg110
g120
sg103
I11
sg112
F5.8481767833937033
sg113
g117
sbasb.