ccopy_reg
_reconstructor
p1
(cneat.chromosome
Chromosome
p2
c__builtin__
object
p3
NtRp4
(dp5
S'species_id'
p6
I68
sS'_connection_genes'
p7
(dp8
(I1
I3
tp9
g1
(cneat.genome
ConnectionGene
p10
g3
NtRp11
(dp12
S'_ConnectionGene__weight'
p13
F23.590008278728607
sS'_ConnectionGene__in'
p14
I1
sS'_ConnectionGene__enabled'
p15
I00
sS'_ConnectionGene__out'
p16
I3
sS'_ConnectionGene__innov_number'
p17
I3
sbs(I6
I6
tp18
g1
(g10
g3
NtRp19
(dp20
g13
F18.641487729891239
sg14
I6
sg15
I01
sg16
I6
sg17
I39
sbs(I5
I6
tp21
g1
(g10
g3
NtRp22
(dp23
g13
F-1.8142265405241949
sg14
I5
sg15
I01
sg16
I6
sg17
I16
sbs(I14
I4
tp24
g1
(g10
g3
NtRp25
(dp26
g13
F-10.618795088917173
sg14
I14
sg15
I00
sg16
I4
sg17
I159
sbs(I9
I8
tp27
g1
(g10
g3
NtRp28
(dp29
g13
F-21.903535702107767
sg14
I9
sg15
I01
sg16
I8
sg17
I60
sbs(I1
I15
tp30
g1
(g10
g3
NtRp31
(dp32
g13
F-0.95886113723834376
sg14
I1
sg15
I01
sg16
I15
sg17
I168
sbs(I4
I12
tp33
g1
(g10
g3
NtRp34
(dp35
g13
F12.553224810534362
sg14
I4
sg15
I01
sg16
I12
sg17
I102
sbs(I9
I4
tp36
g1
(g10
g3
NtRp37
(dp38
g13
F16.47905682812975
sg14
I9
sg15
I01
sg16
I4
sg17
I77
sbs(I4
I2
tp39
g1
(g10
g3
NtRp40
(dp41
g13
F16.053163486881829
sg14
I4
sg15
I01
sg16
I2
sg17
I6
sbs(I7
I2
tp42
g1
(g10
g3
NtRp43
(dp44
g13
F-16.590437318684877
sg14
I7
sg15
I01
sg16
I2
sg17
I33
sbs(I1
I2
tp45
g1
(g10
g3
NtRp46
(dp47
g13
F14.613969116407262
sg14
I1
sg15
I01
sg16
I2
sg17
I1
sbs(I4
I9
tp48
g1
(g10
g3
NtRp49
(dp50
g13
F-0.26760112222744725
sg14
I4
sg15
I01
sg16
I9
sg17
I44
sbs(I3
I3
tp51
g1
(g10
g3
NtRp52
(dp53
g13
F28.480183328968398
sg14
I3
sg15
I01
sg16
I3
sg17
I9
sbs(I4
I4
tp54
g1
(g10
g3
NtRp55
(dp56
g13
F3.8894449910157225
sg14
I4
sg15
I00
sg16
I4
sg17
I15
sbs(I4
I13
tp57
g1
(g10
g3
NtRp58
(dp59
g13
F-2.8174034221595488
sg14
I4
sg15
I01
sg16
I13
sg17
I119
sbs(I1
I5
tp60
g1
(g10
g3
NtRp61
(dp62
g13
F22.685192991199369
sg14
I1
sg15
I01
sg16
I5
sg17
I10
sbs(I4
I11
tp63
g1
(g10
g3
NtRp64
(dp65
g13
F16.902117642506919
sg14
I4
sg15
I00
sg16
I11
sg17
I75
sbs(I3
I6
tp66
g1
(g10
g3
NtRp67
(dp68
g13
F-20.007471532870749
sg14
I3
sg15
I01
sg16
I6
sg17
I19
sbs(I2
I2
tp69
g1
(g10
g3
NtRp70
(dp71
g13
F28.019684523093641
sg14
I2
sg15
I01
sg16
I2
sg17
I2
sbs(I3
I4
tp72
g1
(g10
g3
NtRp73
(dp74
g13
F-24.86819191786768
sg14
I3
sg15
I00
sg16
I4
sg17
I5
sbs(I7
I9
tp75
g1
(g10
g3
NtRp76
(dp77
g13
F3.5151003726560086
sg14
I7
sg15
I01
sg16
I9
sg17
I41
sbs(I11
I2
tp78
g1
(g10
g3
NtRp79
(dp80
g13
F29.159948503885715
sg14
I11
sg15
I01
sg16
I2
sg17
I74
sbs(I4
I10
tp81
g1
(g10
g3
NtRp82
(dp83
g13
F5.4420433248195774
sg14
I4
sg15
I01
sg16
I10
sg17
I63
sbs(I3
I2
tp84
g1
(g10
g3
NtRp85
(dp86
g13
F-1.8237931303356372
sg14
I3
sg15
I01
sg16
I2
sg17
I4
sbs(I10
I4
tp87
g1
(g10
g3
NtRp88
(dp89
g13
F-20.390989551834263
sg14
I10
sg15
I01
sg16
I4
sg17
I90
sbs(I16
I4
tp90
g1
(g10
g3
NtRp91
(dp92
g13
F1.7581787180182249
sg14
I16
sg15
I01
sg16
I4
sg17
I175
sbs(I4
I5
tp93
g1
(g10
g3
NtRp94
(dp95
g13
F-20.301389308295082
sg14
I4
sg15
I01
sg16
I5
sg17
I30
sbs(I15
I3
tp96
g1
(g10
g3
NtRp97
(dp98
g13
F9.0147050910305193
sg14
I15
sg15
I01
sg16
I3
sg17
I169
sbs(I5
I17
tp99
g1
(g10
g3
NtRp100
(dp101
g13
F-4.9756087387934675
sg14
I5
sg15
I01
sg16
I17
sg17
I187
sbs(I7
I13
tp102
g1
(g10
g3
NtRp103
(dp104
g13
F-11.755770779848909
sg14
I7
sg15
I01
sg16
I13
sg17
I136
sbs(I1
I4
tp105
g1
(g10
g3
NtRp106
(dp107
g13
F13.623438200299496
sg14
I1
sg15
I01
sg16
I4
sg17
I8
sbs(I2
I10
tp108
g1
(g10
g3
NtRp109
(dp110
g13
F-25.630136122792525
sg14
I2
sg15
I01
sg16
I10
sg17
I57
sbs(I12
I18
tp111
g1
(g10
g3
NtRp112
(dp113
g13
F-20.173217681348557
sg14
I12
sg15
I01
sg16
I18
sg17
I189
sbs(I2
I3
tp114
g1
(g10
g3
NtRp115
(dp116
g13
F-6.4175838966315517
sg14
I2
sg15
I01
sg16
I3
sg17
I7
sbs(I12
I11
tp117
g1
(g10
g3
NtRp118
(dp119
g13
F6.5210432962042653
sg14
I12
sg15
I00
sg16
I11
sg17
I84
sbs(I17
I6
tp120
g1
(g10
g3
NtRp121
(dp122
g13
F6.1747161651541056
sg14
I17
sg15
I01
sg16
I6
sg17
I188
sbs(I2
I14
tp123
g1
(g10
g3
NtRp124
(dp125
g13
F-5.3554639748507498
sg14
I2
sg15
I01
sg16
I14
sg17
I142
sbs(I6
I5
tp126
g1
(g10
g3
NtRp127
(dp128
g13
F28.711402983757033
sg14
I6
sg15
I01
sg16
I5
sg17
I23
sbs(I5
I3
tp129
g1
(g10
g3
NtRp130
(dp131
g13
F-5.9346789635114732
sg14
I5
sg15
I01
sg16
I3
sg17
I14
sbs(I3
I5
tp132
g1
(g10
g3
NtRp133
(dp134
g13
F20.313152336017037
sg14
I3
sg15
I01
sg16
I5
sg17
I13
sbs(I8
I3
tp135
g1
(g10
g3
NtRp136
(dp137
g13
F12.344390642935471
sg14
I8
sg15
I01
sg16
I3
sg17
I71
sbs(I14
I16
tp138
g1
(g10
g3
NtRp139
(dp140
g13
F5.4319252460827823
sg14
I14
sg15
I01
sg16
I16
sg17
I174
sbs(I18
I11
tp141
g1
(g10
g3
NtRp142
(dp143
g13
F3.3913138925007682
sg14
I18
sg15
I01
sg16
I11
sg17
I190
sbs(I5
I7
tp144
g1
(g10
g3
NtRp145
(dp146
g13
F3.6308735263812491
sg14
I5
sg15
I01
sg16
I7
sg17
I28
sbs(I3
I8
tp147
g1
(g10
g3
NtRp148
(dp149
g13
F3.4598968090788875
sg14
I3
sg15
I01
sg16
I8
sg17
I49
sbs(I6
I2
tp150
g1
(g10
g3
NtRp151
(dp152
g13
F1.6015256433946217
sg14
I6
sg15
I01
sg16
I2
sg17
I17
sbs(I4
I3
tp153
g1
(g10
g3
NtRp154
(dp155
g13
F-7.0168051348812792
sg14
I4
sg15
I01
sg16
I3
sg17
I12
sbs(I13
I9
tp156
g1
(g10
g3
NtRp157
(dp158
g13
F-11.310555793883822
sg14
I13
sg15
I01
sg16
I9
sg17
I137
sbs(I5
I2
tp159
g1
(g10
g3
NtRp160
(dp161
g13
F24.756982103355796
sg14
I5
sg15
I01
sg16
I2
sg17
I11
sbs(I2
I4
tp162
g1
(g10
g3
NtRp163
(dp164
g13
F-15.997427222504211
sg14
I2
sg15
I00
sg16
I4
sg17
I24
sbs(I8
I4
tp165
g1
(g10
g3
NtRp166
(dp167
g13
F-15.482686451064273
sg14
I8
sg15
I01
sg16
I4
sg17
I40
sbssS'_input_nodes'
p168
I1
sS'_output_nodes'
p169
I1
sS'_node_gene_type'
p170
cneat.genome
NodeGene
p171
sS'_conn_gene_type'
p172
g10
sS'fitness'
p173
F0.9570428660197724
sS'parent2_id'
p174
I6896
sS'_id'
p175
I6918
sS'parent1_id'
p176
I6896
sS'_node_genes'
p177
(lp178
g1
(g171
g3
NtRp179
(dp180
S'_bias'
p181
I0
sS'_type'
p182
S'INPUT'
p183
sg175
I1
sS'_response'
p184
F4.9242730000000003
sS'_activation_type'
p185
Nsbag1
(g171
g3
NtRp186
(dp187
g181
F0.023630324484230858
sg182
S'OUTPUT'
p188
sg175
I2
sg184
F6.0012514677867319
sg185
S'tanh'
p189
sbag1
(g171
g3
NtRp190
(dp191
g181
F-5.9686059448163906
sg182
S'HIDDEN'
p192
sg175
I3
sg184
F-0.00061415817488652547
sg185
g189
sbag1
(g171
g3
NtRp193
(dp194
g181
F-3.2020477085650341
sg182
g192
sg175
I4
sg184
F2.5026167353669635
sg185
g189
sbag1
(g171
g3
NtRp195
(dp196
g181
F0.94847835204507924
sg182
g192
sg175
I5
sg184
F7.5466840566679405
sg185
g189
sbag1
(g171
g3
NtRp197
(dp198
g181
F0.26924143510363951
sg182
g192
sg175
I6
sg184
F1.8279789748446333
sg185
g189
sbag1
(g171
g3
NtRp199
(dp200
g181
F-3.1617678743225701
sg182
g192
sg175
I7
sg184
F4.237034083398191
sg185
g189
sbag1
(g171
g3
NtRp201
(dp202
g181
F-2.8301368515779433
sg182
g192
sg175
I8
sg184
F6.4768743140963947
sg185
g189
sbag1
(g171
g3
NtRp203
(dp204
g181
F0.18408788651452734
sg182
g192
sg175
I9
sg184
F2.7468934656628998
sg185
g189
sbag1
(g171
g3
NtRp205
(dp206
g181
F-1.228022801589421
sg182
g192
sg175
I10
sg184
F2.7463882012436827
sg185
g189
sbag1
(g171
g3
NtRp207
(dp208
g181
F1.6175887031658709
sg182
g192
sg175
I11
sg184
F7.4275368209043346
sg185
g189
sbag1
(g171
g3
NtRp209
(dp210
g181
F-2.5606011709061285
sg182
g192
sg175
I12
sg184
F6.0971624844732828
sg185
g189
sbag1
(g171
g3
NtRp211
(dp212
g181
F0.92446998119921575
sg182
g192
sg175
I13
sg184
F3.5833215384207118
sg185
g189
sbag1
(g171
g3
NtRp213
(dp214
g181
F-0.325572380660197
sg182
g192
sg175
I14
sg184
F5.6317151739936904
sg185
g189
sbag1
(g171
g3
NtRp215
(dp216
g181
F-0.019529319466926515
sg182
g192
sg175
I15
sg184
F5.340407766720328
sg185
g189
sbag1
(g171
g3
NtRp217
(dp218
g181
F-0.34202745282574049
sg182
g192
sg175
I16
sg184
F5.5532570729181838
sg185
g189
sbag1
(g171
g3
NtRp219
(dp220
g181
F-0.5953359394201333
sg182
g192
sg175
I17
sg184
F5.6352229966485892
sg185
g189
sbag1
(g171
g3
NtRp221
(dp222
g181
I0
sg182
g192
sg175
I18
sg184
F5.4698578527133428
sg185
g189
sbasb.