ccopy_reg
_reconstructor
p1
(cneat.chromosome
Chromosome
p2
c__builtin__
object
p3
NtRp4
(dp5
S'species_id'
p6
I16
sS'_connection_genes'
p7
(dp8
(I1
I2
tp9
g1
(cneat.genome
ConnectionGene
p10
g3
NtRp11
(dp12
S'_ConnectionGene__weight'
p13
F10.159364705099097
sS'_ConnectionGene__in'
p14
I1
sS'_ConnectionGene__enabled'
p15
I01
sS'_ConnectionGene__out'
p16
I2
sS'_ConnectionGene__innov_number'
p17
I1
sbs(I3
I2
tp18
g1
(g10
g3
NtRp19
(dp20
g13
F14.411112351408734
sg14
I3
sg15
I00
sg16
I2
sg17
I4
sbs(I1
I3
tp21
g1
(g10
g3
NtRp22
(dp23
g13
F4.5838760814680892
sg14
I1
sg15
I01
sg16
I3
sg17
I3
sbs(I3
I3
tp24
g1
(g10
g3
NtRp25
(dp26
g13
F2.9340675456682956
sg14
I3
sg15
I01
sg16
I3
sg17
I9
sbs(I5
I6
tp27
g1
(g10
g3
NtRp28
(dp29
g13
F-4.2806514106055058
sg14
I5
sg15
I01
sg16
I6
sg17
I16
sbs(I5
I2
tp30
g1
(g10
g3
NtRp31
(dp32
g13
F23.693774175181844
sg14
I5
sg15
I01
sg16
I2
sg17
I11
sbs(I1
I4
tp33
g1
(g10
g3
NtRp34
(dp35
g13
F7.3382467171358821
sg14
I1
sg15
I01
sg16
I4
sg17
I8
sbs(I2
I3
tp36
g1
(g10
g3
NtRp37
(dp38
g13
F0.76283401669397233
sg14
I2
sg15
I01
sg16
I3
sg17
I7
sbs(I3
I6
tp39
g1
(g10
g3
NtRp40
(dp41
g13
F-10.301901507622455
sg14
I3
sg15
I01
sg16
I6
sg17
I19
sbs(I2
I2
tp42
g1
(g10
g3
NtRp43
(dp44
g13
F-0.47875518989442645
sg14
I2
sg15
I01
sg16
I2
sg17
I2
sbs(I4
I2
tp45
g1
(g10
g3
NtRp46
(dp47
g13
F18.643432050649757
sg14
I4
sg15
I01
sg16
I2
sg17
I6
sbs(I3
I5
tp48
g1
(g10
g3
NtRp49
(dp50
g13
F0.30800196765313326
sg14
I3
sg15
I01
sg16
I5
sg17
I13
sbs(I3
I4
tp51
g1
(g10
g3
NtRp52
(dp53
g13
F8.6128854049047927
sg14
I3
sg15
I01
sg16
I4
sg17
I5
sbs(I2
I4
tp54
g1
(g10
g3
NtRp55
(dp56
g13
F-4.3627183745734825
sg14
I2
sg15
I01
sg16
I4
sg17
I24
sbs(I6
I5
tp57
g1
(g10
g3
NtRp58
(dp59
g13
F13.606432244873474
sg14
I6
sg15
I01
sg16
I5
sg17
I23
sbs(I5
I3
tp60
g1
(g10
g3
NtRp61
(dp62
g13
F7.2139733599787634
sg14
I5
sg15
I01
sg16
I3
sg17
I14
sbssS'_input_nodes'
p63
I1
sS'_output_nodes'
p64
I1
sS'_node_gene_type'
p65
cneat.genome
NodeGene
p66
sS'_conn_gene_type'
p67
g10
sS'fitness'
p68
F0.914756644968302
sS'parent2_id'
p69
I1266
sS'_id'
p70
I1284
sS'parent1_id'
p71
I1266
sS'_node_genes'
p72
(lp73
g1
(g66
g3
NtRp74
(dp75
S'_bias'
p76
I0
sS'_type'
p77
S'INPUT'
p78
sg70
I1
sS'_response'
p79
F4.9242730000000003
sS'_activation_type'
p80
Nsbag1
(g66
g3
NtRp81
(dp82
g76
F-0.32803419270610884
sg77
S'OUTPUT'
p83
sg70
I2
sg79
F4.6178854672597103
sg80
S'tanh'
p84
sbag1
(g66
g3
NtRp85
(dp86
g76
F1.5425425810647555
sg77
S'HIDDEN'
p87
sg70
I3
sg79
F2.383827411042561
sg80
g84
sbag1
(g66
g3
NtRp88
(dp89
g76
F-1.3041044910739505
sg77
g87
sg70
I4
sg79
F4.9828783456970811
sg80
g84
sbag1
(g66
g3
NtRp90
(dp91
g76
F1.5283454737065354
sg77
g87
sg70
I5
sg79
F2.7439643264323439
sg80
g84
sbag1
(g66
g3
NtRp92
(dp93
g76
F-2.094388399994894
sg77
g87
sg70
I6
sg79
F4.6175192749257183
sg80
g84
sbasb.