ccopy_reg
_reconstructor
p1
(cneat.chromosome
Chromosome
p2
c__builtin__
object
p3
NtRp4
(dp5
S'species_id'
p6
I10
sS'_connection_genes'
p7
(dp8
(I1
I2
tp9
g1
(cneat.genome
ConnectionGene
p10
g3
NtRp11
(dp12
S'_ConnectionGene__weight'
p13
F-13.55422718309147
sS'_ConnectionGene__in'
p14
I1
sS'_ConnectionGene__enabled'
p15
I01
sS'_ConnectionGene__out'
p16
I2
sS'_ConnectionGene__innov_number'
p17
I1
sbs(I3
I2
tp18
g1
(g10
g3
NtRp19
(dp20
g13
F-4.9998125863261267
sg14
I3
sg15
I01
sg16
I2
sg17
I4
sbs(I1
I3
tp21
g1
(g10
g3
NtRp22
(dp23
g13
F-5.1119216105750231
sg14
I1
sg15
I01
sg16
I3
sg17
I3
sbs(I4
I2
tp24
g1
(g10
g3
NtRp25
(dp26
g13
F-1.9184728966196398
sg14
I4
sg15
I01
sg16
I2
sg17
I6
sbs(I4
I4
tp27
g1
(g10
g3
NtRp28
(dp29
g13
F-1.484518282646123
sg14
I4
sg15
I01
sg16
I4
sg17
I15
sbs(I5
I4
tp30
g1
(g10
g3
NtRp31
(dp32
g13
F4.5667996142691285
sg14
I5
sg15
I01
sg16
I4
sg17
I18
sbs(I1
I4
tp33
g1
(g10
g3
NtRp34
(dp35
g13
F4.4148960861141147
sg14
I1
sg15
I01
sg16
I4
sg17
I8
sbs(I1
I5
tp36
g1
(g10
g3
NtRp37
(dp38
g13
F3.1613609177969568
sg14
I1
sg15
I00
sg16
I5
sg17
I10
sbs(I1
I6
tp39
g1
(g10
g3
NtRp40
(dp41
g13
F1.4809929152777404
sg14
I1
sg15
I01
sg16
I6
sg17
I31
sbs(I2
I2
tp42
g1
(g10
g3
NtRp43
(dp44
g13
F-12.227566610592399
sg14
I2
sg15
I01
sg16
I2
sg17
I2
sbs(I2
I3
tp45
g1
(g10
g3
NtRp46
(dp47
g13
F-4.4103359910530679
sg14
I2
sg15
I01
sg16
I3
sg17
I7
sbs(I3
I4
tp48
g1
(g10
g3
NtRp49
(dp50
g13
F-13.9574925195529
sg14
I3
sg15
I01
sg16
I4
sg17
I5
sbs(I6
I5
tp51
g1
(g10
g3
NtRp52
(dp53
g13
F5.6764064189310783
sg14
I6
sg15
I01
sg16
I5
sg17
I23
sbssS'_input_nodes'
p54
I1
sS'_output_nodes'
p55
I1
sS'_node_gene_type'
p56
cneat.genome
NodeGene
p57
sS'_conn_gene_type'
p58
g10
sS'fitness'
p59
F0.97885263437077508
sS'parent2_id'
p60
I1254
sS'_id'
p61
I1335
sS'parent1_id'
p62
I1254
sS'_node_genes'
p63
(lp64
g1
(g57
g3
NtRp65
(dp66
S'_bias'
p67
I0
sS'_type'
p68
S'INPUT'
p69
sg61
I1
sS'_response'
p70
F4.9242730000000003
sS'_activation_type'
p71
Nsbag1
(g57
g3
NtRp72
(dp73
g67
F-0.49921862744252188
sg68
S'OUTPUT'
p74
sg61
I2
sg70
F5.9461287591336189
sg71
S'tanh'
p75
sbag1
(g57
g3
NtRp76
(dp77
g67
F0.96344205086380519
sg68
S'HIDDEN'
p78
sg61
I3
sg70
F3.3163268011479454
sg71
g75
sbag1
(g57
g3
NtRp79
(dp80
g67
F-0.87324574231999375
sg68
g78
sg61
I4
sg70
F5.0757981181836298
sg71
g75
sbag1
(g57
g3
NtRp81
(dp82
g67
I0
sg68
g78
sg61
I5
sg70
F4.9871950440499777
sg71
g75
sbag1
(g57
g3
NtRp83
(dp84
g67
I0
sg68
g78
sg61
I6
sg70
F4.9242730000000003
sg71
g75
sbasb.