ccopy_reg
_reconstructor
p1
(cneat.chromosome
Chromosome
p2
c__builtin__
object
p3
NtRp4
(dp5
S'species_id'
p6
I75
sS'_connection_genes'
p7
(dp8
(I1
I3
tp9
g1
(cneat.genome
ConnectionGene
p10
g3
NtRp11
(dp12
S'_ConnectionGene__weight'
p13
F4.3006792778054157
sS'_ConnectionGene__in'
p14
I1
sS'_ConnectionGene__enabled'
p15
I01
sS'_ConnectionGene__out'
p16
I3
sS'_ConnectionGene__innov_number'
p17
I3
sbs(I8
I13
tp18
g1
(g10
g3
NtRp19
(dp20
g13
F-3.6908074459571285
sg14
I8
sg15
I01
sg16
I13
sg17
I155
sbs(I11
I11
tp21
g1
(g10
g3
NtRp22
(dp23
g13
F2.8823833549999467
sg14
I11
sg15
I01
sg16
I11
sg17
I122
sbs(I6
I6
tp24
g1
(g10
g3
NtRp25
(dp26
g13
F17.747881166315601
sg14
I6
sg15
I01
sg16
I6
sg17
I39
sbs(I5
I6
tp27
g1
(g10
g3
NtRp28
(dp29
g13
F30
sg14
I5
sg15
I01
sg16
I6
sg17
I16
sbs(I9
I8
tp30
g1
(g10
g3
NtRp31
(dp32
g13
F-23.056828472776715
sg14
I9
sg15
I01
sg16
I8
sg17
I60
sbs(I10
I6
tp33
g1
(g10
g3
NtRp34
(dp35
g13
F-16.312790445253341
sg14
I10
sg15
I01
sg16
I6
sg17
I103
sbs(I9
I4
tp36
g1
(g10
g3
NtRp37
(dp38
g13
F14.176733134141301
sg14
I9
sg15
I01
sg16
I4
sg17
I77
sbs(I3
I14
tp39
g1
(g10
g3
NtRp40
(dp41
g13
F-2.9474749916570095
sg14
I3
sg15
I01
sg16
I14
sg17
I150
sbs(I1
I2
tp42
g1
(g10
g3
NtRp43
(dp44
g13
F28.691362622256218
sg14
I1
sg15
I01
sg16
I2
sg17
I1
sbs(I12
I2
tp45
g1
(g10
g3
NtRp46
(dp47
g13
F25.326258045787398
sg14
I12
sg15
I01
sg16
I2
sg17
I93
sbs(I11
I10
tp48
g1
(g10
g3
NtRp49
(dp50
g13
F-5.1239749392849969
sg14
I11
sg15
I01
sg16
I10
sg17
I89
sbs(I4
I9
tp51
g1
(g10
g3
NtRp52
(dp53
g13
F17.016309205111501
sg14
I4
sg15
I01
sg16
I9
sg17
I44
sbs(I3
I3
tp54
g1
(g10
g3
NtRp55
(dp56
g13
F25.049814063034894
sg14
I3
sg15
I01
sg16
I3
sg17
I9
sbs(I14
I5
tp57
g1
(g10
g3
NtRp58
(dp59
g13
F6.2669736451279503
sg14
I14
sg15
I01
sg16
I5
sg17
I237
sbs(I5
I12
tp60
g1
(g10
g3
NtRp61
(dp62
g13
F4.6909837390023936
sg14
I5
sg15
I01
sg16
I12
sg17
I118
sbs(I4
I4
tp63
g1
(g10
g3
NtRp64
(dp65
g13
F26.774121497036358
sg14
I4
sg15
I01
sg16
I4
sg17
I15
sbs(I1
I5
tp66
g1
(g10
g3
NtRp67
(dp68
g13
F22.343135792321732
sg14
I1
sg15
I01
sg16
I5
sg17
I10
sbs(I9
I11
tp69
g1
(g10
g3
NtRp70
(dp71
g13
F-18.035276948989559
sg14
I9
sg15
I01
sg16
I11
sg17
I106
sbs(I7
I2
tp72
g1
(g10
g3
NtRp73
(dp74
g13
F-1.2867974639094117
sg14
I7
sg15
I01
sg16
I2
sg17
I33
sbs(I3
I6
tp75
g1
(g10
g3
NtRp76
(dp77
g13
F-13.466790933031728
sg14
I3
sg15
I01
sg16
I6
sg17
I19
sbs(I2
I2
tp78
g1
(g10
g3
NtRp79
(dp80
g13
F24.484967379835172
sg14
I2
sg15
I01
sg16
I2
sg17
I2
sbs(I5
I3
tp81
g1
(g10
g3
NtRp82
(dp83
g13
F13.752958775989107
sg14
I5
sg15
I01
sg16
I3
sg17
I14
sbs(I10
I9
tp84
g1
(g10
g3
NtRp85
(dp86
g13
F23.884210098979942
sg14
I10
sg15
I01
sg16
I9
sg17
I58
sbs(I9
I7
tp87
g1
(g10
g3
NtRp88
(dp89
g13
F30
sg14
I9
sg15
I01
sg16
I7
sg17
I53
sbs(I3
I2
tp90
g1
(g10
g3
NtRp91
(dp92
g13
F-8.603316818919259
sg14
I3
sg15
I01
sg16
I2
sg17
I4
sbs(I11
I4
tp93
g1
(g10
g3
NtRp94
(dp95
g13
F21.790172212443505
sg14
I11
sg15
I01
sg16
I4
sg17
I101
sbs(I10
I4
tp96
g1
(g10
g3
NtRp97
(dp98
g13
F0.89796902131518619
sg14
I10
sg15
I01
sg16
I4
sg17
I90
sbs(I4
I5
tp99
g1
(g10
g3
NtRp100
(dp101
g13
F-21.015867204774249
sg14
I4
sg15
I01
sg16
I5
sg17
I30
sbs(I8
I11
tp102
g1
(g10
g3
NtRp103
(dp104
g13
F-10.193959233952285
sg14
I8
sg15
I00
sg16
I11
sg17
I80
sbs(I1
I4
tp105
g1
(g10
g3
NtRp106
(dp107
g13
F-10.690376558321367
sg14
I1
sg15
I01
sg16
I4
sg17
I8
sbs(I2
I3
tp108
g1
(g10
g3
NtRp109
(dp110
g13
F-20.034620008979886
sg14
I2
sg15
I01
sg16
I3
sg17
I7
sbs(I4
I2
tp111
g1
(g10
g3
NtRp112
(dp113
g13
F18.646252242605357
sg14
I4
sg15
I01
sg16
I2
sg17
I6
sbs(I6
I5
tp114
g1
(g10
g3
NtRp115
(dp116
g13
F6.7283735297981089
sg14
I6
sg15
I01
sg16
I5
sg17
I23
sbs(I7
I9
tp117
g1
(g10
g3
NtRp118
(dp119
g13
F29.060560299386125
sg14
I7
sg15
I01
sg16
I9
sg17
I41
sbs(I3
I5
tp120
g1
(g10
g3
NtRp121
(dp122
g13
F1.8958236617655948
sg14
I3
sg15
I00
sg16
I5
sg17
I13
sbs(I8
I3
tp123
g1
(g10
g3
NtRp124
(dp125
g13
F22.798219961840079
sg14
I8
sg15
I01
sg16
I3
sg17
I71
sbs(I5
I2
tp126
g1
(g10
g3
NtRp127
(dp128
g13
F27.533907751390771
sg14
I5
sg15
I00
sg16
I2
sg17
I11
sbs(I5
I7
tp129
g1
(g10
g3
NtRp130
(dp131
g13
F-27.113428806199032
sg14
I5
sg15
I01
sg16
I7
sg17
I28
sbs(I2
I4
tp132
g1
(g10
g3
NtRp133
(dp134
g13
F14.536455452686857
sg14
I2
sg15
I01
sg16
I4
sg17
I24
sbs(I3
I8
tp135
g1
(g10
g3
NtRp136
(dp137
g13
F14.82148002815793
sg14
I3
sg15
I01
sg16
I8
sg17
I49
sbs(I12
I3
tp138
g1
(g10
g3
NtRp139
(dp140
g13
F2.9382349004612482
sg14
I12
sg15
I01
sg16
I3
sg17
I88
sbs(I4
I3
tp141
g1
(g10
g3
NtRp142
(dp143
g13
F3.8496216155748701
sg14
I4
sg15
I01
sg16
I3
sg17
I12
sbs(I13
I11
tp144
g1
(g10
g3
NtRp145
(dp146
g13
F-13.179425364148038
sg14
I13
sg15
I01
sg16
I11
sg17
I235
sbs(I3
I4
tp147
g1
(g10
g3
NtRp148
(dp149
g13
F11.630532250620774
sg14
I3
sg15
I01
sg16
I4
sg17
I5
sbs(I3
I10
tp150
g1
(g10
g3
NtRp151
(dp152
g13
F-11.832056405530675
sg14
I3
sg15
I01
sg16
I10
sg17
I94
sbs(I8
I4
tp153
g1
(g10
g3
NtRp154
(dp155
g13
F-25.123482833658773
sg14
I8
sg15
I01
sg16
I4
sg17
I40
sbssS'_input_nodes'
p156
I1
sS'_output_nodes'
p157
I1
sS'_node_gene_type'
p158
cneat.genome
NodeGene
p159
sS'_conn_gene_type'
p160
g10
sS'fitness'
p161
F0.99764088442808418
sS'parent2_id'
p162
I7856
sS'_id'
p163
I7876
sS'parent1_id'
p164
I7856
sS'_node_genes'
p165
(lp166
g1
(g159
g3
NtRp167
(dp168
S'_bias'
p169
I0
sS'_type'
p170
S'INPUT'
p171
sg163
I1
sS'_response'
p172
F4.9242730000000003
sS'_activation_type'
p173
Nsbag1
(g159
g3
NtRp174
(dp175
g169
F-5.8699105878108524
sg170
S'OUTPUT'
p176
sg163
I2
sg172
F3.9377814831735494
sg173
S'tanh'
p177
sbag1
(g159
g3
NtRp178
(dp179
g169
F-3.5221227813784934
sg170
S'HIDDEN'
p180
sg163
I3
sg172
F6.4050003058526448
sg173
g177
sbag1
(g159
g3
NtRp181
(dp182
g169
F5.125013806257102
sg170
g180
sg163
I4
sg172
F3.8550829289714379
sg173
g177
sbag1
(g159
g3
NtRp183
(dp184
g169
F3.9794346292367631
sg170
g180
sg163
I5
sg172
F13.043449600384299
sg173
g177
sbag1
(g159
g3
NtRp185
(dp186
g169
F-1.7765844038663772
sg170
g180
sg163
I6
sg172
F0.76955588018874077
sg173
g177
sbag1
(g159
g3
NtRp187
(dp188
g169
F-3.1935225484797454
sg170
g180
sg163
I7
sg172
F6.7548286120810683
sg173
g177
sbag1
(g159
g3
NtRp189
(dp190
g169
F-1.665607559588234
sg170
g180
sg163
I8
sg172
F10.112559181017161
sg173
g177
sbag1
(g159
g3
NtRp191
(dp192
g169
F2.0454355481535762
sg170
g180
sg163
I9
sg172
F8.3144687173027005
sg173
g177
sbag1
(g159
g3
NtRp193
(dp194
g169
F1.6078495888232713
sg170
g180
sg163
I10
sg172
F5.634220296330037
sg173
g177
sbag1
(g159
g3
NtRp195
(dp196
g169
F0.056967447010522462
sg170
g180
sg163
I11
sg172
F3.7021755787122608
sg173
g177
sbag1
(g159
g3
NtRp197
(dp198
g169
I0
sg170
g180
sg163
I12
sg172
F5.1696867786520624
sg173
g177
sbag1
(g159
g3
NtRp199
(dp200
g169
I0
sg170
g180
sg163
I13
sg172
F5.5088331393287682
sg173
g177
sbag1
(g159
g3
NtRp201
(dp202
g169
F0.44933029943296587
sg170
g180
sg163
I14
sg172
F3.6311344061621469
sg173
g177
sbasb.