ccopy_reg
_reconstructor
p1
(cneat.chromosome
Chromosome
p2
c__builtin__
object
p3
NtRp4
(dp5
S'species_id'
p6
I58
sS'_connection_genes'
p7
(dp8
(I1
I3
tp9
g1
(cneat.genome
ConnectionGene
p10
g3
NtRp11
(dp12
S'_ConnectionGene__weight'
p13
F29.138482619104277
sS'_ConnectionGene__in'
p14
I1
sS'_ConnectionGene__enabled'
p15
I00
sS'_ConnectionGene__out'
p16
I3
sS'_ConnectionGene__innov_number'
p17
I3
sbs(I6
I6
tp18
g1
(g10
g3
NtRp19
(dp20
g13
F10.97730584661079
sg14
I6
sg15
I01
sg16
I6
sg17
I39
sbs(I5
I6
tp21
g1
(g10
g3
NtRp22
(dp23
g13
F12.321885920590418
sg14
I5
sg15
I01
sg16
I6
sg17
I16
sbs(I14
I4
tp24
g1
(g10
g3
NtRp25
(dp26
g13
F-6.4390789757697577
sg14
I14
sg15
I01
sg16
I4
sg17
I159
sbs(I9
I8
tp27
g1
(g10
g3
NtRp28
(dp29
g13
F-15.521942133653289
sg14
I9
sg15
I01
sg16
I8
sg17
I60
sbs(I1
I15
tp30
g1
(g10
g3
NtRp31
(dp32
g13
F0.75213218380565072
sg14
I1
sg15
I01
sg16
I15
sg17
I168
sbs(I4
I12
tp33
g1
(g10
g3
NtRp34
(dp35
g13
F9.5078772065352624
sg14
I4
sg15
I01
sg16
I12
sg17
I102
sbs(I9
I4
tp36
g1
(g10
g3
NtRp37
(dp38
g13
F24.477082417153952
sg14
I9
sg15
I01
sg16
I4
sg17
I77
sbs(I7
I2
tp39
g1
(g10
g3
NtRp40
(dp41
g13
F-4.1758225911355256
sg14
I7
sg15
I01
sg16
I2
sg17
I33
sbs(I1
I2
tp42
g1
(g10
g3
NtRp43
(dp44
g13
F9.1549507735727396
sg14
I1
sg15
I01
sg16
I2
sg17
I1
sbs(I4
I9
tp45
g1
(g10
g3
NtRp46
(dp47
g13
F3.9585376035338324
sg14
I4
sg15
I01
sg16
I9
sg17
I44
sbs(I3
I3
tp48
g1
(g10
g3
NtRp49
(dp50
g13
F26.731243685975947
sg14
I3
sg15
I01
sg16
I3
sg17
I9
sbs(I4
I4
tp51
g1
(g10
g3
NtRp52
(dp53
g13
F-10.443546508038427
sg14
I4
sg15
I00
sg16
I4
sg17
I15
sbs(I4
I13
tp54
g1
(g10
g3
NtRp55
(dp56
g13
F-6.7968611330472548
sg14
I4
sg15
I01
sg16
I13
sg17
I119
sbs(I1
I5
tp57
g1
(g10
g3
NtRp58
(dp59
g13
F15.212347134131047
sg14
I1
sg15
I01
sg16
I5
sg17
I10
sbs(I4
I11
tp60
g1
(g10
g3
NtRp61
(dp62
g13
F4.3353846041381088
sg14
I4
sg15
I01
sg16
I11
sg17
I75
sbs(I3
I6
tp63
g1
(g10
g3
NtRp64
(dp65
g13
F-14.301640991496477
sg14
I3
sg15
I01
sg16
I6
sg17
I19
sbs(I2
I2
tp66
g1
(g10
g3
NtRp67
(dp68
g13
F17.94909366089983
sg14
I2
sg15
I01
sg16
I2
sg17
I2
sbs(I7
I9
tp69
g1
(g10
g3
NtRp70
(dp71
g13
F17.808815086528444
sg14
I7
sg15
I01
sg16
I9
sg17
I41
sbs(I11
I2
tp72
g1
(g10
g3
NtRp73
(dp74
g13
F24.863920818524416
sg14
I11
sg15
I01
sg16
I2
sg17
I74
sbs(I4
I10
tp75
g1
(g10
g3
NtRp76
(dp77
g13
F-3.9126431736855447
sg14
I4
sg15
I01
sg16
I10
sg17
I63
sbs(I3
I2
tp78
g1
(g10
g3
NtRp79
(dp80
g13
F-3.0271079840840827
sg14
I3
sg15
I01
sg16
I2
sg17
I4
sbs(I10
I4
tp81
g1
(g10
g3
NtRp82
(dp83
g13
F-16.880756579949619
sg14
I10
sg15
I01
sg16
I4
sg17
I90
sbs(I4
I5
tp84
g1
(g10
g3
NtRp85
(dp86
g13
F-23.594882711436881
sg14
I4
sg15
I01
sg16
I5
sg17
I30
sbs(I15
I3
tp87
g1
(g10
g3
NtRp88
(dp89
g13
F24.677583129091321
sg14
I15
sg15
I01
sg16
I3
sg17
I169
sbs(I8
I11
tp90
g1
(g10
g3
NtRp91
(dp92
g13
F0.031907169429339355
sg14
I8
sg15
I01
sg16
I11
sg17
I80
sbs(I7
I13
tp93
g1
(g10
g3
NtRp94
(dp95
g13
F-1.9908308264112642
sg14
I7
sg15
I01
sg16
I13
sg17
I136
sbs(I1
I4
tp96
g1
(g10
g3
NtRp97
(dp98
g13
F22.043310710659981
sg14
I1
sg15
I01
sg16
I4
sg17
I8
sbs(I2
I10
tp99
g1
(g10
g3
NtRp100
(dp101
g13
F-7.5411718316358574
sg14
I2
sg15
I01
sg16
I10
sg17
I57
sbs(I2
I3
tp102
g1
(g10
g3
NtRp103
(dp104
g13
F-17.465652945723651
sg14
I2
sg15
I01
sg16
I3
sg17
I7
sbs(I12
I11
tp105
g1
(g10
g3
NtRp106
(dp107
g13
F8.3879282717946655
sg14
I12
sg15
I01
sg16
I11
sg17
I84
sbs(I4
I2
tp108
g1
(g10
g3
NtRp109
(dp110
g13
F18.160585547833911
sg14
I4
sg15
I00
sg16
I2
sg17
I6
sbs(I2
I14
tp111
g1
(g10
g3
NtRp112
(dp113
g13
F-7.1581764336596372
sg14
I2
sg15
I01
sg16
I14
sg17
I142
sbs(I6
I5
tp114
g1
(g10
g3
NtRp115
(dp116
g13
F24.083093752418879
sg14
I6
sg15
I01
sg16
I5
sg17
I23
sbs(I5
I3
tp117
g1
(g10
g3
NtRp118
(dp119
g13
F-9.0335535014483703
sg14
I5
sg15
I01
sg16
I3
sg17
I14
sbs(I3
I5
tp120
g1
(g10
g3
NtRp121
(dp122
g13
F23.424175939884563
sg14
I3
sg15
I01
sg16
I5
sg17
I13
sbs(I8
I3
tp123
g1
(g10
g3
NtRp124
(dp125
g13
F3.1827413063966814
sg14
I8
sg15
I01
sg16
I3
sg17
I71
sbs(I3
I4
tp126
g1
(g10
g3
NtRp127
(dp128
g13
F-19.302094626954357
sg14
I3
sg15
I00
sg16
I4
sg17
I5
sbs(I5
I7
tp129
g1
(g10
g3
NtRp130
(dp131
g13
F-4.6665186266503724
sg14
I5
sg15
I01
sg16
I7
sg17
I28
sbs(I3
I8
tp132
g1
(g10
g3
NtRp133
(dp134
g13
F10.747815523269342
sg14
I3
sg15
I01
sg16
I8
sg17
I49
sbs(I6
I2
tp135
g1
(g10
g3
NtRp136
(dp137
g13
F3.3985303280414429
sg14
I6
sg15
I01
sg16
I2
sg17
I17
sbs(I4
I3
tp138
g1
(g10
g3
NtRp139
(dp140
g13
F-8.8883337610944313
sg14
I4
sg15
I01
sg16
I3
sg17
I12
sbs(I13
I9
tp141
g1
(g10
g3
NtRp142
(dp143
g13
F-6.586865892898361
sg14
I13
sg15
I01
sg16
I9
sg17
I137
sbs(I5
I2
tp144
g1
(g10
g3
NtRp145
(dp146
g13
F27.927557056482254
sg14
I5
sg15
I01
sg16
I2
sg17
I11
sbs(I2
I4
tp147
g1
(g10
g3
NtRp148
(dp149
g13
F-20.757525341239838
sg14
I2
sg15
I00
sg16
I4
sg17
I24
sbs(I8
I4
tp150
g1
(g10
g3
NtRp151
(dp152
g13
F-18.610487130844632
sg14
I8
sg15
I01
sg16
I4
sg17
I40
sbssS'_input_nodes'
p153
I1
sS'_output_nodes'
p154
I1
sS'_node_gene_type'
p155
cneat.genome
NodeGene
p156
sS'_conn_gene_type'
p157
g10
sS'fitness'
p158
F0.98324034415443307
sS'parent2_id'
p159
I6148
sS'_id'
p160
I6175
sS'parent1_id'
p161
I6148
sS'_node_genes'
p162
(lp163
g1
(g156
g3
NtRp164
(dp165
S'_bias'
p166
I0
sS'_type'
p167
S'INPUT'
p168
sg160
I1
sS'_response'
p169
F4.9242730000000003
sS'_activation_type'
p170
Nsbag1
(g156
g3
NtRp171
(dp172
g166
F-0.78319991319391669
sg167
S'OUTPUT'
p173
sg160
I2
sg169
F6.7901404247793113
sg170
S'tanh'
p174
sbag1
(g156
g3
NtRp175
(dp176
g166
F-4.7293099505060008
sg167
S'HIDDEN'
p177
sg160
I3
sg169
F0.84091680991043638
sg170
g174
sbag1
(g156
g3
NtRp178
(dp179
g166
F-2.5432330706358983
sg167
g177
sg160
I4
sg169
F3.8701196715126072
sg170
g174
sbag1
(g156
g3
NtRp180
(dp181
g166
F1.9664827356921708
sg167
g177
sg160
I5
sg169
F6.1586175752591279
sg170
g174
sbag1
(g156
g3
NtRp182
(dp183
g166
F-1.8537920590951471
sg167
g177
sg160
I6
sg169
F1.5311771886258951
sg170
g174
sbag1
(g156
g3
NtRp184
(dp185
g166
F-2.2289296712875295
sg167
g177
sg160
I7
sg169
F4.7281251242517568
sg170
g174
sbag1
(g156
g3
NtRp186
(dp187
g166
F-1.6727080787038051
sg167
g177
sg160
I8
sg169
F4.7041242935077259
sg170
g174
sbag1
(g156
g3
NtRp188
(dp189
g166
F1.1318215536789966
sg167
g177
sg160
I9
sg169
F4.8935435868855901
sg170
g174
sbag1
(g156
g3
NtRp190
(dp191
g166
F-2.3466505872263466
sg167
g177
sg160
I10
sg169
F1.8910281083488769
sg170
g174
sbag1
(g156
g3
NtRp192
(dp193
g166
F-0.046480555312023247
sg167
g177
sg160
I11
sg169
F7.2305868292618944
sg170
g174
sbag1
(g156
g3
NtRp194
(dp195
g166
F-0.67668675210636176
sg167
g177
sg160
I12
sg169
F5.165674186831188
sg170
g174
sbag1
(g156
g3
NtRp196
(dp197
g166
F1.9583958764314207
sg167
g177
sg160
I13
sg169
F4.2350136071345341
sg170
g174
sbag1
(g156
g3
NtRp198
(dp199
g166
F0.35029699062870917
sg167
g177
sg160
I14
sg169
F3.8323755306487959
sg170
g174
sbag1
(g156
g3
NtRp200
(dp201
g166
F0.052379709283887008
sg167
g177
sg160
I15
sg169
F5.0848984594496374
sg170
g174
sbasb.