ccopy_reg
_reconstructor
p1
(cneat.chromosome
Chromosome
p2
c__builtin__
object
p3
NtRp4
(dp5
S'species_id'
p6
I61
sS'_connection_genes'
p7
(dp8
(I1
I3
tp9
g1
(cneat.genome
ConnectionGene
p10
g3
NtRp11
(dp12
S'_ConnectionGene__weight'
p13
F16.035684002123858
sS'_ConnectionGene__in'
p14
I1
sS'_ConnectionGene__enabled'
p15
I01
sS'_ConnectionGene__out'
p16
I3
sS'_ConnectionGene__innov_number'
p17
I3
sbs(I11
I11
tp18
g1
(g10
g3
NtRp19
(dp20
g13
F-4.93984415335912
sg14
I11
sg15
I01
sg16
I11
sg17
I122
sbs(I6
I6
tp21
g1
(g10
g3
NtRp22
(dp23
g13
F14.377653677502222
sg14
I6
sg15
I01
sg16
I6
sg17
I39
sbs(I5
I6
tp24
g1
(g10
g3
NtRp25
(dp26
g13
F30
sg14
I5
sg15
I01
sg16
I6
sg17
I16
sbs(I9
I8
tp27
g1
(g10
g3
NtRp28
(dp29
g13
F-28.289108369339186
sg14
I9
sg15
I01
sg16
I8
sg17
I60
sbs(I9
I4
tp30
g1
(g10
g3
NtRp31
(dp32
g13
F19.29347010805947
sg14
I9
sg15
I01
sg16
I4
sg17
I77
sbs(I7
I2
tp33
g1
(g10
g3
NtRp34
(dp35
g13
F-10.574829533163928
sg14
I7
sg15
I01
sg16
I2
sg17
I33
sbs(I1
I2
tp36
g1
(g10
g3
NtRp37
(dp38
g13
F25.103481275872046
sg14
I1
sg15
I01
sg16
I2
sg17
I1
sbs(I4
I9
tp39
g1
(g10
g3
NtRp40
(dp41
g13
F11.97624837253213
sg14
I4
sg15
I01
sg16
I9
sg17
I44
sbs(I3
I3
tp42
g1
(g10
g3
NtRp43
(dp44
g13
F26.368161805265238
sg14
I3
sg15
I01
sg16
I3
sg17
I9
sbs(I3
I10
tp45
g1
(g10
g3
NtRp46
(dp47
g13
F0.15619829669281859
sg14
I3
sg15
I01
sg16
I10
sg17
I94
sbs(I4
I4
tp48
g1
(g10
g3
NtRp49
(dp50
g13
F26.321725934152866
sg14
I4
sg15
I01
sg16
I4
sg17
I15
sbs(I1
I5
tp51
g1
(g10
g3
NtRp52
(dp53
g13
F-15.835206450317219
sg14
I1
sg15
I01
sg16
I5
sg17
I10
sbs(I9
I11
tp54
g1
(g10
g3
NtRp55
(dp56
g13
F-16.798117143663955
sg14
I9
sg15
I01
sg16
I11
sg17
I106
sbs(I3
I6
tp57
g1
(g10
g3
NtRp58
(dp59
g13
F2.7620693821813695
sg14
I3
sg15
I01
sg16
I6
sg17
I19
sbs(I2
I2
tp60
g1
(g10
g3
NtRp61
(dp62
g13
F20.136194939902641
sg14
I2
sg15
I01
sg16
I2
sg17
I2
sbs(I5
I3
tp63
g1
(g10
g3
NtRp64
(dp65
g13
F6.9403138374902076
sg14
I5
sg15
I01
sg16
I3
sg17
I14
sbs(I9
I7
tp66
g1
(g10
g3
NtRp67
(dp68
g13
F0.58720897485602508
sg14
I9
sg15
I01
sg16
I7
sg17
I53
sbs(I3
I2
tp69
g1
(g10
g3
NtRp70
(dp71
g13
F-2.111102688140519
sg14
I3
sg15
I01
sg16
I2
sg17
I4
sbs(I11
I4
tp72
g1
(g10
g3
NtRp73
(dp74
g13
F25.261060353403298
sg14
I11
sg15
I01
sg16
I4
sg17
I101
sbs(I10
I4
tp75
g1
(g10
g3
NtRp76
(dp77
g13
F4.4126702932359931
sg14
I10
sg15
I01
sg16
I4
sg17
I90
sbs(I4
I5
tp78
g1
(g10
g3
NtRp79
(dp80
g13
F-18.193040318281035
sg14
I4
sg15
I01
sg16
I5
sg17
I30
sbs(I8
I11
tp81
g1
(g10
g3
NtRp82
(dp83
g13
F-3.9427686388602758
sg14
I8
sg15
I01
sg16
I11
sg17
I80
sbs(I1
I4
tp84
g1
(g10
g3
NtRp85
(dp86
g13
F1.0778655497672534
sg14
I1
sg15
I01
sg16
I4
sg17
I8
sbs(I2
I3
tp87
g1
(g10
g3
NtRp88
(dp89
g13
F-22.946367670681493
sg14
I2
sg15
I01
sg16
I3
sg17
I7
sbs(I4
I2
tp90
g1
(g10
g3
NtRp91
(dp92
g13
F12.504124264717023
sg14
I4
sg15
I01
sg16
I2
sg17
I6
sbs(I6
I5
tp93
g1
(g10
g3
NtRp94
(dp95
g13
F-1.1817997739715684
sg14
I6
sg15
I01
sg16
I5
sg17
I23
sbs(I7
I9
tp96
g1
(g10
g3
NtRp97
(dp98
g13
F29.171279998763232
sg14
I7
sg15
I01
sg16
I9
sg17
I41
sbs(I3
I5
tp99
g1
(g10
g3
NtRp100
(dp101
g13
F2.2859510778261933
sg14
I3
sg15
I01
sg16
I5
sg17
I13
sbs(I8
I3
tp102
g1
(g10
g3
NtRp103
(dp104
g13
F11.318156159142042
sg14
I8
sg15
I01
sg16
I3
sg17
I71
sbs(I5
I2
tp105
g1
(g10
g3
NtRp106
(dp107
g13
F23.711392964589578
sg14
I5
sg15
I01
sg16
I2
sg17
I11
sbs(I5
I7
tp108
g1
(g10
g3
NtRp109
(dp110
g13
F1.8194715596808282
sg14
I5
sg15
I01
sg16
I7
sg17
I28
sbs(I3
I8
tp111
g1
(g10
g3
NtRp112
(dp113
g13
F13.79841256939182
sg14
I3
sg15
I01
sg16
I8
sg17
I49
sbs(I4
I3
tp114
g1
(g10
g3
NtRp115
(dp116
g13
F2.3244764042653285
sg14
I4
sg15
I01
sg16
I3
sg17
I12
sbs(I3
I4
tp117
g1
(g10
g3
NtRp118
(dp119
g13
F7.1575985082470934
sg14
I3
sg15
I00
sg16
I4
sg17
I5
sbs(I2
I4
tp120
g1
(g10
g3
NtRp121
(dp122
g13
F21.76035773381145
sg14
I2
sg15
I01
sg16
I4
sg17
I24
sbs(I8
I4
tp123
g1
(g10
g3
NtRp124
(dp125
g13
F-12.482271986903152
sg14
I8
sg15
I01
sg16
I4
sg17
I40
sbssS'_input_nodes'
p126
I1
sS'_output_nodes'
p127
I1
sS'_node_gene_type'
p128
cneat.genome
NodeGene
p129
sS'_conn_gene_type'
p130
g10
sS'fitness'
p131
F0.99685537146520808
sS'parent2_id'
p132
I6368
sS'_id'
p133
I6398
sS'parent1_id'
p134
I6368
sS'_node_genes'
p135
(lp136
g1
(g129
g3
NtRp137
(dp138
S'_bias'
p139
I0
sS'_type'
p140
S'INPUT'
p141
sg133
I1
sS'_response'
p142
F4.9242730000000003
sS'_activation_type'
p143
Nsbag1
(g129
g3
NtRp144
(dp145
g139
F-5.1078196619495753
sg140
S'OUTPUT'
p146
sg133
I2
sg142
F4.9635923820276036
sg143
S'tanh'
p147
sbag1
(g129
g3
NtRp148
(dp149
g139
F-3.4671970054224941
sg140
S'HIDDEN'
p150
sg133
I3
sg142
F0.53529893624050684
sg143
g147
sbag1
(g129
g3
NtRp151
(dp152
g139
F5.3189572470957991
sg140
g150
sg133
I4
sg142
F2.2649893618029053
sg143
g147
sbag1
(g129
g3
NtRp153
(dp154
g139
F5.7028979419704173
sg140
g150
sg133
I5
sg142
F10.493054483935561
sg143
g147
sbag1
(g129
g3
NtRp155
(dp156
g139
F-0.53094363524957155
sg140
g150
sg133
I6
sg142
F2.2212430943693451
sg143
g147
sbag1
(g129
g3
NtRp157
(dp158
g139
F-2.4209337699510334
sg140
g150
sg133
I7
sg142
F4.1524931675175534
sg143
g147
sbag1
(g129
g3
NtRp159
(dp160
g139
F-2.7756426597286592
sg140
g150
sg133
I8
sg142
F9.2234034681188408
sg143
g147
sbag1
(g129
g3
NtRp161
(dp162
g139
F0.91025790685161978
sg140
g150
sg133
I9
sg142
F7.1058966629817437
sg143
g147
sbag1
(g129
g3
NtRp163
(dp164
g139
F1.0307744682675823
sg140
g150
sg133
I10
sg142
F5.9586917452722501
sg143
g147
sbag1
(g129
g3
NtRp165
(dp166
g139
F-0.28537076054528621
sg140
g150
sg133
I11
sg142
F6.5335863531230984
sg143
g147
sbasb.