ccopy_reg
_reconstructor
p1
(cneat.chromosome
Chromosome
p2
c__builtin__
object
p3
NtRp4
(dp5
S'species_id'
p6
I67
sS'_connection_genes'
p7
(dp8
(I1
I3
tp9
g1
(cneat.genome
ConnectionGene
p10
g3
NtRp11
(dp12
S'_ConnectionGene__weight'
p13
F20.644986487910458
sS'_ConnectionGene__in'
p14
I1
sS'_ConnectionGene__enabled'
p15
I01
sS'_ConnectionGene__out'
p16
I3
sS'_ConnectionGene__innov_number'
p17
I3
sbs(I11
I11
tp18
g1
(g10
g3
NtRp19
(dp20
g13
F-5.5416836843173272
sg14
I11
sg15
I01
sg16
I11
sg17
I122
sbs(I6
I6
tp21
g1
(g10
g3
NtRp22
(dp23
g13
F9.4339961138383295
sg14
I6
sg15
I01
sg16
I6
sg17
I39
sbs(I5
I6
tp24
g1
(g10
g3
NtRp25
(dp26
g13
F30
sg14
I5
sg15
I01
sg16
I6
sg17
I16
sbs(I9
I8
tp27
g1
(g10
g3
NtRp28
(dp29
g13
F-27.758668932608728
sg14
I9
sg15
I01
sg16
I8
sg17
I60
sbs(I10
I6
tp30
g1
(g10
g3
NtRp31
(dp32
g13
F0.54571580544007225
sg14
I10
sg15
I01
sg16
I6
sg17
I103
sbs(I9
I4
tp33
g1
(g10
g3
NtRp34
(dp35
g13
F25.668994792658278
sg14
I9
sg15
I01
sg16
I4
sg17
I77
sbs(I7
I2
tp36
g1
(g10
g3
NtRp37
(dp38
g13
F-10.332202338887338
sg14
I7
sg15
I01
sg16
I2
sg17
I33
sbs(I1
I2
tp39
g1
(g10
g3
NtRp40
(dp41
g13
F29.776888582674964
sg14
I1
sg15
I01
sg16
I2
sg17
I1
sbs(I4
I9
tp42
g1
(g10
g3
NtRp43
(dp44
g13
F16.29657412357745
sg14
I4
sg15
I01
sg16
I9
sg17
I44
sbs(I3
I3
tp45
g1
(g10
g3
NtRp46
(dp47
g13
F22.98529002779825
sg14
I3
sg15
I01
sg16
I3
sg17
I9
sbs(I3
I10
tp48
g1
(g10
g3
NtRp49
(dp50
g13
F-8.3166564573787696
sg14
I3
sg15
I01
sg16
I10
sg17
I94
sbs(I4
I4
tp51
g1
(g10
g3
NtRp52
(dp53
g13
F28.741890735248472
sg14
I4
sg15
I01
sg16
I4
sg17
I15
sbs(I1
I5
tp54
g1
(g10
g3
NtRp55
(dp56
g13
F-5.1213491159506415
sg14
I1
sg15
I01
sg16
I5
sg17
I10
sbs(I9
I11
tp57
g1
(g10
g3
NtRp58
(dp59
g13
F-14.443834513903413
sg14
I9
sg15
I01
sg16
I11
sg17
I106
sbs(I3
I6
tp60
g1
(g10
g3
NtRp61
(dp62
g13
F-1.9712589089155537
sg14
I3
sg15
I01
sg16
I6
sg17
I19
sbs(I2
I2
tp63
g1
(g10
g3
NtRp64
(dp65
g13
F21.829142551911662
sg14
I2
sg15
I01
sg16
I2
sg17
I2
sbs(I7
I9
tp66
g1
(g10
g3
NtRp67
(dp68
g13
F23.479994291009508
sg14
I7
sg15
I01
sg16
I9
sg17
I41
sbs(I10
I9
tp69
g1
(g10
g3
NtRp70
(dp71
g13
F0.084035956760192321
sg14
I10
sg15
I01
sg16
I9
sg17
I58
sbs(I9
I7
tp72
g1
(g10
g3
NtRp73
(dp74
g13
F11.395966095435488
sg14
I9
sg15
I01
sg16
I7
sg17
I53
sbs(I3
I2
tp75
g1
(g10
g3
NtRp76
(dp77
g13
F-7.3486630215558577
sg14
I3
sg15
I01
sg16
I2
sg17
I4
sbs(I11
I4
tp78
g1
(g10
g3
NtRp79
(dp80
g13
F29.874897503013283
sg14
I11
sg15
I01
sg16
I4
sg17
I101
sbs(I10
I4
tp81
g1
(g10
g3
NtRp82
(dp83
g13
F5.5189584217525187
sg14
I10
sg15
I01
sg16
I4
sg17
I90
sbs(I4
I5
tp84
g1
(g10
g3
NtRp85
(dp86
g13
F-12.892616387390785
sg14
I4
sg15
I01
sg16
I5
sg17
I30
sbs(I8
I11
tp87
g1
(g10
g3
NtRp88
(dp89
g13
F-12.995809214112676
sg14
I8
sg15
I01
sg16
I11
sg17
I80
sbs(I1
I4
tp90
g1
(g10
g3
NtRp91
(dp92
g13
F-2.2876956854384476
sg14
I1
sg15
I01
sg16
I4
sg17
I8
sbs(I2
I3
tp93
g1
(g10
g3
NtRp94
(dp95
g13
F-23.75756441462098
sg14
I2
sg15
I01
sg16
I3
sg17
I7
sbs(I4
I2
tp96
g1
(g10
g3
NtRp97
(dp98
g13
F13.411715173935297
sg14
I4
sg15
I01
sg16
I2
sg17
I6
sbs(I6
I5
tp99
g1
(g10
g3
NtRp100
(dp101
g13
F-8.05381888765376
sg14
I6
sg15
I01
sg16
I5
sg17
I23
sbs(I5
I3
tp102
g1
(g10
g3
NtRp103
(dp104
g13
F8.5891516862380328
sg14
I5
sg15
I01
sg16
I3
sg17
I14
sbs(I3
I5
tp105
g1
(g10
g3
NtRp106
(dp107
g13
F1.575718139415623
sg14
I3
sg15
I01
sg16
I5
sg17
I13
sbs(I8
I3
tp108
g1
(g10
g3
NtRp109
(dp110
g13
F22.618789577029208
sg14
I8
sg15
I01
sg16
I3
sg17
I71
sbs(I3
I4
tp111
g1
(g10
g3
NtRp112
(dp113
g13
F13.791333337395516
sg14
I3
sg15
I00
sg16
I4
sg17
I5
sbs(I5
I7
tp114
g1
(g10
g3
NtRp115
(dp116
g13
F-2.092493007582747
sg14
I5
sg15
I01
sg16
I7
sg17
I28
sbs(I3
I8
tp117
g1
(g10
g3
NtRp118
(dp119
g13
F9.5218198659535496
sg14
I3
sg15
I01
sg16
I8
sg17
I49
sbs(I4
I3
tp120
g1
(g10
g3
NtRp121
(dp122
g13
F-1.713686433395609
sg14
I4
sg15
I01
sg16
I3
sg17
I12
sbs(I5
I2
tp123
g1
(g10
g3
NtRp124
(dp125
g13
F26.647746201851611
sg14
I5
sg15
I01
sg16
I2
sg17
I11
sbs(I2
I4
tp126
g1
(g10
g3
NtRp127
(dp128
g13
F22.626412653111913
sg14
I2
sg15
I01
sg16
I4
sg17
I24
sbs(I8
I4
tp129
g1
(g10
g3
NtRp130
(dp131
g13
F-7.6082410069036808
sg14
I8
sg15
I01
sg16
I4
sg17
I40
sbssS'_input_nodes'
p132
I1
sS'_output_nodes'
p133
I1
sS'_node_gene_type'
p134
cneat.genome
NodeGene
p135
sS'_conn_gene_type'
p136
g10
sS'fitness'
p137
F0.97873295683175476
sS'parent2_id'
p138
I6705
sS'_id'
p139
I6719
sS'parent1_id'
p140
I6705
sS'_node_genes'
p141
(lp142
g1
(g135
g3
NtRp143
(dp144
S'_bias'
p145
I0
sS'_type'
p146
S'INPUT'
p147
sg139
I1
sS'_response'
p148
F4.9242730000000003
sS'_activation_type'
p149
Nsbag1
(g135
g3
NtRp150
(dp151
g145
F-6.1438859348248034
sg146
S'OUTPUT'
p152
sg139
I2
sg148
F5.0719721613508373
sg149
S'tanh'
p153
sbag1
(g135
g3
NtRp154
(dp155
g145
F-3.0940019803082857
sg146
S'HIDDEN'
p156
sg139
I3
sg148
F2.9864632095836448
sg149
g153
sbag1
(g135
g3
NtRp157
(dp158
g145
F4.9706443340308324
sg146
g156
sg139
I4
sg148
F2.1978735288924236
sg149
g153
sbag1
(g135
g3
NtRp159
(dp160
g145
F5.0488769573628076
sg146
g156
sg139
I5
sg148
F10.525421923037424
sg149
g153
sbag1
(g135
g3
NtRp161
(dp162
g145
F-0.40259265881160566
sg146
g156
sg139
I6
sg148
F0.6980045932930562
sg149
g153
sbag1
(g135
g3
NtRp163
(dp164
g145
F-2.7287830063296625
sg146
g156
sg139
I7
sg148
F4.3654599033711481
sg149
g153
sbag1
(g135
g3
NtRp165
(dp166
g145
F-2.6017190834542001
sg146
g156
sg139
I8
sg148
F7.9504477872971133
sg149
g153
sbag1
(g135
g3
NtRp167
(dp168
g145
F0.47364128202447869
sg146
g156
sg139
I9
sg148
F6.5369522144699257
sg149
g153
sbag1
(g135
g3
NtRp169
(dp170
g145
F0.96275823652646275
sg146
g156
sg139
I10
sg148
F4.6402161363568544
sg149
g153
sbag1
(g135
g3
NtRp171
(dp172
g145
F-0.00021616344666602894
sg146
g156
sg139
I11
sg148
F6.2361790578177079
sg149
g153
sbasb.