ccopy_reg
_reconstructor
p1
(cneat.chromosome
Chromosome
p2
c__builtin__
object
p3
NtRp4
(dp5
S'species_id'
p6
I37
sS'_connection_genes'
p7
(dp8
(I1
I3
tp9
g1
(cneat.genome
ConnectionGene
p10
g3
NtRp11
(dp12
S'_ConnectionGene__weight'
p13
F15.227503449137043
sS'_ConnectionGene__in'
p14
I1
sS'_ConnectionGene__enabled'
p15
I01
sS'_ConnectionGene__out'
p16
I3
sS'_ConnectionGene__innov_number'
p17
I3
sbs(I6
I6
tp18
g1
(g10
g3
NtRp19
(dp20
g13
F19.169688112718642
sg14
I6
sg15
I01
sg16
I6
sg17
I39
sbs(I5
I6
tp21
g1
(g10
g3
NtRp22
(dp23
g13
F-4.9226674154864565
sg14
I5
sg15
I01
sg16
I6
sg17
I16
sbs(I9
I8
tp24
g1
(g10
g3
NtRp25
(dp26
g13
F2.5109978313047701
sg14
I9
sg15
I01
sg16
I8
sg17
I60
sbs(I9
I4
tp27
g1
(g10
g3
NtRp28
(dp29
g13
F14.002040302517992
sg14
I9
sg15
I01
sg16
I4
sg17
I77
sbs(I7
I2
tp30
g1
(g10
g3
NtRp31
(dp32
g13
F-0.58452788259664046
sg14
I7
sg15
I01
sg16
I2
sg17
I33
sbs(I1
I2
tp33
g1
(g10
g3
NtRp34
(dp35
g13
F7.1855271776019105
sg14
I1
sg15
I01
sg16
I2
sg17
I1
sbs(I4
I9
tp36
g1
(g10
g3
NtRp37
(dp38
g13
F-0.19513610618577282
sg14
I4
sg15
I01
sg16
I9
sg17
I44
sbs(I3
I3
tp39
g1
(g10
g3
NtRp40
(dp41
g13
F20.484341705686091
sg14
I3
sg15
I01
sg16
I3
sg17
I9
sbs(I4
I4
tp42
g1
(g10
g3
NtRp43
(dp44
g13
F10.996003505617372
sg14
I4
sg15
I00
sg16
I4
sg17
I15
sbs(I1
I5
tp45
g1
(g10
g3
NtRp46
(dp47
g13
F-7.0275597157129752
sg14
I1
sg15
I01
sg16
I5
sg17
I10
sbs(I3
I6
tp48
g1
(g10
g3
NtRp49
(dp50
g13
F3.3350228779328521
sg14
I3
sg15
I01
sg16
I6
sg17
I19
sbs(I2
I2
tp51
g1
(g10
g3
NtRp52
(dp53
g13
F2.9700200592228558
sg14
I2
sg15
I01
sg16
I2
sg17
I2
sbs(I3
I5
tp54
g1
(g10
g3
NtRp55
(dp56
g13
F3.7125831708330734
sg14
I3
sg15
I01
sg16
I5
sg17
I13
sbs(I3
I2
tp57
g1
(g10
g3
NtRp58
(dp59
g13
F12.231089368958456
sg14
I3
sg15
I01
sg16
I2
sg17
I4
sbs(I4
I5
tp60
g1
(g10
g3
NtRp61
(dp62
g13
F0.75394579736905798
sg14
I4
sg15
I01
sg16
I5
sg17
I30
sbs(I1
I4
tp63
g1
(g10
g3
NtRp64
(dp65
g13
F13.044015609021217
sg14
I1
sg15
I01
sg16
I4
sg17
I8
sbs(I2
I3
tp66
g1
(g10
g3
NtRp67
(dp68
g13
F-16.376269512604267
sg14
I2
sg15
I01
sg16
I3
sg17
I7
sbs(I4
I2
tp69
g1
(g10
g3
NtRp70
(dp71
g13
F-1.1846002472345827
sg14
I4
sg15
I01
sg16
I2
sg17
I6
sbs(I6
I5
tp72
g1
(g10
g3
NtRp73
(dp74
g13
F8.4481762794443824
sg14
I6
sg15
I01
sg16
I5
sg17
I23
sbs(I5
I3
tp75
g1
(g10
g3
NtRp76
(dp77
g13
F25.623459387103814
sg14
I5
sg15
I01
sg16
I3
sg17
I14
sbs(I8
I3
tp78
g1
(g10
g3
NtRp79
(dp80
g13
F3.0693288279952173
sg14
I8
sg15
I01
sg16
I3
sg17
I71
sbs(I5
I2
tp81
g1
(g10
g3
NtRp82
(dp83
g13
F21.95436056420046
sg14
I5
sg15
I01
sg16
I2
sg17
I11
sbs(I5
I7
tp84
g1
(g10
g3
NtRp85
(dp86
g13
F16.126623794439009
sg14
I5
sg15
I01
sg16
I7
sg17
I28
sbs(I3
I8
tp87
g1
(g10
g3
NtRp88
(dp89
g13
F14.743141470519477
sg14
I3
sg15
I01
sg16
I8
sg17
I49
sbs(I4
I3
tp90
g1
(g10
g3
NtRp91
(dp92
g13
F2.8914276284239193
sg14
I4
sg15
I01
sg16
I3
sg17
I12
sbs(I3
I4
tp93
g1
(g10
g3
NtRp94
(dp95
g13
F-5.0111670606924346
sg14
I3
sg15
I00
sg16
I4
sg17
I5
sbs(I2
I4
tp96
g1
(g10
g3
NtRp97
(dp98
g13
F3.8613318059315964
sg14
I2
sg15
I01
sg16
I4
sg17
I24
sbs(I8
I4
tp99
g1
(g10
g3
NtRp100
(dp101
g13
F3.0928144595492295
sg14
I8
sg15
I01
sg16
I4
sg17
I40
sbssS'_input_nodes'
p102
I1
sS'_output_nodes'
p103
I1
sS'_node_gene_type'
p104
cneat.genome
NodeGene
p105
sS'_conn_gene_type'
p106
g10
sS'fitness'
p107
F0.94936073834688606
sS'parent2_id'
p108
I4027
sS'_id'
p109
I4040
sS'parent1_id'
p110
I4027
sS'_node_genes'
p111
(lp112
g1
(g105
g3
NtRp113
(dp114
S'_bias'
p115
I0
sS'_type'
p116
S'INPUT'
p117
sg109
I1
sS'_response'
p118
F4.9242730000000003
sS'_activation_type'
p119
Nsbag1
(g105
g3
NtRp120
(dp121
g115
F-0.11644711056126991
sg116
S'OUTPUT'
p122
sg109
I2
sg118
F4.3566249061642388
sg119
S'tanh'
p123
sbag1
(g105
g3
NtRp124
(dp125
g115
F-0.69331769244867836
sg116
S'HIDDEN'
p126
sg109
I3
sg118
F1.2529157182008475
sg119
g123
sbag1
(g105
g3
NtRp127
(dp128
g115
F-0.23468623316609508
sg116
g126
sg109
I4
sg118
F5.5234673615519814
sg119
g123
sbag1
(g105
g3
NtRp129
(dp130
g115
F3.9516146386872868
sg116
g126
sg109
I5
sg118
F5.6013983864839361
sg119
g123
sbag1
(g105
g3
NtRp131
(dp132
g115
F-2.3556433205351444
sg116
g126
sg109
I6
sg118
F2.7660965737086176
sg119
g123
sbag1
(g105
g3
NtRp133
(dp134
g115
F-1.3012175502822458
sg116
g126
sg109
I7
sg118
F6.4326349813758164
sg119
g123
sbag1
(g105
g3
NtRp135
(dp136
g115
F0.13705242122943151
sg116
g126
sg109
I8
sg118
F4.2136514553250839
sg119
g123
sbag1
(g105
g3
NtRp137
(dp138
g115
F-0.30563645218792951
sg116
g126
sg109
I9
sg118
F4.107019804219691
sg119
g123
sbasb.