ccopy_reg
_reconstructor
p1
(cneat.chromosome
Chromosome
p2
c__builtin__
object
p3
NtRp4
(dp5
S'species_id'
p6
I82
sS'_connection_genes'
p7
(dp8
(I1
I3
tp9
g1
(cneat.genome
ConnectionGene
p10
g3
NtRp11
(dp12
S'_ConnectionGene__weight'
p13
F20.969651190321876
sS'_ConnectionGene__in'
p14
I1
sS'_ConnectionGene__enabled'
p15
I01
sS'_ConnectionGene__out'
p16
I3
sS'_ConnectionGene__innov_number'
p17
I3
sbs(I11
I11
tp18
g1
(g10
g3
NtRp19
(dp20
g13
F13.745383583967868
sg14
I11
sg15
I01
sg16
I11
sg17
I122
sbs(I6
I6
tp21
g1
(g10
g3
NtRp22
(dp23
g13
F5.7770421828031049
sg14
I6
sg15
I00
sg16
I6
sg17
I39
sbs(I5
I6
tp24
g1
(g10
g3
NtRp25
(dp26
g13
F25.554351831869134
sg14
I5
sg15
I01
sg16
I6
sg17
I16
sbs(I9
I8
tp27
g1
(g10
g3
NtRp28
(dp29
g13
F-24.258947615258887
sg14
I9
sg15
I01
sg16
I8
sg17
I60
sbs(I10
I6
tp30
g1
(g10
g3
NtRp31
(dp32
g13
F-18.735855921276304
sg14
I10
sg15
I01
sg16
I6
sg17
I103
sbs(I14
I13
tp33
g1
(g10
g3
NtRp34
(dp35
g13
F1.3878537893342193
sg14
I14
sg15
I01
sg16
I13
sg17
I252
sbs(I3
I18
tp36
g1
(g10
g3
NtRp37
(dp38
g13
F1
sg14
I3
sg15
I01
sg16
I18
sg17
I201
sbs(I9
I4
tp39
g1
(g10
g3
NtRp40
(dp41
g13
F19.087306742522387
sg14
I9
sg15
I01
sg16
I4
sg17
I77
sbs(I13
I2
tp42
g1
(g10
g3
NtRp43
(dp44
g13
F-1.5853349369833132
sg14
I13
sg15
I01
sg16
I2
sg17
I133
sbs(I3
I17
tp45
g1
(g10
g3
NtRp46
(dp47
g13
F1
sg14
I3
sg15
I01
sg16
I17
sg17
I263
sbs(I7
I2
tp48
g1
(g10
g3
NtRp49
(dp50
g13
F-6.572071961032071
sg14
I7
sg15
I01
sg16
I2
sg17
I33
sbs(I1
I2
tp51
g1
(g10
g3
NtRp52
(dp53
g13
F29.600521653313638
sg14
I1
sg15
I01
sg16
I2
sg17
I1
sbs(I6
I3
tp54
g1
(g10
g3
NtRp55
(dp56
g13
F0.093416435319372215
sg14
I6
sg15
I01
sg16
I3
sg17
I22
sbs(I11
I10
tp57
g1
(g10
g3
NtRp58
(dp59
g13
F-17.320885719802842
sg14
I11
sg15
I01
sg16
I10
sg17
I89
sbs(I4
I9
tp60
g1
(g10
g3
NtRp61
(dp62
g13
F19.907752445095056
sg14
I4
sg15
I01
sg16
I9
sg17
I44
sbs(I3
I3
tp63
g1
(g10
g3
NtRp64
(dp65
g13
F22.24443044953091
sg14
I3
sg15
I00
sg16
I3
sg17
I9
sbs(I3
I10
tp66
g1
(g10
g3
NtRp67
(dp68
g13
F-28.540508915078227
sg14
I3
sg15
I01
sg16
I10
sg17
I94
sbs(I4
I4
tp69
g1
(g10
g3
NtRp70
(dp71
g13
F20.963115420891167
sg14
I4
sg15
I01
sg16
I4
sg17
I15
sbs(I7
I4
tp72
g1
(g10
g3
NtRp73
(dp74
g13
F4.7851292055185572
sg14
I7
sg15
I01
sg16
I4
sg17
I46
sbs(I4
I13
tp75
g1
(g10
g3
NtRp76
(dp77
g13
F1.7349142524105905
sg14
I4
sg15
I00
sg16
I13
sg17
I119
sbs(I1
I5
tp78
g1
(g10
g3
NtRp79
(dp80
g13
F22.459288916187116
sg14
I1
sg15
I01
sg16
I5
sg17
I10
sbs(I9
I11
tp81
g1
(g10
g3
NtRp82
(dp83
g13
F-15.285156118761954
sg14
I9
sg15
I01
sg16
I11
sg17
I106
sbs(I3
I6
tp84
g1
(g10
g3
NtRp85
(dp86
g13
F-15.423851823144071
sg14
I3
sg15
I01
sg16
I6
sg17
I19
sbs(I2
I2
tp87
g1
(g10
g3
NtRp88
(dp89
g13
F19.597245082469371
sg14
I2
sg15
I01
sg16
I2
sg17
I2
sbs(I3
I4
tp90
g1
(g10
g3
NtRp91
(dp92
g13
F8.789341836519398
sg14
I3
sg15
I01
sg16
I4
sg17
I5
sbs(I5
I3
tp93
g1
(g10
g3
NtRp94
(dp95
g13
F5.9717480339057882
sg14
I5
sg15
I01
sg16
I3
sg17
I14
sbs(I6
I15
tp96
g1
(g10
g3
NtRp97
(dp98
g13
F-1.1205246517757428
sg14
I6
sg15
I01
sg16
I15
sg17
I241
sbs(I10
I9
tp99
g1
(g10
g3
NtRp100
(dp101
g13
F9.0173206466020375
sg14
I10
sg15
I01
sg16
I9
sg17
I58
sbs(I9
I7
tp102
g1
(g10
g3
NtRp103
(dp104
g13
F22.849971876791553
sg14
I9
sg15
I01
sg16
I7
sg17
I53
sbs(I3
I2
tp105
g1
(g10
g3
NtRp106
(dp107
g13
F-2.0511017404142766
sg14
I3
sg15
I01
sg16
I2
sg17
I4
sbs(I11
I4
tp108
g1
(g10
g3
NtRp109
(dp110
g13
F27.972307790265219
sg14
I11
sg15
I01
sg16
I4
sg17
I101
sbs(I10
I4
tp111
g1
(g10
g3
NtRp112
(dp113
g13
F2.9278085603452082
sg14
I10
sg15
I01
sg16
I4
sg17
I90
sbs(I4
I5
tp114
g1
(g10
g3
NtRp115
(dp116
g13
F-17.624591895447686
sg14
I4
sg15
I01
sg16
I5
sg17
I30
sbs(I8
I11
tp117
g1
(g10
g3
NtRp118
(dp119
g13
F-3.2363375616684378
sg14
I8
sg15
I01
sg16
I11
sg17
I80
sbs(I4
I14
tp120
g1
(g10
g3
NtRp121
(dp122
g13
F3.9887357568452355
sg14
I4
sg15
I01
sg16
I14
sg17
I248
sbs(I1
I4
tp123
g1
(g10
g3
NtRp124
(dp125
g13
F-13.127442541943177
sg14
I1
sg15
I01
sg16
I4
sg17
I8
sbs(I4
I16
tp126
g1
(g10
g3
NtRp127
(dp128
g13
F2.503009477744671
sg14
I4
sg15
I01
sg16
I16
sg17
I160
sbs(I2
I3
tp129
g1
(g10
g3
NtRp130
(dp131
g13
F-21.350022639058757
sg14
I2
sg15
I01
sg16
I3
sg17
I7
sbs(I4
I2
tp132
g1
(g10
g3
NtRp133
(dp134
g13
F5.0739110636026954
sg14
I4
sg15
I00
sg16
I2
sg17
I6
sbs(I6
I5
tp135
g1
(g10
g3
NtRp136
(dp137
g13
F3.2648572671936145
sg14
I6
sg15
I01
sg16
I5
sg17
I23
sbs(I7
I9
tp138
g1
(g10
g3
NtRp139
(dp140
g13
F20.658741514967833
sg14
I7
sg15
I01
sg16
I9
sg17
I41
sbs(I3
I5
tp141
g1
(g10
g3
NtRp142
(dp143
g13
F-19.376756150746008
sg14
I3
sg15
I01
sg16
I5
sg17
I13
sbs(I8
I3
tp144
g1
(g10
g3
NtRp145
(dp146
g13
F23.278341382266831
sg14
I8
sg15
I01
sg16
I3
sg17
I71
sbs(I3
I12
tp147
g1
(g10
g3
NtRp148
(dp149
g13
F-0.022009313742916259
sg14
I3
sg15
I00
sg16
I12
sg17
I99
sbs(I5
I2
tp150
g1
(g10
g3
NtRp151
(dp152
g13
F16.709578469156305
sg14
I5
sg15
I01
sg16
I2
sg17
I11
sbs(I5
I7
tp153
g1
(g10
g3
NtRp154
(dp155
g13
F-23.707935131957768
sg14
I5
sg15
I01
sg16
I7
sg17
I28
sbs(I18
I3
tp156
g1
(g10
g3
NtRp157
(dp158
g13
F22.24443044953091
sg14
I18
sg15
I01
sg16
I3
sg17
I193
sbs(I3
I8
tp159
g1
(g10
g3
NtRp160
(dp161
g13
F16.80918763454812
sg14
I3
sg15
I01
sg16
I8
sg17
I49
sbs(I15
I6
tp162
g1
(g10
g3
NtRp163
(dp164
g13
F10.055406959264733
sg14
I15
sg15
I01
sg16
I6
sg17
I152
sbs(I12
I3
tp165
g1
(g10
g3
NtRp166
(dp167
g13
F16.116969734688102
sg14
I12
sg15
I01
sg16
I3
sg17
I88
sbs(I17
I12
tp168
g1
(g10
g3
NtRp169
(dp170
g13
F-0.022009313742916259
sg14
I17
sg15
I01
sg16
I12
sg17
I264
sbs(I4
I3
tp171
g1
(g10
g3
NtRp172
(dp173
g13
F3.8164577676365208
sg14
I4
sg15
I01
sg16
I3
sg17
I12
sbs(I16
I13
tp174
g1
(g10
g3
NtRp175
(dp176
g13
F3.3346979017428913
sg14
I16
sg15
I01
sg16
I13
sg17
I255
sbs(I2
I4
tp177
g1
(g10
g3
NtRp178
(dp179
g13
F22.916672725725036
sg14
I2
sg15
I01
sg16
I4
sg17
I24
sbs(I8
I4
tp180
g1
(g10
g3
NtRp181
(dp182
g13
F-23.863978680519502
sg14
I8
sg15
I01
sg16
I4
sg17
I40
sbssS'_input_nodes'
p183
I1
sS'_output_nodes'
p184
I1
sS'_node_gene_type'
p185
cneat.genome
NodeGene
p186
sS'_conn_gene_type'
p187
g10
sS'fitness'
p188
F0.97370628887009036
sS'parent2_id'
p189
I8684
sS'_id'
p190
I8698
sS'parent1_id'
p191
I8684
sS'_node_genes'
p192
(lp193
g1
(g186
g3
NtRp194
(dp195
S'_bias'
p196
I0
sS'_type'
p197
S'INPUT'
p198
sg190
I1
sS'_response'
p199
F4.9242730000000003
sS'_activation_type'
p200
Nsbag1
(g186
g3
NtRp201
(dp202
g196
F-4.1493058825859936
sg197
S'OUTPUT'
p203
sg190
I2
sg199
F2.6370293671117655
sg200
S'tanh'
p204
sbag1
(g186
g3
NtRp205
(dp206
g196
F-3.1464840376778707
sg197
S'HIDDEN'
p207
sg190
I3
sg199
F4.3067407857389775
sg200
g204
sbag1
(g186
g3
NtRp208
(dp209
g196
F3.943888557311277
sg197
g207
sg190
I4
sg199
F4.9250216534753752
sg200
g204
sbag1
(g186
g3
NtRp210
(dp211
g196
F3.5703341735020024
sg197
g207
sg190
I5
sg199
F12.037164266742824
sg200
g204
sbag1
(g186
g3
NtRp212
(dp213
g196
F-1.6877150810262034
sg197
g207
sg190
I6
sg199
F2.1291151517526101
sg200
g204
sbag1
(g186
g3
NtRp214
(dp215
g196
F-2.5317277189016849
sg197
g207
sg190
I7
sg199
F6.5320165148826765
sg200
g204
sbag1
(g186
g3
NtRp216
(dp217
g196
F-2.3805886659817719
sg197
g207
sg190
I8
sg199
F9.3971792563405661
sg200
g204
sbag1
(g186
g3
NtRp218
(dp219
g196
F0.34983757231973189
sg197
g207
sg190
I9
sg199
F8.0733256909382156
sg200
g204
sbag1
(g186
g3
NtRp220
(dp221
g196
F2.7657629098912508
sg197
g207
sg190
I10
sg199
F4.7220554325473785
sg200
g204
sbag1
(g186
g3
NtRp222
(dp223
g196
F-1.1974472918653969
sg197
g207
sg190
I11
sg199
F5.7734300930742126
sg200
g204
sbag1
(g186
g3
NtRp224
(dp225
g196
F1.1278261139699386
sg197
g207
sg190
I12
sg199
F4.4427007982231252
sg200
g204
sbag1
(g186
g3
NtRp226
(dp227
g196
F1.6844971233824335
sg197
g207
sg190
I13
sg199
F4.544612332715892
sg200
g204
sbag1
(g186
g3
NtRp228
(dp229
g196
F-0.80779287952361756
sg197
g207
sg190
I14
sg199
F4.9242730000000003
sg200
g204
sbag1
(g186
g3
NtRp230
(dp231
g196
F0.57838767959161441
sg197
g207
sg190
I15
sg199
F4.8001121733659593
sg200
g204
sbag1
(g186
g3
NtRp232
(dp233
g196
I0
sg197
g207
sg190
I16
sg199
F4.1931188402065915
sg200
g204
sbag1
(g186
g3
NtRp234
(dp235
g196
I0
sg197
g207
sg190
I17
sg199
F4.9242730000000003
sg200
g204
sbag1
(g186
g3
NtRp236
(dp237
g196
I0
sg197
g207
sg190
I18
sg199
F4.9242730000000003
sg200
g204
sbasb.