ccopy_reg
_reconstructor
p1
(cneat.chromosome
Chromosome
p2
c__builtin__
object
p3
NtRp4
(dp5
S'species_id'
p6
I14
sS'_connection_genes'
p7
(dp8
(I1
I2
tp9
g1
(cneat.genome
ConnectionGene
p10
g3
NtRp11
(dp12
S'_ConnectionGene__weight'
p13
F4.8134156190299606
sS'_ConnectionGene__in'
p14
I1
sS'_ConnectionGene__enabled'
p15
I01
sS'_ConnectionGene__out'
p16
I2
sS'_ConnectionGene__innov_number'
p17
I1
sbs(I2
I7
tp18
g1
(g10
g3
NtRp19
(dp20
g13
F9.0619165737197118
sg14
I2
sg15
I01
sg16
I7
sg17
I34
sbs(I3
I2
tp21
g1
(g10
g3
NtRp22
(dp23
g13
F-7.702362534568743
sg14
I3
sg15
I01
sg16
I2
sg17
I4
sbs(I1
I3
tp24
g1
(g10
g3
NtRp25
(dp26
g13
F-9.8322416365559793
sg14
I1
sg15
I01
sg16
I3
sg17
I3
sbs(I3
I3
tp27
g1
(g10
g3
NtRp28
(dp29
g13
F-1.1960235920558917
sg14
I3
sg15
I01
sg16
I3
sg17
I9
sbs(I7
I3
tp30
g1
(g10
g3
NtRp31
(dp32
g13
F1.3609311947141451
sg14
I7
sg15
I01
sg16
I3
sg17
I29
sbs(I4
I5
tp33
g1
(g10
g3
NtRp34
(dp35
g13
F-12.562610624144188
sg14
I4
sg15
I01
sg16
I5
sg17
I30
sbs(I3
I4
tp36
g1
(g10
g3
NtRp37
(dp38
g13
F-8.093659794245502
sg14
I3
sg15
I01
sg16
I4
sg17
I5
sbs(I7
I7
tp39
g1
(g10
g3
NtRp40
(dp41
g13
F1.1526083127065692
sg14
I7
sg15
I01
sg16
I7
sg17
I47
sbs(I1
I4
tp42
g1
(g10
g3
NtRp43
(dp44
g13
F14.035527787414841
sg14
I1
sg15
I01
sg16
I4
sg17
I8
sbs(I5
I6
tp45
g1
(g10
g3
NtRp46
(dp47
g13
F6.033770116959313
sg14
I5
sg15
I01
sg16
I6
sg17
I16
sbs(I6
I2
tp48
g1
(g10
g3
NtRp49
(dp50
g13
F2.9269475942480643
sg14
I6
sg15
I01
sg16
I2
sg17
I17
sbs(I2
I3
tp51
g1
(g10
g3
NtRp52
(dp53
g13
F3.7614199412478153
sg14
I2
sg15
I00
sg16
I3
sg17
I7
sbs(I2
I2
tp54
g1
(g10
g3
NtRp55
(dp56
g13
F6.4315581348050719
sg14
I2
sg15
I01
sg16
I2
sg17
I2
sbs(I4
I2
tp57
g1
(g10
g3
NtRp58
(dp59
g13
F-1.2392580105840463
sg14
I4
sg15
I01
sg16
I2
sg17
I6
sbs(I5
I2
tp60
g1
(g10
g3
NtRp61
(dp62
g13
F-5.2469917825877612
sg14
I5
sg15
I00
sg16
I2
sg17
I11
sbs(I1
I5
tp63
g1
(g10
g3
NtRp64
(dp65
g13
F0.58809059861904567
sg14
I1
sg15
I01
sg16
I5
sg17
I10
sbssS'_input_nodes'
p66
I1
sS'_output_nodes'
p67
I1
sS'_node_gene_type'
p68
cneat.genome
NodeGene
p69
sS'_conn_gene_type'
p70
g10
sS'fitness'
p71
F0.9590354574593728
sS'parent2_id'
p72
I1318
sS'_id'
p73
I1322
sS'parent1_id'
p74
I1318
sS'_node_genes'
p75
(lp76
g1
(g69
g3
NtRp77
(dp78
S'_bias'
p79
I0
sS'_type'
p80
S'INPUT'
p81
sg73
I1
sS'_response'
p82
F4.9242730000000003
sS'_activation_type'
p83
Nsbag1
(g69
g3
NtRp84
(dp85
g79
F-0.92688214545292236
sg80
S'OUTPUT'
p86
sg73
I2
sg82
F5.3555293648493816
sg83
S'tanh'
p87
sbag1
(g69
g3
NtRp88
(dp89
g79
F1.9294140360002774
sg80
S'HIDDEN'
p90
sg73
I3
sg82
F2.1231362263006548
sg83
g87
sbag1
(g69
g3
NtRp91
(dp92
g79
F0.75407767487501742
sg80
g90
sg73
I4
sg82
F6.0076422056421785
sg83
g87
sbag1
(g69
g3
NtRp93
(dp94
g79
F-0.15308101325826035
sg80
g90
sg73
I5
sg82
F5.3175246886930916
sg83
g87
sbag1
(g69
g3
NtRp95
(dp96
g79
F0.77265324771047461
sg80
g90
sg73
I6
sg82
F4.3923814725766297
sg83
g87
sbag1
(g69
g3
NtRp97
(dp98
g79
F0.53945705484245399
sg80
g90
sg73
I7
sg82
F4.6251228151625714
sg83
g87
sbasb.