ccopy_reg
_reconstructor
p1
(cneat.chromosome
Chromosome
p2
c__builtin__
object
p3
NtRp4
(dp5
S'species_id'
p6
I19
sS'_connection_genes'
p7
(dp8
(I1
I2
tp9
g1
(cneat.genome
ConnectionGene
p10
g3
NtRp11
(dp12
S'_ConnectionGene__weight'
p13
F11.253090284773039
sS'_ConnectionGene__in'
p14
I1
sS'_ConnectionGene__enabled'
p15
I01
sS'_ConnectionGene__out'
p16
I2
sS'_ConnectionGene__innov_number'
p17
I1
sbs(I8
I5
tp18
g1
(g10
g3
NtRp19
(dp20
g13
F10.313529893655872
sg14
I8
sg15
I01
sg16
I5
sg17
I36
sbs(I3
I2
tp21
g1
(g10
g3
NtRp22
(dp23
g13
F10.646059311748093
sg14
I3
sg15
I00
sg16
I2
sg17
I4
sbs(I1
I3
tp24
g1
(g10
g3
NtRp25
(dp26
g13
F1.3564318909143607
sg14
I1
sg15
I01
sg16
I3
sg17
I3
sbs(I3
I7
tp27
g1
(g10
g3
NtRp28
(dp29
g13
F9.0306578315382371
sg14
I3
sg15
I01
sg16
I7
sg17
I26
sbs(I3
I3
tp30
g1
(g10
g3
NtRp31
(dp32
g13
F-2.5515690215829765
sg14
I3
sg15
I01
sg16
I3
sg17
I9
sbs(I6
I8
tp33
g1
(g10
g3
NtRp34
(dp35
g13
F-5.6142241439164273
sg14
I6
sg15
I01
sg16
I8
sg17
I56
sbs(I5
I6
tp36
g1
(g10
g3
NtRp37
(dp38
g13
F-8.785634307444246
sg14
I5
sg15
I01
sg16
I6
sg17
I16
sbs(I5
I2
tp39
g1
(g10
g3
NtRp40
(dp41
g13
F20.624457135881613
sg14
I5
sg15
I01
sg16
I2
sg17
I11
sbs(I1
I4
tp42
g1
(g10
g3
NtRp43
(dp44
g13
F10.51092154992342
sg14
I1
sg15
I01
sg16
I4
sg17
I8
sbs(I2
I3
tp45
g1
(g10
g3
NtRp46
(dp47
g13
F6.2651696168854967
sg14
I2
sg15
I01
sg16
I3
sg17
I7
sbs(I7
I2
tp48
g1
(g10
g3
NtRp49
(dp50
g13
F8.5099320211621343
sg14
I7
sg15
I01
sg16
I2
sg17
I33
sbs(I3
I6
tp51
g1
(g10
g3
NtRp52
(dp53
g13
F-2.9726340137980394
sg14
I3
sg15
I01
sg16
I6
sg17
I19
sbs(I2
I2
tp54
g1
(g10
g3
NtRp55
(dp56
g13
F2.3068011790852654
sg14
I2
sg15
I01
sg16
I2
sg17
I2
sbs(I4
I2
tp57
g1
(g10
g3
NtRp58
(dp59
g13
F15.585782905633948
sg14
I4
sg15
I01
sg16
I2
sg17
I6
sbs(I3
I5
tp60
g1
(g10
g3
NtRp61
(dp62
g13
F5.0329531857137058
sg14
I3
sg15
I01
sg16
I5
sg17
I13
sbs(I3
I4
tp63
g1
(g10
g3
NtRp64
(dp65
g13
F10.642548057270258
sg14
I3
sg15
I01
sg16
I4
sg17
I5
sbs(I2
I4
tp66
g1
(g10
g3
NtRp67
(dp68
g13
F-6.0543075678514802
sg14
I2
sg15
I01
sg16
I4
sg17
I24
sbs(I6
I5
tp69
g1
(g10
g3
NtRp70
(dp71
g13
F16.64656258045704
sg14
I6
sg15
I00
sg16
I5
sg17
I23
sbs(I5
I3
tp72
g1
(g10
g3
NtRp73
(dp74
g13
F14.513703982289771
sg14
I5
sg15
I01
sg16
I3
sg17
I14
sbssS'_input_nodes'
p75
I1
sS'_output_nodes'
p76
I1
sS'_node_gene_type'
p77
cneat.genome
NodeGene
p78
sS'_conn_gene_type'
p79
g10
sS'fitness'
p80
F0.83732965364224543
sS'parent2_id'
p81
I1667
sS'_id'
p82
I1682
sS'parent1_id'
p83
I1667
sS'_node_genes'
p84
(lp85
g1
(g78
g3
NtRp86
(dp87
S'_bias'
p88
I0
sS'_type'
p89
S'INPUT'
p90
sg82
I1
sS'_response'
p91
F4.9242730000000003
sS'_activation_type'
p92
Nsbag1
(g78
g3
NtRp93
(dp94
g88
F0.27419962542122484
sg89
S'OUTPUT'
p95
sg82
I2
sg91
F3.7093496388691856
sg92
S'tanh'
p96
sbag1
(g78
g3
NtRp97
(dp98
g88
F1.5641206474380036
sg89
S'HIDDEN'
p99
sg82
I3
sg91
F1.3203251468617951
sg92
g96
sbag1
(g78
g3
NtRp100
(dp101
g88
F-1.4601529644684437
sg89
g99
sg82
I4
sg91
F4.955239693311114
sg92
g96
sbag1
(g78
g3
NtRp102
(dp103
g88
F1.8126229743131184
sg89
g99
sg82
I5
sg91
F1.4519736692402858
sg92
g96
sbag1
(g78
g3
NtRp104
(dp105
g88
F-2.5217723801193195
sg89
g99
sg82
I6
sg91
F3.4334154158516612
sg92
g96
sbag1
(g78
g3
NtRp106
(dp107
g88
F0.21475937742957313
sg89
g99
sg82
I7
sg91
F3.8573650713557965
sg92
g96
sbag1
(g78
g3
NtRp108
(dp109
g88
F0.34372388523261077
sg89
g99
sg82
I8
sg91
F4.9242730000000003
sg92
g96
sbasb.