ccopy_reg
_reconstructor
p1
(cneat.chromosome
Chromosome
p2
c__builtin__
object
p3
NtRp4
(dp5
S'species_id'
p6
I15
sS'_connection_genes'
p7
(dp8
(I1
I2
tp9
g1
(cneat.genome
ConnectionGene
p10
g3
NtRp11
(dp12
S'_ConnectionGene__weight'
p13
F-5.0135414955669217
sS'_ConnectionGene__in'
p14
I1
sS'_ConnectionGene__enabled'
p15
I01
sS'_ConnectionGene__out'
p16
I2
sS'_ConnectionGene__innov_number'
p17
I1
sbs(I2
I7
tp18
g1
(g10
g3
NtRp19
(dp20
g13
F7.8526719042961082
sg14
I2
sg15
I01
sg16
I7
sg17
I34
sbs(I3
I2
tp21
g1
(g10
g3
NtRp22
(dp23
g13
F-15.994976913453696
sg14
I3
sg15
I01
sg16
I2
sg17
I4
sbs(I1
I3
tp24
g1
(g10
g3
NtRp25
(dp26
g13
F-3.3005045175796655
sg14
I1
sg15
I01
sg16
I3
sg17
I3
sbs(I2
I9
tp27
g1
(g10
g3
NtRp28
(dp29
g13
F3.8702475538872299
sg14
I2
sg15
I01
sg16
I9
sg17
I51
sbs(I7
I3
tp30
g1
(g10
g3
NtRp31
(dp32
g13
F7.3961032403800111
sg14
I7
sg15
I01
sg16
I3
sg17
I29
sbs(I4
I5
tp33
g1
(g10
g3
NtRp34
(dp35
g13
F-13.349266761801815
sg14
I4
sg15
I00
sg16
I5
sg17
I30
sbs(I5
I2
tp36
g1
(g10
g3
NtRp37
(dp38
g13
F-5.8518920318543381
sg14
I5
sg15
I00
sg16
I2
sg17
I11
sbs(I4
I8
tp39
g1
(g10
g3
NtRp40
(dp41
g13
F-1.3967781430181851
sg14
I4
sg15
I01
sg16
I8
sg17
I35
sbs(I3
I4
tp42
g1
(g10
g3
NtRp43
(dp44
g13
F2.2685635277137619
sg14
I3
sg15
I01
sg16
I4
sg17
I5
sbs(I7
I7
tp45
g1
(g10
g3
NtRp46
(dp47
g13
F1.3508800982452152
sg14
I7
sg15
I01
sg16
I7
sg17
I47
sbs(I1
I4
tp48
g1
(g10
g3
NtRp49
(dp50
g13
F10.902452303621239
sg14
I1
sg15
I01
sg16
I4
sg17
I8
sbs(I5
I6
tp51
g1
(g10
g3
NtRp52
(dp53
g13
F-9.2835545413492664
sg14
I5
sg15
I01
sg16
I6
sg17
I16
sbs(I6
I2
tp54
g1
(g10
g3
NtRp55
(dp56
g13
F-9.6294863736025853
sg14
I6
sg15
I01
sg16
I2
sg17
I17
sbs(I2
I3
tp57
g1
(g10
g3
NtRp58
(dp59
g13
F7.3056130015237635
sg14
I2
sg15
I00
sg16
I3
sg17
I7
sbs(I2
I2
tp60
g1
(g10
g3
NtRp61
(dp62
g13
F5.16023386396476
sg14
I2
sg15
I01
sg16
I2
sg17
I2
sbs(I9
I3
tp63
g1
(g10
g3
NtRp64
(dp65
g13
F6.1995243272963423
sg14
I9
sg15
I01
sg16
I3
sg17
I42
sbs(I4
I2
tp66
g1
(g10
g3
NtRp67
(dp68
g13
F-3.4387057276063584
sg14
I4
sg15
I01
sg16
I2
sg17
I6
sbs(I8
I5
tp69
g1
(g10
g3
NtRp70
(dp71
g13
F-5.1074695601545095
sg14
I8
sg15
I01
sg16
I5
sg17
I36
sbssS'_input_nodes'
p72
I1
sS'_output_nodes'
p73
I1
sS'_node_gene_type'
p74
cneat.genome
NodeGene
p75
sS'_conn_gene_type'
p76
g10
sS'fitness'
p77
F0.92806080156615234
sS'parent2_id'
p78
I1402
sS'_id'
p79
I1418
sS'parent1_id'
p80
I1402
sS'_node_genes'
p81
(lp82
g1
(g75
g3
NtRp83
(dp84
S'_bias'
p85
I0
sS'_type'
p86
S'INPUT'
p87
sg79
I1
sS'_response'
p88
F4.9242730000000003
sS'_activation_type'
p89
Nsbag1
(g75
g3
NtRp90
(dp91
g85
F-1.9437917609181186
sg86
S'OUTPUT'
p92
sg79
I2
sg88
F5.0731160858130702
sg89
S'tanh'
p93
sbag1
(g75
g3
NtRp94
(dp95
g85
F2.5630802105723918
sg86
S'HIDDEN'
p96
sg79
I3
sg88
F2.6044832535498195
sg89
g93
sbag1
(g75
g3
NtRp97
(dp98
g85
F-0.8950836256000847
sg86
g96
sg79
I4
sg88
F5.5015151802214106
sg89
g93
sbag1
(g75
g3
NtRp99
(dp100
g85
F0.44666497115389087
sg86
g96
sg79
I5
sg88
F3.4282299941140879
sg89
g93
sbag1
(g75
g3
NtRp101
(dp102
g85
F-0.43893723353205594
sg86
g96
sg79
I6
sg88
F3.7007412070839023
sg89
g93
sbag1
(g75
g3
NtRp103
(dp104
g85
F1.3016160431164412
sg86
g96
sg79
I7
sg88
F4.6251228151625714
sg89
g93
sbag1
(g75
g3
NtRp105
(dp106
g85
F-0.091459914151082192
sg86
g96
sg79
I8
sg88
F4.9242730000000003
sg89
g93
sbag1
(g75
g3
NtRp107
(dp108
g85
I0
sg86
g96
sg79
I9
sg88
F4.9242730000000003
sg89
g93
sbasb.