ccopy_reg
_reconstructor
p1
(cneat.chromosome
Chromosome
p2
c__builtin__
object
p3
NtRp4
(dp5
S'species_id'
p6
I44
sS'_connection_genes'
p7
(dp8
(I1
I3
tp9
g1
(cneat.genome
ConnectionGene
p10
g3
NtRp11
(dp12
S'_ConnectionGene__weight'
p13
F29.480274894736624
sS'_ConnectionGene__in'
p14
I1
sS'_ConnectionGene__enabled'
p15
I00
sS'_ConnectionGene__out'
p16
I3
sS'_ConnectionGene__innov_number'
p17
I3
sbs(I6
I6
tp18
g1
(g10
g3
NtRp19
(dp20
g13
F15.771689183240172
sg14
I6
sg15
I01
sg16
I6
sg17
I39
sbs(I5
I6
tp21
g1
(g10
g3
NtRp22
(dp23
g13
F-13.572287148142411
sg14
I5
sg15
I01
sg16
I6
sg17
I16
sbs(I11
I2
tp24
g1
(g10
g3
NtRp25
(dp26
g13
F-7.1591931754182232
sg14
I11
sg15
I01
sg16
I2
sg17
I74
sbs(I7
I2
tp27
g1
(g10
g3
NtRp28
(dp29
g13
F-5.5447317170178341
sg14
I7
sg15
I01
sg16
I2
sg17
I33
sbs(I1
I2
tp30
g1
(g10
g3
NtRp31
(dp32
g13
F17.627420293809795
sg14
I1
sg15
I01
sg16
I2
sg17
I1
sbs(I12
I2
tp33
g1
(g10
g3
NtRp34
(dp35
g13
F24.996705140457735
sg14
I12
sg15
I01
sg16
I2
sg17
I93
sbs(I3
I3
tp36
g1
(g10
g3
NtRp37
(dp38
g13
F10.25300435065108
sg14
I3
sg15
I01
sg16
I3
sg17
I9
sbs(I5
I12
tp39
g1
(g10
g3
NtRp40
(dp41
g13
F2.1978159112419098
sg14
I5
sg15
I01
sg16
I12
sg17
I118
sbs(I4
I4
tp42
g1
(g10
g3
NtRp43
(dp44
g13
F-1.6436063434113495
sg14
I4
sg15
I01
sg16
I4
sg17
I15
sbs(I1
I5
tp45
g1
(g10
g3
NtRp46
(dp47
g13
F-5.0883205621729886
sg14
I1
sg15
I01
sg16
I5
sg17
I10
sbs(I9
I11
tp48
g1
(g10
g3
NtRp49
(dp50
g13
F-2.7380195971339236
sg14
I9
sg15
I01
sg16
I11
sg17
I106
sbs(I6
I5
tp51
g1
(g10
g3
NtRp52
(dp53
g13
F11.633665558538375
sg14
I6
sg15
I01
sg16
I5
sg17
I23
sbs(I3
I6
tp54
g1
(g10
g3
NtRp55
(dp56
g13
F10.477957260685173
sg14
I3
sg15
I01
sg16
I6
sg17
I19
sbs(I2
I2
tp57
g1
(g10
g3
NtRp58
(dp59
g13
F-4.0524819708840116
sg14
I2
sg15
I01
sg16
I2
sg17
I2
sbs(I5
I3
tp60
g1
(g10
g3
NtRp61
(dp62
g13
F27.709701220616555
sg14
I5
sg15
I01
sg16
I3
sg17
I14
sbs(I3
I2
tp63
g1
(g10
g3
NtRp64
(dp65
g13
F13.826022370206775
sg14
I3
sg15
I01
sg16
I2
sg17
I4
sbs(I10
I4
tp66
g1
(g10
g3
NtRp67
(dp68
g13
F-5.1671167429427118
sg14
I10
sg15
I01
sg16
I4
sg17
I90
sbs(I4
I5
tp69
g1
(g10
g3
NtRp70
(dp71
g13
F18.964750252045583
sg14
I4
sg15
I01
sg16
I5
sg17
I30
sbs(I9
I3
tp72
g1
(g10
g3
NtRp73
(dp74
g13
F28.625715560926622
sg14
I9
sg15
I01
sg16
I3
sg17
I42
sbs(I1
I4
tp75
g1
(g10
g3
NtRp76
(dp77
g13
F21.611646809183689
sg14
I1
sg15
I01
sg16
I4
sg17
I8
sbs(I2
I3
tp78
g1
(g10
g3
NtRp79
(dp80
g13
F-15.665497551488103
sg14
I2
sg15
I01
sg16
I3
sg17
I7
sbs(I1
I9
tp81
g1
(g10
g3
NtRp82
(dp83
g13
F4.6400892312089468
sg14
I1
sg15
I01
sg16
I9
sg17
I50
sbs(I4
I2
tp84
g1
(g10
g3
NtRp85
(dp86
g13
F-15.609072898277285
sg14
I4
sg15
I01
sg16
I2
sg17
I6
sbs(I4
I11
tp87
g1
(g10
g3
NtRp88
(dp89
g13
F14.555856754153652
sg14
I4
sg15
I01
sg16
I11
sg17
I75
sbs(I3
I5
tp90
g1
(g10
g3
NtRp91
(dp92
g13
F10.651090039452521
sg14
I3
sg15
I01
sg16
I5
sg17
I13
sbs(I8
I3
tp93
g1
(g10
g3
NtRp94
(dp95
g13
F-1.3342768905554094
sg14
I8
sg15
I01
sg16
I3
sg17
I71
sbs(I5
I2
tp96
g1
(g10
g3
NtRp97
(dp98
g13
F23.971029845579032
sg14
I5
sg15
I00
sg16
I2
sg17
I11
sbs(I5
I7
tp99
g1
(g10
g3
NtRp100
(dp101
g13
F3.6140984740369286
sg14
I5
sg15
I01
sg16
I7
sg17
I28
sbs(I2
I4
tp102
g1
(g10
g3
NtRp103
(dp104
g13
F8.839036482944099
sg14
I2
sg15
I01
sg16
I4
sg17
I24
sbs(I3
I8
tp105
g1
(g10
g3
NtRp106
(dp107
g13
F28.631494617497697
sg14
I3
sg15
I01
sg16
I8
sg17
I49
sbs(I4
I3
tp108
g1
(g10
g3
NtRp109
(dp110
g13
F-8.582382323010453
sg14
I4
sg15
I01
sg16
I3
sg17
I12
sbs(I3
I4
tp111
g1
(g10
g3
NtRp112
(dp113
g13
F-2.4542535846067617
sg14
I3
sg15
I00
sg16
I4
sg17
I5
sbs(I3
I10
tp114
g1
(g10
g3
NtRp115
(dp116
g13
F9.9255048359004903
sg14
I3
sg15
I01
sg16
I10
sg17
I94
sbs(I8
I4
tp117
g1
(g10
g3
NtRp118
(dp119
g13
F7.0735719528011831
sg14
I8
sg15
I01
sg16
I4
sg17
I40
sbssS'_input_nodes'
p120
I1
sS'_output_nodes'
p121
I1
sS'_node_gene_type'
p122
cneat.genome
NodeGene
p123
sS'_conn_gene_type'
p124
g10
sS'fitness'
p125
F0.96381777450142025
sS'parent2_id'
p126
I4836
sS'_id'
p127
I4899
sS'parent1_id'
p128
I4836
sS'_node_genes'
p129
(lp130
g1
(g123
g3
NtRp131
(dp132
S'_bias'
p133
I0
sS'_type'
p134
S'INPUT'
p135
sg127
I1
sS'_response'
p136
F4.9242730000000003
sS'_activation_type'
p137
Nsbag1
(g123
g3
NtRp138
(dp139
g133
F2.0545433195678346
sg134
S'OUTPUT'
p140
sg127
I2
sg136
F6.4615312658976816
sg137
S'tanh'
p141
sbag1
(g123
g3
NtRp142
(dp143
g133
F-2.1866286218956681
sg134
S'HIDDEN'
p144
sg127
I3
sg136
F1.8478342286999383
sg137
g141
sbag1
(g123
g3
NtRp145
(dp146
g133
F0.1638541608227671
sg134
g144
sg127
I4
sg136
F3.7888336251954637
sg137
g141
sbag1
(g123
g3
NtRp147
(dp148
g133
F4.0667697325642482
sg134
g144
sg127
I5
sg136
F5.0859637351778391
sg137
g141
sbag1
(g123
g3
NtRp149
(dp150
g133
F-3.8465633999574398
sg134
g144
sg127
I6
sg136
F2.889946615804218
sg137
g141
sbag1
(g123
g3
NtRp151
(dp152
g133
F0.86512927164502096
sg134
g144
sg127
I7
sg136
F4.8425254313260169
sg137
g141
sbag1
(g123
g3
NtRp153
(dp154
g133
F-1.7940400207496472
sg134
g144
sg127
I8
sg136
F7.9387311219418395
sg137
g141
sbag1
(g123
g3
NtRp155
(dp156
g133
F0.17882387087310675
sg134
g144
sg127
I9
sg136
F5.0077745441758399
sg137
g141
sbag1
(g123
g3
NtRp157
(dp158
g133
F1.529847269362965
sg134
g144
sg127
I10
sg136
F5.3997444361518996
sg137
g141
sbag1
(g123
g3
NtRp159
(dp160
g133
F2.6302700124736935
sg134
g144
sg127
I11
sg136
F2.5806900038020579
sg137
g141
sbag1
(g123
g3
NtRp161
(dp162
g133
I0
sg134
g144
sg127
I12
sg136
F5.1539232354054869
sg137
g141
sbasb.