ccopy_reg
_reconstructor
p1
(cneat.chromosome
Chromosome
p2
c__builtin__
object
p3
NtRp4
(dp5
S'species_id'
p6
I42
sS'_connection_genes'
p7
(dp8
(I1
I3
tp9
g1
(cneat.genome
ConnectionGene
p10
g3
NtRp11
(dp12
S'_ConnectionGene__weight'
p13
F28.029337786282269
sS'_ConnectionGene__in'
p14
I1
sS'_ConnectionGene__enabled'
p15
I01
sS'_ConnectionGene__out'
p16
I3
sS'_ConnectionGene__innov_number'
p17
I3
sbs(I6
I6
tp18
g1
(g10
g3
NtRp19
(dp20
g13
F6.6163932410771205
sg14
I6
sg15
I00
sg16
I6
sg17
I39
sbs(I5
I6
tp21
g1
(g10
g3
NtRp22
(dp23
g13
F-13.57198394157485
sg14
I5
sg15
I01
sg16
I6
sg17
I16
sbs(I9
I8
tp24
g1
(g10
g3
NtRp25
(dp26
g13
F-15.817557083240175
sg14
I9
sg15
I01
sg16
I8
sg17
I60
sbs(I10
I6
tp27
g1
(g10
g3
NtRp28
(dp29
g13
F19.389041883796875
sg14
I10
sg15
I01
sg16
I6
sg17
I103
sbs(I5
I4
tp30
g1
(g10
g3
NtRp31
(dp32
g13
F7.6656569105679813
sg14
I5
sg15
I01
sg16
I4
sg17
I18
sbs(I9
I4
tp33
g1
(g10
g3
NtRp34
(dp35
g13
F10.682075323491752
sg14
I9
sg15
I01
sg16
I4
sg17
I77
sbs(I7
I2
tp36
g1
(g10
g3
NtRp37
(dp38
g13
F-4.3688177409352322
sg14
I7
sg15
I01
sg16
I2
sg17
I33
sbs(I1
I2
tp39
g1
(g10
g3
NtRp40
(dp41
g13
F24.131753463451922
sg14
I1
sg15
I01
sg16
I2
sg17
I1
sbs(I4
I9
tp42
g1
(g10
g3
NtRp43
(dp44
g13
F-3.4492733750929387
sg14
I4
sg15
I01
sg16
I9
sg17
I44
sbs(I3
I3
tp45
g1
(g10
g3
NtRp46
(dp47
g13
F11.339033299095885
sg14
I3
sg15
I01
sg16
I3
sg17
I9
sbs(I6
I10
tp48
g1
(g10
g3
NtRp49
(dp50
g13
F-1.2221654344052044
sg14
I6
sg15
I01
sg16
I10
sg17
I67
sbs(I4
I4
tp51
g1
(g10
g3
NtRp52
(dp53
g13
F1.4031729491919358
sg14
I4
sg15
I00
sg16
I4
sg17
I15
sbs(I1
I5
tp54
g1
(g10
g3
NtRp55
(dp56
g13
F-7.6314943889827784
sg14
I1
sg15
I01
sg16
I5
sg17
I10
sbs(I3
I6
tp57
g1
(g10
g3
NtRp58
(dp59
g13
F-2.1395100457482603
sg14
I3
sg15
I01
sg16
I6
sg17
I19
sbs(I2
I2
tp60
g1
(g10
g3
NtRp61
(dp62
g13
F-0.58309530699904677
sg14
I2
sg15
I01
sg16
I2
sg17
I2
sbs(I7
I9
tp63
g1
(g10
g3
NtRp64
(dp65
g13
F9.2329273138867478
sg14
I7
sg15
I01
sg16
I9
sg17
I41
sbs(I3
I2
tp66
g1
(g10
g3
NtRp67
(dp68
g13
F-4.8618432572424837
sg14
I3
sg15
I01
sg16
I2
sg17
I4
sbs(I4
I5
tp69
g1
(g10
g3
NtRp70
(dp71
g13
F-7.2333411394732856
sg14
I4
sg15
I01
sg16
I5
sg17
I30
sbs(I1
I4
tp72
g1
(g10
g3
NtRp73
(dp74
g13
F14.126955870994536
sg14
I1
sg15
I01
sg16
I4
sg17
I8
sbs(I7
I5
tp75
g1
(g10
g3
NtRp76
(dp77
g13
F-3.9126948942276298
sg14
I7
sg15
I01
sg16
I5
sg17
I68
sbs(I2
I3
tp78
g1
(g10
g3
NtRp79
(dp80
g13
F-16.700873622064226
sg14
I2
sg15
I01
sg16
I3
sg17
I7
sbs(I4
I2
tp81
g1
(g10
g3
NtRp82
(dp83
g13
F9.808776029849728
sg14
I4
sg15
I01
sg16
I2
sg17
I6
sbs(I6
I5
tp84
g1
(g10
g3
NtRp85
(dp86
g13
F-0.96280588577876647
sg14
I6
sg15
I01
sg16
I5
sg17
I23
sbs(I5
I3
tp87
g1
(g10
g3
NtRp88
(dp89
g13
F-2.1242299539560658
sg14
I5
sg15
I01
sg16
I3
sg17
I14
sbs(I3
I5
tp90
g1
(g10
g3
NtRp91
(dp92
g13
F6.4001895195759326
sg14
I3
sg15
I01
sg16
I5
sg17
I13
sbs(I8
I3
tp93
g1
(g10
g3
NtRp94
(dp95
g13
F13.745456528875009
sg14
I8
sg15
I01
sg16
I3
sg17
I71
sbs(I3
I4
tp96
g1
(g10
g3
NtRp97
(dp98
g13
F2.736571594925874
sg14
I3
sg15
I00
sg16
I4
sg17
I5
sbs(I5
I7
tp99
g1
(g10
g3
NtRp100
(dp101
g13
F23.313418699107281
sg14
I5
sg15
I01
sg16
I7
sg17
I28
sbs(I3
I8
tp102
g1
(g10
g3
NtRp103
(dp104
g13
F25.314796592292669
sg14
I3
sg15
I01
sg16
I8
sg17
I49
sbs(I4
I3
tp105
g1
(g10
g3
NtRp106
(dp107
g13
F-13.519705162185849
sg14
I4
sg15
I01
sg16
I3
sg17
I12
sbs(I5
I2
tp108
g1
(g10
g3
NtRp109
(dp110
g13
F28.433904272466336
sg14
I5
sg15
I01
sg16
I2
sg17
I11
sbs(I2
I4
tp111
g1
(g10
g3
NtRp112
(dp113
g13
F-5.0473496609413786
sg14
I2
sg15
I01
sg16
I4
sg17
I24
sbs(I8
I4
tp114
g1
(g10
g3
NtRp115
(dp116
g13
F-3.6298055661677959
sg14
I8
sg15
I01
sg16
I4
sg17
I40
sbssS'_input_nodes'
p117
I1
sS'_output_nodes'
p118
I1
sS'_node_gene_type'
p119
cneat.genome
NodeGene
p120
sS'_conn_gene_type'
p121
g10
sS'fitness'
p122
F0.97757784192090658
sS'parent2_id'
p123
I5190
sS'_id'
p124
I5222
sS'parent1_id'
p125
I5190
sS'_node_genes'
p126
(lp127
g1
(g120
g3
NtRp128
(dp129
S'_bias'
p130
I0
sS'_type'
p131
S'INPUT'
p132
sg124
I1
sS'_response'
p133
F4.9242730000000003
sS'_activation_type'
p134
Nsbag1
(g120
g3
NtRp135
(dp136
g130
F-1.6789043472485687
sg131
S'OUTPUT'
p137
sg124
I2
sg133
F1.4822002728282613
sg134
S'tanh'
p138
sbag1
(g120
g3
NtRp139
(dp140
g130
F-4.1819629277324406
sg131
S'HIDDEN'
p141
sg124
I3
sg133
F1.0385038823746744
sg134
g138
sbag1
(g120
g3
NtRp142
(dp143
g130
F-1.5491769337804784
sg131
g141
sg124
I4
sg133
F6.3538984903862081
sg134
g138
sbag1
(g120
g3
NtRp144
(dp145
g130
F3.8958984388221101
sg131
g141
sg124
I5
sg133
F5.3418858903924553
sg134
g138
sbag1
(g120
g3
NtRp146
(dp147
g130
F-3.7876860425497445
sg131
g141
sg124
I6
sg133
F2.459726822548252
sg134
g138
sbag1
(g120
g3
NtRp148
(dp149
g130
F1.5527701375014478
sg131
g141
sg124
I7
sg133
F4.9994472506160594
sg134
g138
sbag1
(g120
g3
NtRp150
(dp151
g130
F0.13567587803669207
sg131
g141
sg124
I8
sg133
F7.6217221647851696
sg134
g138
sbag1
(g120
g3
NtRp152
(dp153
g130
F-0.68354929074213522
sg131
g141
sg124
I9
sg133
F5.8722812242883551
sg134
g138
sbag1
(g120
g3
NtRp154
(dp155
g130
F-0.043164306814556325
sg131
g141
sg124
I10
sg133
F4.6992257172128005
sg134
g138
sbasb.