ccopy_reg
_reconstructor
p1
(cneat.chromosome
Chromosome
p2
c__builtin__
object
p3
NtRp4
(dp5
S'species_id'
p6
I36
sS'_connection_genes'
p7
(dp8
(I1
I3
tp9
g1
(cneat.genome
ConnectionGene
p10
g3
NtRp11
(dp12
S'_ConnectionGene__weight'
p13
F30
sS'_ConnectionGene__in'
p14
I1
sS'_ConnectionGene__enabled'
p15
I00
sS'_ConnectionGene__out'
p16
I3
sS'_ConnectionGene__innov_number'
p17
I3
sbs(I6
I6
tp18
g1
(g10
g3
NtRp19
(dp20
g13
F12.386462233478207
sg14
I6
sg15
I01
sg16
I6
sg17
I39
sbs(I5
I6
tp21
g1
(g10
g3
NtRp22
(dp23
g13
F-7.0313381324026842
sg14
I5
sg15
I01
sg16
I6
sg17
I16
sbs(I7
I2
tp24
g1
(g10
g3
NtRp25
(dp26
g13
F-0.28694388476638455
sg14
I7
sg15
I01
sg16
I2
sg17
I33
sbs(I1
I2
tp27
g1
(g10
g3
NtRp28
(dp29
g13
F4.0473814997835174
sg14
I1
sg15
I01
sg16
I2
sg17
I1
sbs(I3
I3
tp30
g1
(g10
g3
NtRp31
(dp32
g13
F15.034849208606438
sg14
I3
sg15
I01
sg16
I3
sg17
I9
sbs(I4
I4
tp33
g1
(g10
g3
NtRp34
(dp35
g13
F6.1015798715305856
sg14
I4
sg15
I01
sg16
I4
sg17
I15
sbs(I1
I5
tp36
g1
(g10
g3
NtRp37
(dp38
g13
F-10.257191093313621
sg14
I1
sg15
I01
sg16
I5
sg17
I10
sbs(I3
I6
tp39
g1
(g10
g3
NtRp40
(dp41
g13
F5.571280481190974
sg14
I3
sg15
I01
sg16
I6
sg17
I19
sbs(I2
I2
tp42
g1
(g10
g3
NtRp43
(dp44
g13
F1.2036086781435555
sg14
I2
sg15
I01
sg16
I2
sg17
I2
sbs(I3
I5
tp45
g1
(g10
g3
NtRp46
(dp47
g13
F2.225921833869235
sg14
I3
sg15
I01
sg16
I5
sg17
I13
sbs(I3
I2
tp48
g1
(g10
g3
NtRp49
(dp50
g13
F10.31858749436512
sg14
I3
sg15
I01
sg16
I2
sg17
I4
sbs(I4
I5
tp51
g1
(g10
g3
NtRp52
(dp53
g13
F16.943800476997218
sg14
I4
sg15
I01
sg16
I5
sg17
I30
sbs(I9
I3
tp54
g1
(g10
g3
NtRp55
(dp56
g13
F29.473146118594723
sg14
I9
sg15
I01
sg16
I3
sg17
I42
sbs(I1
I4
tp57
g1
(g10
g3
NtRp58
(dp59
g13
F11.056777457310282
sg14
I1
sg15
I01
sg16
I4
sg17
I8
sbs(I2
I3
tp60
g1
(g10
g3
NtRp61
(dp62
g13
F-10.15548263030848
sg14
I2
sg15
I01
sg16
I3
sg17
I7
sbs(I1
I9
tp63
g1
(g10
g3
NtRp64
(dp65
g13
F2.9969115739237879
sg14
I1
sg15
I01
sg16
I9
sg17
I50
sbs(I4
I2
tp66
g1
(g10
g3
NtRp67
(dp68
g13
F-1.746014670176419
sg14
I4
sg15
I01
sg16
I2
sg17
I6
sbs(I6
I5
tp69
g1
(g10
g3
NtRp70
(dp71
g13
F5.6711070026680357
sg14
I6
sg15
I01
sg16
I5
sg17
I23
sbs(I5
I3
tp72
g1
(g10
g3
NtRp73
(dp74
g13
F23.797381385715394
sg14
I5
sg15
I01
sg16
I3
sg17
I14
sbs(I8
I3
tp75
g1
(g10
g3
NtRp76
(dp77
g13
F1.8670988205844123
sg14
I8
sg15
I01
sg16
I3
sg17
I71
sbs(I5
I2
tp78
g1
(g10
g3
NtRp79
(dp80
g13
F27.3480841447054
sg14
I5
sg15
I01
sg16
I2
sg17
I11
sbs(I5
I7
tp81
g1
(g10
g3
NtRp82
(dp83
g13
F7.7082974911589348
sg14
I5
sg15
I01
sg16
I7
sg17
I28
sbs(I3
I8
tp84
g1
(g10
g3
NtRp85
(dp86
g13
F20.707858005951746
sg14
I3
sg15
I01
sg16
I8
sg17
I49
sbs(I4
I3
tp87
g1
(g10
g3
NtRp88
(dp89
g13
F-13.957059539613413
sg14
I4
sg15
I01
sg16
I3
sg17
I12
sbs(I3
I4
tp90
g1
(g10
g3
NtRp91
(dp92
g13
F3.0418219581434309
sg14
I3
sg15
I01
sg16
I4
sg17
I5
sbs(I2
I4
tp93
g1
(g10
g3
NtRp94
(dp95
g13
F12.154198597232863
sg14
I2
sg15
I01
sg16
I4
sg17
I24
sbs(I8
I4
tp96
g1
(g10
g3
NtRp97
(dp98
g13
F5.7831131322190883
sg14
I8
sg15
I01
sg16
I4
sg17
I40
sbssS'_input_nodes'
p99
I1
sS'_output_nodes'
p100
I1
sS'_node_gene_type'
p101
cneat.genome
NodeGene
p102
sS'_conn_gene_type'
p103
g10
sS'fitness'
p104
F0.88199847150345612
sS'parent2_id'
p105
I4084
sS'_id'
p106
I4101
sS'parent1_id'
p107
I4084
sS'_node_genes'
p108
(lp109
g1
(g102
g3
NtRp110
(dp111
S'_bias'
p112
I0
sS'_type'
p113
S'INPUT'
p114
sg106
I1
sS'_response'
p115
F4.9242730000000003
sS'_activation_type'
p116
Nsbag1
(g102
g3
NtRp117
(dp118
g112
F1.6620119457232199
sg113
S'OUTPUT'
p119
sg106
I2
sg115
F5.0883558672969
sg116
S'tanh'
p120
sbag1
(g102
g3
NtRp121
(dp122
g112
F-0.97779454201851235
sg113
S'HIDDEN'
p123
sg106
I3
sg115
F1.024743232060364
sg116
g120
sbag1
(g102
g3
NtRp124
(dp125
g112
F1.5216775264574465
sg113
g123
sg106
I4
sg115
F3.4060663948322425
sg116
g120
sbag1
(g102
g3
NtRp126
(dp127
g112
F3.4667943853142549
sg113
g123
sg106
I5
sg115
F5.4237614695063341
sg116
g120
sbag1
(g102
g3
NtRp128
(dp129
g112
F-4.3713533578267514
sg113
g123
sg106
I6
sg115
F2.4082891215129822
sg116
g120
sbag1
(g102
g3
NtRp130
(dp131
g112
F-1.3951041529495827
sg113
g123
sg106
I7
sg115
F5.2575081888802622
sg116
g120
sbag1
(g102
g3
NtRp132
(dp133
g112
F-0.2738256406331403
sg113
g123
sg106
I8
sg115
F7.1559808944950669
sg116
g120
sbag1
(g102
g3
NtRp134
(dp135
g112
F0.31754722116362355
sg113
g123
sg106
I9
sg115
F4.4303310817663331
sg116
g120
sbasb.