ccopy_reg
_reconstructor
p1
(cneat.chromosome
Chromosome
p2
c__builtin__
object
p3
NtRp4
(dp5
S'species_id'
p6
I27
sS'_connection_genes'
p7
(dp8
(I1
I2
tp9
g1
(cneat.genome
ConnectionGene
p10
g3
NtRp11
(dp12
S'_ConnectionGene__weight'
p13
F10.88986690268467
sS'_ConnectionGene__in'
p14
I1
sS'_ConnectionGene__enabled'
p15
I01
sS'_ConnectionGene__out'
p16
I2
sS'_ConnectionGene__innov_number'
p17
I1
sbs(I3
I2
tp18
g1
(g10
g3
NtRp19
(dp20
g13
F21.512546961065379
sg14
I3
sg15
I00
sg16
I2
sg17
I4
sbs(I1
I3
tp21
g1
(g10
g3
NtRp22
(dp23
g13
F23.697337797157424
sg14
I1
sg15
I01
sg16
I3
sg17
I3
sbs(I3
I3
tp24
g1
(g10
g3
NtRp25
(dp26
g13
F17.627083665875801
sg14
I3
sg15
I01
sg16
I3
sg17
I9
sbs(I5
I6
tp27
g1
(g10
g3
NtRp28
(dp29
g13
F6.5764769086224479
sg14
I5
sg15
I01
sg16
I6
sg17
I16
sbs(I3
I4
tp30
g1
(g10
g3
NtRp31
(dp32
g13
F2.8938884349426548
sg14
I3
sg15
I01
sg16
I4
sg17
I5
sbs(I4
I4
tp33
g1
(g10
g3
NtRp34
(dp35
g13
F0.23797900354206736
sg14
I4
sg15
I01
sg16
I4
sg17
I15
sbs(I1
I4
tp36
g1
(g10
g3
NtRp37
(dp38
g13
F14.454696803558511
sg14
I1
sg15
I01
sg16
I4
sg17
I8
sbs(I1
I5
tp39
g1
(g10
g3
NtRp40
(dp41
g13
F14.261346054176519
sg14
I1
sg15
I01
sg16
I5
sg17
I10
sbs(I2
I3
tp42
g1
(g10
g3
NtRp43
(dp44
g13
F-11.798470612419461
sg14
I2
sg15
I01
sg16
I3
sg17
I7
sbs(I3
I6
tp45
g1
(g10
g3
NtRp46
(dp47
g13
F-7.8276314727516425
sg14
I3
sg15
I01
sg16
I6
sg17
I19
sbs(I2
I2
tp48
g1
(g10
g3
NtRp49
(dp50
g13
F3.1544679955139543
sg14
I2
sg15
I01
sg16
I2
sg17
I2
sbs(I4
I2
tp51
g1
(g10
g3
NtRp52
(dp53
g13
F13.83056905219204
sg14
I4
sg15
I01
sg16
I2
sg17
I6
sbs(I5
I3
tp54
g1
(g10
g3
NtRp55
(dp56
g13
F16.300933509609965
sg14
I5
sg15
I01
sg16
I3
sg17
I14
sbs(I5
I2
tp57
g1
(g10
g3
NtRp58
(dp59
g13
F26.974574211944766
sg14
I5
sg15
I01
sg16
I2
sg17
I11
sbs(I2
I4
tp60
g1
(g10
g3
NtRp61
(dp62
g13
F3.1747157252017741
sg14
I2
sg15
I01
sg16
I4
sg17
I24
sbs(I6
I5
tp63
g1
(g10
g3
NtRp64
(dp65
g13
F21.976133414553644
sg14
I6
sg15
I01
sg16
I5
sg17
I23
sbs(I3
I5
tp66
g1
(g10
g3
NtRp67
(dp68
g13
F5.0542672015439036
sg14
I3
sg15
I01
sg16
I5
sg17
I13
sbssS'_input_nodes'
p69
I1
sS'_output_nodes'
p70
I1
sS'_node_gene_type'
p71
cneat.genome
NodeGene
p72
sS'_conn_gene_type'
p73
g10
sS'fitness'
p74
F0.80871825536121233
sS'parent2_id'
p75
I2222
sS'_id'
p76
I2242
sS'parent1_id'
p77
I2222
sS'_node_genes'
p78
(lp79
g1
(g72
g3
NtRp80
(dp81
S'_bias'
p82
I0
sS'_type'
p83
S'INPUT'
p84
sg76
I1
sS'_response'
p85
F4.9242730000000003
sS'_activation_type'
p86
Nsbag1
(g72
g3
NtRp87
(dp88
g82
F1.6673937998013271
sg83
S'OUTPUT'
p89
sg76
I2
sg85
F5.920487946929426
sg86
S'tanh'
p90
sbag1
(g72
g3
NtRp91
(dp92
g82
F-0.1346519886218619
sg83
S'HIDDEN'
p93
sg76
I3
sg85
F3.6068063103998629
sg86
g90
sbag1
(g72
g3
NtRp94
(dp95
g82
F-1.1941221352325404
sg83
g93
sg76
I4
sg85
F3.5908583148294646
sg86
g90
sbag1
(g72
g3
NtRp96
(dp97
g82
F-0.35127888288974285
sg83
g93
sg76
I5
sg85
F4.3932719977501113
sg86
g90
sbag1
(g72
g3
NtRp98
(dp99
g82
F-2.9477458964614027
sg83
g93
sg76
I6
sg85
F5.0597844037801796
sg86
g90
sbasb.