ccopy_reg
_reconstructor
p1
(cneat.chromosome
Chromosome
p2
c__builtin__
object
p3
NtRp4
(dp5
S'species_id'
p6
I48
sS'_connection_genes'
p7
(dp8
(I1
I3
tp9
g1
(cneat.genome
ConnectionGene
p10
g3
NtRp11
(dp12
S'_ConnectionGene__weight'
p13
F27.054226675350531
sS'_ConnectionGene__in'
p14
I1
sS'_ConnectionGene__enabled'
p15
I01
sS'_ConnectionGene__out'
p16
I3
sS'_ConnectionGene__innov_number'
p17
I3
sbs(I6
I6
tp18
g1
(g10
g3
NtRp19
(dp20
g13
F23.013262420721947
sg14
I6
sg15
I01
sg16
I6
sg17
I39
sbs(I5
I6
tp21
g1
(g10
g3
NtRp22
(dp23
g13
F5.6281074496576373
sg14
I5
sg15
I01
sg16
I6
sg17
I16
sbs(I9
I8
tp24
g1
(g10
g3
NtRp25
(dp26
g13
F-15.102751036064104
sg14
I9
sg15
I01
sg16
I8
sg17
I60
sbs(I9
I4
tp27
g1
(g10
g3
NtRp28
(dp29
g13
F26.859299466389537
sg14
I9
sg15
I00
sg16
I4
sg17
I77
sbs(I7
I2
tp30
g1
(g10
g3
NtRp31
(dp32
g13
F-4.6941020468099266
sg14
I7
sg15
I01
sg16
I2
sg17
I33
sbs(I1
I2
tp33
g1
(g10
g3
NtRp34
(dp35
g13
F18.218241636825407
sg14
I1
sg15
I01
sg16
I2
sg17
I1
sbs(I4
I9
tp36
g1
(g10
g3
NtRp37
(dp38
g13
F7.8573100583313895
sg14
I4
sg15
I01
sg16
I9
sg17
I44
sbs(I3
I3
tp39
g1
(g10
g3
NtRp40
(dp41
g13
F29.549272999007037
sg14
I3
sg15
I01
sg16
I3
sg17
I9
sbs(I3
I10
tp42
g1
(g10
g3
NtRp43
(dp44
g13
F-4.4448758208419701
sg14
I3
sg15
I01
sg16
I10
sg17
I94
sbs(I4
I4
tp45
g1
(g10
g3
NtRp46
(dp47
g13
F11.372921345827335
sg14
I4
sg15
I01
sg16
I4
sg17
I15
sbs(I1
I5
tp48
g1
(g10
g3
NtRp49
(dp50
g13
F-9.7013862106355262
sg14
I1
sg15
I01
sg16
I5
sg17
I10
sbs(I9
I11
tp51
g1
(g10
g3
NtRp52
(dp53
g13
F-5.8112287586321658
sg14
I9
sg15
I01
sg16
I11
sg17
I106
sbs(I3
I6
tp54
g1
(g10
g3
NtRp55
(dp56
g13
F-10.506801097481794
sg14
I3
sg15
I01
sg16
I6
sg17
I19
sbs(I2
I2
tp57
g1
(g10
g3
NtRp58
(dp59
g13
F15.302277130607415
sg14
I2
sg15
I01
sg16
I2
sg17
I2
sbs(I7
I9
tp60
g1
(g10
g3
NtRp61
(dp62
g13
F0.13704314526521699
sg14
I7
sg15
I01
sg16
I9
sg17
I41
sbs(I3
I2
tp63
g1
(g10
g3
NtRp64
(dp65
g13
F-2.3542599333660306
sg14
I3
sg15
I01
sg16
I2
sg17
I4
sbs(I11
I4
tp66
g1
(g10
g3
NtRp67
(dp68
g13
F24.754514512418485
sg14
I11
sg15
I01
sg16
I4
sg17
I101
sbs(I10
I4
tp69
g1
(g10
g3
NtRp70
(dp71
g13
F7.8652183772145303
sg14
I10
sg15
I01
sg16
I4
sg17
I90
sbs(I4
I5
tp72
g1
(g10
g3
NtRp73
(dp74
g13
F-12.638204380801222
sg14
I4
sg15
I01
sg16
I5
sg17
I30
sbs(I8
I11
tp75
g1
(g10
g3
NtRp76
(dp77
g13
F2.9589474612657325
sg14
I8
sg15
I01
sg16
I11
sg17
I80
sbs(I8
I3
tp78
g1
(g10
g3
NtRp79
(dp80
g13
F25.981788806673478
sg14
I8
sg15
I01
sg16
I3
sg17
I71
sbs(I1
I4
tp81
g1
(g10
g3
NtRp82
(dp83
g13
F20.983996417182261
sg14
I1
sg15
I01
sg16
I4
sg17
I8
sbs(I3
I9
tp84
g1
(g10
g3
NtRp85
(dp86
g13
F5.5765074022507966
sg14
I3
sg15
I01
sg16
I9
sg17
I61
sbs(I2
I3
tp87
g1
(g10
g3
NtRp88
(dp89
g13
F-24.383514896591521
sg14
I2
sg15
I01
sg16
I3
sg17
I7
sbs(I4
I2
tp90
g1
(g10
g3
NtRp91
(dp92
g13
F18.458425882894819
sg14
I4
sg15
I01
sg16
I2
sg17
I6
sbs(I11
I12
tp93
g1
(g10
g3
NtRp94
(dp95
g13
F1.5443227315931236
sg14
I11
sg15
I01
sg16
I12
sg17
I145
sbs(I6
I5
tp96
g1
(g10
g3
NtRp97
(dp98
g13
F8.6748352698091864
sg14
I6
sg15
I01
sg16
I5
sg17
I23
sbs(I5
I3
tp99
g1
(g10
g3
NtRp100
(dp101
g13
F4.8812620645054148
sg14
I5
sg15
I01
sg16
I3
sg17
I14
sbs(I3
I5
tp102
g1
(g10
g3
NtRp103
(dp104
g13
F-7.9624984244982935
sg14
I3
sg15
I01
sg16
I5
sg17
I13
sbs(I10
I5
tp105
g1
(g10
g3
NtRp106
(dp107
g13
F7.8307981356938097
sg14
I10
sg15
I01
sg16
I5
sg17
I64
sbs(I3
I4
tp108
g1
(g10
g3
NtRp109
(dp110
g13
F-3.0741107702392054
sg14
I3
sg15
I00
sg16
I4
sg17
I5
sbs(I5
I7
tp111
g1
(g10
g3
NtRp112
(dp113
g13
F3.7814028712292886
sg14
I5
sg15
I01
sg16
I7
sg17
I28
sbs(I3
I8
tp114
g1
(g10
g3
NtRp115
(dp116
g13
F21.343492858501882
sg14
I3
sg15
I01
sg16
I8
sg17
I49
sbs(I12
I4
tp117
g1
(g10
g3
NtRp118
(dp119
g13
F14.308413262091978
sg14
I12
sg15
I01
sg16
I4
sg17
I105
sbs(I4
I3
tp120
g1
(g10
g3
NtRp121
(dp122
g13
F5.1797026811106068
sg14
I4
sg15
I01
sg16
I3
sg17
I12
sbs(I5
I2
tp123
g1
(g10
g3
NtRp124
(dp125
g13
F22.813052261343813
sg14
I5
sg15
I01
sg16
I2
sg17
I11
sbs(I2
I4
tp126
g1
(g10
g3
NtRp127
(dp128
g13
F16.157565134845594
sg14
I2
sg15
I01
sg16
I4
sg17
I24
sbs(I8
I4
tp129
g1
(g10
g3
NtRp130
(dp131
g13
F-3.5872927168979318
sg14
I8
sg15
I01
sg16
I4
sg17
I40
sbssS'_input_nodes'
p132
I1
sS'_output_nodes'
p133
I1
sS'_node_gene_type'
p134
cneat.genome
NodeGene
p135
sS'_conn_gene_type'
p136
g10
sS'fitness'
p137
F0.98840602289238977
sS'parent2_id'
p138
I5586
sS'_id'
p139
I5602
sS'parent1_id'
p140
I5586
sS'_node_genes'
p141
(lp142
g1
(g135
g3
NtRp143
(dp144
S'_bias'
p145
I0
sS'_type'
p146
S'INPUT'
p147
sg139
I1
sS'_response'
p148
F4.9242730000000003
sS'_activation_type'
p149
Nsbag1
(g135
g3
NtRp150
(dp151
g145
F-2.6029913808894709
sg146
S'OUTPUT'
p152
sg139
I2
sg148
F7.2834950680839894
sg149
S'tanh'
p153
sbag1
(g135
g3
NtRp154
(dp155
g145
F-5.0902534350056268
sg146
S'HIDDEN'
p156
sg139
I3
sg148
F2.5077353462560739
sg149
g153
sbag1
(g135
g3
NtRp157
(dp158
g145
F3.4319623003185948
sg146
g156
sg139
I4
sg148
F4.7925837795657218
sg149
g153
sbag1
(g135
g3
NtRp159
(dp160
g145
F4.090212661581158
sg146
g156
sg139
I5
sg148
F7.427329953861733
sg149
g153
sbag1
(g135
g3
NtRp161
(dp162
g145
F-3.1333838469212516
sg146
g156
sg139
I6
sg148
F3.5884243683907369
sg149
g153
sbag1
(g135
g3
NtRp163
(dp164
g145
F-0.040743433427389945
sg146
g156
sg139
I7
sg148
F6.6234328110748368
sg149
g153
sbag1
(g135
g3
NtRp165
(dp166
g145
F-3.085973140469922
sg146
g156
sg139
I8
sg148
F7.493668274779548
sg149
g153
sbag1
(g135
g3
NtRp167
(dp168
g145
F1.4985809119364883
sg146
g156
sg139
I9
sg148
F5.274532202602213
sg149
g153
sbag1
(g135
g3
NtRp169
(dp170
g145
F-0.27641527106868252
sg146
g156
sg139
I10
sg148
F7.3799656095292789
sg149
g153
sbag1
(g135
g3
NtRp171
(dp172
g145
F0.85588415995087408
sg146
g156
sg139
I11
sg148
F5.5921894430324768
sg149
g153
sbag1
(g135
g3
NtRp173
(dp174
g145
F1.4793054749419992
sg146
g156
sg139
I12
sg148
F5.2161335279081236
sg149
g153
sbasb.