ccopy_reg
_reconstructor
p1
(cneat.chromosome
Chromosome
p2
c__builtin__
object
p3
NtRp4
(dp5
S'species_id'
p6
I20
sS'_connection_genes'
p7
(dp8
(I1
I2
tp9
g1
(cneat.genome
ConnectionGene
p10
g3
NtRp11
(dp12
S'_ConnectionGene__weight'
p13
F11.914957178353793
sS'_ConnectionGene__in'
p14
I1
sS'_ConnectionGene__enabled'
p15
I01
sS'_ConnectionGene__out'
p16
I2
sS'_ConnectionGene__innov_number'
p17
I1
sbs(I3
I2
tp18
g1
(g10
g3
NtRp19
(dp20
g13
F14.013964970363698
sg14
I3
sg15
I00
sg16
I2
sg17
I4
sbs(I1
I3
tp21
g1
(g10
g3
NtRp22
(dp23
g13
F0.11140166984010333
sg14
I1
sg15
I01
sg16
I3
sg17
I3
sbs(I3
I3
tp24
g1
(g10
g3
NtRp25
(dp26
g13
F-2.1689106395062305
sg14
I3
sg15
I01
sg16
I3
sg17
I9
sbs(I5
I6
tp27
g1
(g10
g3
NtRp28
(dp29
g13
F1.4090152481872775
sg14
I5
sg15
I01
sg16
I6
sg17
I16
sbs(I3
I4
tp30
g1
(g10
g3
NtRp31
(dp32
g13
F7.7641566326747284
sg14
I3
sg15
I01
sg16
I4
sg17
I5
sbs(I1
I4
tp33
g1
(g10
g3
NtRp34
(dp35
g13
F0.83805354176443891
sg14
I1
sg15
I01
sg16
I4
sg17
I8
sbs(I1
I5
tp36
g1
(g10
g3
NtRp37
(dp38
g13
F0.20242233031514956
sg14
I1
sg15
I01
sg16
I5
sg17
I10
sbs(I2
I3
tp39
g1
(g10
g3
NtRp40
(dp41
g13
F-1.7533394614540538
sg14
I2
sg15
I01
sg16
I3
sg17
I7
sbs(I3
I6
tp42
g1
(g10
g3
NtRp43
(dp44
g13
F-3.3233140088280138
sg14
I3
sg15
I01
sg16
I6
sg17
I19
sbs(I2
I2
tp45
g1
(g10
g3
NtRp46
(dp47
g13
F6.8939306266834555
sg14
I2
sg15
I01
sg16
I2
sg17
I2
sbs(I4
I2
tp48
g1
(g10
g3
NtRp49
(dp50
g13
F18.321556194683865
sg14
I4
sg15
I01
sg16
I2
sg17
I6
sbs(I5
I3
tp51
g1
(g10
g3
NtRp52
(dp53
g13
F10.648398479223193
sg14
I5
sg15
I01
sg16
I3
sg17
I14
sbs(I5
I2
tp54
g1
(g10
g3
NtRp55
(dp56
g13
F29.214183977262966
sg14
I5
sg15
I01
sg16
I2
sg17
I11
sbs(I2
I4
tp57
g1
(g10
g3
NtRp58
(dp59
g13
F-1.0933159687054637
sg14
I2
sg15
I01
sg16
I4
sg17
I24
sbs(I6
I5
tp60
g1
(g10
g3
NtRp61
(dp62
g13
F10.796046761460502
sg14
I6
sg15
I01
sg16
I5
sg17
I23
sbs(I3
I5
tp63
g1
(g10
g3
NtRp64
(dp65
g13
F3.276698823969149
sg14
I3
sg15
I01
sg16
I5
sg17
I13
sbssS'_input_nodes'
p66
I1
sS'_output_nodes'
p67
I1
sS'_node_gene_type'
p68
cneat.genome
NodeGene
p69
sS'_conn_gene_type'
p70
g10
sS'fitness'
p71
F0.92441333628617262
sS'parent2_id'
p72
I1670
sS'_id'
p73
I1689
sS'parent1_id'
p74
I1670
sS'_node_genes'
p75
(lp76
g1
(g69
g3
NtRp77
(dp78
S'_bias'
p79
I0
sS'_type'
p80
S'INPUT'
p81
sg73
I1
sS'_response'
p82
F4.9242730000000003
sS'_activation_type'
p83
Nsbag1
(g69
g3
NtRp84
(dp85
g79
F0.038755242680332813
sg80
S'OUTPUT'
p86
sg73
I2
sg82
F4.8213659649744738
sg83
S'tanh'
p87
sbag1
(g69
g3
NtRp88
(dp89
g79
F2.8122940355905679
sg80
S'HIDDEN'
p90
sg73
I3
sg82
F2.383827411042561
sg83
g87
sbag1
(g69
g3
NtRp91
(dp92
g79
F-1.1941221352325404
sg80
g90
sg73
I4
sg82
F4.7517664888707252
sg83
g87
sbag1
(g69
g3
NtRp93
(dp94
g79
F0.71991541638314027
sg80
g90
sg73
I5
sg82
F3.128033954939446
sg83
g87
sbag1
(g69
g3
NtRp95
(dp96
g79
F-2.6752044924558116
sg80
g90
sg73
I6
sg82
F4.6175192749257183
sg83
g87
sbasb.