ccopy_reg
_reconstructor
p1
(cneat.chromosome
Chromosome
p2
c__builtin__
object
p3
NtRp4
(dp5
S'species_id'
p6
I46
sS'_connection_genes'
p7
(dp8
(I1
I3
tp9
g1
(cneat.genome
ConnectionGene
p10
g3
NtRp11
(dp12
S'_ConnectionGene__weight'
p13
F23.185066580342458
sS'_ConnectionGene__in'
p14
I1
sS'_ConnectionGene__enabled'
p15
I01
sS'_ConnectionGene__out'
p16
I3
sS'_ConnectionGene__innov_number'
p17
I3
sbs(I6
I6
tp18
g1
(g10
g3
NtRp19
(dp20
g13
F21.015968319160692
sg14
I6
sg15
I01
sg16
I6
sg17
I39
sbs(I5
I6
tp21
g1
(g10
g3
NtRp22
(dp23
g13
F-21.751972361866407
sg14
I5
sg15
I01
sg16
I6
sg17
I16
sbs(I11
I2
tp24
g1
(g10
g3
NtRp25
(dp26
g13
F-9.6497546867500219
sg14
I11
sg15
I01
sg16
I2
sg17
I74
sbs(I7
I2
tp27
g1
(g10
g3
NtRp28
(dp29
g13
F2.4825032249437333
sg14
I7
sg15
I01
sg16
I2
sg17
I33
sbs(I1
I2
tp30
g1
(g10
g3
NtRp31
(dp32
g13
F15.368485379934491
sg14
I1
sg15
I01
sg16
I2
sg17
I1
sbs(I12
I2
tp33
g1
(g10
g3
NtRp34
(dp35
g13
F18.46300928719085
sg14
I12
sg15
I01
sg16
I2
sg17
I93
sbs(I3
I3
tp36
g1
(g10
g3
NtRp37
(dp38
g13
F13.583575733319506
sg14
I3
sg15
I01
sg16
I3
sg17
I9
sbs(I5
I12
tp39
g1
(g10
g3
NtRp40
(dp41
g13
F1.4225460025237566
sg14
I5
sg15
I01
sg16
I12
sg17
I118
sbs(I4
I4
tp42
g1
(g10
g3
NtRp43
(dp44
g13
F3.9457006737942049
sg14
I4
sg15
I01
sg16
I4
sg17
I15
sbs(I1
I5
tp45
g1
(g10
g3
NtRp46
(dp47
g13
F-5.5703032676194857
sg14
I1
sg15
I01
sg16
I5
sg17
I10
sbs(I9
I11
tp48
g1
(g10
g3
NtRp49
(dp50
g13
F12.140941491962746
sg14
I9
sg15
I01
sg16
I11
sg17
I106
sbs(I6
I5
tp51
g1
(g10
g3
NtRp52
(dp53
g13
F20.876043587779055
sg14
I6
sg15
I01
sg16
I5
sg17
I23
sbs(I3
I6
tp54
g1
(g10
g3
NtRp55
(dp56
g13
F6.5746926734241944
sg14
I3
sg15
I01
sg16
I6
sg17
I19
sbs(I2
I2
tp57
g1
(g10
g3
NtRp58
(dp59
g13
F-3.3392397457673253
sg14
I2
sg15
I01
sg16
I2
sg17
I2
sbs(I5
I3
tp60
g1
(g10
g3
NtRp61
(dp62
g13
F20.316264293995463
sg14
I5
sg15
I01
sg16
I3
sg17
I14
sbs(I3
I2
tp63
g1
(g10
g3
NtRp64
(dp65
g13
F10.745753320159405
sg14
I3
sg15
I01
sg16
I2
sg17
I4
sbs(I10
I4
tp66
g1
(g10
g3
NtRp67
(dp68
g13
F-4.5370735048159698
sg14
I10
sg15
I01
sg16
I4
sg17
I90
sbs(I4
I5
tp69
g1
(g10
g3
NtRp70
(dp71
g13
F18.290898653297056
sg14
I4
sg15
I01
sg16
I5
sg17
I30
sbs(I9
I3
tp72
g1
(g10
g3
NtRp73
(dp74
g13
F27.26789057031246
sg14
I9
sg15
I01
sg16
I3
sg17
I42
sbs(I1
I4
tp75
g1
(g10
g3
NtRp76
(dp77
g13
F24.911234915008041
sg14
I1
sg15
I01
sg16
I4
sg17
I8
sbs(I3
I9
tp78
g1
(g10
g3
NtRp79
(dp80
g13
F0.51405006231817119
sg14
I3
sg15
I01
sg16
I9
sg17
I61
sbs(I2
I3
tp81
g1
(g10
g3
NtRp82
(dp83
g13
F-8.014110449586493
sg14
I2
sg15
I01
sg16
I3
sg17
I7
sbs(I1
I9
tp84
g1
(g10
g3
NtRp85
(dp86
g13
F12.748298118794839
sg14
I1
sg15
I01
sg16
I9
sg17
I50
sbs(I4
I2
tp87
g1
(g10
g3
NtRp88
(dp89
g13
F-9.3266001267933696
sg14
I4
sg15
I01
sg16
I2
sg17
I6
sbs(I4
I11
tp90
g1
(g10
g3
NtRp91
(dp92
g13
F12.532374217647936
sg14
I4
sg15
I01
sg16
I11
sg17
I75
sbs(I3
I5
tp93
g1
(g10
g3
NtRp94
(dp95
g13
F20.685149047933162
sg14
I3
sg15
I01
sg16
I5
sg17
I13
sbs(I8
I3
tp96
g1
(g10
g3
NtRp97
(dp98
g13
F-6.239111149279104
sg14
I8
sg15
I01
sg16
I3
sg17
I71
sbs(I5
I2
tp99
g1
(g10
g3
NtRp100
(dp101
g13
F30
sg14
I5
sg15
I00
sg16
I2
sg17
I11
sbs(I5
I7
tp102
g1
(g10
g3
NtRp103
(dp104
g13
F16.126174645844326
sg14
I5
sg15
I01
sg16
I7
sg17
I28
sbs(I2
I4
tp105
g1
(g10
g3
NtRp106
(dp107
g13
F1.2763385544825705
sg14
I2
sg15
I01
sg16
I4
sg17
I24
sbs(I3
I8
tp108
g1
(g10
g3
NtRp109
(dp110
g13
F30
sg14
I3
sg15
I01
sg16
I8
sg17
I49
sbs(I4
I3
tp111
g1
(g10
g3
NtRp112
(dp113
g13
F-16.103376997115795
sg14
I4
sg15
I01
sg16
I3
sg17
I12
sbs(I3
I4
tp114
g1
(g10
g3
NtRp115
(dp116
g13
F-2.7346538671789764
sg14
I3
sg15
I00
sg16
I4
sg17
I5
sbs(I3
I10
tp117
g1
(g10
g3
NtRp118
(dp119
g13
F21.674317636366712
sg14
I3
sg15
I01
sg16
I10
sg17
I94
sbs(I8
I4
tp120
g1
(g10
g3
NtRp121
(dp122
g13
F10.02972495619535
sg14
I8
sg15
I01
sg16
I4
sg17
I40
sbssS'_input_nodes'
p123
I1
sS'_output_nodes'
p124
I1
sS'_node_gene_type'
p125
cneat.genome
NodeGene
p126
sS'_conn_gene_type'
p127
g10
sS'fitness'
p128
F0.96491216007000935
sS'parent2_id'
p129
I5261
sS'_id'
p130
I5271
sS'parent1_id'
p131
I5261
sS'_node_genes'
p132
(lp133
g1
(g126
g3
NtRp134
(dp135
S'_bias'
p136
I0
sS'_type'
p137
S'INPUT'
p138
sg130
I1
sS'_response'
p139
F4.9242730000000003
sS'_activation_type'
p140
Nsbag1
(g126
g3
NtRp141
(dp142
g136
F2.1856966482604454
sg137
S'OUTPUT'
p143
sg130
I2
sg139
F7.4451376627311241
sg140
S'tanh'
p144
sbag1
(g126
g3
NtRp145
(dp146
g136
F-2.2019677537522715
sg137
S'HIDDEN'
p147
sg130
I3
sg139
F2.6016543111868509
sg140
g144
sbag1
(g126
g3
NtRp148
(dp149
g136
F0.2515875763763995
sg137
g147
sg130
I4
sg139
F5.8275931713385392
sg140
g144
sbag1
(g126
g3
NtRp150
(dp151
g136
F3.956603842297759
sg137
g147
sg130
I5
sg139
F6.0128025157015381
sg140
g144
sbag1
(g126
g3
NtRp152
(dp153
g136
F-2.9490380055789975
sg137
g147
sg130
I6
sg139
F1.1867120176862378
sg140
g144
sbag1
(g126
g3
NtRp154
(dp155
g136
F-0.42291935417612148
sg137
g147
sg130
I7
sg139
F5.2179794246490658
sg140
g144
sbag1
(g126
g3
NtRp156
(dp157
g136
F-3.4998881079647211
sg137
g147
sg130
I8
sg139
F8.7385747767814905
sg140
g144
sbag1
(g126
g3
NtRp158
(dp159
g136
F-0.066973524896323078
sg137
g147
sg130
I9
sg139
F5.7618369410722208
sg140
g144
sbag1
(g126
g3
NtRp160
(dp161
g136
F0.27417449603534838
sg137
g147
sg130
I10
sg139
F4.7089524823642268
sg140
g144
sbag1
(g126
g3
NtRp162
(dp163
g136
F1.242798449259011
sg137
g147
sg130
I11
sg139
F2.0186117865322708
sg140
g144
sbag1
(g126
g3
NtRp164
(dp165
g136
F-0.64351946959180595
sg137
g147
sg130
I12
sg139
F4.1036314076816049
sg140
g144
sbasb.