ccopy_reg
_reconstructor
p1
(cneat.chromosome
Chromosome
p2
c__builtin__
object
p3
NtRp4
(dp5
S'species_id'
p6
I63
sS'_connection_genes'
p7
(dp8
(I1
I3
tp9
g1
(cneat.genome
ConnectionGene
p10
g3
NtRp11
(dp12
S'_ConnectionGene__weight'
p13
F29.217613338709427
sS'_ConnectionGene__in'
p14
I1
sS'_ConnectionGene__enabled'
p15
I00
sS'_ConnectionGene__out'
p16
I3
sS'_ConnectionGene__innov_number'
p17
I3
sbs(I6
I6
tp18
g1
(g10
g3
NtRp19
(dp20
g13
F8.7773940333527243
sg14
I6
sg15
I01
sg16
I6
sg17
I39
sbs(I5
I6
tp21
g1
(g10
g3
NtRp22
(dp23
g13
F6.7224819552338033
sg14
I5
sg15
I01
sg16
I6
sg17
I16
sbs(I14
I4
tp24
g1
(g10
g3
NtRp25
(dp26
g13
F-4.6781289992886155
sg14
I14
sg15
I00
sg16
I4
sg17
I159
sbs(I9
I8
tp27
g1
(g10
g3
NtRp28
(dp29
g13
F-22.622272082670666
sg14
I9
sg15
I01
sg16
I8
sg17
I60
sbs(I1
I15
tp30
g1
(g10
g3
NtRp31
(dp32
g13
F5.9417605653319221
sg14
I1
sg15
I01
sg16
I15
sg17
I168
sbs(I4
I12
tp33
g1
(g10
g3
NtRp34
(dp35
g13
F10.567510048727309
sg14
I4
sg15
I01
sg16
I12
sg17
I102
sbs(I9
I4
tp36
g1
(g10
g3
NtRp37
(dp38
g13
F18.709633936516106
sg14
I9
sg15
I01
sg16
I4
sg17
I77
sbs(I7
I2
tp39
g1
(g10
g3
NtRp40
(dp41
g13
F-6.2535438734154454
sg14
I7
sg15
I01
sg16
I2
sg17
I33
sbs(I1
I2
tp42
g1
(g10
g3
NtRp43
(dp44
g13
F8.5305727850932787
sg14
I1
sg15
I01
sg16
I2
sg17
I1
sbs(I4
I9
tp45
g1
(g10
g3
NtRp46
(dp47
g13
F1.1702344232639397
sg14
I4
sg15
I01
sg16
I9
sg17
I44
sbs(I3
I3
tp48
g1
(g10
g3
NtRp49
(dp50
g13
F28.929653648895222
sg14
I3
sg15
I01
sg16
I3
sg17
I9
sbs(I4
I4
tp51
g1
(g10
g3
NtRp52
(dp53
g13
F-1.5804594724056087
sg14
I4
sg15
I00
sg16
I4
sg17
I15
sbs(I4
I13
tp54
g1
(g10
g3
NtRp55
(dp56
g13
F-8.2393059809924853
sg14
I4
sg15
I01
sg16
I13
sg17
I119
sbs(I1
I5
tp57
g1
(g10
g3
NtRp58
(dp59
g13
F8.3707246644918243
sg14
I1
sg15
I01
sg16
I5
sg17
I10
sbs(I4
I11
tp60
g1
(g10
g3
NtRp61
(dp62
g13
F5.3391130849208794
sg14
I4
sg15
I00
sg16
I11
sg17
I75
sbs(I3
I6
tp63
g1
(g10
g3
NtRp64
(dp65
g13
F-17.554722681188231
sg14
I3
sg15
I01
sg16
I6
sg17
I19
sbs(I2
I2
tp66
g1
(g10
g3
NtRp67
(dp68
g13
F21.831295369654388
sg14
I2
sg15
I01
sg16
I2
sg17
I2
sbs(I7
I9
tp69
g1
(g10
g3
NtRp70
(dp71
g13
F14.996627149939183
sg14
I7
sg15
I01
sg16
I9
sg17
I41
sbs(I11
I2
tp72
g1
(g10
g3
NtRp73
(dp74
g13
F28.206685621358741
sg14
I11
sg15
I01
sg16
I2
sg17
I74
sbs(I4
I10
tp75
g1
(g10
g3
NtRp76
(dp77
g13
F-0.69424107660634859
sg14
I4
sg15
I01
sg16
I10
sg17
I63
sbs(I3
I2
tp78
g1
(g10
g3
NtRp79
(dp80
g13
F-1.1607419794011482
sg14
I3
sg15
I01
sg16
I2
sg17
I4
sbs(I10
I4
tp81
g1
(g10
g3
NtRp82
(dp83
g13
F-22.066905572222144
sg14
I10
sg15
I01
sg16
I4
sg17
I90
sbs(I16
I4
tp84
g1
(g10
g3
NtRp85
(dp86
g13
F-6.8868868392247506
sg14
I16
sg15
I01
sg16
I4
sg17
I175
sbs(I4
I5
tp87
g1
(g10
g3
NtRp88
(dp89
g13
F-27.009805194345432
sg14
I4
sg15
I01
sg16
I5
sg17
I30
sbs(I15
I3
tp90
g1
(g10
g3
NtRp91
(dp92
g13
F27.297301627646348
sg14
I15
sg15
I01
sg16
I3
sg17
I169
sbs(I7
I13
tp93
g1
(g10
g3
NtRp94
(dp95
g13
F-5.608414996073634
sg14
I7
sg15
I01
sg16
I13
sg17
I136
sbs(I1
I4
tp96
g1
(g10
g3
NtRp97
(dp98
g13
F23.898384168320231
sg14
I1
sg15
I01
sg16
I4
sg17
I8
sbs(I2
I10
tp99
g1
(g10
g3
NtRp100
(dp101
g13
F-12.152794520932092
sg14
I2
sg15
I01
sg16
I10
sg17
I57
sbs(I2
I3
tp102
g1
(g10
g3
NtRp103
(dp104
g13
F-13.408584358831583
sg14
I2
sg15
I01
sg16
I3
sg17
I7
sbs(I12
I11
tp105
g1
(g10
g3
NtRp106
(dp107
g13
F12.163811692808878
sg14
I12
sg15
I01
sg16
I11
sg17
I84
sbs(I4
I2
tp108
g1
(g10
g3
NtRp109
(dp110
g13
F15.639019141835236
sg14
I4
sg15
I00
sg16
I2
sg17
I6
sbs(I2
I14
tp111
g1
(g10
g3
NtRp112
(dp113
g13
F-14.364534208889159
sg14
I2
sg15
I01
sg16
I14
sg17
I142
sbs(I6
I5
tp114
g1
(g10
g3
NtRp115
(dp116
g13
F26.163399180480241
sg14
I6
sg15
I01
sg16
I5
sg17
I23
sbs(I5
I3
tp117
g1
(g10
g3
NtRp118
(dp119
g13
F-12.409577875006274
sg14
I5
sg15
I01
sg16
I3
sg17
I14
sbs(I3
I5
tp120
g1
(g10
g3
NtRp121
(dp122
g13
F30
sg14
I3
sg15
I01
sg16
I5
sg17
I13
sbs(I8
I3
tp123
g1
(g10
g3
NtRp124
(dp125
g13
F2.0529917778927254
sg14
I8
sg15
I01
sg16
I3
sg17
I71
sbs(I14
I16
tp126
g1
(g10
g3
NtRp127
(dp128
g13
F4.4377862416523701
sg14
I14
sg15
I01
sg16
I16
sg17
I174
sbs(I3
I4
tp129
g1
(g10
g3
NtRp130
(dp131
g13
F-17.152182623271774
sg14
I3
sg15
I00
sg16
I4
sg17
I5
sbs(I5
I7
tp132
g1
(g10
g3
NtRp133
(dp134
g13
F-8.6323568292756772
sg14
I5
sg15
I01
sg16
I7
sg17
I28
sbs(I3
I8
tp135
g1
(g10
g3
NtRp136
(dp137
g13
F7.3357387318343292
sg14
I3
sg15
I01
sg16
I8
sg17
I49
sbs(I6
I2
tp138
g1
(g10
g3
NtRp139
(dp140
g13
F4.0286332591352405
sg14
I6
sg15
I01
sg16
I2
sg17
I17
sbs(I4
I3
tp141
g1
(g10
g3
NtRp142
(dp143
g13
F-4.734868775447862
sg14
I4
sg15
I01
sg16
I3
sg17
I12
sbs(I13
I9
tp144
g1
(g10
g3
NtRp145
(dp146
g13
F-9.8942526925659617
sg14
I13
sg15
I01
sg16
I9
sg17
I137
sbs(I5
I2
tp147
g1
(g10
g3
NtRp148
(dp149
g13
F24.388635721332221
sg14
I5
sg15
I01
sg16
I2
sg17
I11
sbs(I2
I4
tp150
g1
(g10
g3
NtRp151
(dp152
g13
F-27.316929907206429
sg14
I2
sg15
I00
sg16
I4
sg17
I24
sbs(I8
I4
tp153
g1
(g10
g3
NtRp154
(dp155
g13
F-15.268003219877203
sg14
I8
sg15
I01
sg16
I4
sg17
I40
sbssS'_input_nodes'
p156
I1
sS'_output_nodes'
p157
I1
sS'_node_gene_type'
p158
cneat.genome
NodeGene
p159
sS'_conn_gene_type'
p160
g10
sS'fitness'
p161
F0.96734977924459831
sS'parent2_id'
p162
I6248
sS'_id'
p163
I6263
sS'parent1_id'
p164
I6248
sS'_node_genes'
p165
(lp166
g1
(g159
g3
NtRp167
(dp168
S'_bias'
p169
I0
sS'_type'
p170
S'INPUT'
p171
sg163
I1
sS'_response'
p172
F4.9242730000000003
sS'_activation_type'
p173
Nsbag1
(g159
g3
NtRp174
(dp175
g169
F-2.0139918858785544
sg170
S'OUTPUT'
p176
sg163
I2
sg172
F6.1446767813085676
sg173
S'tanh'
p177
sbag1
(g159
g3
NtRp178
(dp179
g169
F-5.1515468649761633
sg170
S'HIDDEN'
p180
sg163
I3
sg172
F0.84091680991043638
sg173
g177
sbag1
(g159
g3
NtRp181
(dp182
g169
F-2.6220924277380693
sg170
g180
sg163
I4
sg172
F3.8701196715126072
sg173
g177
sbag1
(g159
g3
NtRp183
(dp184
g169
F1.9664827356921708
sg170
g180
sg163
I5
sg172
F6.4041572746902915
sg173
g177
sbag1
(g159
g3
NtRp185
(dp186
g169
F-1.9667548622065447
sg170
g180
sg163
I6
sg172
F0.94675985421213282
sg173
g177
sbag1
(g159
g3
NtRp187
(dp188
g169
F-2.3101463787458383
sg170
g180
sg163
I7
sg172
F5.4367661728878822
sg173
g177
sbag1
(g159
g3
NtRp189
(dp190
g169
F-2.0210205716331924
sg170
g180
sg163
I8
sg172
F4.7041242935077259
sg173
g177
sbag1
(g159
g3
NtRp191
(dp192
g169
F0.96333620173306556
sg170
g180
sg163
I9
sg172
F5.1731119714499947
sg173
g177
sbag1
(g159
g3
NtRp193
(dp194
g169
F-2.7033650487487408
sg170
g180
sg163
I10
sg172
F1.7922691603845906
sg173
g177
sbag1
(g159
g3
NtRp195
(dp196
g169
F-0.046480555312023247
sg170
g180
sg163
I11
sg172
F7.2305868292618944
sg173
g177
sbag1
(g159
g3
NtRp197
(dp198
g169
F-0.84564522653293861
sg170
g180
sg163
I12
sg172
F4.8844862817657599
sg173
g177
sbag1
(g159
g3
NtRp199
(dp200
g169
F2.0982608301905481
sg170
g180
sg163
I13
sg172
F4.2350136071345341
sg173
g177
sbag1
(g159
g3
NtRp201
(dp202
g169
F-0.37120894286525657
sg170
g180
sg163
I14
sg172
F4.5294786707604606
sg173
g177
sbag1
(g159
g3
NtRp203
(dp204
g169
F0.052379709283887008
sg170
g180
sg163
I15
sg172
F5.0848984594496374
sg173
g177
sbag1
(g159
g3
NtRp205
(dp206
g169
F-1.1787714887707201
sg170
g180
sg163
I16
sg172
F4.4455621818321758
sg173
g177
sbasb.