ccopy_reg
_reconstructor
p1
(cneat.chromosome
Chromosome
p2
c__builtin__
object
p3
NtRp4
(dp5
S'species_id'
p6
I81
sS'_connection_genes'
p7
(dp8
(I1
I3
tp9
g1
(cneat.genome
ConnectionGene
p10
g3
NtRp11
(dp12
S'_ConnectionGene__weight'
p13
F18.843707369866443
sS'_ConnectionGene__in'
p14
I1
sS'_ConnectionGene__enabled'
p15
I01
sS'_ConnectionGene__out'
p16
I3
sS'_ConnectionGene__innov_number'
p17
I3
sbs(I11
I11
tp18
g1
(g10
g3
NtRp19
(dp20
g13
F16.251149388431692
sg14
I11
sg15
I01
sg16
I11
sg17
I122
sbs(I6
I6
tp21
g1
(g10
g3
NtRp22
(dp23
g13
F9.6072932402433384
sg14
I6
sg15
I00
sg16
I6
sg17
I39
sbs(I5
I6
tp24
g1
(g10
g3
NtRp25
(dp26
g13
F28.36855366513614
sg14
I5
sg15
I01
sg16
I6
sg17
I16
sbs(I9
I8
tp27
g1
(g10
g3
NtRp28
(dp29
g13
F-24.498077709379739
sg14
I9
sg15
I01
sg16
I8
sg17
I60
sbs(I10
I6
tp30
g1
(g10
g3
NtRp31
(dp32
g13
F-20.342422626872814
sg14
I10
sg15
I01
sg16
I6
sg17
I103
sbs(I14
I13
tp33
g1
(g10
g3
NtRp34
(dp35
g13
F3.756734826582008
sg14
I14
sg15
I01
sg16
I13
sg17
I252
sbs(I9
I4
tp36
g1
(g10
g3
NtRp37
(dp38
g13
F18.146219450312007
sg14
I9
sg15
I01
sg16
I4
sg17
I77
sbs(I13
I2
tp39
g1
(g10
g3
NtRp40
(dp41
g13
F-1.1854612066022563
sg14
I13
sg15
I01
sg16
I2
sg17
I133
sbs(I7
I2
tp42
g1
(g10
g3
NtRp43
(dp44
g13
F-7.4518395185812354
sg14
I7
sg15
I01
sg16
I2
sg17
I33
sbs(I1
I2
tp45
g1
(g10
g3
NtRp46
(dp47
g13
F30
sg14
I1
sg15
I01
sg16
I2
sg17
I1
sbs(I4
I13
tp48
g1
(g10
g3
NtRp49
(dp50
g13
F1.7349142524105905
sg14
I4
sg15
I00
sg16
I13
sg17
I119
sbs(I11
I10
tp51
g1
(g10
g3
NtRp52
(dp53
g13
F-17.231126256671892
sg14
I11
sg15
I01
sg16
I10
sg17
I89
sbs(I4
I9
tp54
g1
(g10
g3
NtRp55
(dp56
g13
F18.779953427453243
sg14
I4
sg15
I01
sg16
I9
sg17
I44
sbs(I3
I3
tp57
g1
(g10
g3
NtRp58
(dp59
g13
F21.821288582881557
sg14
I3
sg15
I00
sg16
I3
sg17
I9
sbs(I3
I10
tp60
g1
(g10
g3
NtRp61
(dp62
g13
F-25.662527491494174
sg14
I3
sg15
I01
sg16
I10
sg17
I94
sbs(I4
I4
tp63
g1
(g10
g3
NtRp64
(dp65
g13
F22.551093328844459
sg14
I4
sg15
I01
sg16
I4
sg17
I15
sbs(I7
I4
tp66
g1
(g10
g3
NtRp67
(dp68
g13
F5.6198947535853856
sg14
I7
sg15
I01
sg16
I4
sg17
I46
sbs(I6
I3
tp69
g1
(g10
g3
NtRp70
(dp71
g13
F-1.6885096346408557
sg14
I6
sg15
I01
sg16
I3
sg17
I22
sbs(I1
I5
tp72
g1
(g10
g3
NtRp73
(dp74
g13
F20.341523484744616
sg14
I1
sg15
I01
sg16
I5
sg17
I10
sbs(I9
I11
tp75
g1
(g10
g3
NtRp76
(dp77
g13
F-15.473710097480671
sg14
I9
sg15
I01
sg16
I11
sg17
I106
sbs(I3
I6
tp78
g1
(g10
g3
NtRp79
(dp80
g13
F-15.169011293127181
sg14
I3
sg15
I01
sg16
I6
sg17
I19
sbs(I2
I2
tp81
g1
(g10
g3
NtRp82
(dp83
g13
F20.793236070854412
sg14
I2
sg15
I01
sg16
I2
sg17
I2
sbs(I3
I4
tp84
g1
(g10
g3
NtRp85
(dp86
g13
F11.343209917003946
sg14
I3
sg15
I01
sg16
I4
sg17
I5
sbs(I5
I3
tp87
g1
(g10
g3
NtRp88
(dp89
g13
F6.1294080411267675
sg14
I5
sg15
I01
sg16
I3
sg17
I14
sbs(I6
I15
tp90
g1
(g10
g3
NtRp91
(dp92
g13
F2.0357648895502507
sg14
I6
sg15
I01
sg16
I15
sg17
I241
sbs(I10
I9
tp93
g1
(g10
g3
NtRp94
(dp95
g13
F9.6862836773947461
sg14
I10
sg15
I01
sg16
I9
sg17
I58
sbs(I9
I7
tp96
g1
(g10
g3
NtRp97
(dp98
g13
F21.126001215395284
sg14
I9
sg15
I01
sg16
I7
sg17
I53
sbs(I3
I2
tp99
g1
(g10
g3
NtRp100
(dp101
g13
F-1.3379978985538261
sg14
I3
sg15
I01
sg16
I2
sg17
I4
sbs(I11
I4
tp102
g1
(g10
g3
NtRp103
(dp104
g13
F25.841930138721573
sg14
I11
sg15
I01
sg16
I4
sg17
I101
sbs(I10
I4
tp105
g1
(g10
g3
NtRp106
(dp107
g13
F-0.075680081140128488
sg14
I10
sg15
I01
sg16
I4
sg17
I90
sbs(I4
I5
tp108
g1
(g10
g3
NtRp109
(dp110
g13
F-16.009752097499316
sg14
I4
sg15
I01
sg16
I5
sg17
I30
sbs(I8
I11
tp111
g1
(g10
g3
NtRp112
(dp113
g13
F-4.4812405357658367
sg14
I8
sg15
I01
sg16
I11
sg17
I80
sbs(I4
I14
tp114
g1
(g10
g3
NtRp115
(dp116
g13
F4.5778898744886973
sg14
I4
sg15
I01
sg16
I14
sg17
I248
sbs(I1
I4
tp117
g1
(g10
g3
NtRp118
(dp119
g13
F-14.237326099729135
sg14
I1
sg15
I01
sg16
I4
sg17
I8
sbs(I4
I16
tp120
g1
(g10
g3
NtRp121
(dp122
g13
F0.3043142685879292
sg14
I4
sg15
I01
sg16
I16
sg17
I160
sbs(I2
I3
tp123
g1
(g10
g3
NtRp124
(dp125
g13
F-21.010236658115133
sg14
I2
sg15
I01
sg16
I3
sg17
I7
sbs(I4
I2
tp126
g1
(g10
g3
NtRp127
(dp128
g13
F8.4513712992048262
sg14
I4
sg15
I00
sg16
I2
sg17
I6
sbs(I6
I5
tp129
g1
(g10
g3
NtRp130
(dp131
g13
F3.5345703864764384
sg14
I6
sg15
I01
sg16
I5
sg17
I23
sbs(I7
I9
tp132
g1
(g10
g3
NtRp133
(dp134
g13
F23.950273523909345
sg14
I7
sg15
I01
sg16
I9
sg17
I41
sbs(I3
I5
tp135
g1
(g10
g3
NtRp136
(dp137
g13
F-17.493339765785212
sg14
I3
sg15
I01
sg16
I5
sg17
I13
sbs(I8
I3
tp138
g1
(g10
g3
NtRp139
(dp140
g13
F22.475507918618469
sg14
I8
sg15
I01
sg16
I3
sg17
I71
sbs(I3
I12
tp141
g1
(g10
g3
NtRp142
(dp143
g13
F0.64866937554501625
sg14
I3
sg15
I01
sg16
I12
sg17
I99
sbs(I5
I2
tp144
g1
(g10
g3
NtRp145
(dp146
g13
F19.650823874944042
sg14
I5
sg15
I01
sg16
I2
sg17
I11
sbs(I5
I7
tp147
g1
(g10
g3
NtRp148
(dp149
g13
F-25.662114855976327
sg14
I5
sg15
I01
sg16
I7
sg17
I28
sbs(I3
I8
tp150
g1
(g10
g3
NtRp151
(dp152
g13
F14.616121761575641
sg14
I3
sg15
I01
sg16
I8
sg17
I49
sbs(I15
I6
tp153
g1
(g10
g3
NtRp154
(dp155
g13
F10.943249985121854
sg14
I15
sg15
I01
sg16
I6
sg17
I152
sbs(I12
I3
tp156
g1
(g10
g3
NtRp157
(dp158
g13
F20.971805538054781
sg14
I12
sg15
I01
sg16
I3
sg17
I88
sbs(I4
I3
tp159
g1
(g10
g3
NtRp160
(dp161
g13
F6.9059582574467191
sg14
I4
sg15
I01
sg16
I3
sg17
I12
sbs(I16
I13
tp162
g1
(g10
g3
NtRp163
(dp164
g13
F0.5860906061219564
sg14
I16
sg15
I01
sg16
I13
sg17
I255
sbs(I2
I4
tp165
g1
(g10
g3
NtRp166
(dp167
g13
F20.10877895473601
sg14
I2
sg15
I01
sg16
I4
sg17
I24
sbs(I8
I4
tp168
g1
(g10
g3
NtRp169
(dp170
g13
F-25.370476924617538
sg14
I8
sg15
I01
sg16
I4
sg17
I40
sbssS'_input_nodes'
p171
I1
sS'_output_nodes'
p172
I1
sS'_node_gene_type'
p173
cneat.genome
NodeGene
p174
sS'_conn_gene_type'
p175
g10
sS'fitness'
p176
F0.99383222467349641
sS'parent2_id'
p177
I8617
sS'_id'
p178
I8634
sS'parent1_id'
p179
I8617
sS'_node_genes'
p180
(lp181
g1
(g174
g3
NtRp182
(dp183
S'_bias'
p184
I0
sS'_type'
p185
S'INPUT'
p186
sg178
I1
sS'_response'
p187
F4.9242730000000003
sS'_activation_type'
p188
Nsbag1
(g174
g3
NtRp189
(dp190
g184
F-4.1493058825859936
sg185
S'OUTPUT'
p191
sg178
I2
sg187
F2.295128631131691
sg188
S'tanh'
p192
sbag1
(g174
g3
NtRp193
(dp194
g184
F-3.1464840376778707
sg185
S'HIDDEN'
p195
sg178
I3
sg187
F4.3067407857389775
sg188
g192
sbag1
(g174
g3
NtRp196
(dp197
g184
F3.8518867539201289
sg185
g195
sg178
I4
sg187
F4.6896481110653809
sg188
g192
sbag1
(g174
g3
NtRp198
(dp199
g184
F4.4490079814652086
sg185
g195
sg178
I5
sg187
F12.037164266742824
sg188
g192
sbag1
(g174
g3
NtRp200
(dp201
g184
F-1.6877150810262034
sg185
g195
sg178
I6
sg187
F2.1291151517526101
sg188
g192
sbag1
(g174
g3
NtRp202
(dp203
g184
F-2.5317277189016849
sg185
g195
sg178
I7
sg187
F6.5320165148826765
sg188
g192
sbag1
(g174
g3
NtRp204
(dp205
g184
F-2.3805886659817719
sg185
g195
sg178
I8
sg187
F9.3971792563405661
sg188
g192
sbag1
(g174
g3
NtRp206
(dp207
g184
F0.34983757231973189
sg185
g195
sg178
I9
sg187
F8.0733256909382156
sg188
g192
sbag1
(g174
g3
NtRp208
(dp209
g184
F2.3553542675695645
sg185
g195
sg178
I10
sg187
F4.7220554325473785
sg188
g192
sbag1
(g174
g3
NtRp210
(dp211
g184
F-0.76501742565262909
sg185
g195
sg178
I11
sg187
F5.7734300930742126
sg188
g192
sbag1
(g174
g3
NtRp212
(dp213
g184
F0.52698152186789482
sg185
g195
sg178
I12
sg187
F4.317990569119976
sg188
g192
sbag1
(g174
g3
NtRp214
(dp215
g184
F1.6844971233824335
sg185
g195
sg178
I13
sg187
F4.544612332715892
sg188
g192
sbag1
(g174
g3
NtRp216
(dp217
g184
F-0.37612699382230691
sg185
g195
sg178
I14
sg187
F4.9242730000000003
sg188
g192
sbag1
(g174
g3
NtRp218
(dp219
g184
F0.57838767959161441
sg185
g195
sg178
I15
sg187
F5.0574055614531535
sg188
g192
sbag1
(g174
g3
NtRp220
(dp221
g184
I0
sg185
g195
sg178
I16
sg187
F4.1931188402065915
sg188
g192
sbasb.