ccopy_reg
_reconstructor
p1
(cneat.chromosome
Chromosome
p2
c__builtin__
object
p3
NtRp4
(dp5
S'species_id'
p6
I38
sS'_connection_genes'
p7
(dp8
(I1
I3
tp9
g1
(cneat.genome
ConnectionGene
p10
g3
NtRp11
(dp12
S'_ConnectionGene__weight'
p13
F29.711298711492677
sS'_ConnectionGene__in'
p14
I1
sS'_ConnectionGene__enabled'
p15
I00
sS'_ConnectionGene__out'
p16
I3
sS'_ConnectionGene__innov_number'
p17
I3
sbs(I6
I6
tp18
g1
(g10
g3
NtRp19
(dp20
g13
F18.556279736743136
sg14
I6
sg15
I01
sg16
I6
sg17
I39
sbs(I5
I6
tp21
g1
(g10
g3
NtRp22
(dp23
g13
F-1.9408036925209935
sg14
I5
sg15
I01
sg16
I6
sg17
I16
sbs(I11
I2
tp24
g1
(g10
g3
NtRp25
(dp26
g13
F-7.1105865178062402
sg14
I11
sg15
I01
sg16
I2
sg17
I74
sbs(I3
I10
tp27
g1
(g10
g3
NtRp28
(dp29
g13
F0.31966485115766363
sg14
I3
sg15
I01
sg16
I10
sg17
I94
sbs(I7
I2
tp30
g1
(g10
g3
NtRp31
(dp32
g13
F-0.48322486910117346
sg14
I7
sg15
I01
sg16
I2
sg17
I33
sbs(I1
I2
tp33
g1
(g10
g3
NtRp34
(dp35
g13
F13.316901472837767
sg14
I1
sg15
I01
sg16
I2
sg17
I1
sbs(I12
I2
tp36
g1
(g10
g3
NtRp37
(dp38
g13
F27.548362544355996
sg14
I12
sg15
I01
sg16
I2
sg17
I93
sbs(I3
I3
tp39
g1
(g10
g3
NtRp40
(dp41
g13
F14.023855550701722
sg14
I3
sg15
I01
sg16
I3
sg17
I9
sbs(I5
I12
tp42
g1
(g10
g3
NtRp43
(dp44
g13
F-0.38391155612793693
sg14
I5
sg15
I01
sg16
I12
sg17
I118
sbs(I4
I4
tp45
g1
(g10
g3
NtRp46
(dp47
g13
F6.1780856647690197
sg14
I4
sg15
I01
sg16
I4
sg17
I15
sbs(I1
I5
tp48
g1
(g10
g3
NtRp49
(dp50
g13
F-8.253205942250851
sg14
I1
sg15
I01
sg16
I5
sg17
I10
sbs(I9
I11
tp51
g1
(g10
g3
NtRp52
(dp53
g13
F1.0111208028568788
sg14
I9
sg15
I01
sg16
I11
sg17
I106
sbs(I4
I11
tp54
g1
(g10
g3
NtRp55
(dp56
g13
F5.9919361069476818
sg14
I4
sg15
I01
sg16
I11
sg17
I75
sbs(I3
I6
tp57
g1
(g10
g3
NtRp58
(dp59
g13
F8.7626306314709641
sg14
I3
sg15
I01
sg16
I6
sg17
I19
sbs(I2
I2
tp60
g1
(g10
g3
NtRp61
(dp62
g13
F2.160429095672904
sg14
I2
sg15
I01
sg16
I2
sg17
I2
sbs(I3
I5
tp63
g1
(g10
g3
NtRp64
(dp65
g13
F13.640429261117889
sg14
I3
sg15
I01
sg16
I5
sg17
I13
sbs(I3
I2
tp66
g1
(g10
g3
NtRp67
(dp68
g13
F12.006482286784559
sg14
I3
sg15
I01
sg16
I2
sg17
I4
sbs(I10
I4
tp69
g1
(g10
g3
NtRp70
(dp71
g13
F-4.5513110709374329
sg14
I10
sg15
I01
sg16
I4
sg17
I90
sbs(I4
I5
tp72
g1
(g10
g3
NtRp73
(dp74
g13
F15.666207982935136
sg14
I4
sg15
I01
sg16
I5
sg17
I30
sbs(I9
I3
tp75
g1
(g10
g3
NtRp76
(dp77
g13
F27.520213670822429
sg14
I9
sg15
I01
sg16
I3
sg17
I42
sbs(I1
I4
tp78
g1
(g10
g3
NtRp79
(dp80
g13
F15.925027125814021
sg14
I1
sg15
I01
sg16
I4
sg17
I8
sbs(I2
I3
tp81
g1
(g10
g3
NtRp82
(dp83
g13
F-16.980063878794823
sg14
I2
sg15
I01
sg16
I3
sg17
I7
sbs(I1
I9
tp84
g1
(g10
g3
NtRp85
(dp86
g13
F1.7365936629029295
sg14
I1
sg15
I01
sg16
I9
sg17
I50
sbs(I4
I2
tp87
g1
(g10
g3
NtRp88
(dp89
g13
F-12.708453270152514
sg14
I4
sg15
I01
sg16
I2
sg17
I6
sbs(I6
I5
tp90
g1
(g10
g3
NtRp91
(dp92
g13
F11.322388299550385
sg14
I6
sg15
I01
sg16
I5
sg17
I23
sbs(I5
I3
tp93
g1
(g10
g3
NtRp94
(dp95
g13
F28.087749235886836
sg14
I5
sg15
I01
sg16
I3
sg17
I14
sbs(I8
I3
tp96
g1
(g10
g3
NtRp97
(dp98
g13
F-0.72870624674665807
sg14
I8
sg15
I01
sg16
I3
sg17
I71
sbs(I3
I4
tp99
g1
(g10
g3
NtRp100
(dp101
g13
F-1.5239148977167611
sg14
I3
sg15
I00
sg16
I4
sg17
I5
sbs(I5
I7
tp102
g1
(g10
g3
NtRp103
(dp104
g13
F8.727302714978233
sg14
I5
sg15
I01
sg16
I7
sg17
I28
sbs(I3
I8
tp105
g1
(g10
g3
NtRp106
(dp107
g13
F23.001948680645487
sg14
I3
sg15
I01
sg16
I8
sg17
I49
sbs(I4
I3
tp108
g1
(g10
g3
NtRp109
(dp110
g13
F-8.5646508719732743
sg14
I4
sg15
I01
sg16
I3
sg17
I12
sbs(I5
I2
tp111
g1
(g10
g3
NtRp112
(dp113
g13
F30
sg14
I5
sg15
I00
sg16
I2
sg17
I11
sbs(I2
I4
tp114
g1
(g10
g3
NtRp115
(dp116
g13
F10.270515770758914
sg14
I2
sg15
I01
sg16
I4
sg17
I24
sbs(I8
I4
tp117
g1
(g10
g3
NtRp118
(dp119
g13
F13.463976234980951
sg14
I8
sg15
I01
sg16
I4
sg17
I40
sbssS'_input_nodes'
p120
I1
sS'_output_nodes'
p121
I1
sS'_node_gene_type'
p122
cneat.genome
NodeGene
p123
sS'_conn_gene_type'
p124
g10
sS'fitness'
p125
F0.97249784965149533
sS'parent2_id'
p126
I4495
sS'_id'
p127
I4530
sS'parent1_id'
p128
I4495
sS'_node_genes'
p129
(lp130
g1
(g123
g3
NtRp131
(dp132
S'_bias'
p133
I0
sS'_type'
p134
S'INPUT'
p135
sg127
I1
sS'_response'
p136
F4.9242730000000003
sS'_activation_type'
p137
Nsbag1
(g123
g3
NtRp138
(dp139
g133
F1.9105985269589159
sg134
S'OUTPUT'
p140
sg127
I2
sg136
F5.2810870464507085
sg137
S'tanh'
p141
sbag1
(g123
g3
NtRp142
(dp143
g133
F-1.0253843751198124
sg134
S'HIDDEN'
p144
sg127
I3
sg136
F1.6504512361812673
sg137
g141
sbag1
(g123
g3
NtRp145
(dp146
g133
F0.65310461803810405
sg134
g144
sg127
I4
sg136
F3.8880419924975147
sg137
g141
sbag1
(g123
g3
NtRp147
(dp148
g133
F3.9357392337785733
sg134
g144
sg127
I5
sg136
F5.1561003758610564
sg137
g141
sbag1
(g123
g3
NtRp149
(dp150
g133
F-3.9550957580044028
sg134
g144
sg127
I6
sg136
F3.3013356548030917
sg137
g141
sbag1
(g123
g3
NtRp151
(dp152
g133
F0.046547944574294897
sg134
g144
sg127
I7
sg136
F5.9850463280292674
sg137
g141
sbag1
(g123
g3
NtRp153
(dp154
g133
F-0.9327269708050937
sg134
g144
sg127
I8
sg136
F7.6384531991728242
sg137
g141
sbag1
(g123
g3
NtRp155
(dp156
g133
F0.43707679628945845
sg134
g144
sg127
I9
sg136
F5.0077745441758399
sg137
g141
sbag1
(g123
g3
NtRp157
(dp158
g133
F-0.15304135371978589
sg134
g144
sg127
I10
sg136
F4.8532211085179702
sg137
g141
sbag1
(g123
g3
NtRp159
(dp160
g133
F1.0758293401326229
sg134
g144
sg127
I11
sg136
F3.4000448114167412
sg137
g141
sbag1
(g123
g3
NtRp161
(dp162
g133
I0
sg134
g144
sg127
I12
sg136
F5.2599220718395614
sg137
g141
sbasb.