ccopy_reg
_reconstructor
p1
(cneat.chromosome
Chromosome
p2
c__builtin__
object
p3
NtRp4
(dp5
S'species_id'
p6
I41
sS'_connection_genes'
p7
(dp8
(I1
I3
tp9
g1
(cneat.genome
ConnectionGene
p10
g3
NtRp11
(dp12
S'_ConnectionGene__weight'
p13
F23.558340362568536
sS'_ConnectionGene__in'
p14
I1
sS'_ConnectionGene__enabled'
p15
I01
sS'_ConnectionGene__out'
p16
I3
sS'_ConnectionGene__innov_number'
p17
I3
sbs(I6
I6
tp18
g1
(g10
g3
NtRp19
(dp20
g13
F10.869592270542579
sg14
I6
sg15
I01
sg16
I6
sg17
I39
sbs(I5
I6
tp21
g1
(g10
g3
NtRp22
(dp23
g13
F-3.4908237847666177
sg14
I5
sg15
I01
sg16
I6
sg17
I16
sbs(I9
I8
tp24
g1
(g10
g3
NtRp25
(dp26
g13
F-13.798884318066595
sg14
I9
sg15
I01
sg16
I8
sg17
I60
sbs(I5
I3
tp27
g1
(g10
g3
NtRp28
(dp29
g13
F-2.1061785848488217
sg14
I5
sg15
I01
sg16
I3
sg17
I14
sbs(I9
I4
tp30
g1
(g10
g3
NtRp31
(dp32
g13
F18.459107705594086
sg14
I9
sg15
I01
sg16
I4
sg17
I77
sbs(I7
I2
tp33
g1
(g10
g3
NtRp34
(dp35
g13
F-12.139149464641518
sg14
I7
sg15
I01
sg16
I2
sg17
I33
sbs(I1
I2
tp36
g1
(g10
g3
NtRp37
(dp38
g13
F7.855565703487926
sg14
I1
sg15
I01
sg16
I2
sg17
I1
sbs(I4
I9
tp39
g1
(g10
g3
NtRp40
(dp41
g13
F2.2350203503986679
sg14
I4
sg15
I01
sg16
I9
sg17
I44
sbs(I3
I3
tp42
g1
(g10
g3
NtRp43
(dp44
g13
F27.474295344695683
sg14
I3
sg15
I01
sg16
I3
sg17
I9
sbs(I4
I4
tp45
g1
(g10
g3
NtRp46
(dp47
g13
F11.227620132191694
sg14
I4
sg15
I00
sg16
I4
sg17
I15
sbs(I1
I5
tp48
g1
(g10
g3
NtRp49
(dp50
g13
F-1.855517372639679
sg14
I1
sg15
I01
sg16
I5
sg17
I10
sbs(I3
I6
tp51
g1
(g10
g3
NtRp52
(dp53
g13
F-0.25144992964749613
sg14
I3
sg15
I01
sg16
I6
sg17
I19
sbs(I2
I2
tp54
g1
(g10
g3
NtRp55
(dp56
g13
F6.5686729613164783
sg14
I2
sg15
I01
sg16
I2
sg17
I2
sbs(I7
I9
tp57
g1
(g10
g3
NtRp58
(dp59
g13
F2.2387604077375833
sg14
I7
sg15
I01
sg16
I9
sg17
I41
sbs(I3
I2
tp60
g1
(g10
g3
NtRp61
(dp62
g13
F-0.81635703511549296
sg14
I3
sg15
I01
sg16
I2
sg17
I4
sbs(I4
I5
tp63
g1
(g10
g3
NtRp64
(dp65
g13
F0.0099797875233126887
sg14
I4
sg15
I01
sg16
I5
sg17
I30
sbs(I1
I4
tp66
g1
(g10
g3
NtRp67
(dp68
g13
F17.11167796479868
sg14
I1
sg15
I01
sg16
I4
sg17
I8
sbs(I2
I3
tp69
g1
(g10
g3
NtRp70
(dp71
g13
F-25.162675349439677
sg14
I2
sg15
I01
sg16
I3
sg17
I7
sbs(I4
I2
tp72
g1
(g10
g3
NtRp73
(dp74
g13
F18.594730452889046
sg14
I4
sg15
I01
sg16
I2
sg17
I6
sbs(I6
I5
tp75
g1
(g10
g3
NtRp76
(dp77
g13
F4.8680415598110294
sg14
I6
sg15
I01
sg16
I5
sg17
I23
sbs(I3
I5
tp78
g1
(g10
g3
NtRp79
(dp80
g13
F5.0627958486937015
sg14
I3
sg15
I01
sg16
I5
sg17
I13
sbs(I8
I3
tp81
g1
(g10
g3
NtRp82
(dp83
g13
F16.412627229510942
sg14
I8
sg15
I01
sg16
I3
sg17
I71
sbs(I3
I4
tp84
g1
(g10
g3
NtRp85
(dp86
g13
F-3.9193489521562119
sg14
I3
sg15
I00
sg16
I4
sg17
I5
sbs(I5
I7
tp87
g1
(g10
g3
NtRp88
(dp89
g13
F10.8574469307397
sg14
I5
sg15
I01
sg16
I7
sg17
I28
sbs(I3
I8
tp90
g1
(g10
g3
NtRp91
(dp92
g13
F25.620829975865497
sg14
I3
sg15
I01
sg16
I8
sg17
I49
sbs(I4
I3
tp93
g1
(g10
g3
NtRp94
(dp95
g13
F-6.5937176640052204
sg14
I4
sg15
I01
sg16
I3
sg17
I12
sbs(I5
I2
tp96
g1
(g10
g3
NtRp97
(dp98
g13
F22.32076152182886
sg14
I5
sg15
I01
sg16
I2
sg17
I11
sbs(I2
I4
tp99
g1
(g10
g3
NtRp100
(dp101
g13
F-9.9133843013342648
sg14
I2
sg15
I01
sg16
I4
sg17
I24
sbs(I8
I4
tp102
g1
(g10
g3
NtRp103
(dp104
g13
F-7.3977318591151189
sg14
I8
sg15
I01
sg16
I4
sg17
I40
sbssS'_input_nodes'
p105
I1
sS'_output_nodes'
p106
I1
sS'_node_gene_type'
p107
cneat.genome
NodeGene
p108
sS'_conn_gene_type'
p109
g10
sS'fitness'
p110
F0.97517940743786302
sS'parent2_id'
p111
I4727
sS'_id'
p112
I4747
sS'parent1_id'
p113
I4727
sS'_node_genes'
p114
(lp115
g1
(g108
g3
NtRp116
(dp117
S'_bias'
p118
I0
sS'_type'
p119
S'INPUT'
p120
sg112
I1
sS'_response'
p121
F4.9242730000000003
sS'_activation_type'
p122
Nsbag1
(g108
g3
NtRp123
(dp124
g118
F-0.27581193025795503
sg119
S'OUTPUT'
p125
sg112
I2
sg121
F4.2195550467097682
sg122
S'tanh'
p126
sbag1
(g108
g3
NtRp127
(dp128
g118
F-4.8884573520039183
sg119
S'HIDDEN'
p129
sg112
I3
sg121
F0.57814120023205218
sg122
g126
sbag1
(g108
g3
NtRp130
(dp131
g118
F-0.39609032923741244
sg119
g129
sg112
I4
sg121
F5.9793795341109375
sg122
g126
sbag1
(g108
g3
NtRp132
(dp133
g118
F2.9504517000298267
sg119
g129
sg112
I5
sg121
F5.5938252310506842
sg122
g126
sbag1
(g108
g3
NtRp134
(dp135
g118
F-3.7166366750444091
sg119
g129
sg112
I6
sg121
F2.7704227704110331
sg122
g126
sbag1
(g108
g3
NtRp136
(dp137
g118
F-1.4189751038005738
sg119
g129
sg112
I7
sg121
F5.8012501462124231
sg122
g126
sbag1
(g108
g3
NtRp138
(dp139
g118
F-1.5515324333727429
sg119
g129
sg112
I8
sg121
F5.7886830467065238
sg122
g126
sbag1
(g108
g3
NtRp140
(dp141
g118
F1.4156384655449534
sg119
g129
sg112
I9
sg121
F6.4542396837227303
sg122
g126
sbasb.