ccopy_reg
_reconstructor
p1
(cneat.chromosome
Chromosome
p2
c__builtin__
object
p3
NtRp4
(dp5
S'species_id'
p6
I39
sS'_connection_genes'
p7
(dp8
(I1
I3
tp9
g1
(cneat.genome
ConnectionGene
p10
g3
NtRp11
(dp12
S'_ConnectionGene__weight'
p13
F18.432518486393715
sS'_ConnectionGene__in'
p14
I1
sS'_ConnectionGene__enabled'
p15
I01
sS'_ConnectionGene__out'
p16
I3
sS'_ConnectionGene__innov_number'
p17
I3
sbs(I6
I6
tp18
g1
(g10
g3
NtRp19
(dp20
g13
F10.278637555069782
sg14
I6
sg15
I01
sg16
I6
sg17
I39
sbs(I5
I6
tp21
g1
(g10
g3
NtRp22
(dp23
g13
F-4.5433530171469458
sg14
I5
sg15
I01
sg16
I6
sg17
I16
sbs(I9
I8
tp24
g1
(g10
g3
NtRp25
(dp26
g13
F-13.319561841843326
sg14
I9
sg15
I01
sg16
I8
sg17
I60
sbs(I9
I4
tp27
g1
(g10
g3
NtRp28
(dp29
g13
F19.681789057489144
sg14
I9
sg15
I01
sg16
I4
sg17
I77
sbs(I7
I2
tp30
g1
(g10
g3
NtRp31
(dp32
g13
F-1.0539352190021702
sg14
I7
sg15
I01
sg16
I2
sg17
I33
sbs(I1
I2
tp33
g1
(g10
g3
NtRp34
(dp35
g13
F8.3334986788835792
sg14
I1
sg15
I01
sg16
I2
sg17
I1
sbs(I4
I9
tp36
g1
(g10
g3
NtRp37
(dp38
g13
F3.5659159392538777
sg14
I4
sg15
I01
sg16
I9
sg17
I44
sbs(I3
I3
tp39
g1
(g10
g3
NtRp40
(dp41
g13
F18.8556490206226
sg14
I3
sg15
I01
sg16
I3
sg17
I9
sbs(I4
I4
tp42
g1
(g10
g3
NtRp43
(dp44
g13
F17.687287884782027
sg14
I4
sg15
I00
sg16
I4
sg17
I15
sbs(I1
I5
tp45
g1
(g10
g3
NtRp46
(dp47
g13
F-1.5061325894711188
sg14
I1
sg15
I01
sg16
I5
sg17
I10
sbs(I3
I6
tp48
g1
(g10
g3
NtRp49
(dp50
g13
F2.7824481931699969
sg14
I3
sg15
I01
sg16
I6
sg17
I19
sbs(I2
I2
tp51
g1
(g10
g3
NtRp52
(dp53
g13
F1.9953416235915096
sg14
I2
sg15
I01
sg16
I2
sg17
I2
sbs(I5
I3
tp54
g1
(g10
g3
NtRp55
(dp56
g13
F7.1305006760491469
sg14
I5
sg15
I01
sg16
I3
sg17
I14
sbs(I3
I2
tp57
g1
(g10
g3
NtRp58
(dp59
g13
F0.21346573956383103
sg14
I3
sg15
I01
sg16
I2
sg17
I4
sbs(I4
I3
tp60
g1
(g10
g3
NtRp61
(dp62
g13
F-2.1627085443954099
sg14
I4
sg15
I01
sg16
I3
sg17
I12
sbs(I4
I5
tp63
g1
(g10
g3
NtRp64
(dp65
g13
F-0.6483585512592327
sg14
I4
sg15
I01
sg16
I5
sg17
I30
sbs(I1
I4
tp66
g1
(g10
g3
NtRp67
(dp68
g13
F13.279327834661151
sg14
I1
sg15
I01
sg16
I4
sg17
I8
sbs(I2
I3
tp69
g1
(g10
g3
NtRp70
(dp71
g13
F-23.624331347147852
sg14
I2
sg15
I01
sg16
I3
sg17
I7
sbs(I4
I2
tp72
g1
(g10
g3
NtRp73
(dp74
g13
F12.602319407914834
sg14
I4
sg15
I01
sg16
I2
sg17
I6
sbs(I6
I5
tp75
g1
(g10
g3
NtRp76
(dp77
g13
F2.144521384566199
sg14
I6
sg15
I01
sg16
I5
sg17
I23
sbs(I3
I5
tp78
g1
(g10
g3
NtRp79
(dp80
g13
F6.0753306782893342
sg14
I3
sg15
I01
sg16
I5
sg17
I13
sbs(I8
I3
tp81
g1
(g10
g3
NtRp82
(dp83
g13
F9.7116388168008942
sg14
I8
sg15
I01
sg16
I3
sg17
I71
sbs(I5
I2
tp84
g1
(g10
g3
NtRp85
(dp86
g13
F17.166259459399011
sg14
I5
sg15
I01
sg16
I2
sg17
I11
sbs(I5
I7
tp87
g1
(g10
g3
NtRp88
(dp89
g13
F12.829056949447159
sg14
I5
sg15
I01
sg16
I7
sg17
I28
sbs(I3
I8
tp90
g1
(g10
g3
NtRp91
(dp92
g13
F21.651553289153465
sg14
I3
sg15
I01
sg16
I8
sg17
I49
sbs(I7
I9
tp93
g1
(g10
g3
NtRp94
(dp95
g13
F0.61377891270532448
sg14
I7
sg15
I01
sg16
I9
sg17
I41
sbs(I3
I4
tp96
g1
(g10
g3
NtRp97
(dp98
g13
F-6.0793192823704212
sg14
I3
sg15
I00
sg16
I4
sg17
I5
sbs(I2
I4
tp99
g1
(g10
g3
NtRp100
(dp101
g13
F-5.7918550090518082
sg14
I2
sg15
I01
sg16
I4
sg17
I24
sbs(I8
I4
tp102
g1
(g10
g3
NtRp103
(dp104
g13
F-5.4224137363058071
sg14
I8
sg15
I01
sg16
I4
sg17
I40
sbssS'_input_nodes'
p105
I1
sS'_output_nodes'
p106
I1
sS'_node_gene_type'
p107
cneat.genome
NodeGene
p108
sS'_conn_gene_type'
p109
g10
sS'fitness'
p110
F0.94421354264100565
sS'parent2_id'
p111
I4411
sS'_id'
p112
I4435
sS'parent1_id'
p113
I4411
sS'_node_genes'
p114
(lp115
g1
(g108
g3
NtRp116
(dp117
S'_bias'
p118
I0
sS'_type'
p119
S'INPUT'
p120
sg112
I1
sS'_response'
p121
F4.9242730000000003
sS'_activation_type'
p122
Nsbag1
(g108
g3
NtRp123
(dp124
g118
F0.51075204724089251
sg119
S'OUTPUT'
p125
sg112
I2
sg121
F4.0021667559502854
sg122
S'tanh'
p126
sbag1
(g108
g3
NtRp127
(dp128
g118
F-1.7961106463503951
sg119
S'HIDDEN'
p129
sg112
I3
sg121
F0.90694682322914588
sg122
g126
sbag1
(g108
g3
NtRp130
(dp131
g118
F-0.060197685325815486
sg119
g129
sg112
I4
sg121
F6.1922086424600646
sg122
g126
sbag1
(g108
g3
NtRp132
(dp133
g118
F2.6513504152092939
sg119
g129
sg112
I5
sg121
F6.5546843770062759
sg122
g126
sbag1
(g108
g3
NtRp134
(dp135
g118
F-1.6969292163565746
sg119
g129
sg112
I6
sg121
F3.3625132752793618
sg122
g126
sbag1
(g108
g3
NtRp136
(dp137
g118
F-1.6360267737481331
sg119
g129
sg112
I7
sg121
F5.9215685197573036
sg122
g126
sbag1
(g108
g3
NtRp138
(dp139
g118
F-0.083232514380703115
sg119
g129
sg112
I8
sg121
F5.251681329865912
sg122
g126
sbag1
(g108
g3
NtRp140
(dp141
g118
F0.18172550865032033
sg119
g129
sg112
I9
sg121
F4.846249933645848
sg122
g126
sbasb.