ccopy_reg
_reconstructor
p1
(cneat.chromosome
Chromosome
p2
c__builtin__
object
p3
NtRp4
(dp5
S'species_id'
p6
I33
sS'_connection_genes'
p7
(dp8
(I1
I2
tp9
g1
(cneat.genome
ConnectionGene
p10
g3
NtRp11
(dp12
S'_ConnectionGene__weight'
p13
F14.197046706137948
sS'_ConnectionGene__in'
p14
I1
sS'_ConnectionGene__enabled'
p15
I01
sS'_ConnectionGene__out'
p16
I2
sS'_ConnectionGene__innov_number'
p17
I1
sbs(I3
I2
tp18
g1
(g10
g3
NtRp19
(dp20
g13
F14.19985709352161
sg14
I3
sg15
I00
sg16
I2
sg17
I4
sbs(I1
I3
tp21
g1
(g10
g3
NtRp22
(dp23
g13
F20.598582568462046
sg14
I1
sg15
I01
sg16
I3
sg17
I3
sbs(I3
I3
tp24
g1
(g10
g3
NtRp25
(dp26
g13
F12.366325531020088
sg14
I3
sg15
I01
sg16
I3
sg17
I9
sbs(I6
I6
tp27
g1
(g10
g3
NtRp28
(dp29
g13
F0.15028980381637336
sg14
I6
sg15
I01
sg16
I6
sg17
I39
sbs(I5
I6
tp30
g1
(g10
g3
NtRp31
(dp32
g13
F-3.3902186537563335
sg14
I5
sg15
I01
sg16
I6
sg17
I16
sbs(I3
I4
tp33
g1
(g10
g3
NtRp34
(dp35
g13
F0.58100164920272757
sg14
I3
sg15
I01
sg16
I4
sg17
I5
sbs(I4
I4
tp36
g1
(g10
g3
NtRp37
(dp38
g13
F5.4022473303658094
sg14
I4
sg15
I01
sg16
I4
sg17
I15
sbs(I1
I4
tp39
g1
(g10
g3
NtRp40
(dp41
g13
F11.045620946066212
sg14
I1
sg15
I01
sg16
I4
sg17
I8
sbs(I1
I5
tp42
g1
(g10
g3
NtRp43
(dp44
g13
F3.5298208303899266
sg14
I1
sg15
I01
sg16
I5
sg17
I10
sbs(I2
I3
tp45
g1
(g10
g3
NtRp46
(dp47
g13
F-26.979576209331157
sg14
I2
sg15
I01
sg16
I3
sg17
I7
sbs(I3
I6
tp48
g1
(g10
g3
NtRp49
(dp50
g13
F-10.532639207244706
sg14
I3
sg15
I01
sg16
I6
sg17
I19
sbs(I2
I2
tp51
g1
(g10
g3
NtRp52
(dp53
g13
F0.97014079635038786
sg14
I2
sg15
I01
sg16
I2
sg17
I2
sbs(I4
I2
tp54
g1
(g10
g3
NtRp55
(dp56
g13
F2.3653284321867218
sg14
I4
sg15
I01
sg16
I2
sg17
I6
sbs(I5
I3
tp57
g1
(g10
g3
NtRp58
(dp59
g13
F21.104203350597551
sg14
I5
sg15
I01
sg16
I3
sg17
I14
sbs(I5
I2
tp60
g1
(g10
g3
NtRp61
(dp62
g13
F25.218192088591621
sg14
I5
sg15
I01
sg16
I2
sg17
I11
sbs(I2
I4
tp63
g1
(g10
g3
NtRp64
(dp65
g13
F0.025220216181875643
sg14
I2
sg15
I01
sg16
I4
sg17
I24
sbs(I6
I5
tp66
g1
(g10
g3
NtRp67
(dp68
g13
F24.579168150045721
sg14
I6
sg15
I01
sg16
I5
sg17
I23
sbs(I3
I5
tp69
g1
(g10
g3
NtRp70
(dp71
g13
F1.2153131551092708
sg14
I3
sg15
I01
sg16
I5
sg17
I13
sbssS'_input_nodes'
p72
I1
sS'_output_nodes'
p73
I1
sS'_node_gene_type'
p74
cneat.genome
NodeGene
p75
sS'_conn_gene_type'
p76
g10
sS'fitness'
p77
F0.96742371525758519
sS'parent2_id'
p78
I2790
sS'_id'
p79
I2813
sS'parent1_id'
p80
I2790
sS'_node_genes'
p81
(lp82
g1
(g75
g3
NtRp83
(dp84
S'_bias'
p85
I0
sS'_type'
p86
S'INPUT'
p87
sg79
I1
sS'_response'
p88
F4.9242730000000003
sS'_activation_type'
p89
Nsbag1
(g75
g3
NtRp90
(dp91
g85
F-0.66843630313859703
sg86
S'OUTPUT'
p92
sg79
I2
sg88
F5.6041069386665905
sg89
S'tanh'
p93
sbag1
(g75
g3
NtRp94
(dp95
g85
F-1.1059282604319742
sg86
S'HIDDEN'
p96
sg79
I3
sg88
F3.4988257508844205
sg89
g93
sbag1
(g75
g3
NtRp97
(dp98
g85
F-0.3695690663215887
sg86
g96
sg79
I4
sg88
F3.4086620501326621
sg89
g93
sbag1
(g75
g3
NtRp99
(dp100
g85
F0.32933580591737482
sg86
g96
sg79
I5
sg88
F4.2507276259858671
sg89
g93
sbag1
(g75
g3
NtRp101
(dp102
g85
F-2.7036950245647162
sg86
g96
sg79
I6
sg88
F3.911152114973762
sg89
g93
sbasb.