ccopy_reg
_reconstructor
p1
(cneat.chromosome
Chromosome
p2
c__builtin__
object
p3
NtRp4
(dp5
S'species_id'
p6
I41
sS'_connection_genes'
p7
(dp8
(I1
I3
tp9
g1
(cneat.genome
ConnectionGene
p10
g3
NtRp11
(dp12
S'_ConnectionGene__weight'
p13
F27.423909006786872
sS'_ConnectionGene__in'
p14
I1
sS'_ConnectionGene__enabled'
p15
I01
sS'_ConnectionGene__out'
p16
I3
sS'_ConnectionGene__innov_number'
p17
I3
sbs(I6
I6
tp18
g1
(g10
g3
NtRp19
(dp20
g13
F14.331376417497749
sg14
I6
sg15
I01
sg16
I6
sg17
I39
sbs(I5
I6
tp21
g1
(g10
g3
NtRp22
(dp23
g13
F2.5013934053849765
sg14
I5
sg15
I01
sg16
I6
sg17
I16
sbs(I9
I8
tp24
g1
(g10
g3
NtRp25
(dp26
g13
F-10.31237480488217
sg14
I9
sg15
I01
sg16
I8
sg17
I60
sbs(I9
I4
tp27
g1
(g10
g3
NtRp28
(dp29
g13
F17.436766544066547
sg14
I9
sg15
I01
sg16
I4
sg17
I77
sbs(I7
I2
tp30
g1
(g10
g3
NtRp31
(dp32
g13
F-10.774044465883465
sg14
I7
sg15
I01
sg16
I2
sg17
I33
sbs(I1
I2
tp33
g1
(g10
g3
NtRp34
(dp35
g13
F12.013640232615229
sg14
I1
sg15
I01
sg16
I2
sg17
I1
sbs(I4
I9
tp36
g1
(g10
g3
NtRp37
(dp38
g13
F-1.1091347215356491
sg14
I4
sg15
I01
sg16
I9
sg17
I44
sbs(I3
I3
tp39
g1
(g10
g3
NtRp40
(dp41
g13
F18.845122457436094
sg14
I3
sg15
I01
sg16
I3
sg17
I9
sbs(I3
I10
tp42
g1
(g10
g3
NtRp43
(dp44
g13
F-0.32417263824057896
sg14
I3
sg15
I01
sg16
I10
sg17
I94
sbs(I4
I4
tp45
g1
(g10
g3
NtRp46
(dp47
g13
F11.915393191570518
sg14
I4
sg15
I00
sg16
I4
sg17
I15
sbs(I1
I5
tp48
g1
(g10
g3
NtRp49
(dp50
g13
F-4.1131111489364773
sg14
I1
sg15
I01
sg16
I5
sg17
I10
sbs(I3
I6
tp51
g1
(g10
g3
NtRp52
(dp53
g13
F-2.7131019591491343
sg14
I3
sg15
I01
sg16
I6
sg17
I19
sbs(I2
I2
tp54
g1
(g10
g3
NtRp55
(dp56
g13
F3.6928574411002097
sg14
I2
sg15
I01
sg16
I2
sg17
I2
sbs(I7
I9
tp57
g1
(g10
g3
NtRp58
(dp59
g13
F2.6564392256368601
sg14
I7
sg15
I01
sg16
I9
sg17
I41
sbs(I3
I2
tp60
g1
(g10
g3
NtRp61
(dp62
g13
F-4.8892129386032135
sg14
I3
sg15
I01
sg16
I2
sg17
I4
sbs(I10
I4
tp63
g1
(g10
g3
NtRp64
(dp65
g13
F-3.2010057448565528
sg14
I10
sg15
I01
sg16
I4
sg17
I90
sbs(I4
I5
tp66
g1
(g10
g3
NtRp67
(dp68
g13
F-4.6873168911591554
sg14
I4
sg15
I01
sg16
I5
sg17
I30
sbs(I1
I4
tp69
g1
(g10
g3
NtRp70
(dp71
g13
F17.048885497804299
sg14
I1
sg15
I01
sg16
I4
sg17
I8
sbs(I2
I3
tp72
g1
(g10
g3
NtRp73
(dp74
g13
F-30
sg14
I2
sg15
I01
sg16
I3
sg17
I7
sbs(I4
I2
tp75
g1
(g10
g3
NtRp76
(dp77
g13
F17.222695964882959
sg14
I4
sg15
I01
sg16
I2
sg17
I6
sbs(I6
I5
tp78
g1
(g10
g3
NtRp79
(dp80
g13
F-1.5726948068464128
sg14
I6
sg15
I01
sg16
I5
sg17
I23
sbs(I5
I3
tp81
g1
(g10
g3
NtRp82
(dp83
g13
F3.7868456557095147
sg14
I5
sg15
I01
sg16
I3
sg17
I14
sbs(I3
I5
tp84
g1
(g10
g3
NtRp85
(dp86
g13
F3.4943515020619951
sg14
I3
sg15
I01
sg16
I5
sg17
I13
sbs(I8
I3
tp87
g1
(g10
g3
NtRp88
(dp89
g13
F21.206341832518216
sg14
I8
sg15
I01
sg16
I3
sg17
I71
sbs(I3
I4
tp90
g1
(g10
g3
NtRp91
(dp92
g13
F-9.6096498372384076
sg14
I3
sg15
I00
sg16
I4
sg17
I5
sbs(I5
I7
tp93
g1
(g10
g3
NtRp94
(dp95
g13
F14.061799498190585
sg14
I5
sg15
I01
sg16
I7
sg17
I28
sbs(I3
I8
tp96
g1
(g10
g3
NtRp97
(dp98
g13
F22.809164785427118
sg14
I3
sg15
I01
sg16
I8
sg17
I49
sbs(I4
I3
tp99
g1
(g10
g3
NtRp100
(dp101
g13
F-6.0652745831305719
sg14
I4
sg15
I01
sg16
I3
sg17
I12
sbs(I5
I2
tp102
g1
(g10
g3
NtRp103
(dp104
g13
F29.986564613867227
sg14
I5
sg15
I01
sg16
I2
sg17
I11
sbs(I2
I4
tp105
g1
(g10
g3
NtRp106
(dp107
g13
F-7.5170603800824161
sg14
I2
sg15
I01
sg16
I4
sg17
I24
sbs(I8
I4
tp108
g1
(g10
g3
NtRp109
(dp110
g13
F-9.6506944070435097
sg14
I8
sg15
I01
sg16
I4
sg17
I40
sbssS'_input_nodes'
p111
I1
sS'_output_nodes'
p112
I1
sS'_node_gene_type'
p113
cneat.genome
NodeGene
p114
sS'_conn_gene_type'
p115
g10
sS'fitness'
p116
F0.98742320052055632
sS'parent2_id'
p117
I4856
sS'_id'
p118
I4874
sS'parent1_id'
p119
I4856
sS'_node_genes'
p120
(lp121
g1
(g114
g3
NtRp122
(dp123
S'_bias'
p124
I0
sS'_type'
p125
S'INPUT'
p126
sg118
I1
sS'_response'
p127
F4.9242730000000003
sS'_activation_type'
p128
Nsbag1
(g114
g3
NtRp129
(dp130
g124
F-0.4943132543072592
sg125
S'OUTPUT'
p131
sg118
I2
sg127
F5.1418209817501195
sg128
S'tanh'
p132
sbag1
(g114
g3
NtRp133
(dp134
g124
F-4.9701425453628811
sg125
S'HIDDEN'
p135
sg118
I3
sg127
F0.53222969541338094
sg128
g132
sbag1
(g114
g3
NtRp136
(dp137
g124
F0.62405630519490374
sg125
g135
sg118
I4
sg127
F6.0413533547633245
sg128
g132
sbag1
(g114
g3
NtRp138
(dp139
g124
F3.35255102794875
sg125
g135
sg118
I5
sg127
F5.7930821930802781
sg128
g132
sbag1
(g114
g3
NtRp140
(dp141
g124
F-2.8393937218214074
sg125
g135
sg118
I6
sg127
F2.7704227704110331
sg128
g132
sbag1
(g114
g3
NtRp142
(dp143
g124
F-2.3833463791525338
sg125
g135
sg118
I7
sg127
F6.0014412173689351
sg128
g132
sbag1
(g114
g3
NtRp144
(dp145
g124
F-2.0674559371680186
sg125
g135
sg118
I8
sg127
F6.2765253823097806
sg128
g132
sbag1
(g114
g3
NtRp146
(dp147
g124
F1.4156384655449534
sg125
g135
sg118
I9
sg127
F6.4542396837227303
sg128
g132
sbag1
(g114
g3
NtRp148
(dp149
g124
I0
sg125
g135
sg118
I10
sg127
F5.6426919914348384
sg128
g132
sbasb.