ccopy_reg
_reconstructor
p1
(cneat.chromosome
Chromosome
p2
c__builtin__
object
p3
NtRp4
(dp5
S'species_id'
p6
I35
sS'_connection_genes'
p7
(dp8
(I1
I3
tp9
g1
(cneat.genome
ConnectionGene
p10
g3
NtRp11
(dp12
S'_ConnectionGene__weight'
p13
F20.524625807130178
sS'_ConnectionGene__in'
p14
I1
sS'_ConnectionGene__enabled'
p15
I01
sS'_ConnectionGene__out'
p16
I3
sS'_ConnectionGene__innov_number'
p17
I3
sbs(I6
I6
tp18
g1
(g10
g3
NtRp19
(dp20
g13
F6.6249560583298619
sg14
I6
sg15
I01
sg16
I6
sg17
I39
sbs(I5
I6
tp21
g1
(g10
g3
NtRp22
(dp23
g13
F-11.648241242526174
sg14
I5
sg15
I01
sg16
I6
sg17
I16
sbs(I7
I2
tp24
g1
(g10
g3
NtRp25
(dp26
g13
F14.833709067505973
sg14
I7
sg15
I01
sg16
I2
sg17
I33
sbs(I1
I2
tp27
g1
(g10
g3
NtRp28
(dp29
g13
F8.8629629148128757
sg14
I1
sg15
I01
sg16
I2
sg17
I1
sbs(I3
I3
tp30
g1
(g10
g3
NtRp31
(dp32
g13
F6.8680526160734612
sg14
I3
sg15
I01
sg16
I3
sg17
I9
sbs(I4
I4
tp33
g1
(g10
g3
NtRp34
(dp35
g13
F11.917224298975244
sg14
I4
sg15
I01
sg16
I4
sg17
I15
sbs(I1
I5
tp36
g1
(g10
g3
NtRp37
(dp38
g13
F-4.4457965947739995
sg14
I1
sg15
I01
sg16
I5
sg17
I10
sbs(I3
I6
tp39
g1
(g10
g3
NtRp40
(dp41
g13
F-14.581503536016454
sg14
I3
sg15
I01
sg16
I6
sg17
I19
sbs(I2
I2
tp42
g1
(g10
g3
NtRp43
(dp44
g13
F2.8741450945090277
sg14
I2
sg15
I01
sg16
I2
sg17
I2
sbs(I3
I5
tp45
g1
(g10
g3
NtRp46
(dp47
g13
F-2.8910751104535768
sg14
I3
sg15
I01
sg16
I5
sg17
I13
sbs(I3
I2
tp48
g1
(g10
g3
NtRp49
(dp50
g13
F16.445217612244541
sg14
I3
sg15
I00
sg16
I2
sg17
I4
sbs(I4
I5
tp51
g1
(g10
g3
NtRp52
(dp53
g13
F1.8987603919055132
sg14
I4
sg15
I01
sg16
I5
sg17
I30
sbs(I1
I4
tp54
g1
(g10
g3
NtRp55
(dp56
g13
F11.184317621612934
sg14
I1
sg15
I01
sg16
I4
sg17
I8
sbs(I2
I3
tp57
g1
(g10
g3
NtRp58
(dp59
g13
F-23.544838243601092
sg14
I2
sg15
I01
sg16
I3
sg17
I7
sbs(I4
I2
tp60
g1
(g10
g3
NtRp61
(dp62
g13
F3.8081860798693561
sg14
I4
sg15
I01
sg16
I2
sg17
I6
sbs(I6
I5
tp63
g1
(g10
g3
NtRp64
(dp65
g13
F23.082198744524472
sg14
I6
sg15
I01
sg16
I5
sg17
I23
sbs(I5
I3
tp66
g1
(g10
g3
NtRp67
(dp68
g13
F29.78195240006238
sg14
I5
sg15
I01
sg16
I3
sg17
I14
sbs(I5
I2
tp69
g1
(g10
g3
NtRp70
(dp71
g13
F28.540069036476805
sg14
I5
sg15
I00
sg16
I2
sg17
I11
sbs(I5
I7
tp72
g1
(g10
g3
NtRp73
(dp74
g13
F8.9482285101670254
sg14
I5
sg15
I01
sg16
I7
sg17
I28
sbs(I3
I4
tp75
g1
(g10
g3
NtRp76
(dp77
g13
F1.0305306829330019
sg14
I3
sg15
I01
sg16
I4
sg17
I5
sbs(I2
I4
tp78
g1
(g10
g3
NtRp79
(dp80
g13
F3.5127906005841916
sg14
I2
sg15
I01
sg16
I4
sg17
I24
sbssS'_input_nodes'
p81
I1
sS'_output_nodes'
p82
I1
sS'_node_gene_type'
p83
cneat.genome
NodeGene
p84
sS'_conn_gene_type'
p85
g10
sS'fitness'
p86
F0.99194814736166759
sS'parent2_id'
p87
I3156
sS'_id'
p88
I3172
sS'parent1_id'
p89
I3156
sS'_node_genes'
p90
(lp91
g1
(g84
g3
NtRp92
(dp93
S'_bias'
p94
I0
sS'_type'
p95
S'INPUT'
p96
sg88
I1
sS'_response'
p97
F4.9242730000000003
sS'_activation_type'
p98
Nsbag1
(g84
g3
NtRp99
(dp100
g94
F-1.5197236471277829
sg95
S'OUTPUT'
p101
sg88
I2
sg97
F4.9015499803376388
sg98
S'tanh'
p102
sbag1
(g84
g3
NtRp103
(dp104
g94
F-0.14368105087525607
sg95
S'HIDDEN'
p105
sg88
I3
sg97
F1.2699485134390238
sg98
g102
sbag1
(g84
g3
NtRp106
(dp107
g94
F0.10759593006238466
sg95
g105
sg88
I4
sg97
F3.4086620501326621
sg98
g102
sbag1
(g84
g3
NtRp108
(dp109
g94
F1.2702474343798493
sg95
g105
sg88
I5
sg97
F4.2667749942707127
sg98
g102
sbag1
(g84
g3
NtRp110
(dp111
g94
F-2.238855907468734
sg95
g105
sg88
I6
sg97
F3.8549668919466447
sg98
g102
sbag1
(g84
g3
NtRp112
(dp113
g94
F-0.6886061833520285
sg95
g105
sg88
I7
sg97
F3.6190498169375145
sg98
g102
sbasb.