ccopy_reg
_reconstructor
p1
(cneat.chromosome
Chromosome
p2
c__builtin__
object
p3
NtRp4
(dp5
S'species_id'
p6
I10
sS'_connection_genes'
p7
(dp8
(I1
I2
tp9
g1
(cneat.genome
ConnectionGene
p10
g3
NtRp11
(dp12
S'_ConnectionGene__weight'
p13
F-8.0851745265040407
sS'_ConnectionGene__in'
p14
I1
sS'_ConnectionGene__enabled'
p15
I01
sS'_ConnectionGene__out'
p16
I2
sS'_ConnectionGene__innov_number'
p17
I1
sbs(I5
I4
tp18
g1
(g10
g3
NtRp19
(dp20
g13
F8.9333136767896129
sg14
I5
sg15
I01
sg16
I4
sg17
I18
sbs(I1
I3
tp21
g1
(g10
g3
NtRp22
(dp23
g13
F-5.1358338366421625
sg14
I1
sg15
I01
sg16
I3
sg17
I3
sbs(I4
I4
tp24
g1
(g10
g3
NtRp25
(dp26
g13
F1.7110648718103878
sg14
I4
sg15
I01
sg16
I4
sg17
I15
sbs(I3
I2
tp27
g1
(g10
g3
NtRp28
(dp29
g13
F-2.080887041784111
sg14
I3
sg15
I01
sg16
I2
sg17
I4
sbs(I1
I4
tp30
g1
(g10
g3
NtRp31
(dp32
g13
F9.2360714193618509
sg14
I1
sg15
I00
sg16
I4
sg17
I8
sbs(I1
I5
tp33
g1
(g10
g3
NtRp34
(dp35
g13
F2.9104594542954239
sg14
I1
sg15
I01
sg16
I5
sg17
I10
sbs(I2
I3
tp36
g1
(g10
g3
NtRp37
(dp38
g13
F-3.6700409403515524
sg14
I2
sg15
I01
sg16
I3
sg17
I7
sbs(I2
I2
tp39
g1
(g10
g3
NtRp40
(dp41
g13
F-8.5151272387372181
sg14
I2
sg15
I01
sg16
I2
sg17
I2
sbs(I4
I2
tp42
g1
(g10
g3
NtRp43
(dp44
g13
F3.4855467376934097
sg14
I4
sg15
I01
sg16
I2
sg17
I6
sbs(I3
I4
tp45
g1
(g10
g3
NtRp46
(dp47
g13
F-8.5979724306340408
sg14
I3
sg15
I01
sg16
I4
sg17
I5
sbssS'_input_nodes'
p48
I1
sS'_output_nodes'
p49
I1
sS'_node_gene_type'
p50
cneat.genome
NodeGene
p51
sS'_conn_gene_type'
p52
g10
sS'fitness'
p53
F0.99607607709627199
sS'parent2_id'
p54
I1038
sS'_id'
p55
I1057
sS'parent1_id'
p56
I1038
sS'_node_genes'
p57
(lp58
g1
(g51
g3
NtRp59
(dp60
S'_bias'
p61
I0
sS'_type'
p62
S'INPUT'
p63
sg55
I1
sS'_response'
p64
F4.9242730000000003
sS'_activation_type'
p65
Nsbag1
(g51
g3
NtRp66
(dp67
g61
F-1.1968120632990003
sg62
S'OUTPUT'
p68
sg55
I2
sg64
F5.7985786821135035
sg65
S'tanh'
p69
sbag1
(g51
g3
NtRp70
(dp71
g61
F0.39735309002076852
sg62
S'HIDDEN'
p72
sg55
I3
sg64
F3.3163268011479454
sg65
g69
sbag1
(g51
g3
NtRp73
(dp74
g61
F-0.43330468829501378
sg62
g72
sg55
I4
sg64
F6.1138469996726625
sg65
g69
sbag1
(g51
g3
NtRp75
(dp76
g61
I0
sg62
g72
sg55
I5
sg64
F4.9871950440499777
sg65
g69
sbasb.