ccopy_reg
_reconstructor
p1
(cneat.chromosome
Chromosome
p2
c__builtin__
object
p3
NtRp4
(dp5
S'species_id'
p6
I38
sS'_connection_genes'
p7
(dp8
(I1
I3
tp9
g1
(cneat.genome
ConnectionGene
p10
g3
NtRp11
(dp12
S'_ConnectionGene__weight'
p13
F30
sS'_ConnectionGene__in'
p14
I1
sS'_ConnectionGene__enabled'
p15
I00
sS'_ConnectionGene__out'
p16
I3
sS'_ConnectionGene__innov_number'
p17
I3
sbs(I6
I6
tp18
g1
(g10
g3
NtRp19
(dp20
g13
F13.536331298965589
sg14
I6
sg15
I01
sg16
I6
sg17
I39
sbs(I5
I6
tp21
g1
(g10
g3
NtRp22
(dp23
g13
F-8.0035779462090435
sg14
I5
sg15
I01
sg16
I6
sg17
I16
sbs(I11
I2
tp24
g1
(g10
g3
NtRp25
(dp26
g13
F-2.355554651862783
sg14
I11
sg15
I01
sg16
I2
sg17
I74
sbs(I7
I2
tp27
g1
(g10
g3
NtRp28
(dp29
g13
F1.6993167294373372
sg14
I7
sg15
I01
sg16
I2
sg17
I33
sbs(I1
I2
tp30
g1
(g10
g3
NtRp31
(dp32
g13
F2.9534288696740059
sg14
I1
sg15
I01
sg16
I2
sg17
I1
sbs(I3
I3
tp33
g1
(g10
g3
NtRp34
(dp35
g13
F15.3122763592207
sg14
I3
sg15
I01
sg16
I3
sg17
I9
sbs(I3
I10
tp36
g1
(g10
g3
NtRp37
(dp38
g13
F1.5835332757234148
sg14
I3
sg15
I01
sg16
I10
sg17
I94
sbs(I4
I4
tp39
g1
(g10
g3
NtRp40
(dp41
g13
F2.1353709743302027
sg14
I4
sg15
I01
sg16
I4
sg17
I15
sbs(I1
I5
tp42
g1
(g10
g3
NtRp43
(dp44
g13
F-8.6743422001947454
sg14
I1
sg15
I01
sg16
I5
sg17
I10
sbs(I6
I5
tp45
g1
(g10
g3
NtRp46
(dp47
g13
F9.407574209639499
sg14
I6
sg15
I01
sg16
I5
sg17
I23
sbs(I3
I6
tp48
g1
(g10
g3
NtRp49
(dp50
g13
F6.5605715887639038
sg14
I3
sg15
I01
sg16
I6
sg17
I19
sbs(I2
I2
tp51
g1
(g10
g3
NtRp52
(dp53
g13
F3.8457584546012464
sg14
I2
sg15
I01
sg16
I2
sg17
I2
sbs(I5
I3
tp54
g1
(g10
g3
NtRp55
(dp56
g13
F30
sg14
I5
sg15
I01
sg16
I3
sg17
I14
sbs(I3
I2
tp57
g1
(g10
g3
NtRp58
(dp59
g13
F9.5615180616823228
sg14
I3
sg15
I01
sg16
I2
sg17
I4
sbs(I10
I4
tp60
g1
(g10
g3
NtRp61
(dp62
g13
F2.8510913006679619
sg14
I10
sg15
I01
sg16
I4
sg17
I90
sbs(I4
I5
tp63
g1
(g10
g3
NtRp64
(dp65
g13
F17.520033783707433
sg14
I4
sg15
I01
sg16
I5
sg17
I30
sbs(I9
I3
tp66
g1
(g10
g3
NtRp67
(dp68
g13
F24.431629549722253
sg14
I9
sg15
I01
sg16
I3
sg17
I42
sbs(I1
I4
tp69
g1
(g10
g3
NtRp70
(dp71
g13
F11.591003424884185
sg14
I1
sg15
I01
sg16
I4
sg17
I8
sbs(I2
I3
tp72
g1
(g10
g3
NtRp73
(dp74
g13
F-13.077381065048264
sg14
I2
sg15
I01
sg16
I3
sg17
I7
sbs(I1
I9
tp75
g1
(g10
g3
NtRp76
(dp77
g13
F3.8658424764068933
sg14
I1
sg15
I01
sg16
I9
sg17
I50
sbs(I4
I2
tp78
g1
(g10
g3
NtRp79
(dp80
g13
F-3.9171402892838607
sg14
I4
sg15
I01
sg16
I2
sg17
I6
sbs(I4
I11
tp81
g1
(g10
g3
NtRp82
(dp83
g13
F1.1690756731267926
sg14
I4
sg15
I01
sg16
I11
sg17
I75
sbs(I3
I5
tp84
g1
(g10
g3
NtRp85
(dp86
g13
F6.5864225702939798
sg14
I3
sg15
I01
sg16
I5
sg17
I13
sbs(I8
I3
tp87
g1
(g10
g3
NtRp88
(dp89
g13
F1.8854977979185925
sg14
I8
sg15
I01
sg16
I3
sg17
I71
sbs(I5
I2
tp90
g1
(g10
g3
NtRp91
(dp92
g13
F26.41977323725985
sg14
I5
sg15
I01
sg16
I2
sg17
I11
sbs(I5
I7
tp93
g1
(g10
g3
NtRp94
(dp95
g13
F11.004788292456713
sg14
I5
sg15
I01
sg16
I7
sg17
I28
sbs(I3
I8
tp96
g1
(g10
g3
NtRp97
(dp98
g13
F23.420308000323672
sg14
I3
sg15
I01
sg16
I8
sg17
I49
sbs(I4
I3
tp99
g1
(g10
g3
NtRp100
(dp101
g13
F-12.589155343230745
sg14
I4
sg15
I01
sg16
I3
sg17
I12
sbs(I3
I4
tp102
g1
(g10
g3
NtRp103
(dp104
g13
F7.258376100649965
sg14
I3
sg15
I00
sg16
I4
sg17
I5
sbs(I2
I4
tp105
g1
(g10
g3
NtRp106
(dp107
g13
F5.8775480841215186
sg14
I2
sg15
I01
sg16
I4
sg17
I24
sbs(I8
I4
tp108
g1
(g10
g3
NtRp109
(dp110
g13
F7.0142719984590238
sg14
I8
sg15
I01
sg16
I4
sg17
I40
sbssS'_input_nodes'
p111
I1
sS'_output_nodes'
p112
I1
sS'_node_gene_type'
p113
cneat.genome
NodeGene
p114
sS'_conn_gene_type'
p115
g10
sS'fitness'
p116
F0.99287877614367459
sS'parent2_id'
p117
I4239
sS'_id'
p118
I4263
sS'parent1_id'
p119
I4241
sS'_node_genes'
p120
(lp121
g1
(g114
g3
NtRp122
(dp123
S'_bias'
p124
I0
sS'_type'
p125
S'INPUT'
p126
sg118
I1
sS'_response'
p127
F4.9242730000000003
sS'_activation_type'
p128
Nsbag1
(g114
g3
NtRp129
(dp130
g124
F1.422615684412845
sg125
S'OUTPUT'
p131
sg118
I2
sg127
F5.0883558672969
sg128
S'tanh'
p132
sbag1
(g114
g3
NtRp133
(dp134
g124
F-0.97779454201851235
sg125
S'HIDDEN'
p135
sg118
I3
sg127
F1.6504512361812673
sg128
g132
sbag1
(g114
g3
NtRp136
(dp137
g124
F1.5216775264574465
sg125
g135
sg118
I4
sg127
F4.0184416260169975
sg128
g132
sbag1
(g114
g3
NtRp138
(dp139
g124
F3.8488187249111512
sg125
g135
sg118
I5
sg127
F5.8684750501739078
sg128
g132
sbag1
(g114
g3
NtRp140
(dp141
g124
F-4.3713533578267514
sg125
g135
sg118
I6
sg127
F2.5646528666989798
sg128
g132
sbag1
(g114
g3
NtRp142
(dp143
g124
F-1.3951041529495827
sg125
g135
sg118
I7
sg127
F5.283197648286249
sg128
g132
sbag1
(g114
g3
NtRp144
(dp145
g124
F-0.5154387746843978
sg125
g135
sg118
I8
sg127
F7.6384531991728242
sg128
g132
sbag1
(g114
g3
NtRp146
(dp147
g124
F0.97638225393745126
sg125
g135
sg118
I9
sg127
F4.4303310817663331
sg128
g132
sbag1
(g114
g3
NtRp148
(dp149
g124
I0
sg125
g135
sg118
I10
sg127
F4.9242730000000003
sg128
g132
sbag1
(g114
g3
NtRp150
(dp151
g124
I0
sg125
g135
sg118
I11
sg127
F4.9242730000000003
sg128
g132
sbasb.