ccopy_reg
_reconstructor
p1
(cneat.chromosome
Chromosome
p2
c__builtin__
object
p3
NtRp4
(dp5
S'species_id'
p6
I41
sS'_connection_genes'
p7
(dp8
(I1
I3
tp9
g1
(cneat.genome
ConnectionGene
p10
g3
NtRp11
(dp12
S'_ConnectionGene__weight'
p13
F29.260991243513544
sS'_ConnectionGene__in'
p14
I1
sS'_ConnectionGene__enabled'
p15
I01
sS'_ConnectionGene__out'
p16
I3
sS'_ConnectionGene__innov_number'
p17
I3
sbs(I6
I6
tp18
g1
(g10
g3
NtRp19
(dp20
g13
F11.19490550367901
sg14
I6
sg15
I01
sg16
I6
sg17
I39
sbs(I5
I6
tp21
g1
(g10
g3
NtRp22
(dp23
g13
F12.613509060603809
sg14
I5
sg15
I01
sg16
I6
sg17
I16
sbs(I9
I8
tp24
g1
(g10
g3
NtRp25
(dp26
g13
F-13.884943681814633
sg14
I9
sg15
I01
sg16
I8
sg17
I60
sbs(I9
I4
tp27
g1
(g10
g3
NtRp28
(dp29
g13
F13.884790248171548
sg14
I9
sg15
I00
sg16
I4
sg17
I77
sbs(I7
I2
tp30
g1
(g10
g3
NtRp31
(dp32
g13
F-19.734908876667557
sg14
I7
sg15
I01
sg16
I2
sg17
I33
sbs(I1
I2
tp33
g1
(g10
g3
NtRp34
(dp35
g13
F19.056676388508727
sg14
I1
sg15
I01
sg16
I2
sg17
I1
sbs(I4
I9
tp36
g1
(g10
g3
NtRp37
(dp38
g13
F0.23200318170255652
sg14
I4
sg15
I01
sg16
I9
sg17
I44
sbs(I3
I3
tp39
g1
(g10
g3
NtRp40
(dp41
g13
F20.532416204291618
sg14
I3
sg15
I01
sg16
I3
sg17
I9
sbs(I3
I10
tp42
g1
(g10
g3
NtRp43
(dp44
g13
F2.9172378753318555
sg14
I3
sg15
I01
sg16
I10
sg17
I94
sbs(I4
I4
tp45
g1
(g10
g3
NtRp46
(dp47
g13
F8.3356642769853586
sg14
I4
sg15
I00
sg16
I4
sg17
I15
sbs(I1
I5
tp48
g1
(g10
g3
NtRp49
(dp50
g13
F-4.1588424340306851
sg14
I1
sg15
I01
sg16
I5
sg17
I10
sbs(I9
I11
tp51
g1
(g10
g3
NtRp52
(dp53
g13
F0.01984522706314662
sg14
I9
sg15
I01
sg16
I11
sg17
I106
sbs(I3
I6
tp54
g1
(g10
g3
NtRp55
(dp56
g13
F-7.344143792016399
sg14
I3
sg15
I01
sg16
I6
sg17
I19
sbs(I2
I2
tp57
g1
(g10
g3
NtRp58
(dp59
g13
F6.3373863852889123
sg14
I2
sg15
I01
sg16
I2
sg17
I2
sbs(I7
I9
tp60
g1
(g10
g3
NtRp61
(dp62
g13
F3.2170103409132693
sg14
I7
sg15
I01
sg16
I9
sg17
I41
sbs(I3
I2
tp63
g1
(g10
g3
NtRp64
(dp65
g13
F-6.6288216855399531
sg14
I3
sg15
I01
sg16
I2
sg17
I4
sbs(I11
I4
tp66
g1
(g10
g3
NtRp67
(dp68
g13
F20.296017974029034
sg14
I11
sg15
I01
sg16
I4
sg17
I101
sbs(I10
I4
tp69
g1
(g10
g3
NtRp70
(dp71
g13
F0.64371569708501841
sg14
I10
sg15
I01
sg16
I4
sg17
I90
sbs(I4
I5
tp72
g1
(g10
g3
NtRp73
(dp74
g13
F-9.1173899576048143
sg14
I4
sg15
I01
sg16
I5
sg17
I30
sbs(I8
I11
tp75
g1
(g10
g3
NtRp76
(dp77
g13
F3.7034528948907686
sg14
I8
sg15
I01
sg16
I11
sg17
I80
sbs(I1
I4
tp78
g1
(g10
g3
NtRp79
(dp80
g13
F13.99871716797049
sg14
I1
sg15
I01
sg16
I4
sg17
I8
sbs(I2
I3
tp81
g1
(g10
g3
NtRp82
(dp83
g13
F-27.665264926499507
sg14
I2
sg15
I01
sg16
I3
sg17
I7
sbs(I4
I2
tp84
g1
(g10
g3
NtRp85
(dp86
g13
F16.248188889444641
sg14
I4
sg15
I01
sg16
I2
sg17
I6
sbs(I6
I5
tp87
g1
(g10
g3
NtRp88
(dp89
g13
F-3.1543708368872481
sg14
I6
sg15
I01
sg16
I5
sg17
I23
sbs(I5
I3
tp90
g1
(g10
g3
NtRp91
(dp92
g13
F2.4884752769777005
sg14
I5
sg15
I01
sg16
I3
sg17
I14
sbs(I3
I5
tp93
g1
(g10
g3
NtRp94
(dp95
g13
F2.1483065575753897
sg14
I3
sg15
I01
sg16
I5
sg17
I13
sbs(I8
I3
tp96
g1
(g10
g3
NtRp97
(dp98
g13
F20.953391489316182
sg14
I8
sg15
I01
sg16
I3
sg17
I71
sbs(I3
I4
tp99
g1
(g10
g3
NtRp100
(dp101
g13
F-7.1331028131681826
sg14
I3
sg15
I00
sg16
I4
sg17
I5
sbs(I5
I7
tp102
g1
(g10
g3
NtRp103
(dp104
g13
F14.399360034304392
sg14
I5
sg15
I01
sg16
I7
sg17
I28
sbs(I3
I8
tp105
g1
(g10
g3
NtRp106
(dp107
g13
F20.62314396595708
sg14
I3
sg15
I01
sg16
I8
sg17
I49
sbs(I4
I3
tp108
g1
(g10
g3
NtRp109
(dp110
g13
F-5.7035989287732232
sg14
I4
sg15
I01
sg16
I3
sg17
I12
sbs(I5
I2
tp111
g1
(g10
g3
NtRp112
(dp113
g13
F29.85638485608272
sg14
I5
sg15
I01
sg16
I2
sg17
I11
sbs(I2
I4
tp114
g1
(g10
g3
NtRp115
(dp116
g13
F-1.6103228618411045
sg14
I2
sg15
I01
sg16
I4
sg17
I24
sbs(I8
I4
tp117
g1
(g10
g3
NtRp118
(dp119
g13
F-15.384342335282239
sg14
I8
sg15
I01
sg16
I4
sg17
I40
sbssS'_input_nodes'
p120
I1
sS'_output_nodes'
p121
I1
sS'_node_gene_type'
p122
cneat.genome
NodeGene
p123
sS'_conn_gene_type'
p124
g10
sS'fitness'
p125
F0.98720726804798786
sS'parent2_id'
p126
I5053
sS'_id'
p127
I5069
sS'parent1_id'
p128
I5053
sS'_node_genes'
p129
(lp130
g1
(g123
g3
NtRp131
(dp132
S'_bias'
p133
I0
sS'_type'
p134
S'INPUT'
p135
sg127
I1
sS'_response'
p136
F4.9242730000000003
sS'_activation_type'
p137
Nsbag1
(g123
g3
NtRp138
(dp139
g133
F-0.4943132543072592
sg134
S'OUTPUT'
p140
sg127
I2
sg136
F6.2029048795650379
sg137
S'tanh'
p141
sbag1
(g123
g3
NtRp142
(dp143
g133
F-4.7585608895813021
sg134
S'HIDDEN'
p144
sg127
I3
sg136
F1.3880314311077619
sg137
g141
sbag1
(g123
g3
NtRp145
(dp146
g133
F1.4453481876283594
sg134
g144
sg127
I4
sg136
F5.6953554517462424
sg137
g141
sbag1
(g123
g3
NtRp147
(dp148
g133
F3.8307978271077889
sg134
g144
sg127
I5
sg136
F6.5117747567669229
sg137
g141
sbag1
(g123
g3
NtRp149
(dp150
g133
F-3.1900534310366222
sg134
g144
sg127
I6
sg136
F3.5884243683907369
sg137
g141
sbag1
(g123
g3
NtRp151
(dp152
g133
F-2.2650154958586932
sg134
g144
sg127
I7
sg136
F6.4217022603638894
sg137
g141
sbag1
(g123
g3
NtRp153
(dp154
g133
F-2.5158753419116557
sg134
g144
sg127
I8
sg136
F6.5020624131088516
sg137
g141
sbag1
(g123
g3
NtRp155
(dp156
g133
F0.95092228815358082
sg134
g144
sg127
I9
sg136
F6.5024530368068056
sg137
g141
sbag1
(g123
g3
NtRp157
(dp158
g133
F-0.98497362955963541
sg134
g144
sg127
I10
sg136
F6.8454828529770584
sg137
g141
sbag1
(g123
g3
NtRp159
(dp160
g133
F0.51007820203628407
sg134
g144
sg127
I11
sg136
F5.0201213317829021
sg137
g141
sbasb.