ccopy_reg
_reconstructor
p1
(cneat.chromosome
Chromosome
p2
c__builtin__
object
p3
NtRp4
(dp5
S'species_id'
p6
I75
sS'_connection_genes'
p7
(dp8
(I1
I3
tp9
g1
(cneat.genome
ConnectionGene
p10
g3
NtRp11
(dp12
S'_ConnectionGene__weight'
p13
F6.5435559589959764
sS'_ConnectionGene__in'
p14
I1
sS'_ConnectionGene__enabled'
p15
I01
sS'_ConnectionGene__out'
p16
I3
sS'_ConnectionGene__innov_number'
p17
I3
sbs(I8
I13
tp18
g1
(g10
g3
NtRp19
(dp20
g13
F-2.5637083836045989
sg14
I8
sg15
I01
sg16
I13
sg17
I155
sbs(I11
I11
tp21
g1
(g10
g3
NtRp22
(dp23
g13
F3.0811883353093013
sg14
I11
sg15
I01
sg16
I11
sg17
I122
sbs(I6
I6
tp24
g1
(g10
g3
NtRp25
(dp26
g13
F17.9746251128404
sg14
I6
sg15
I01
sg16
I6
sg17
I39
sbs(I5
I6
tp27
g1
(g10
g3
NtRp28
(dp29
g13
F26.55822552455118
sg14
I5
sg15
I01
sg16
I6
sg17
I16
sbs(I9
I8
tp30
g1
(g10
g3
NtRp31
(dp32
g13
F-25.7222937051909
sg14
I9
sg15
I01
sg16
I8
sg17
I60
sbs(I10
I6
tp33
g1
(g10
g3
NtRp34
(dp35
g13
F-17.494166908653135
sg14
I10
sg15
I01
sg16
I6
sg17
I103
sbs(I9
I4
tp36
g1
(g10
g3
NtRp37
(dp38
g13
F12.318121610030643
sg14
I9
sg15
I01
sg16
I4
sg17
I77
sbs(I3
I10
tp39
g1
(g10
g3
NtRp40
(dp41
g13
F-13.310618042458314
sg14
I3
sg15
I01
sg16
I10
sg17
I94
sbs(I7
I2
tp42
g1
(g10
g3
NtRp43
(dp44
g13
F0.70337875486560908
sg14
I7
sg15
I01
sg16
I2
sg17
I33
sbs(I1
I2
tp45
g1
(g10
g3
NtRp46
(dp47
g13
F28.592647878994679
sg14
I1
sg15
I01
sg16
I2
sg17
I1
sbs(I12
I2
tp48
g1
(g10
g3
NtRp49
(dp50
g13
F23.51857655844919
sg14
I12
sg15
I01
sg16
I2
sg17
I93
sbs(I11
I10
tp51
g1
(g10
g3
NtRp52
(dp53
g13
F-4.2673151407204735
sg14
I11
sg15
I01
sg16
I10
sg17
I89
sbs(I4
I9
tp54
g1
(g10
g3
NtRp55
(dp56
g13
F11.94521605581653
sg14
I4
sg15
I01
sg16
I9
sg17
I44
sbs(I3
I3
tp57
g1
(g10
g3
NtRp58
(dp59
g13
F28.971608940694914
sg14
I3
sg15
I01
sg16
I3
sg17
I9
sbs(I14
I5
tp60
g1
(g10
g3
NtRp61
(dp62
g13
F5.7096969078823951
sg14
I14
sg15
I01
sg16
I5
sg17
I237
sbs(I5
I12
tp63
g1
(g10
g3
NtRp64
(dp65
g13
F2.5909454218339349
sg14
I5
sg15
I01
sg16
I12
sg17
I118
sbs(I4
I4
tp66
g1
(g10
g3
NtRp67
(dp68
g13
F28.012782871616636
sg14
I4
sg15
I01
sg16
I4
sg17
I15
sbs(I1
I5
tp69
g1
(g10
g3
NtRp70
(dp71
g13
F22.502081931488409
sg14
I1
sg15
I01
sg16
I5
sg17
I10
sbs(I9
I11
tp72
g1
(g10
g3
NtRp73
(dp74
g13
F-16.00454093985644
sg14
I9
sg15
I01
sg16
I11
sg17
I106
sbs(I3
I14
tp75
g1
(g10
g3
NtRp76
(dp77
g13
F-1.5273831569196763
sg14
I3
sg15
I01
sg16
I14
sg17
I150
sbs(I3
I6
tp78
g1
(g10
g3
NtRp79
(dp80
g13
F-11.480793085575405
sg14
I3
sg15
I01
sg16
I6
sg17
I19
sbs(I2
I2
tp81
g1
(g10
g3
NtRp82
(dp83
g13
F25.795358342294332
sg14
I2
sg15
I01
sg16
I2
sg17
I2
sbs(I7
I9
tp84
g1
(g10
g3
NtRp85
(dp86
g13
F30
sg14
I7
sg15
I01
sg16
I9
sg17
I41
sbs(I10
I9
tp87
g1
(g10
g3
NtRp88
(dp89
g13
F25.085129928662134
sg14
I10
sg15
I01
sg16
I9
sg17
I58
sbs(I9
I7
tp90
g1
(g10
g3
NtRp91
(dp92
g13
F30
sg14
I9
sg15
I01
sg16
I7
sg17
I53
sbs(I3
I2
tp93
g1
(g10
g3
NtRp94
(dp95
g13
F-5.6200281971229549
sg14
I3
sg15
I01
sg16
I2
sg17
I4
sbs(I11
I4
tp96
g1
(g10
g3
NtRp97
(dp98
g13
F24.659011066016681
sg14
I11
sg15
I01
sg16
I4
sg17
I101
sbs(I10
I4
tp99
g1
(g10
g3
NtRp100
(dp101
g13
F3.3916972392315921
sg14
I10
sg15
I01
sg16
I4
sg17
I90
sbs(I4
I5
tp102
g1
(g10
g3
NtRp103
(dp104
g13
F-19.65330546275619
sg14
I4
sg15
I01
sg16
I5
sg17
I30
sbs(I8
I11
tp105
g1
(g10
g3
NtRp106
(dp107
g13
F-7.8358493659435142
sg14
I8
sg15
I00
sg16
I11
sg17
I80
sbs(I1
I4
tp108
g1
(g10
g3
NtRp109
(dp110
g13
F-8.5140878538162106
sg14
I1
sg15
I01
sg16
I4
sg17
I8
sbs(I2
I3
tp111
g1
(g10
g3
NtRp112
(dp113
g13
F-19.60960209951844
sg14
I2
sg15
I01
sg16
I3
sg17
I7
sbs(I4
I2
tp114
g1
(g10
g3
NtRp115
(dp116
g13
F15.219881304937969
sg14
I4
sg15
I01
sg16
I2
sg17
I6
sbs(I6
I5
tp117
g1
(g10
g3
NtRp118
(dp119
g13
F1.6193314385521331
sg14
I6
sg15
I01
sg16
I5
sg17
I23
sbs(I5
I3
tp120
g1
(g10
g3
NtRp121
(dp122
g13
F15.856161082481009
sg14
I5
sg15
I01
sg16
I3
sg17
I14
sbs(I3
I5
tp123
g1
(g10
g3
NtRp124
(dp125
g13
F0.60038210286116822
sg14
I3
sg15
I00
sg16
I5
sg17
I13
sbs(I8
I3
tp126
g1
(g10
g3
NtRp127
(dp128
g13
F23.840838712509051
sg14
I8
sg15
I01
sg16
I3
sg17
I71
sbs(I3
I4
tp129
g1
(g10
g3
NtRp130
(dp131
g13
F9.5432003287560789
sg14
I3
sg15
I01
sg16
I4
sg17
I5
sbs(I5
I7
tp132
g1
(g10
g3
NtRp133
(dp134
g13
F-26.367806428607345
sg14
I5
sg15
I01
sg16
I7
sg17
I28
sbs(I3
I8
tp135
g1
(g10
g3
NtRp136
(dp137
g13
F13.462567784158539
sg14
I3
sg15
I01
sg16
I8
sg17
I49
sbs(I12
I3
tp138
g1
(g10
g3
NtRp139
(dp140
g13
F2.4707087939959766
sg14
I12
sg15
I01
sg16
I3
sg17
I88
sbs(I4
I3
tp141
g1
(g10
g3
NtRp142
(dp143
g13
F2.7831946371278309
sg14
I4
sg15
I01
sg16
I3
sg17
I12
sbs(I13
I11
tp144
g1
(g10
g3
NtRp145
(dp146
g13
F-13.603969351268651
sg14
I13
sg15
I01
sg16
I11
sg17
I235
sbs(I5
I2
tp147
g1
(g10
g3
NtRp148
(dp149
g13
F26.324622619262307
sg14
I5
sg15
I00
sg16
I2
sg17
I11
sbs(I2
I4
tp150
g1
(g10
g3
NtRp151
(dp152
g13
F18.974746033092906
sg14
I2
sg15
I01
sg16
I4
sg17
I24
sbs(I8
I4
tp153
g1
(g10
g3
NtRp154
(dp155
g13
F-22.913362832211256
sg14
I8
sg15
I01
sg16
I4
sg17
I40
sbssS'_input_nodes'
p156
I1
sS'_output_nodes'
p157
I1
sS'_node_gene_type'
p158
cneat.genome
NodeGene
p159
sS'_conn_gene_type'
p160
g10
sS'fitness'
p161
F0.91802582587466786
sS'parent2_id'
p162
I7804
sS'_id'
p163
I7819
sS'parent1_id'
p164
I7804
sS'_node_genes'
p165
(lp166
g1
(g159
g3
NtRp167
(dp168
S'_bias'
p169
I0
sS'_type'
p170
S'INPUT'
p171
sg163
I1
sS'_response'
p172
F4.9242730000000003
sS'_activation_type'
p173
Nsbag1
(g159
g3
NtRp174
(dp175
g169
F-5.8829282339927014
sg170
S'OUTPUT'
p176
sg163
I2
sg172
F3.9377814831735494
sg173
S'tanh'
p177
sbag1
(g159
g3
NtRp178
(dp179
g169
F-3.5221227813784934
sg170
S'HIDDEN'
p180
sg163
I3
sg172
F6.4050003058526448
sg173
g177
sbag1
(g159
g3
NtRp181
(dp182
g169
F5.125013806257102
sg170
g180
sg163
I4
sg172
F3.8550829289714379
sg173
g177
sbag1
(g159
g3
NtRp183
(dp184
g169
F3.9794346292367631
sg170
g180
sg163
I5
sg172
F13.043449600384299
sg173
g177
sbag1
(g159
g3
NtRp185
(dp186
g169
F-1.8653520933175711
sg170
g180
sg163
I6
sg172
F0.64392771441865215
sg173
g177
sbag1
(g159
g3
NtRp187
(dp188
g169
F-3.1935225484797454
sg170
g180
sg163
I7
sg172
F6.180107617769016
sg173
g177
sbag1
(g159
g3
NtRp189
(dp190
g169
F-0.97308160717336167
sg170
g180
sg163
I8
sg172
F10.112559181017161
sg173
g177
sbag1
(g159
g3
NtRp191
(dp192
g169
F2.304535329668274
sg170
g180
sg163
I9
sg172
F8.3144687173027005
sg173
g177
sbag1
(g159
g3
NtRp193
(dp194
g169
F0.94974564409813156
sg170
g180
sg163
I10
sg172
F5.634220296330037
sg173
g177
sbag1
(g159
g3
NtRp195
(dp196
g169
F0.056967447010522462
sg170
g180
sg163
I11
sg172
F3.5280117623348231
sg173
g177
sbag1
(g159
g3
NtRp197
(dp198
g169
I0
sg170
g180
sg163
I12
sg172
F4.6175215120552391
sg173
g177
sbag1
(g159
g3
NtRp199
(dp200
g169
I0
sg170
g180
sg163
I13
sg172
F5.5088331393287682
sg173
g177
sbag1
(g159
g3
NtRp201
(dp202
g169
F0.44933029943296587
sg170
g180
sg163
I14
sg172
F3.6311344061621469
sg173
g177
sbasb.