ccopy_reg
_reconstructor
p1
(cneat.chromosome
Chromosome
p2
c__builtin__
object
p3
NtRp4
(dp5
S'species_id'
p6
I41
sS'_connection_genes'
p7
(dp8
(I1
I3
tp9
g1
(cneat.genome
ConnectionGene
p10
g3
NtRp11
(dp12
S'_ConnectionGene__weight'
p13
F29.677315795069095
sS'_ConnectionGene__in'
p14
I1
sS'_ConnectionGene__enabled'
p15
I01
sS'_ConnectionGene__out'
p16
I3
sS'_ConnectionGene__innov_number'
p17
I3
sbs(I6
I6
tp18
g1
(g10
g3
NtRp19
(dp20
g13
F8.689552878247305
sg14
I6
sg15
I01
sg16
I6
sg17
I39
sbs(I5
I6
tp21
g1
(g10
g3
NtRp22
(dp23
g13
F14.650286650858803
sg14
I5
sg15
I01
sg16
I6
sg17
I16
sbs(I9
I8
tp24
g1
(g10
g3
NtRp25
(dp26
g13
F-15.798359142741033
sg14
I9
sg15
I01
sg16
I8
sg17
I60
sbs(I9
I4
tp27
g1
(g10
g3
NtRp28
(dp29
g13
F15.747543130878922
sg14
I9
sg15
I00
sg16
I4
sg17
I77
sbs(I7
I2
tp30
g1
(g10
g3
NtRp31
(dp32
g13
F-13.332916719291052
sg14
I7
sg15
I01
sg16
I2
sg17
I33
sbs(I1
I2
tp33
g1
(g10
g3
NtRp34
(dp35
g13
F17.114869917500378
sg14
I1
sg15
I01
sg16
I2
sg17
I1
sbs(I4
I9
tp36
g1
(g10
g3
NtRp37
(dp38
g13
F-1.7360825344377111
sg14
I4
sg15
I01
sg16
I9
sg17
I44
sbs(I3
I3
tp39
g1
(g10
g3
NtRp40
(dp41
g13
F22.392893642850304
sg14
I3
sg15
I01
sg16
I3
sg17
I9
sbs(I3
I10
tp42
g1
(g10
g3
NtRp43
(dp44
g13
F-0.28731727712083899
sg14
I3
sg15
I01
sg16
I10
sg17
I94
sbs(I4
I4
tp45
g1
(g10
g3
NtRp46
(dp47
g13
F10.298124127294358
sg14
I4
sg15
I01
sg16
I4
sg17
I15
sbs(I1
I5
tp48
g1
(g10
g3
NtRp49
(dp50
g13
F-1.5653121096218823
sg14
I1
sg15
I01
sg16
I5
sg17
I10
sbs(I9
I11
tp51
g1
(g10
g3
NtRp52
(dp53
g13
F-3.4058292348890991
sg14
I9
sg15
I01
sg16
I11
sg17
I106
sbs(I3
I6
tp54
g1
(g10
g3
NtRp55
(dp56
g13
F-5.8325690196982185
sg14
I3
sg15
I01
sg16
I6
sg17
I19
sbs(I2
I2
tp57
g1
(g10
g3
NtRp58
(dp59
g13
F8.6985442004586186
sg14
I2
sg15
I01
sg16
I2
sg17
I2
sbs(I5
I3
tp60
g1
(g10
g3
NtRp61
(dp62
g13
F4.4307554318750464
sg14
I5
sg15
I01
sg16
I3
sg17
I14
sbs(I3
I2
tp63
g1
(g10
g3
NtRp64
(dp65
g13
F-3.4905689651336775
sg14
I3
sg15
I01
sg16
I2
sg17
I4
sbs(I11
I4
tp66
g1
(g10
g3
NtRp67
(dp68
g13
F17.74083527095306
sg14
I11
sg15
I01
sg16
I4
sg17
I101
sbs(I10
I4
tp69
g1
(g10
g3
NtRp70
(dp71
g13
F-0.19933994761907478
sg14
I10
sg15
I01
sg16
I4
sg17
I90
sbs(I4
I5
tp72
g1
(g10
g3
NtRp73
(dp74
g13
F-11.118769200850945
sg14
I4
sg15
I01
sg16
I5
sg17
I30
sbs(I8
I11
tp75
g1
(g10
g3
NtRp76
(dp77
g13
F0.9132126958307818
sg14
I8
sg15
I01
sg16
I11
sg17
I80
sbs(I1
I4
tp78
g1
(g10
g3
NtRp79
(dp80
g13
F17.836163102195918
sg14
I1
sg15
I01
sg16
I4
sg17
I8
sbs(I2
I3
tp81
g1
(g10
g3
NtRp82
(dp83
g13
F-30
sg14
I2
sg15
I01
sg16
I3
sg17
I7
sbs(I4
I2
tp84
g1
(g10
g3
NtRp85
(dp86
g13
F20.358403314106397
sg14
I4
sg15
I01
sg16
I2
sg17
I6
sbs(I6
I5
tp87
g1
(g10
g3
NtRp88
(dp89
g13
F2.1516126658391705
sg14
I6
sg15
I01
sg16
I5
sg17
I23
sbs(I7
I9
tp90
g1
(g10
g3
NtRp91
(dp92
g13
F1.8896313028494987
sg14
I7
sg15
I01
sg16
I9
sg17
I41
sbs(I3
I5
tp93
g1
(g10
g3
NtRp94
(dp95
g13
F1.9636127711365989
sg14
I3
sg15
I01
sg16
I5
sg17
I13
sbs(I8
I3
tp96
g1
(g10
g3
NtRp97
(dp98
g13
F21.196355144928575
sg14
I8
sg15
I01
sg16
I3
sg17
I71
sbs(I5
I2
tp99
g1
(g10
g3
NtRp100
(dp101
g13
F29.641481266510571
sg14
I5
sg15
I01
sg16
I2
sg17
I11
sbs(I5
I7
tp102
g1
(g10
g3
NtRp103
(dp104
g13
F9.7973406765692896
sg14
I5
sg15
I01
sg16
I7
sg17
I28
sbs(I3
I8
tp105
g1
(g10
g3
NtRp106
(dp107
g13
F19.063248376237524
sg14
I3
sg15
I01
sg16
I8
sg17
I49
sbs(I4
I3
tp108
g1
(g10
g3
NtRp109
(dp110
g13
F-1.7501812791215692
sg14
I4
sg15
I01
sg16
I3
sg17
I12
sbs(I3
I4
tp111
g1
(g10
g3
NtRp112
(dp113
g13
F-7.3641021757065763
sg14
I3
sg15
I00
sg16
I4
sg17
I5
sbs(I2
I4
tp114
g1
(g10
g3
NtRp115
(dp116
g13
F1.3813430598495158
sg14
I2
sg15
I01
sg16
I4
sg17
I24
sbs(I8
I4
tp117
g1
(g10
g3
NtRp118
(dp119
g13
F-10.890310370181043
sg14
I8
sg15
I01
sg16
I4
sg17
I40
sbssS'_input_nodes'
p120
I1
sS'_output_nodes'
p121
I1
sS'_node_gene_type'
p122
cneat.genome
NodeGene
p123
sS'_conn_gene_type'
p124
g10
sS'fitness'
p125
F0.90989040861112602
sS'parent2_id'
p126
I5136
sS'_id'
p127
I5149
sS'parent1_id'
p128
I5136
sS'_node_genes'
p129
(lp130
g1
(g123
g3
NtRp131
(dp132
S'_bias'
p133
I0
sS'_type'
p134
S'INPUT'
p135
sg127
I1
sS'_response'
p136
F4.9242730000000003
sS'_activation_type'
p137
Nsbag1
(g123
g3
NtRp138
(dp139
g133
F-1.3894772094271641
sg134
S'OUTPUT'
p140
sg127
I2
sg136
F6.9202045227816358
sg137
S'tanh'
p141
sbag1
(g123
g3
NtRp142
(dp143
g133
F-4.7261723097496597
sg134
S'HIDDEN'
p144
sg127
I3
sg136
F1.5647193429932305
sg137
g141
sbag1
(g123
g3
NtRp145
(dp146
g133
F2.8530604811387859
sg134
g144
sg127
I4
sg136
F4.7925837795657218
sg137
g141
sbag1
(g123
g3
NtRp147
(dp148
g133
F4.3712014937490791
sg134
g144
sg127
I5
sg136
F6.5117747567669229
sg137
g141
sbag1
(g123
g3
NtRp149
(dp150
g133
F-3.3741482885499039
sg134
g144
sg127
I6
sg136
F3.5884243683907369
sg137
g141
sbag1
(g123
g3
NtRp151
(dp152
g133
F-2.3299346111950023
sg134
g144
sg127
I7
sg136
F5.8845353532681806
sg137
g141
sbag1
(g123
g3
NtRp153
(dp154
g133
F-2.5158753419116557
sg134
g144
sg127
I8
sg136
F7.5524489659204708
sg137
g141
sbag1
(g123
g3
NtRp155
(dp156
g133
F1.1920920618529101
sg134
g144
sg127
I9
sg136
F6.5024530368068056
sg137
g141
sbag1
(g123
g3
NtRp157
(dp158
g133
F-0.5256593451559235
sg134
g144
sg127
I10
sg136
F7.7796877092841745
sg137
g141
sbag1
(g123
g3
NtRp159
(dp160
g133
F-0.11413622857849909
sg134
g144
sg127
I11
sg136
F5.3410799699959286
sg137
g141
sbasb.