ccopy_reg
_reconstructor
p1
(cneat.chromosome
Chromosome
p2
c__builtin__
object
p3
NtRp4
(dp5
S'species_id'
p6
I34
sS'_connection_genes'
p7
(dp8
(I7
I3
tp9
g1
(cneat.genome
ConnectionGene
p10
g3
NtRp11
(dp12
S'_ConnectionGene__weight'
p13
F9.3720382080535654
sS'_ConnectionGene__in'
p14
I7
sS'_ConnectionGene__enabled'
p15
I01
sS'_ConnectionGene__out'
p16
I3
sS'_ConnectionGene__innov_number'
p17
I29
sbs(I1
I3
tp18
g1
(g10
g3
NtRp19
(dp20
g13
F1.604560121705541
sg14
I1
sg15
I01
sg16
I3
sg17
I3
sbs(I4
I8
tp21
g1
(g10
g3
NtRp22
(dp23
g13
F-3.2089680306592618
sg14
I4
sg15
I01
sg16
I8
sg17
I35
sbs(I5
I6
tp24
g1
(g10
g3
NtRp25
(dp26
g13
F-3.0119894578917705
sg14
I5
sg15
I01
sg16
I6
sg17
I16
sbs(I3
I11
tp27
g1
(g10
g3
NtRp28
(dp29
g13
F6.7844896145859908
sg14
I3
sg15
I01
sg16
I11
sg17
I91
sbs(I6
I2
tp30
g1
(g10
g3
NtRp31
(dp32
g13
F-15.951797018078857
sg14
I6
sg15
I01
sg16
I2
sg17
I17
sbs(I8
I5
tp33
g1
(g10
g3
NtRp34
(dp35
g13
F1.0252182395626699
sg14
I8
sg15
I00
sg16
I5
sg17
I36
sbs(I1
I2
tp36
g1
(g10
g3
NtRp37
(dp38
g13
F-9.9863029750906627
sg14
I1
sg15
I01
sg16
I2
sg17
I1
sbs(I2
I9
tp39
g1
(g10
g3
NtRp40
(dp41
g13
F17.223614504020819
sg14
I2
sg15
I01
sg16
I9
sg17
I51
sbs(I11
I5
tp42
g1
(g10
g3
NtRp43
(dp44
g13
F-2.2066551021025722
sg14
I11
sg15
I01
sg16
I5
sg17
I81
sbs(I2
I2
tp45
g1
(g10
g3
NtRp46
(dp47
g13
F-0.44485182183657579
sg14
I2
sg15
I01
sg16
I2
sg17
I2
sbs(I3
I2
tp48
g1
(g10
g3
NtRp49
(dp50
g13
F-30
sg14
I3
sg15
I01
sg16
I2
sg17
I4
sbs(I4
I5
tp51
g1
(g10
g3
NtRp52
(dp53
g13
F-11.007905985062182
sg14
I4
sg15
I01
sg16
I5
sg17
I30
sbs(I8
I11
tp54
g1
(g10
g3
NtRp55
(dp56
g13
F22.084069236350871
sg14
I8
sg15
I01
sg16
I11
sg17
I80
sbs(I9
I3
tp57
g1
(g10
g3
NtRp58
(dp59
g13
F16.668043751929169
sg14
I9
sg15
I01
sg16
I3
sg17
I42
sbs(I1
I4
tp60
g1
(g10
g3
NtRp61
(dp62
g13
F30
sg14
I1
sg15
I01
sg16
I4
sg17
I8
sbs(I7
I7
tp63
g1
(g10
g3
NtRp64
(dp65
g13
F30
sg14
I7
sg15
I01
sg16
I7
sg17
I47
sbs(I2
I3
tp66
g1
(g10
g3
NtRp67
(dp68
g13
F22.823346233644667
sg14
I2
sg15
I01
sg16
I3
sg17
I7
sbs(I1
I9
tp69
g1
(g10
g3
NtRp70
(dp71
g13
F-4.5467514235316306
sg14
I1
sg15
I01
sg16
I9
sg17
I50
sbs(I4
I2
tp72
g1
(g10
g3
NtRp73
(dp74
g13
F-21.907221894744367
sg14
I4
sg15
I01
sg16
I2
sg17
I6
sbs(I2
I10
tp75
g1
(g10
g3
NtRp76
(dp77
g13
F5.276129038748774
sg14
I2
sg15
I01
sg16
I10
sg17
I57
sbs(I3
I5
tp78
g1
(g10
g3
NtRp79
(dp80
g13
F10.764070770858703
sg14
I3
sg15
I01
sg16
I5
sg17
I13
sbs(I2
I7
tp81
g1
(g10
g3
NtRp82
(dp83
g13
F15.437446225077707
sg14
I2
sg15
I01
sg16
I7
sg17
I34
sbs(I8
I3
tp84
g1
(g10
g3
NtRp85
(dp86
g13
F-9.6454672429671824
sg14
I8
sg15
I01
sg16
I3
sg17
I71
sbs(I10
I10
tp87
g1
(g10
g3
NtRp88
(dp89
g13
F-11.470313705943074
sg14
I10
sg15
I01
sg16
I10
sg17
I72
sbs(I3
I4
tp90
g1
(g10
g3
NtRp91
(dp92
g13
F7.5737978648050408
sg14
I3
sg15
I01
sg16
I4
sg17
I5
sbs(I2
I11
tp93
g1
(g10
g3
NtRp94
(dp95
g13
F-1.0250308841433919
sg14
I2
sg15
I01
sg16
I11
sg17
I73
sbs(I5
I2
tp96
g1
(g10
g3
NtRp97
(dp98
g13
F27.13084819646474
sg14
I5
sg15
I00
sg16
I2
sg17
I11
sbs(I10
I2
tp99
g1
(g10
g3
NtRp100
(dp101
g13
F-3.6696952204064925
sg14
I10
sg15
I01
sg16
I2
sg17
I65
sbssS'_input_nodes'
p102
I1
sS'_output_nodes'
p103
I1
sS'_node_gene_type'
p104
cneat.genome
NodeGene
p105
sS'_conn_gene_type'
p106
g10
sS'fitness'
p107
F0.9064684251514018
sS'parent2_id'
p108
I3413
sS'_id'
p109
I3473
sS'parent1_id'
p110
I3432
sS'_node_genes'
p111
(lp112
g1
(g105
g3
NtRp113
(dp114
S'_bias'
p115
I0
sS'_type'
p116
S'INPUT'
p117
sg109
I1
sS'_response'
p118
F4.9242730000000003
sS'_activation_type'
p119
Nsbag1
(g105
g3
NtRp120
(dp121
g115
F-2.0896752748826035
sg116
S'OUTPUT'
p122
sg109
I2
sg118
F6.3131109111052366
sg119
S'tanh'
p123
sbag1
(g105
g3
NtRp124
(dp125
g115
F0.75452674762578775
sg116
S'HIDDEN'
p126
sg109
I3
sg118
F0.0049824057381852305
sg119
g123
sbag1
(g105
g3
NtRp127
(dp128
g115
F-1.3579975213297473
sg116
g126
sg109
I4
sg118
F8.7456976207528214
sg119
g123
sbag1
(g105
g3
NtRp129
(dp130
g115
F-0.46488130040688624
sg116
g126
sg109
I5
sg118
F3.4237297774978872
sg119
g123
sbag1
(g105
g3
NtRp131
(dp132
g115
F-1.6960905074614443
sg116
g126
sg109
I6
sg118
F3.5710101364431419
sg119
g123
sbag1
(g105
g3
NtRp133
(dp134
g115
F1.0258497911405344
sg116
g126
sg109
I7
sg118
F2.1014517127238208
sg119
g123
sbag1
(g105
g3
NtRp135
(dp136
g115
F-0.88586265105756001
sg116
g126
sg109
I8
sg118
F6.9586846756085539
sg119
g123
sbag1
(g105
g3
NtRp137
(dp138
g115
F-0.2070638611942851
sg116
g126
sg109
I9
sg118
F5.5962801531461146
sg119
g123
sbag1
(g105
g3
NtRp139
(dp140
g115
F0.48339208300483577
sg116
g126
sg109
I10
sg118
F3.669041166142005
sg119
g123
sbag1
(g105
g3
NtRp141
(dp142
g115
F0.40927062696967909
sg116
g126
sg109
I11
sg118
F5.6027474607312016
sg119
g123
sbasb.