ccopy_reg
_reconstructor
p1
(cneat.chromosome
Chromosome
p2
c__builtin__
object
p3
NtRp4
(dp5
S'species_id'
p6
I34
sS'_connection_genes'
p7
(dp8
(I7
I3
tp9
g1
(cneat.genome
ConnectionGene
p10
g3
NtRp11
(dp12
S'_ConnectionGene__weight'
p13
F9.8561782092510697
sS'_ConnectionGene__in'
p14
I7
sS'_ConnectionGene__enabled'
p15
I01
sS'_ConnectionGene__out'
p16
I3
sS'_ConnectionGene__innov_number'
p17
I29
sbs(I1
I3
tp18
g1
(g10
g3
NtRp19
(dp20
g13
F-4.1837873294952921
sg14
I1
sg15
I01
sg16
I3
sg17
I3
sbs(I4
I8
tp21
g1
(g10
g3
NtRp22
(dp23
g13
F-10.165075309466909
sg14
I4
sg15
I01
sg16
I8
sg17
I35
sbs(I5
I6
tp24
g1
(g10
g3
NtRp25
(dp26
g13
F-11.720120387804517
sg14
I5
sg15
I01
sg16
I6
sg17
I16
sbs(I3
I11
tp27
g1
(g10
g3
NtRp28
(dp29
g13
F-3.6395296745272168
sg14
I3
sg15
I01
sg16
I11
sg17
I91
sbs(I6
I2
tp30
g1
(g10
g3
NtRp31
(dp32
g13
F-20.775347567132851
sg14
I6
sg15
I01
sg16
I2
sg17
I17
sbs(I8
I5
tp33
g1
(g10
g3
NtRp34
(dp35
g13
F9.5561861655538909
sg14
I8
sg15
I00
sg16
I5
sg17
I36
sbs(I1
I2
tp36
g1
(g10
g3
NtRp37
(dp38
g13
F-7.71121830026512
sg14
I1
sg15
I01
sg16
I2
sg17
I1
sbs(I2
I9
tp39
g1
(g10
g3
NtRp40
(dp41
g13
F4.6562972890979779
sg14
I2
sg15
I01
sg16
I9
sg17
I51
sbs(I11
I5
tp42
g1
(g10
g3
NtRp43
(dp44
g13
F-3.5817892806671465
sg14
I11
sg15
I01
sg16
I5
sg17
I81
sbs(I2
I2
tp45
g1
(g10
g3
NtRp46
(dp47
g13
F-2.7900466937069268
sg14
I2
sg15
I01
sg16
I2
sg17
I2
sbs(I3
I2
tp48
g1
(g10
g3
NtRp49
(dp50
g13
F-18.49096461115024
sg14
I3
sg15
I01
sg16
I2
sg17
I4
sbs(I4
I5
tp51
g1
(g10
g3
NtRp52
(dp53
g13
F-9.7786587726860859
sg14
I4
sg15
I01
sg16
I5
sg17
I30
sbs(I8
I11
tp54
g1
(g10
g3
NtRp55
(dp56
g13
F24.996437367259002
sg14
I8
sg15
I01
sg16
I11
sg17
I80
sbs(I9
I3
tp57
g1
(g10
g3
NtRp58
(dp59
g13
F17.887819559099423
sg14
I9
sg15
I01
sg16
I3
sg17
I42
sbs(I1
I4
tp60
g1
(g10
g3
NtRp61
(dp62
g13
F27.493599396322999
sg14
I1
sg15
I01
sg16
I4
sg17
I8
sbs(I7
I7
tp63
g1
(g10
g3
NtRp64
(dp65
g13
F18.126764667797453
sg14
I7
sg15
I01
sg16
I7
sg17
I47
sbs(I2
I3
tp66
g1
(g10
g3
NtRp67
(dp68
g13
F14.769270741119959
sg14
I2
sg15
I01
sg16
I3
sg17
I7
sbs(I4
I2
tp69
g1
(g10
g3
NtRp70
(dp71
g13
F-17.025880796791913
sg14
I4
sg15
I01
sg16
I2
sg17
I6
sbs(I2
I10
tp72
g1
(g10
g3
NtRp73
(dp74
g13
F-0.53737043449120958
sg14
I2
sg15
I01
sg16
I10
sg17
I57
sbs(I3
I5
tp75
g1
(g10
g3
NtRp76
(dp77
g13
F17.153072699311849
sg14
I3
sg15
I01
sg16
I5
sg17
I13
sbs(I2
I7
tp78
g1
(g10
g3
NtRp79
(dp80
g13
F14.675653992769428
sg14
I2
sg15
I01
sg16
I7
sg17
I34
sbs(I8
I3
tp81
g1
(g10
g3
NtRp82
(dp83
g13
F-7.4503721570256785
sg14
I8
sg15
I01
sg16
I3
sg17
I71
sbs(I10
I10
tp84
g1
(g10
g3
NtRp85
(dp86
g13
F-9.4834060684613668
sg14
I10
sg15
I01
sg16
I10
sg17
I72
sbs(I3
I4
tp87
g1
(g10
g3
NtRp88
(dp89
g13
F8.6248988628592098
sg14
I3
sg15
I01
sg16
I4
sg17
I5
sbs(I5
I2
tp90
g1
(g10
g3
NtRp91
(dp92
g13
F18.094766054592405
sg14
I5
sg15
I00
sg16
I2
sg17
I11
sbs(I10
I2
tp93
g1
(g10
g3
NtRp94
(dp95
g13
F7.9280120508502545
sg14
I10
sg15
I01
sg16
I2
sg17
I65
sbssS'_input_nodes'
p96
I1
sS'_output_nodes'
p97
I1
sS'_node_gene_type'
p98
cneat.genome
NodeGene
p99
sS'_conn_gene_type'
p100
g10
sS'fitness'
p101
F0.99372827345375947
sS'parent2_id'
p102
I2934
sS'_id'
p103
I2951
sS'parent1_id'
p104
I2934
sS'_node_genes'
p105
(lp106
g1
(g99
g3
NtRp107
(dp108
S'_bias'
p109
I0
sS'_type'
p110
S'INPUT'
p111
sg103
I1
sS'_response'
p112
F4.9242730000000003
sS'_activation_type'
p113
Nsbag1
(g99
g3
NtRp114
(dp115
g109
F-3.0942267480024617
sg110
S'OUTPUT'
p116
sg103
I2
sg112
F5.7665327028350646
sg113
S'tanh'
p117
sbag1
(g99
g3
NtRp118
(dp119
g109
F1.0298777597746773
sg110
S'HIDDEN'
p120
sg103
I3
sg112
F1.1957925067701138
sg113
g117
sbag1
(g99
g3
NtRp121
(dp122
g109
F-1.8437649869396464
sg110
g120
sg103
I4
sg112
F8.5008164884479935
sg113
g117
sbag1
(g99
g3
NtRp123
(dp124
g109
F-0.33642259547089692
sg110
g120
sg103
I5
sg112
F3.3277763975335093
sg113
g117
sbag1
(g99
g3
NtRp125
(dp126
g109
F-2.3068191159503666
sg110
g120
sg103
I6
sg112
F3.2424301446665273
sg113
g117
sbag1
(g99
g3
NtRp127
(dp128
g109
F3.1371591461110309
sg110
g120
sg103
I7
sg112
F2.6274463514272588
sg113
g117
sbag1
(g99
g3
NtRp129
(dp130
g109
F-1.2405576189351062
sg110
g120
sg103
I8
sg112
F5.755263561438289
sg113
g117
sbag1
(g99
g3
NtRp131
(dp132
g109
F-0.45528978098437867
sg110
g120
sg103
I9
sg112
F5.3351350408196252
sg113
g117
sbag1
(g99
g3
NtRp133
(dp134
g109
F-0.91388280097833563
sg110
g120
sg103
I10
sg112
F3.9915900733995615
sg113
g117
sbag1
(g99
g3
NtRp135
(dp136
g109
F-0.68635709131206957
sg110
g120
sg103
I11
sg112
F6.3821113163105609
sg113
g117
sbasb.