ccopy_reg
_reconstructor
p1
(cneat.chromosome
Chromosome
p2
c__builtin__
object
p3
NtRp4
(dp5
S'species_id'
p6
I16
sS'_connection_genes'
p7
(dp8
(I1
I2
tp9
g1
(cneat.genome
ConnectionGene
p10
g3
NtRp11
(dp12
S'_ConnectionGene__weight'
p13
F7.0258756245518468
sS'_ConnectionGene__in'
p14
I1
sS'_ConnectionGene__enabled'
p15
I01
sS'_ConnectionGene__out'
p16
I2
sS'_ConnectionGene__innov_number'
p17
I1
sbs(I3
I2
tp18
g1
(g10
g3
NtRp19
(dp20
g13
F11.456003767970152
sg14
I3
sg15
I00
sg16
I2
sg17
I4
sbs(I1
I3
tp21
g1
(g10
g3
NtRp22
(dp23
g13
F1.1200726938379275
sg14
I1
sg15
I01
sg16
I3
sg17
I3
sbs(I3
I3
tp24
g1
(g10
g3
NtRp25
(dp26
g13
F-0.092116696717298829
sg14
I3
sg15
I01
sg16
I3
sg17
I9
sbs(I5
I6
tp27
g1
(g10
g3
NtRp28
(dp29
g13
F-6.5250277653877315
sg14
I5
sg15
I01
sg16
I6
sg17
I16
sbs(I5
I2
tp30
g1
(g10
g3
NtRp31
(dp32
g13
F24.121993013790121
sg14
I5
sg15
I01
sg16
I2
sg17
I11
sbs(I1
I4
tp33
g1
(g10
g3
NtRp34
(dp35
g13
F1.6361123219077478
sg14
I1
sg15
I01
sg16
I4
sg17
I8
sbs(I2
I3
tp36
g1
(g10
g3
NtRp37
(dp38
g13
F1.8533967727085257
sg14
I2
sg15
I01
sg16
I3
sg17
I7
sbs(I3
I6
tp39
g1
(g10
g3
NtRp40
(dp41
g13
F-2.8869801750987154
sg14
I3
sg15
I01
sg16
I6
sg17
I19
sbs(I4
I2
tp42
g1
(g10
g3
NtRp43
(dp44
g13
F15.351333165679508
sg14
I4
sg15
I01
sg16
I2
sg17
I6
sbs(I3
I5
tp45
g1
(g10
g3
NtRp46
(dp47
g13
F0.88893382256894271
sg14
I3
sg15
I01
sg16
I5
sg17
I13
sbs(I3
I4
tp48
g1
(g10
g3
NtRp49
(dp50
g13
F8.1842290337516204
sg14
I3
sg15
I01
sg16
I4
sg17
I5
sbs(I2
I4
tp51
g1
(g10
g3
NtRp52
(dp53
g13
F-0.99112836475790078
sg14
I2
sg15
I01
sg16
I4
sg17
I24
sbs(I6
I5
tp54
g1
(g10
g3
NtRp55
(dp56
g13
F9.4483466936443463
sg14
I6
sg15
I01
sg16
I5
sg17
I23
sbs(I5
I3
tp57
g1
(g10
g3
NtRp58
(dp59
g13
F7.7939916736936175
sg14
I5
sg15
I01
sg16
I3
sg17
I14
sbssS'_input_nodes'
p60
I1
sS'_output_nodes'
p61
I1
sS'_node_gene_type'
p62
cneat.genome
NodeGene
p63
sS'_conn_gene_type'
p64
g10
sS'fitness'
p65
F0.97124074551870043
sS'parent2_id'
p66
I1139
sS'_id'
p67
I1188
sS'parent1_id'
p68
I1157
sS'_node_genes'
p69
(lp70
g1
(g63
g3
NtRp71
(dp72
S'_bias'
p73
I0
sS'_type'
p74
S'INPUT'
p75
sg67
I1
sS'_response'
p76
F4.9242730000000003
sS'_activation_type'
p77
Nsbag1
(g63
g3
NtRp78
(dp79
g73
F-0.32803419270610884
sg74
S'OUTPUT'
p80
sg67
I2
sg76
F4.935794619059708
sg77
S'tanh'
p81
sbag1
(g63
g3
NtRp82
(dp83
g73
F1.5425425810647555
sg74
S'HIDDEN'
p84
sg67
I3
sg76
F2.8306568857545673
sg77
g81
sbag1
(g63
g3
NtRp85
(dp86
g73
F-1.5236145826702181
sg74
g84
sg67
I4
sg76
F4.9828783456970811
sg77
g81
sbag1
(g63
g3
NtRp87
(dp88
g73
F1.5283454737065354
sg74
g84
sg67
I5
sg76
F3.5327158920915824
sg77
g81
sbag1
(g63
g3
NtRp89
(dp90
g73
F-2.094388399994894
sg74
g84
sg67
I6
sg76
F5.3223637028356183
sg77
g81
sbasb.