ccopy_reg
_reconstructor
p1
(cneat.chromosome
Chromosome
p2
c__builtin__
object
p3
NtRp4
(dp5
S'species_id'
p6
I35
sS'_connection_genes'
p7
(dp8
(I1
I3
tp9
g1
(cneat.genome
ConnectionGene
p10
g3
NtRp11
(dp12
S'_ConnectionGene__weight'
p13
F24.772100464927725
sS'_ConnectionGene__in'
p14
I1
sS'_ConnectionGene__enabled'
p15
I01
sS'_ConnectionGene__out'
p16
I3
sS'_ConnectionGene__innov_number'
p17
I3
sbs(I6
I6
tp18
g1
(g10
g3
NtRp19
(dp20
g13
F12.352191349113514
sg14
I6
sg15
I01
sg16
I6
sg17
I39
sbs(I5
I6
tp21
g1
(g10
g3
NtRp22
(dp23
g13
F-18.404719495471479
sg14
I5
sg15
I01
sg16
I6
sg17
I16
sbs(I7
I2
tp24
g1
(g10
g3
NtRp25
(dp26
g13
F13.085805266926551
sg14
I7
sg15
I01
sg16
I2
sg17
I33
sbs(I1
I2
tp27
g1
(g10
g3
NtRp28
(dp29
g13
F10.159301218063025
sg14
I1
sg15
I01
sg16
I2
sg17
I1
sbs(I3
I3
tp30
g1
(g10
g3
NtRp31
(dp32
g13
F4.5486126847386155
sg14
I3
sg15
I01
sg16
I3
sg17
I9
sbs(I4
I4
tp33
g1
(g10
g3
NtRp34
(dp35
g13
F12.563632005843601
sg14
I4
sg15
I01
sg16
I4
sg17
I15
sbs(I1
I5
tp36
g1
(g10
g3
NtRp37
(dp38
g13
F-4.1792787094674901
sg14
I1
sg15
I01
sg16
I5
sg17
I10
sbs(I3
I6
tp39
g1
(g10
g3
NtRp40
(dp41
g13
F-7.8300885943783776
sg14
I3
sg15
I01
sg16
I6
sg17
I19
sbs(I2
I2
tp42
g1
(g10
g3
NtRp43
(dp44
g13
F7.9593936520689601
sg14
I2
sg15
I01
sg16
I2
sg17
I2
sbs(I3
I5
tp45
g1
(g10
g3
NtRp46
(dp47
g13
F4.5299906695779519
sg14
I3
sg15
I01
sg16
I5
sg17
I13
sbs(I3
I2
tp48
g1
(g10
g3
NtRp49
(dp50
g13
F21.442685539989593
sg14
I3
sg15
I00
sg16
I2
sg17
I4
sbs(I4
I5
tp51
g1
(g10
g3
NtRp52
(dp53
g13
F4.4587095913867474
sg14
I4
sg15
I01
sg16
I5
sg17
I30
sbs(I1
I4
tp54
g1
(g10
g3
NtRp55
(dp56
g13
F11.599713282925064
sg14
I1
sg15
I01
sg16
I4
sg17
I8
sbs(I2
I3
tp57
g1
(g10
g3
NtRp58
(dp59
g13
F-18.043328315946606
sg14
I2
sg15
I01
sg16
I3
sg17
I7
sbs(I4
I2
tp60
g1
(g10
g3
NtRp61
(dp62
g13
F-6.7777996155382016
sg14
I4
sg15
I01
sg16
I2
sg17
I6
sbs(I6
I5
tp63
g1
(g10
g3
NtRp64
(dp65
g13
F20.784095869104007
sg14
I6
sg15
I01
sg16
I5
sg17
I23
sbs(I5
I3
tp66
g1
(g10
g3
NtRp67
(dp68
g13
F29.142307792747992
sg14
I5
sg15
I01
sg16
I3
sg17
I14
sbs(I5
I2
tp69
g1
(g10
g3
NtRp70
(dp71
g13
F28.050919502937337
sg14
I5
sg15
I00
sg16
I2
sg17
I11
sbs(I5
I7
tp72
g1
(g10
g3
NtRp73
(dp74
g13
F2.3214612762601035
sg14
I5
sg15
I01
sg16
I7
sg17
I28
sbs(I3
I8
tp75
g1
(g10
g3
NtRp76
(dp77
g13
F1.3636278077937609
sg14
I3
sg15
I01
sg16
I8
sg17
I49
sbs(I3
I4
tp78
g1
(g10
g3
NtRp79
(dp80
g13
F-0.64851362193216566
sg14
I3
sg15
I00
sg16
I4
sg17
I5
sbs(I2
I4
tp81
g1
(g10
g3
NtRp82
(dp83
g13
F13.426963799770668
sg14
I2
sg15
I01
sg16
I4
sg17
I24
sbs(I8
I4
tp84
g1
(g10
g3
NtRp85
(dp86
g13
F-3.80084794847214
sg14
I8
sg15
I01
sg16
I4
sg17
I40
sbssS'_input_nodes'
p87
I1
sS'_output_nodes'
p88
I1
sS'_node_gene_type'
p89
cneat.genome
NodeGene
p90
sS'_conn_gene_type'
p91
g10
sS'fitness'
p92
F0.97140677548413212
sS'parent2_id'
p93
I3338
sS'_id'
p94
I3353
sS'parent1_id'
p95
I3338
sS'_node_genes'
p96
(lp97
g1
(g90
g3
NtRp98
(dp99
S'_bias'
p100
I0
sS'_type'
p101
S'INPUT'
p102
sg94
I1
sS'_response'
p103
F4.9242730000000003
sS'_activation_type'
p104
Nsbag1
(g90
g3
NtRp105
(dp106
g100
F-0.96375217749997044
sg101
S'OUTPUT'
p107
sg94
I2
sg103
F3.7696596054190592
sg104
S'tanh'
p108
sbag1
(g90
g3
NtRp109
(dp110
g100
F-0.14368105087525607
sg101
S'HIDDEN'
p111
sg94
I3
sg103
F1.4780246676051896
sg104
g108
sbag1
(g90
g3
NtRp112
(dp113
g100
F0.16708108677412298
sg101
g111
sg94
I4
sg103
F3.9829886516058282
sg104
g108
sbag1
(g90
g3
NtRp114
(dp115
g100
F1.9809881690412752
sg101
g111
sg94
I5
sg103
F4.4475300997382492
sg104
g108
sbag1
(g90
g3
NtRp116
(dp117
g100
F-2.2146547982497555
sg101
g111
sg94
I6
sg103
F3.8549668919466447
sg104
g108
sbag1
(g90
g3
NtRp118
(dp119
g100
F-1.5114787908266931
sg101
g111
sg94
I7
sg103
F5.2138383396140755
sg104
g108
sbag1
(g90
g3
NtRp120
(dp121
g100
I0
sg101
g111
sg94
I8
sg103
F4.9242730000000003
sg104
g108
sbasb.