ccopy_reg
_reconstructor
p1
(cneat.chromosome
Chromosome
p2
c__builtin__
object
p3
NtRp4
(dp5
S'species_id'
p6
I74
sS'_connection_genes'
p7
(dp8
(I1
I3
tp9
g1
(cneat.genome
ConnectionGene
p10
g3
NtRp11
(dp12
S'_ConnectionGene__weight'
p13
F29.653817438140351
sS'_ConnectionGene__in'
p14
I1
sS'_ConnectionGene__enabled'
p15
I00
sS'_ConnectionGene__out'
p16
I3
sS'_ConnectionGene__innov_number'
p17
I3
sbs(I6
I6
tp18
g1
(g10
g3
NtRp19
(dp20
g13
F22.245436956427547
sg14
I6
sg15
I01
sg16
I6
sg17
I39
sbs(I5
I6
tp21
g1
(g10
g3
NtRp22
(dp23
g13
F4.8935375275853659
sg14
I5
sg15
I01
sg16
I6
sg17
I16
sbs(I14
I4
tp24
g1
(g10
g3
NtRp25
(dp26
g13
F-17.227269785337274
sg14
I14
sg15
I01
sg16
I4
sg17
I159
sbs(I9
I8
tp27
g1
(g10
g3
NtRp28
(dp29
g13
F-18.526669545571014
sg14
I9
sg15
I01
sg16
I8
sg17
I60
sbs(I18
I4
tp30
g1
(g10
g3
NtRp31
(dp32
g13
F-2.329927874310493
sg14
I18
sg15
I01
sg16
I4
sg17
I238
sbs(I1
I15
tp33
g1
(g10
g3
NtRp34
(dp35
g13
F-5.411099596527194
sg14
I1
sg15
I01
sg16
I15
sg17
I168
sbs(I4
I12
tp36
g1
(g10
g3
NtRp37
(dp38
g13
F30
sg14
I4
sg15
I01
sg16
I12
sg17
I102
sbs(I9
I4
tp39
g1
(g10
g3
NtRp40
(dp41
g13
F9.6632396079354859
sg14
I9
sg15
I01
sg16
I4
sg17
I77
sbs(I7
I2
tp42
g1
(g10
g3
NtRp43
(dp44
g13
F-22.782941260618045
sg14
I7
sg15
I01
sg16
I2
sg17
I33
sbs(I1
I2
tp45
g1
(g10
g3
NtRp46
(dp47
g13
F12.918150094913356
sg14
I1
sg15
I01
sg16
I2
sg17
I1
sbs(I4
I9
tp48
g1
(g10
g3
NtRp49
(dp50
g13
F-5.3905225498285416
sg14
I4
sg15
I01
sg16
I9
sg17
I44
sbs(I3
I3
tp51
g1
(g10
g3
NtRp52
(dp53
g13
F18.627371688661292
sg14
I3
sg15
I01
sg16
I3
sg17
I9
sbs(I4
I4
tp54
g1
(g10
g3
NtRp55
(dp56
g13
F20.151935122791322
sg14
I4
sg15
I00
sg16
I4
sg17
I15
sbs(I4
I13
tp57
g1
(g10
g3
NtRp58
(dp59
g13
F-6.5318849221380635
sg14
I4
sg15
I01
sg16
I13
sg17
I119
sbs(I1
I5
tp60
g1
(g10
g3
NtRp61
(dp62
g13
F22.232888732228982
sg14
I1
sg15
I01
sg16
I5
sg17
I10
sbs(I6
I5
tp63
g1
(g10
g3
NtRp64
(dp65
g13
F28.13558210873251
sg14
I6
sg15
I01
sg16
I5
sg17
I23
sbs(I3
I6
tp66
g1
(g10
g3
NtRp67
(dp68
g13
F-12.55646142754528
sg14
I3
sg15
I01
sg16
I6
sg17
I19
sbs(I2
I2
tp69
g1
(g10
g3
NtRp70
(dp71
g13
F15.201283648533757
sg14
I2
sg15
I01
sg16
I2
sg17
I2
sbs(I5
I7
tp72
g1
(g10
g3
NtRp73
(dp74
g13
F7.7675678234493022
sg14
I5
sg15
I01
sg16
I7
sg17
I28
sbs(I5
I3
tp75
g1
(g10
g3
NtRp76
(dp77
g13
F-7.3190495283336663
sg14
I5
sg15
I01
sg16
I3
sg17
I14
sbs(I11
I2
tp78
g1
(g10
g3
NtRp79
(dp80
g13
F24.744508072927211
sg14
I11
sg15
I01
sg16
I2
sg17
I74
sbs(I4
I10
tp81
g1
(g10
g3
NtRp82
(dp83
g13
F2.698182308825146
sg14
I4
sg15
I01
sg16
I10
sg17
I63
sbs(I3
I2
tp84
g1
(g10
g3
NtRp85
(dp86
g13
F-3.6048694744092207
sg14
I3
sg15
I01
sg16
I2
sg17
I4
sbs(I17
I6
tp87
g1
(g10
g3
NtRp88
(dp89
g13
F30
sg14
I17
sg15
I01
sg16
I6
sg17
I188
sbs(I10
I4
tp90
g1
(g10
g3
NtRp91
(dp92
g13
F-23.244250821283305
sg14
I10
sg15
I01
sg16
I4
sg17
I90
sbs(I16
I4
tp93
g1
(g10
g3
NtRp94
(dp95
g13
F18.961467607892796
sg14
I16
sg15
I01
sg16
I4
sg17
I175
sbs(I4
I5
tp96
g1
(g10
g3
NtRp97
(dp98
g13
F-26.522834888518723
sg14
I4
sg15
I01
sg16
I5
sg17
I30
sbs(I15
I3
tp99
g1
(g10
g3
NtRp100
(dp101
g13
F5.71029835355138
sg14
I15
sg15
I01
sg16
I3
sg17
I169
sbs(I5
I17
tp102
g1
(g10
g3
NtRp103
(dp104
g13
F-19.50006234112006
sg14
I5
sg15
I01
sg16
I17
sg17
I187
sbs(I1
I4
tp105
g1
(g10
g3
NtRp106
(dp107
g13
F8.5480198244058787
sg14
I1
sg15
I01
sg16
I4
sg17
I8
sbs(I2
I10
tp108
g1
(g10
g3
NtRp109
(dp110
g13
F-17.511413451262307
sg14
I2
sg15
I01
sg16
I10
sg17
I57
sbs(I12
I18
tp111
g1
(g10
g3
NtRp112
(dp113
g13
F-11.299155785478343
sg14
I12
sg15
I01
sg16
I18
sg17
I189
sbs(I2
I3
tp114
g1
(g10
g3
NtRp115
(dp116
g13
F-3.3863724252644696
sg14
I2
sg15
I01
sg16
I3
sg17
I7
sbs(I12
I11
tp117
g1
(g10
g3
NtRp118
(dp119
g13
F17.708623266646647
sg14
I12
sg15
I00
sg16
I11
sg17
I84
sbs(I4
I2
tp120
g1
(g10
g3
NtRp121
(dp122
g13
F12.983235411175116
sg14
I4
sg15
I01
sg16
I2
sg17
I6
sbs(I2
I14
tp123
g1
(g10
g3
NtRp124
(dp125
g13
F-10.226803010481737
sg14
I2
sg15
I01
sg16
I14
sg17
I142
sbs(I4
I11
tp126
g1
(g10
g3
NtRp127
(dp128
g13
F8.0220679366867422
sg14
I4
sg15
I00
sg16
I11
sg17
I75
sbs(I7
I9
tp129
g1
(g10
g3
NtRp130
(dp131
g13
F4.355623711218759
sg14
I7
sg15
I01
sg16
I9
sg17
I41
sbs(I3
I5
tp132
g1
(g10
g3
NtRp133
(dp134
g13
F12.051313861907484
sg14
I3
sg15
I01
sg16
I5
sg17
I13
sbs(I8
I3
tp135
g1
(g10
g3
NtRp136
(dp137
g13
F3.3866122300296357
sg14
I8
sg15
I01
sg16
I3
sg17
I71
sbs(I14
I16
tp138
g1
(g10
g3
NtRp139
(dp140
g13
F4.5365073577775838
sg14
I14
sg15
I01
sg16
I16
sg17
I174
sbs(I18
I11
tp141
g1
(g10
g3
NtRp142
(dp143
g13
F-0.49987748958108524
sg14
I18
sg15
I01
sg16
I11
sg17
I190
sbs(I7
I13
tp144
g1
(g10
g3
NtRp145
(dp146
g13
F4.0402385100412124
sg14
I7
sg15
I01
sg16
I13
sg17
I136
sbs(I5
I2
tp147
g1
(g10
g3
NtRp148
(dp149
g13
F27.860371387499548
sg14
I5
sg15
I01
sg16
I2
sg17
I11
sbs(I3
I8
tp150
g1
(g10
g3
NtRp151
(dp152
g13
F19.822975873502795
sg14
I3
sg15
I01
sg16
I8
sg17
I49
sbs(I6
I2
tp153
g1
(g10
g3
NtRp154
(dp155
g13
F4.1898116283009976
sg14
I6
sg15
I01
sg16
I2
sg17
I17
sbs(I4
I3
tp156
g1
(g10
g3
NtRp157
(dp158
g13
F-13.326147793559693
sg14
I4
sg15
I01
sg16
I3
sg17
I12
sbs(I13
I9
tp159
g1
(g10
g3
NtRp160
(dp161
g13
F11.328223273284832
sg14
I13
sg15
I01
sg16
I9
sg17
I137
sbs(I3
I4
tp162
g1
(g10
g3
NtRp163
(dp164
g13
F-26.922216085006411
sg14
I3
sg15
I01
sg16
I4
sg17
I5
sbs(I2
I4
tp165
g1
(g10
g3
NtRp166
(dp167
g13
F0.029535899763568407
sg14
I2
sg15
I00
sg16
I4
sg17
I24
sbs(I8
I4
tp168
g1
(g10
g3
NtRp169
(dp170
g13
F-27.977325835004031
sg14
I8
sg15
I01
sg16
I4
sg17
I40
sbssS'_input_nodes'
p171
I1
sS'_output_nodes'
p172
I1
sS'_node_gene_type'
p173
cneat.genome
NodeGene
p174
sS'_conn_gene_type'
p175
g10
sS'fitness'
p176
F0.91536438564887357
sS'parent2_id'
p177
I7886
sS'_id'
p178
I7901
sS'parent1_id'
p179
I7886
sS'_node_genes'
p180
(lp181
g1
(g174
g3
NtRp182
(dp183
S'_bias'
p184
I0
sS'_type'
p185
S'INPUT'
p186
sg178
I1
sS'_response'
p187
F4.9242730000000003
sS'_activation_type'
p188
Nsbag1
(g174
g3
NtRp189
(dp190
g184
F-4.3469936287987379
sg185
S'OUTPUT'
p191
sg178
I2
sg187
F5.72770436982682
sg188
S'tanh'
p192
sbag1
(g174
g3
NtRp193
(dp194
g184
F-7.5557682215244339
sg185
S'HIDDEN'
p195
sg178
I3
sg187
F0.46210150497703439
sg188
g192
sbag1
(g174
g3
NtRp196
(dp197
g184
F-3.4106729711537365
sg185
g195
sg178
I4
sg187
F2.6163038282516506
sg188
g192
sbag1
(g174
g3
NtRp198
(dp199
g184
F0.11426811485063193
sg185
g195
sg178
I5
sg187
F5.3422485757939846
sg188
g192
sbag1
(g174
g3
NtRp200
(dp201
g184
F0.12918404563313399
sg185
g195
sg178
I6
sg187
F0.75865161123861735
sg188
g192
sbag1
(g174
g3
NtRp202
(dp203
g184
F-1.4276001158084515
sg185
g195
sg178
I7
sg187
F2.2962163800790343
sg188
g192
sbag1
(g174
g3
NtRp204
(dp205
g184
F-3.1191906173759372
sg185
g195
sg178
I8
sg187
F6.2042605523307595
sg188
g192
sbag1
(g174
g3
NtRp206
(dp207
g184
F-1.3392169685578454
sg185
g195
sg178
I9
sg187
F2.5199292857721765
sg188
g192
sbag1
(g174
g3
NtRp208
(dp209
g184
F-3.6849645232760579
sg185
g195
sg178
I10
sg187
F1.7385696045433225
sg188
g192
sbag1
(g174
g3
NtRp210
(dp211
g184
F-1.1485478646604357
sg185
g195
sg178
I11
sg187
F8.1398751520742838
sg188
g192
sbag1
(g174
g3
NtRp212
(dp213
g184
F-1.1588462595441598
sg185
g195
sg178
I12
sg187
F7.2260971397153906
sg188
g192
sbag1
(g174
g3
NtRp214
(dp215
g184
F1.805948056173575
sg185
g195
sg178
I13
sg187
F2.9633623267667524
sg188
g192
sbag1
(g174
g3
NtRp216
(dp217
g184
F0.66455880500199216
sg185
g195
sg178
I14
sg187
F3.782441718429034
sg188
g192
sbag1
(g174
g3
NtRp218
(dp219
g184
F0.24398092891028755
sg185
g195
sg178
I15
sg187
F7.683210243034087
sg188
g192
sbag1
(g174
g3
NtRp220
(dp221
g184
F0.45044055789904397
sg185
g195
sg178
I16
sg187
F3.7913075581091742
sg188
g192
sbag1
(g174
g3
NtRp222
(dp223
g184
F-2.8401296406314662
sg185
g195
sg178
I17
sg187
F7.07562534328809
sg188
g192
sbag1
(g174
g3
NtRp224
(dp225
g184
F0.50838976699656246
sg185
g195
sg178
I18
sg187
F8.2917212620556136
sg188
g192
sbasb.