ccopy_reg
_reconstructor
p1
(cneat.chromosome
Chromosome
p2
c__builtin__
object
p3
NtRp4
(dp5
S'species_id'
p6
I67
sS'_connection_genes'
p7
(dp8
(I1
I3
tp9
g1
(cneat.genome
ConnectionGene
p10
g3
NtRp11
(dp12
S'_ConnectionGene__weight'
p13
F18.421505464919885
sS'_ConnectionGene__in'
p14
I1
sS'_ConnectionGene__enabled'
p15
I01
sS'_ConnectionGene__out'
p16
I3
sS'_ConnectionGene__innov_number'
p17
I3
sbs(I11
I11
tp18
g1
(g10
g3
NtRp19
(dp20
g13
F-4.5304099308898307
sg14
I11
sg15
I01
sg16
I11
sg17
I122
sbs(I6
I6
tp21
g1
(g10
g3
NtRp22
(dp23
g13
F5.3621227443678343
sg14
I6
sg15
I01
sg16
I6
sg17
I39
sbs(I5
I6
tp24
g1
(g10
g3
NtRp25
(dp26
g13
F26.067744774051619
sg14
I5
sg15
I01
sg16
I6
sg17
I16
sbs(I9
I8
tp27
g1
(g10
g3
NtRp28
(dp29
g13
F-27.370569284641807
sg14
I9
sg15
I01
sg16
I8
sg17
I60
sbs(I10
I6
tp30
g1
(g10
g3
NtRp31
(dp32
g13
F-0.7565434562837805
sg14
I10
sg15
I01
sg16
I6
sg17
I103
sbs(I9
I4
tp33
g1
(g10
g3
NtRp34
(dp35
g13
F29.704215538182535
sg14
I9
sg15
I01
sg16
I4
sg17
I77
sbs(I7
I2
tp36
g1
(g10
g3
NtRp37
(dp38
g13
F-7.3245696694580413
sg14
I7
sg15
I01
sg16
I2
sg17
I33
sbs(I1
I2
tp39
g1
(g10
g3
NtRp40
(dp41
g13
F30
sg14
I1
sg15
I01
sg16
I2
sg17
I1
sbs(I11
I10
tp42
g1
(g10
g3
NtRp43
(dp44
g13
F-0.71278918316915685
sg14
I11
sg15
I01
sg16
I10
sg17
I89
sbs(I4
I9
tp45
g1
(g10
g3
NtRp46
(dp47
g13
F12.45903595005872
sg14
I4
sg15
I01
sg16
I9
sg17
I44
sbs(I3
I3
tp48
g1
(g10
g3
NtRp49
(dp50
g13
F23.249580102623732
sg14
I3
sg15
I01
sg16
I3
sg17
I9
sbs(I3
I10
tp51
g1
(g10
g3
NtRp52
(dp53
g13
F-4.5530116458969161
sg14
I3
sg15
I01
sg16
I10
sg17
I94
sbs(I4
I4
tp54
g1
(g10
g3
NtRp55
(dp56
g13
F30
sg14
I4
sg15
I01
sg16
I4
sg17
I15
sbs(I1
I5
tp57
g1
(g10
g3
NtRp58
(dp59
g13
F4.103319802482793
sg14
I1
sg15
I01
sg16
I5
sg17
I10
sbs(I9
I11
tp60
g1
(g10
g3
NtRp61
(dp62
g13
F-14.765470345129641
sg14
I9
sg15
I01
sg16
I11
sg17
I106
sbs(I3
I6
tp63
g1
(g10
g3
NtRp64
(dp65
g13
F-3.4599931694939556
sg14
I3
sg15
I01
sg16
I6
sg17
I19
sbs(I2
I2
tp66
g1
(g10
g3
NtRp67
(dp68
g13
F18.158038400814185
sg14
I2
sg15
I01
sg16
I2
sg17
I2
sbs(I5
I3
tp69
g1
(g10
g3
NtRp70
(dp71
g13
F5.1940970653299674
sg14
I5
sg15
I01
sg16
I3
sg17
I14
sbs(I10
I9
tp72
g1
(g10
g3
NtRp73
(dp74
g13
F6.3506841318182659
sg14
I10
sg15
I01
sg16
I9
sg17
I58
sbs(I9
I7
tp75
g1
(g10
g3
NtRp76
(dp77
g13
F11.701028842288613
sg14
I9
sg15
I01
sg16
I7
sg17
I53
sbs(I3
I2
tp78
g1
(g10
g3
NtRp79
(dp80
g13
F-1.2125519654162051
sg14
I3
sg15
I01
sg16
I2
sg17
I4
sbs(I11
I4
tp81
g1
(g10
g3
NtRp82
(dp83
g13
F28.466296620228281
sg14
I11
sg15
I01
sg16
I4
sg17
I101
sbs(I10
I4
tp84
g1
(g10
g3
NtRp85
(dp86
g13
F3.3438411927916363
sg14
I10
sg15
I01
sg16
I4
sg17
I90
sbs(I4
I5
tp87
g1
(g10
g3
NtRp88
(dp89
g13
F-16.112836636414961
sg14
I4
sg15
I01
sg16
I5
sg17
I30
sbs(I8
I11
tp90
g1
(g10
g3
NtRp91
(dp92
g13
F-11.584247138055863
sg14
I8
sg15
I01
sg16
I11
sg17
I80
sbs(I1
I4
tp93
g1
(g10
g3
NtRp94
(dp95
g13
F-2.9406762423538715
sg14
I1
sg15
I01
sg16
I4
sg17
I8
sbs(I2
I3
tp96
g1
(g10
g3
NtRp97
(dp98
g13
F-26.130247184904395
sg14
I2
sg15
I01
sg16
I3
sg17
I7
sbs(I4
I2
tp99
g1
(g10
g3
NtRp100
(dp101
g13
F9.6440210600533476
sg14
I4
sg15
I01
sg16
I2
sg17
I6
sbs(I6
I5
tp102
g1
(g10
g3
NtRp103
(dp104
g13
F-11.306729881940052
sg14
I6
sg15
I01
sg16
I5
sg17
I23
sbs(I7
I9
tp105
g1
(g10
g3
NtRp106
(dp107
g13
F27.092115669879323
sg14
I7
sg15
I01
sg16
I9
sg17
I41
sbs(I3
I5
tp108
g1
(g10
g3
NtRp109
(dp110
g13
F0.97030872377030075
sg14
I3
sg15
I01
sg16
I5
sg17
I13
sbs(I8
I3
tp111
g1
(g10
g3
NtRp112
(dp113
g13
F24.718392360788172
sg14
I8
sg15
I01
sg16
I3
sg17
I71
sbs(I5
I2
tp114
g1
(g10
g3
NtRp115
(dp116
g13
F29.968615356101225
sg14
I5
sg15
I01
sg16
I2
sg17
I11
sbs(I5
I7
tp117
g1
(g10
g3
NtRp118
(dp119
g13
F-7.9993490486185186
sg14
I5
sg15
I01
sg16
I7
sg17
I28
sbs(I3
I8
tp120
g1
(g10
g3
NtRp121
(dp122
g13
F8.7240776023856288
sg14
I3
sg15
I01
sg16
I8
sg17
I49
sbs(I4
I3
tp123
g1
(g10
g3
NtRp124
(dp125
g13
F2.7401469570639856
sg14
I4
sg15
I01
sg16
I3
sg17
I12
sbs(I3
I4
tp126
g1
(g10
g3
NtRp127
(dp128
g13
F14.988398485759046
sg14
I3
sg15
I00
sg16
I4
sg17
I5
sbs(I2
I4
tp129
g1
(g10
g3
NtRp130
(dp131
g13
F26.073103847876936
sg14
I2
sg15
I01
sg16
I4
sg17
I24
sbs(I8
I4
tp132
g1
(g10
g3
NtRp133
(dp134
g13
F-13.77364250071586
sg14
I8
sg15
I01
sg16
I4
sg17
I40
sbssS'_input_nodes'
p135
I1
sS'_output_nodes'
p136
I1
sS'_node_gene_type'
p137
cneat.genome
NodeGene
p138
sS'_conn_gene_type'
p139
g10
sS'fitness'
p140
F0.9108278679531131
sS'parent2_id'
p141
I6833
sS'_id'
p142
I6852
sS'parent1_id'
p143
I6833
sS'_node_genes'
p144
(lp145
g1
(g138
g3
NtRp146
(dp147
S'_bias'
p148
I0
sS'_type'
p149
S'INPUT'
p150
sg142
I1
sS'_response'
p151
F4.9242730000000003
sS'_activation_type'
p152
Nsbag1
(g138
g3
NtRp153
(dp154
g148
F-6.2026031226550069
sg149
S'OUTPUT'
p155
sg142
I2
sg151
F4.440212253795492
sg152
S'tanh'
p156
sbag1
(g138
g3
NtRp157
(dp158
g148
F-2.7919264107628949
sg149
S'HIDDEN'
p159
sg142
I3
sg151
F4.0951431815292869
sg152
g156
sbag1
(g138
g3
NtRp160
(dp161
g148
F5.9685765578061831
sg149
g159
sg142
I4
sg151
F2.5206784748407003
sg152
g156
sbag1
(g138
g3
NtRp162
(dp163
g148
F5.1321155435409835
sg149
g159
sg142
I5
sg151
F12.355709245269093
sg152
g156
sbag1
(g138
g3
NtRp164
(dp165
g148
F-0.40259265881160566
sg149
g159
sg142
I6
sg151
F1.1087803275907213
sg152
g156
sbag1
(g138
g3
NtRp166
(dp167
g148
F-2.7287830063296625
sg149
g159
sg142
I7
sg151
F4.2041454548526715
sg152
g156
sbag1
(g138
g3
NtRp168
(dp169
g148
F-3.3972018254518637
sg149
g159
sg142
I8
sg151
F7.9504477872971133
sg152
g156
sbag1
(g138
g3
NtRp170
(dp171
g148
F0.80958600556741145
sg149
g159
sg142
I9
sg151
F5.0681642195726715
sg152
g156
sbag1
(g138
g3
NtRp172
(dp173
g148
F0.44746919847361943
sg149
g159
sg142
I10
sg151
F4.6402161363568544
sg152
g156
sbag1
(g138
g3
NtRp174
(dp175
g148
F0.22044998856407755
sg149
g159
sg142
I11
sg151
F6.2361790578177079
sg152
g156
sbasb.