ccopy_reg
_reconstructor
p1
(cneat.chromosome
Chromosome
p2
c__builtin__
object
p3
NtRp4
(dp5
S'species_id'
p6
I43
sS'_connection_genes'
p7
(dp8
(I1
I3
tp9
g1
(cneat.genome
ConnectionGene
p10
g3
NtRp11
(dp12
S'_ConnectionGene__weight'
p13
F24.243732762553922
sS'_ConnectionGene__in'
p14
I1
sS'_ConnectionGene__enabled'
p15
I01
sS'_ConnectionGene__out'
p16
I3
sS'_ConnectionGene__innov_number'
p17
I3
sbs(I6
I6
tp18
g1
(g10
g3
NtRp19
(dp20
g13
F18.896755605183344
sg14
I6
sg15
I01
sg16
I6
sg17
I39
sbs(I5
I6
tp21
g1
(g10
g3
NtRp22
(dp23
g13
F-0.075449420064496397
sg14
I5
sg15
I01
sg16
I6
sg17
I16
sbs(I9
I8
tp24
g1
(g10
g3
NtRp25
(dp26
g13
F-5.5035802916855712
sg14
I9
sg15
I01
sg16
I8
sg17
I60
sbs(I4
I12
tp27
g1
(g10
g3
NtRp28
(dp29
g13
F2.4686666740083645
sg14
I4
sg15
I01
sg16
I12
sg17
I102
sbs(I9
I4
tp30
g1
(g10
g3
NtRp31
(dp32
g13
F19.31106460133033
sg14
I9
sg15
I01
sg16
I4
sg17
I77
sbs(I7
I2
tp33
g1
(g10
g3
NtRp34
(dp35
g13
F-9.2400571240551539
sg14
I7
sg15
I01
sg16
I2
sg17
I33
sbs(I1
I2
tp36
g1
(g10
g3
NtRp37
(dp38
g13
F9.9644308032034328
sg14
I1
sg15
I01
sg16
I2
sg17
I1
sbs(I4
I9
tp39
g1
(g10
g3
NtRp40
(dp41
g13
F2.2403749408141276
sg14
I4
sg15
I01
sg16
I9
sg17
I44
sbs(I3
I3
tp42
g1
(g10
g3
NtRp43
(dp44
g13
F29.974115732778792
sg14
I3
sg15
I01
sg16
I3
sg17
I9
sbs(I4
I4
tp45
g1
(g10
g3
NtRp46
(dp47
g13
F11.7885820701621
sg14
I4
sg15
I00
sg16
I4
sg17
I15
sbs(I1
I5
tp48
g1
(g10
g3
NtRp49
(dp50
g13
F-0.31072526669358691
sg14
I1
sg15
I01
sg16
I5
sg17
I10
sbs(I4
I11
tp51
g1
(g10
g3
NtRp52
(dp53
g13
F10.967787807335201
sg14
I4
sg15
I00
sg16
I11
sg17
I75
sbs(I3
I6
tp54
g1
(g10
g3
NtRp55
(dp56
g13
F-2.1736715421013155
sg14
I3
sg15
I01
sg16
I6
sg17
I19
sbs(I2
I2
tp57
g1
(g10
g3
NtRp58
(dp59
g13
F11.466142965349492
sg14
I2
sg15
I01
sg16
I2
sg17
I2
sbs(I7
I9
tp60
g1
(g10
g3
NtRp61
(dp62
g13
F6.3079396243323069
sg14
I7
sg15
I01
sg16
I9
sg17
I41
sbs(I11
I2
tp63
g1
(g10
g3
NtRp64
(dp65
g13
F21.734068640606438
sg14
I11
sg15
I01
sg16
I2
sg17
I74
sbs(I3
I2
tp66
g1
(g10
g3
NtRp67
(dp68
g13
F-4.6711721623884923
sg14
I3
sg15
I01
sg16
I2
sg17
I4
sbs(I10
I4
tp69
g1
(g10
g3
NtRp70
(dp71
g13
F-11.173127788180299
sg14
I10
sg15
I01
sg16
I4
sg17
I90
sbs(I4
I5
tp72
g1
(g10
g3
NtRp73
(dp74
g13
F-13.633831822691675
sg14
I4
sg15
I01
sg16
I5
sg17
I30
sbs(I7
I13
tp75
g1
(g10
g3
NtRp76
(dp77
g13
F2.1525389305799685
sg14
I7
sg15
I01
sg16
I13
sg17
I136
sbs(I1
I4
tp78
g1
(g10
g3
NtRp79
(dp80
g13
F30
sg14
I1
sg15
I01
sg16
I4
sg17
I8
sbs(I2
I10
tp81
g1
(g10
g3
NtRp82
(dp83
g13
F2.1184000224469113
sg14
I2
sg15
I01
sg16
I10
sg17
I57
sbs(I2
I3
tp84
g1
(g10
g3
NtRp85
(dp86
g13
F-13.747332485988471
sg14
I2
sg15
I01
sg16
I3
sg17
I7
sbs(I12
I11
tp87
g1
(g10
g3
NtRp88
(dp89
g13
F3.622350355876887
sg14
I12
sg15
I01
sg16
I11
sg17
I84
sbs(I4
I2
tp90
g1
(g10
g3
NtRp91
(dp92
g13
F26.047378973603198
sg14
I4
sg15
I00
sg16
I2
sg17
I6
sbs(I6
I5
tp93
g1
(g10
g3
NtRp94
(dp95
g13
F17.098682679047347
sg14
I6
sg15
I01
sg16
I5
sg17
I23
sbs(I5
I3
tp96
g1
(g10
g3
NtRp97
(dp98
g13
F0.089420907967641128
sg14
I5
sg15
I01
sg16
I3
sg17
I14
sbs(I3
I5
tp99
g1
(g10
g3
NtRp100
(dp101
g13
F20.178273039318164
sg14
I3
sg15
I01
sg16
I5
sg17
I13
sbs(I8
I3
tp102
g1
(g10
g3
NtRp103
(dp104
g13
F13.28814139038046
sg14
I8
sg15
I01
sg16
I3
sg17
I71
sbs(I3
I4
tp105
g1
(g10
g3
NtRp106
(dp107
g13
F-17.481092396560179
sg14
I3
sg15
I00
sg16
I4
sg17
I5
sbs(I5
I7
tp108
g1
(g10
g3
NtRp109
(dp110
g13
F0.16787701829099677
sg14
I5
sg15
I01
sg16
I7
sg17
I28
sbs(I3
I8
tp111
g1
(g10
g3
NtRp112
(dp113
g13
F9.8312688255344565
sg14
I3
sg15
I01
sg16
I8
sg17
I49
sbs(I4
I3
tp114
g1
(g10
g3
NtRp115
(dp116
g13
F-9.1487450494524047
sg14
I4
sg15
I01
sg16
I3
sg17
I12
sbs(I13
I9
tp117
g1
(g10
g3
NtRp118
(dp119
g13
F4.7839482166149168
sg14
I13
sg15
I01
sg16
I9
sg17
I137
sbs(I5
I2
tp120
g1
(g10
g3
NtRp121
(dp122
g13
F21.044163196420513
sg14
I5
sg15
I01
sg16
I2
sg17
I11
sbs(I2
I4
tp123
g1
(g10
g3
NtRp124
(dp125
g13
F-13.242630267796455
sg14
I2
sg15
I01
sg16
I4
sg17
I24
sbs(I8
I4
tp126
g1
(g10
g3
NtRp127
(dp128
g13
F-9.9460383830443408
sg14
I8
sg15
I01
sg16
I4
sg17
I40
sbssS'_input_nodes'
p129
I1
sS'_output_nodes'
p130
I1
sS'_node_gene_type'
p131
cneat.genome
NodeGene
p132
sS'_conn_gene_type'
p133
g10
sS'fitness'
p134
F0.94464445678416908
sS'parent2_id'
p135
I5225
sS'_id'
p136
I5243
sS'parent1_id'
p137
I5225
sS'_node_genes'
p138
(lp139
g1
(g132
g3
NtRp140
(dp141
S'_bias'
p142
I0
sS'_type'
p143
S'INPUT'
p144
sg136
I1
sS'_response'
p145
F4.9242730000000003
sS'_activation_type'
p146
Nsbag1
(g132
g3
NtRp147
(dp148
g142
F-1.8353006935345879
sg143
S'OUTPUT'
p149
sg136
I2
sg145
F4.6816133756139715
sg146
S'tanh'
p150
sbag1
(g132
g3
NtRp151
(dp152
g142
F-5.3228162081553938
sg143
S'HIDDEN'
p153
sg136
I3
sg145
F-0.24426802579072754
sg146
g150
sbag1
(g132
g3
NtRp154
(dp155
g142
F-0.40004364078382987
sg143
g153
sg136
I4
sg145
F3.1873418649938663
sg146
g150
sbag1
(g132
g3
NtRp156
(dp157
g142
F2.4612598643635852
sg143
g153
sg136
I5
sg145
F5.4935332041273064
sg146
g150
sbag1
(g132
g3
NtRp158
(dp159
g142
F-1.900779762859907
sg143
g153
sg136
I6
sg145
F1.4440339214372315
sg146
g150
sbag1
(g132
g3
NtRp160
(dp161
g142
F-2.243801566409187
sg143
g153
sg136
I7
sg145
F4.9347139742108803
sg146
g150
sbag1
(g132
g3
NtRp162
(dp163
g142
F-0.56960916886044577
sg143
g153
sg136
I8
sg145
F6.4183119625337985
sg146
g150
sbag1
(g132
g3
NtRp164
(dp165
g142
F1.7465119425198425
sg143
g153
sg136
I9
sg145
F5.5169130851893895
sg146
g150
sbag1
(g132
g3
NtRp166
(dp167
g142
F0.17306996118267304
sg143
g153
sg136
I10
sg145
F4.5050872770585002
sg146
g150
sbag1
(g132
g3
NtRp168
(dp169
g142
F0.3935093868754726
sg143
g153
sg136
I11
sg145
F6.4297719307757175
sg146
g150
sbag1
(g132
g3
NtRp170
(dp171
g142
F-2.0379273831480074
sg143
g153
sg136
I12
sg145
F6.0599139422603789
sg146
g150
sbag1
(g132
g3
NtRp172
(dp173
g142
F0.26393997978389516
sg143
g153
sg136
I13
sg145
F4.4861471885489097
sg146
g150
sbasb.