ccopy_reg
_reconstructor
p1
(cneat.chromosome
Chromosome
p2
c__builtin__
object
p3
NtRp4
(dp5
S'species_id'
p6
I76
sS'_connection_genes'
p7
(dp8
(I1
I3
tp9
g1
(cneat.genome
ConnectionGene
p10
g3
NtRp11
(dp12
S'_ConnectionGene__weight'
p13
F13.34617678326609
sS'_ConnectionGene__in'
p14
I1
sS'_ConnectionGene__enabled'
p15
I01
sS'_ConnectionGene__out'
p16
I3
sS'_ConnectionGene__innov_number'
p17
I3
sbs(I11
I11
tp18
g1
(g10
g3
NtRp19
(dp20
g13
F10.886730740717606
sg14
I11
sg15
I01
sg16
I11
sg17
I122
sbs(I6
I6
tp21
g1
(g10
g3
NtRp22
(dp23
g13
F17.363521944229038
sg14
I6
sg15
I01
sg16
I6
sg17
I39
sbs(I5
I6
tp24
g1
(g10
g3
NtRp25
(dp26
g13
F29.251297049598886
sg14
I5
sg15
I01
sg16
I6
sg17
I16
sbs(I9
I8
tp27
g1
(g10
g3
NtRp28
(dp29
g13
F-27.140589981305197
sg14
I9
sg15
I01
sg16
I8
sg17
I60
sbs(I10
I6
tp30
g1
(g10
g3
NtRp31
(dp32
g13
F-19.983810768815772
sg14
I10
sg15
I01
sg16
I6
sg17
I103
sbs(I14
I13
tp33
g1
(g10
g3
NtRp34
(dp35
g13
F-1.9435667375156325
sg14
I14
sg15
I01
sg16
I13
sg17
I252
sbs(I9
I4
tp36
g1
(g10
g3
NtRp37
(dp38
g13
F22.91626210759874
sg14
I9
sg15
I01
sg16
I4
sg17
I77
sbs(I3
I8
tp39
g1
(g10
g3
NtRp40
(dp41
g13
F7.0562643238076319
sg14
I3
sg15
I01
sg16
I8
sg17
I49
sbs(I11
I4
tp42
g1
(g10
g3
NtRp43
(dp44
g13
F24.699994367172188
sg14
I11
sg15
I01
sg16
I4
sg17
I101
sbs(I7
I2
tp45
g1
(g10
g3
NtRp46
(dp47
g13
F-11.258080884887026
sg14
I7
sg15
I01
sg16
I2
sg17
I33
sbs(I1
I2
tp48
g1
(g10
g3
NtRp49
(dp50
g13
F27.841254523591545
sg14
I1
sg15
I01
sg16
I2
sg17
I1
sbs(I6
I3
tp51
g1
(g10
g3
NtRp52
(dp53
g13
F4.1340331485217607
sg14
I6
sg15
I01
sg16
I3
sg17
I22
sbs(I11
I10
tp54
g1
(g10
g3
NtRp55
(dp56
g13
F-17.956405946133593
sg14
I11
sg15
I01
sg16
I10
sg17
I89
sbs(I4
I9
tp57
g1
(g10
g3
NtRp58
(dp59
g13
F19.793143690623349
sg14
I4
sg15
I01
sg16
I9
sg17
I44
sbs(I3
I3
tp60
g1
(g10
g3
NtRp61
(dp62
g13
F22.543941782263524
sg14
I3
sg15
I00
sg16
I3
sg17
I9
sbs(I3
I10
tp63
g1
(g10
g3
NtRp64
(dp65
g13
F-21.998643267127257
sg14
I3
sg15
I01
sg16
I10
sg17
I94
sbs(I4
I4
tp66
g1
(g10
g3
NtRp67
(dp68
g13
F26.278330749138828
sg14
I4
sg15
I01
sg16
I4
sg17
I15
sbs(I4
I13
tp69
g1
(g10
g3
NtRp70
(dp71
g13
F-1.9435667375156325
sg14
I4
sg15
I00
sg16
I13
sg17
I119
sbs(I1
I5
tp72
g1
(g10
g3
NtRp73
(dp74
g13
F20.496327050570549
sg14
I1
sg15
I01
sg16
I5
sg17
I10
sbs(I9
I11
tp75
g1
(g10
g3
NtRp76
(dp77
g13
F-14.459844626048199
sg14
I9
sg15
I01
sg16
I11
sg17
I106
sbs(I3
I6
tp78
g1
(g10
g3
NtRp79
(dp80
g13
F-17.044656790284712
sg14
I3
sg15
I01
sg16
I6
sg17
I19
sbs(I2
I2
tp81
g1
(g10
g3
NtRp82
(dp83
g13
F27.400116262376077
sg14
I2
sg15
I01
sg16
I2
sg17
I2
sbs(I7
I9
tp84
g1
(g10
g3
NtRp85
(dp86
g13
F23.643841761626213
sg14
I7
sg15
I01
sg16
I9
sg17
I41
sbs(I10
I9
tp87
g1
(g10
g3
NtRp88
(dp89
g13
F6.9181523982748923
sg14
I10
sg15
I01
sg16
I9
sg17
I58
sbs(I9
I7
tp90
g1
(g10
g3
NtRp91
(dp92
g13
F17.292913085568483
sg14
I9
sg15
I01
sg16
I7
sg17
I53
sbs(I3
I2
tp93
g1
(g10
g3
NtRp94
(dp95
g13
F-6.4691854765695984
sg14
I3
sg15
I01
sg16
I2
sg17
I4
sbs(I13
I2
tp96
g1
(g10
g3
NtRp97
(dp98
g13
F-3.5034744969846732
sg14
I13
sg15
I01
sg16
I2
sg17
I133
sbs(I10
I4
tp99
g1
(g10
g3
NtRp100
(dp101
g13
F-2.0389948470841563
sg14
I10
sg15
I01
sg16
I4
sg17
I90
sbs(I4
I5
tp102
g1
(g10
g3
NtRp103
(dp104
g13
F-15.074745736790124
sg14
I4
sg15
I01
sg16
I5
sg17
I30
sbs(I8
I11
tp105
g1
(g10
g3
NtRp106
(dp107
g13
F-11.19153778825266
sg14
I8
sg15
I01
sg16
I11
sg17
I80
sbs(I4
I14
tp108
g1
(g10
g3
NtRp109
(dp110
g13
F1
sg14
I4
sg15
I01
sg16
I14
sg17
I248
sbs(I1
I4
tp111
g1
(g10
g3
NtRp112
(dp113
g13
F-9.6384459819772026
sg14
I1
sg15
I01
sg16
I4
sg17
I8
sbs(I2
I3
tp114
g1
(g10
g3
NtRp115
(dp116
g13
F-20.84584003646037
sg14
I2
sg15
I01
sg16
I3
sg17
I7
sbs(I4
I2
tp117
g1
(g10
g3
NtRp118
(dp119
g13
F7.7362536917728288
sg14
I4
sg15
I00
sg16
I2
sg17
I6
sbs(I6
I5
tp120
g1
(g10
g3
NtRp121
(dp122
g13
F3.7758985099580817
sg14
I6
sg15
I01
sg16
I5
sg17
I23
sbs(I5
I3
tp123
g1
(g10
g3
NtRp124
(dp125
g13
F5.8659141876328889
sg14
I5
sg15
I01
sg16
I3
sg17
I14
sbs(I3
I5
tp126
g1
(g10
g3
NtRp127
(dp128
g13
F-11.671139848699946
sg14
I3
sg15
I01
sg16
I5
sg17
I13
sbs(I8
I3
tp129
g1
(g10
g3
NtRp130
(dp131
g13
F10.232590516519473
sg14
I8
sg15
I01
sg16
I3
sg17
I71
sbs(I3
I12
tp132
g1
(g10
g3
NtRp133
(dp134
g13
F-0.58175008050111154
sg14
I3
sg15
I01
sg16
I12
sg17
I99
sbs(I3
I4
tp135
g1
(g10
g3
NtRp136
(dp137
g13
F7.092280860192945
sg14
I3
sg15
I01
sg16
I4
sg17
I5
sbs(I5
I7
tp138
g1
(g10
g3
NtRp139
(dp140
g13
F-30
sg14
I5
sg15
I01
sg16
I7
sg17
I28
sbs(I7
I4
tp141
g1
(g10
g3
NtRp142
(dp143
g13
F3.2657749578118755
sg14
I7
sg15
I01
sg16
I4
sg17
I46
sbs(I12
I3
tp144
g1
(g10
g3
NtRp145
(dp146
g13
F18.41561633752854
sg14
I12
sg15
I01
sg16
I3
sg17
I88
sbs(I4
I3
tp147
g1
(g10
g3
NtRp148
(dp149
g13
F8.2271646568654155
sg14
I4
sg15
I01
sg16
I3
sg17
I12
sbs(I5
I2
tp150
g1
(g10
g3
NtRp151
(dp152
g13
F18.845044614036247
sg14
I5
sg15
I01
sg16
I2
sg17
I11
sbs(I2
I4
tp153
g1
(g10
g3
NtRp154
(dp155
g13
F23.03572231187664
sg14
I2
sg15
I01
sg16
I4
sg17
I24
sbs(I8
I4
tp156
g1
(g10
g3
NtRp157
(dp158
g13
F-26.199217993064352
sg14
I8
sg15
I01
sg16
I4
sg17
I40
sbssS'_input_nodes'
p159
I1
sS'_output_nodes'
p160
I1
sS'_node_gene_type'
p161
cneat.genome
NodeGene
p162
sS'_conn_gene_type'
p163
g10
sS'fitness'
p164
F0.9350986853518477
sS'parent2_id'
p165
I8371
sS'_id'
p166
I8385
sS'parent1_id'
p167
I8371
sS'_node_genes'
p168
(lp169
g1
(g162
g3
NtRp170
(dp171
S'_bias'
p172
I0
sS'_type'
p173
S'INPUT'
p174
sg166
I1
sS'_response'
p175
F4.9242730000000003
sS'_activation_type'
p176
Nsbag1
(g162
g3
NtRp177
(dp178
g172
F-4.6646864650083106
sg173
S'OUTPUT'
p179
sg166
I2
sg175
F2.8526247134786549
sg176
S'tanh'
p180
sbag1
(g162
g3
NtRp181
(dp182
g172
F-2.2887003494302567
sg173
S'HIDDEN'
p183
sg166
I3
sg175
F4.5529253685455711
sg176
g180
sbag1
(g162
g3
NtRp184
(dp185
g172
F4.0829975874501532
sg173
g183
sg166
I4
sg175
F4.7124546853069837
sg176
g180
sbag1
(g162
g3
NtRp186
(dp187
g172
F4.8308775163013715
sg173
g183
sg166
I5
sg175
F12.037164266742824
sg176
g180
sbag1
(g162
g3
NtRp188
(dp189
g172
F-1.6877150810262034
sg173
g183
sg166
I6
sg175
F2.2625814102287358
sg176
g180
sbag1
(g162
g3
NtRp190
(dp191
g172
F-2.5049576042949249
sg173
g183
sg166
I7
sg175
F6.3263476839784429
sg176
g180
sbag1
(g162
g3
NtRp192
(dp193
g172
F-1.3951154275022597
sg173
g183
sg166
I8
sg175
F9.660109145314637
sg176
g180
sbag1
(g162
g3
NtRp194
(dp195
g172
F0.42521715280732114
sg173
g183
sg166
I9
sg175
F8.0733256909382156
sg176
g180
sbag1
(g162
g3
NtRp196
(dp197
g172
F2.1155092878153736
sg173
g183
sg166
I10
sg175
F4.1121013533647464
sg176
g180
sbag1
(g162
g3
NtRp198
(dp199
g172
F-0.63063115706545658
sg173
g183
sg166
I11
sg175
F6.1710997804568892
sg176
g180
sbag1
(g162
g3
NtRp200
(dp201
g172
F1.4014581956243222
sg173
g183
sg166
I12
sg175
F4.724123055071435
sg176
g180
sbag1
(g162
g3
NtRp202
(dp203
g172
F1.2597594971268424
sg173
g183
sg166
I13
sg175
F5.5732155025476837
sg176
g180
sbag1
(g162
g3
NtRp204
(dp205
g172
I0
sg173
g183
sg166
I14
sg175
F4.9242730000000003
sg176
g180
sbasb.