ccopy_reg
_reconstructor
p1
(cneat.chromosome
Chromosome
p2
c__builtin__
object
p3
NtRp4
(dp5
S'species_id'
p6
I16
sS'_connection_genes'
p7
(dp8
(I1
I2
tp9
g1
(cneat.genome
ConnectionGene
p10
g3
NtRp11
(dp12
S'_ConnectionGene__weight'
p13
F10.159364705099097
sS'_ConnectionGene__in'
p14
I1
sS'_ConnectionGene__enabled'
p15
I01
sS'_ConnectionGene__out'
p16
I2
sS'_ConnectionGene__innov_number'
p17
I1
sbs(I3
I2
tp18
g1
(g10
g3
NtRp19
(dp20
g13
F12.332465153608151
sg14
I3
sg15
I00
sg16
I2
sg17
I4
sbs(I1
I3
tp21
g1
(g10
g3
NtRp22
(dp23
g13
F3.6047237402993564
sg14
I1
sg15
I01
sg16
I3
sg17
I3
sbs(I3
I3
tp24
g1
(g10
g3
NtRp25
(dp26
g13
F0.40080286107793262
sg14
I3
sg15
I01
sg16
I3
sg17
I9
sbs(I5
I6
tp27
g1
(g10
g3
NtRp28
(dp29
g13
F-3.0184868191160268
sg14
I5
sg15
I01
sg16
I6
sg17
I16
sbs(I3
I4
tp30
g1
(g10
g3
NtRp31
(dp32
g13
F7.7743904003873938
sg14
I3
sg15
I01
sg16
I4
sg17
I5
sbs(I1
I4
tp33
g1
(g10
g3
NtRp34
(dp35
g13
F6.2418310816463727
sg14
I1
sg15
I01
sg16
I4
sg17
I8
sbs(I2
I3
tp36
g1
(g10
g3
NtRp37
(dp38
g13
F0.25971842914255561
sg14
I2
sg15
I01
sg16
I3
sg17
I7
sbs(I3
I6
tp39
g1
(g10
g3
NtRp40
(dp41
g13
F-10.301901507622455
sg14
I3
sg15
I01
sg16
I6
sg17
I19
sbs(I2
I2
tp42
g1
(g10
g3
NtRp43
(dp44
g13
F-0.99921426208148523
sg14
I2
sg15
I01
sg16
I2
sg17
I2
sbs(I4
I2
tp45
g1
(g10
g3
NtRp46
(dp47
g13
F18.964082115362466
sg14
I4
sg15
I01
sg16
I2
sg17
I6
sbs(I5
I3
tp48
g1
(g10
g3
NtRp49
(dp50
g13
F8.3759074760621637
sg14
I5
sg15
I01
sg16
I3
sg17
I14
sbs(I5
I2
tp51
g1
(g10
g3
NtRp52
(dp53
g13
F23.993309362269937
sg14
I5
sg15
I01
sg16
I2
sg17
I11
sbs(I2
I4
tp54
g1
(g10
g3
NtRp55
(dp56
g13
F-4.1711495557338534
sg14
I2
sg15
I01
sg16
I4
sg17
I24
sbs(I6
I5
tp57
g1
(g10
g3
NtRp58
(dp59
g13
F12.387946061480271
sg14
I6
sg15
I01
sg16
I5
sg17
I23
sbs(I3
I5
tp60
g1
(g10
g3
NtRp61
(dp62
g13
F-0.91488441592651581
sg14
I3
sg15
I01
sg16
I5
sg17
I13
sbssS'_input_nodes'
p63
I1
sS'_output_nodes'
p64
I1
sS'_node_gene_type'
p65
cneat.genome
NodeGene
p66
sS'_conn_gene_type'
p67
g10
sS'fitness'
p68
F0.99879152204391342
sS'parent2_id'
p69
I1284
sS'_id'
p70
I1300
sS'parent1_id'
p71
I1284
sS'_node_genes'
p72
(lp73
g1
(g66
g3
NtRp74
(dp75
S'_bias'
p76
I0
sS'_type'
p77
S'INPUT'
p78
sg70
I1
sS'_response'
p79
F4.9242730000000003
sS'_activation_type'
p80
Nsbag1
(g66
g3
NtRp81
(dp82
g76
F0.1037842329543478
sg77
S'OUTPUT'
p83
sg70
I2
sg79
F4.3593559127791783
sg80
S'tanh'
p84
sbag1
(g66
g3
NtRp85
(dp86
g76
F2.021677032681882
sg77
S'HIDDEN'
p87
sg70
I3
sg79
F2.383827411042561
sg80
g84
sbag1
(g66
g3
NtRp88
(dp89
g76
F-1.4601529644684437
sg77
g87
sg70
I4
sg79
F5.2897108865610161
sg80
g84
sbag1
(g66
g3
NtRp90
(dp91
g76
F1.5283454737065354
sg77
g87
sg70
I5
sg79
F2.7439643264323439
sg80
g84
sbag1
(g66
g3
NtRp92
(dp93
g76
F-2.094388399994894
sg77
g87
sg70
I6
sg79
F4.6175192749257183
sg80
g84
sbasb.