ccopy_reg
_reconstructor
p1
(cneat.chromosome
Chromosome
p2
c__builtin__
object
p3
NtRp4
(dp5
S'species_id'
p6
I46
sS'_connection_genes'
p7
(dp8
(I1
I3
tp9
g1
(cneat.genome
ConnectionGene
p10
g3
NtRp11
(dp12
S'_ConnectionGene__weight'
p13
F17.864126096028645
sS'_ConnectionGene__in'
p14
I1
sS'_ConnectionGene__enabled'
p15
I01
sS'_ConnectionGene__out'
p16
I3
sS'_ConnectionGene__innov_number'
p17
I3
sbs(I6
I6
tp18
g1
(g10
g3
NtRp19
(dp20
g13
F21.010696001080792
sg14
I6
sg15
I01
sg16
I6
sg17
I39
sbs(I5
I6
tp21
g1
(g10
g3
NtRp22
(dp23
g13
F-26.699047672214512
sg14
I5
sg15
I01
sg16
I6
sg17
I16
sbs(I11
I2
tp24
g1
(g10
g3
NtRp25
(dp26
g13
F-11.824658879686694
sg14
I11
sg15
I01
sg16
I2
sg17
I74
sbs(I3
I10
tp27
g1
(g10
g3
NtRp28
(dp29
g13
F19.819625950888518
sg14
I3
sg15
I01
sg16
I10
sg17
I94
sbs(I7
I2
tp30
g1
(g10
g3
NtRp31
(dp32
g13
F2.3125399791331773
sg14
I7
sg15
I01
sg16
I2
sg17
I33
sbs(I1
I2
tp33
g1
(g10
g3
NtRp34
(dp35
g13
F15.860926543478799
sg14
I1
sg15
I01
sg16
I2
sg17
I1
sbs(I12
I2
tp36
g1
(g10
g3
NtRp37
(dp38
g13
F12.032277998704412
sg14
I12
sg15
I01
sg16
I2
sg17
I93
sbs(I3
I3
tp39
g1
(g10
g3
NtRp40
(dp41
g13
F12.061266701705463
sg14
I3
sg15
I01
sg16
I3
sg17
I9
sbs(I5
I12
tp42
g1
(g10
g3
NtRp43
(dp44
g13
F4.0963172146670512
sg14
I5
sg15
I01
sg16
I12
sg17
I118
sbs(I4
I4
tp45
g1
(g10
g3
NtRp46
(dp47
g13
F3.6859461446999084
sg14
I4
sg15
I01
sg16
I4
sg17
I15
sbs(I1
I5
tp48
g1
(g10
g3
NtRp49
(dp50
g13
F-5.2469040150233974
sg14
I1
sg15
I01
sg16
I5
sg17
I10
sbs(I9
I11
tp51
g1
(g10
g3
NtRp52
(dp53
g13
F11.127793647684324
sg14
I9
sg15
I01
sg16
I11
sg17
I106
sbs(I4
I11
tp54
g1
(g10
g3
NtRp55
(dp56
g13
F15.179137948776491
sg14
I4
sg15
I01
sg16
I11
sg17
I75
sbs(I3
I6
tp57
g1
(g10
g3
NtRp58
(dp59
g13
F7.6062556625588105
sg14
I3
sg15
I01
sg16
I6
sg17
I19
sbs(I2
I2
tp60
g1
(g10
g3
NtRp61
(dp62
g13
F1.4736741263008586
sg14
I2
sg15
I01
sg16
I2
sg17
I2
sbs(I3
I5
tp63
g1
(g10
g3
NtRp64
(dp65
g13
F22.862623351704098
sg14
I3
sg15
I01
sg16
I5
sg17
I13
sbs(I3
I2
tp66
g1
(g10
g3
NtRp67
(dp68
g13
F10.049590454519995
sg14
I3
sg15
I01
sg16
I2
sg17
I4
sbs(I10
I4
tp69
g1
(g10
g3
NtRp70
(dp71
g13
F0.73449363517976141
sg14
I10
sg15
I01
sg16
I4
sg17
I90
sbs(I4
I5
tp72
g1
(g10
g3
NtRp73
(dp74
g13
F22.231584638826181
sg14
I4
sg15
I01
sg16
I5
sg17
I30
sbs(I9
I3
tp75
g1
(g10
g3
NtRp76
(dp77
g13
F28.199583550698122
sg14
I9
sg15
I01
sg16
I3
sg17
I42
sbs(I1
I4
tp78
g1
(g10
g3
NtRp79
(dp80
g13
F29.029671256339366
sg14
I1
sg15
I01
sg16
I4
sg17
I8
sbs(I3
I9
tp81
g1
(g10
g3
NtRp82
(dp83
g13
F1.8592821430800062
sg14
I3
sg15
I01
sg16
I9
sg17
I61
sbs(I2
I3
tp84
g1
(g10
g3
NtRp85
(dp86
g13
F-7.8355061994041169
sg14
I2
sg15
I01
sg16
I3
sg17
I7
sbs(I1
I9
tp87
g1
(g10
g3
NtRp88
(dp89
g13
F12.629753719522153
sg14
I1
sg15
I01
sg16
I9
sg17
I50
sbs(I4
I2
tp90
g1
(g10
g3
NtRp91
(dp92
g13
F-12.689132134517401
sg14
I4
sg15
I01
sg16
I2
sg17
I6
sbs(I6
I5
tp93
g1
(g10
g3
NtRp94
(dp95
g13
F21.443705974567063
sg14
I6
sg15
I01
sg16
I5
sg17
I23
sbs(I5
I3
tp96
g1
(g10
g3
NtRp97
(dp98
g13
F18.073710388392673
sg14
I5
sg15
I01
sg16
I3
sg17
I14
sbs(I8
I3
tp99
g1
(g10
g3
NtRp100
(dp101
g13
F-9.1511574923195305
sg14
I8
sg15
I01
sg16
I3
sg17
I71
sbs(I3
I4
tp102
g1
(g10
g3
NtRp103
(dp104
g13
F-3.2923097626833822
sg14
I3
sg15
I01
sg16
I4
sg17
I5
sbs(I5
I7
tp105
g1
(g10
g3
NtRp106
(dp107
g13
F17.309416431731336
sg14
I5
sg15
I01
sg16
I7
sg17
I28
sbs(I3
I8
tp108
g1
(g10
g3
NtRp109
(dp110
g13
F30
sg14
I3
sg15
I01
sg16
I8
sg17
I49
sbs(I4
I3
tp111
g1
(g10
g3
NtRp112
(dp113
g13
F-17.621353558249183
sg14
I4
sg15
I01
sg16
I3
sg17
I12
sbs(I5
I2
tp114
g1
(g10
g3
NtRp115
(dp116
g13
F29.383088616660157
sg14
I5
sg15
I00
sg16
I2
sg17
I11
sbs(I2
I4
tp117
g1
(g10
g3
NtRp118
(dp119
g13
F-0.62995467176697728
sg14
I2
sg15
I01
sg16
I4
sg17
I24
sbs(I8
I4
tp120
g1
(g10
g3
NtRp121
(dp122
g13
F3.4319433904267687
sg14
I8
sg15
I01
sg16
I4
sg17
I40
sbssS'_input_nodes'
p123
I1
sS'_output_nodes'
p124
I1
sS'_node_gene_type'
p125
cneat.genome
NodeGene
p126
sS'_conn_gene_type'
p127
g10
sS'fitness'
p128
F0.9921716198028383
sS'parent2_id'
p129
I5340
sS'_id'
p130
I5375
sS'parent1_id'
p131
I5340
sS'_node_genes'
p132
(lp133
g1
(g126
g3
NtRp134
(dp135
S'_bias'
p136
I0
sS'_type'
p137
S'INPUT'
p138
sg130
I1
sS'_response'
p139
F4.9242730000000003
sS'_activation_type'
p140
Nsbag1
(g126
g3
NtRp141
(dp142
g136
F1.8520851035920332
sg137
S'OUTPUT'
p143
sg130
I2
sg139
F7.4451376627311241
sg140
S'tanh'
p144
sbag1
(g126
g3
NtRp145
(dp146
g136
F-2.5000454988037681
sg137
S'HIDDEN'
p147
sg130
I3
sg139
F2.6016543111868509
sg140
g144
sbag1
(g126
g3
NtRp148
(dp149
g136
F-0.11086372008122064
sg137
g147
sg130
I4
sg139
F5.6300390405102219
sg140
g144
sbag1
(g126
g3
NtRp150
(dp151
g136
F4.9743966067524488
sg137
g147
sg130
I5
sg139
F6.1910281469216821
sg140
g144
sbag1
(g126
g3
NtRp152
(dp153
g136
F-3.5197962102452807
sg137
g147
sg130
I6
sg139
F1.1426735843578286
sg140
g144
sbag1
(g126
g3
NtRp154
(dp155
g136
F-0.030756840742724945
sg137
g147
sg130
I7
sg139
F6.2025900524664248
sg140
g144
sbag1
(g126
g3
NtRp156
(dp157
g136
F-3.4998881079647211
sg137
g147
sg130
I8
sg139
F8.610937873259024
sg140
g144
sbag1
(g126
g3
NtRp158
(dp159
g136
F-0.36843773885706116
sg137
g147
sg130
I9
sg139
F5.7618369410722208
sg140
g144
sbag1
(g126
g3
NtRp160
(dp161
g136
F0.27417449603534838
sg137
g147
sg130
I10
sg139
F4.7089524823642268
sg140
g144
sbag1
(g126
g3
NtRp162
(dp163
g136
F1.242798449259011
sg137
g147
sg130
I11
sg139
F2.2941068725838538
sg140
g144
sbag1
(g126
g3
NtRp164
(dp165
g136
F-0.64351946959180595
sg137
g147
sg130
I12
sg139
F4.1036314076816049
sg140
g144
sbasb.