ccopy_reg
_reconstructor
p1
(cneat.chromosome
Chromosome
p2
c__builtin__
object
p3
NtRp4
(dp5
S'species_id'
p6
I81
sS'_connection_genes'
p7
(dp8
(I1
I3
tp9
g1
(cneat.genome
ConnectionGene
p10
g3
NtRp11
(dp12
S'_ConnectionGene__weight'
p13
F16.066376558756716
sS'_ConnectionGene__in'
p14
I1
sS'_ConnectionGene__enabled'
p15
I01
sS'_ConnectionGene__out'
p16
I3
sS'_ConnectionGene__innov_number'
p17
I3
sbs(I11
I11
tp18
g1
(g10
g3
NtRp19
(dp20
g13
F16.258206445568831
sg14
I11
sg15
I01
sg16
I11
sg17
I122
sbs(I6
I6
tp21
g1
(g10
g3
NtRp22
(dp23
g13
F13.138791037390874
sg14
I6
sg15
I00
sg16
I6
sg17
I39
sbs(I5
I6
tp24
g1
(g10
g3
NtRp25
(dp26
g13
F28.037958147408364
sg14
I5
sg15
I01
sg16
I6
sg17
I16
sbs(I9
I8
tp27
g1
(g10
g3
NtRp28
(dp29
g13
F-23.079498979709083
sg14
I9
sg15
I01
sg16
I8
sg17
I60
sbs(I10
I6
tp30
g1
(g10
g3
NtRp31
(dp32
g13
F-18.875995458633263
sg14
I10
sg15
I01
sg16
I6
sg17
I103
sbs(I14
I13
tp33
g1
(g10
g3
NtRp34
(dp35
g13
F2.1541843977256163
sg14
I14
sg15
I01
sg16
I13
sg17
I252
sbs(I9
I4
tp36
g1
(g10
g3
NtRp37
(dp38
g13
F22.078066025273593
sg14
I9
sg15
I01
sg16
I4
sg17
I77
sbs(I13
I2
tp39
g1
(g10
g3
NtRp40
(dp41
g13
F-3.5256545532581827
sg14
I13
sg15
I01
sg16
I2
sg17
I133
sbs(I7
I2
tp42
g1
(g10
g3
NtRp43
(dp44
g13
F-9.3475666348110078
sg14
I7
sg15
I01
sg16
I2
sg17
I33
sbs(I1
I2
tp45
g1
(g10
g3
NtRp46
(dp47
g13
F28.496523241281377
sg14
I1
sg15
I01
sg16
I2
sg17
I1
sbs(I4
I13
tp48
g1
(g10
g3
NtRp49
(dp50
g13
F1.0774033941877741
sg14
I4
sg15
I00
sg16
I13
sg17
I119
sbs(I11
I10
tp51
g1
(g10
g3
NtRp52
(dp53
g13
F-16.055750524210708
sg14
I11
sg15
I01
sg16
I10
sg17
I89
sbs(I4
I9
tp54
g1
(g10
g3
NtRp55
(dp56
g13
F19.943493757471611
sg14
I4
sg15
I01
sg16
I9
sg17
I44
sbs(I3
I3
tp57
g1
(g10
g3
NtRp58
(dp59
g13
F22.81771092597058
sg14
I3
sg15
I00
sg16
I3
sg17
I9
sbs(I3
I10
tp60
g1
(g10
g3
NtRp61
(dp62
g13
F-25.438755584764515
sg14
I3
sg15
I01
sg16
I10
sg17
I94
sbs(I4
I4
tp63
g1
(g10
g3
NtRp64
(dp65
g13
F24.873563093802119
sg14
I4
sg15
I01
sg16
I4
sg17
I15
sbs(I7
I4
tp66
g1
(g10
g3
NtRp67
(dp68
g13
F2.4912648429497604
sg14
I7
sg15
I01
sg16
I4
sg17
I46
sbs(I6
I3
tp69
g1
(g10
g3
NtRp70
(dp71
g13
F3.7101115892477883
sg14
I6
sg15
I01
sg16
I3
sg17
I22
sbs(I1
I5
tp72
g1
(g10
g3
NtRp73
(dp74
g13
F21.749840348923232
sg14
I1
sg15
I01
sg16
I5
sg17
I10
sbs(I9
I11
tp75
g1
(g10
g3
NtRp76
(dp77
g13
F-11.205678940786036
sg14
I9
sg15
I01
sg16
I11
sg17
I106
sbs(I3
I6
tp78
g1
(g10
g3
NtRp79
(dp80
g13
F-19.352181553201628
sg14
I3
sg15
I01
sg16
I6
sg17
I19
sbs(I2
I2
tp81
g1
(g10
g3
NtRp82
(dp83
g13
F24.456170874460177
sg14
I2
sg15
I01
sg16
I2
sg17
I2
sbs(I3
I4
tp84
g1
(g10
g3
NtRp85
(dp86
g13
F8.8956430232623127
sg14
I3
sg15
I01
sg16
I4
sg17
I5
sbs(I5
I3
tp87
g1
(g10
g3
NtRp88
(dp89
g13
F9.0919463113059003
sg14
I5
sg15
I01
sg16
I3
sg17
I14
sbs(I6
I15
tp90
g1
(g10
g3
NtRp91
(dp92
g13
F-0.17002294752742264
sg14
I6
sg15
I01
sg16
I15
sg17
I241
sbs(I10
I9
tp93
g1
(g10
g3
NtRp94
(dp95
g13
F10.307257280432406
sg14
I10
sg15
I01
sg16
I9
sg17
I58
sbs(I9
I7
tp96
g1
(g10
g3
NtRp97
(dp98
g13
F19.580999253979893
sg14
I9
sg15
I01
sg16
I7
sg17
I53
sbs(I3
I2
tp99
g1
(g10
g3
NtRp100
(dp101
g13
F-1.8348723916292093
sg14
I3
sg15
I01
sg16
I2
sg17
I4
sbs(I11
I4
tp102
g1
(g10
g3
NtRp103
(dp104
g13
F26.512340877743576
sg14
I11
sg15
I01
sg16
I4
sg17
I101
sbs(I10
I4
tp105
g1
(g10
g3
NtRp106
(dp107
g13
F-0.68877036094985278
sg14
I10
sg15
I01
sg16
I4
sg17
I90
sbs(I4
I5
tp108
g1
(g10
g3
NtRp109
(dp110
g13
F-13.236414116292949
sg14
I4
sg15
I01
sg16
I5
sg17
I30
sbs(I8
I11
tp111
g1
(g10
g3
NtRp112
(dp113
g13
F-8.8910908565668194
sg14
I8
sg15
I01
sg16
I11
sg17
I80
sbs(I4
I14
tp114
g1
(g10
g3
NtRp115
(dp116
g13
F5.2991240380338915
sg14
I4
sg15
I01
sg16
I14
sg17
I248
sbs(I1
I4
tp117
g1
(g10
g3
NtRp118
(dp119
g13
F-17.280540618977465
sg14
I1
sg15
I01
sg16
I4
sg17
I8
sbs(I4
I16
tp120
g1
(g10
g3
NtRp121
(dp122
g13
F-1.2475254648514695
sg14
I4
sg15
I01
sg16
I16
sg17
I160
sbs(I2
I3
tp123
g1
(g10
g3
NtRp124
(dp125
g13
F-22.428489575723571
sg14
I2
sg15
I01
sg16
I3
sg17
I7
sbs(I4
I2
tp126
g1
(g10
g3
NtRp127
(dp128
g13
F5.0088319008690201
sg14
I4
sg15
I00
sg16
I2
sg17
I6
sbs(I6
I5
tp129
g1
(g10
g3
NtRp130
(dp131
g13
F4.8563162569701177
sg14
I6
sg15
I01
sg16
I5
sg17
I23
sbs(I7
I9
tp132
g1
(g10
g3
NtRp133
(dp134
g13
F22.900937991243648
sg14
I7
sg15
I01
sg16
I9
sg17
I41
sbs(I3
I5
tp135
g1
(g10
g3
NtRp136
(dp137
g13
F-17.368966220745854
sg14
I3
sg15
I01
sg16
I5
sg17
I13
sbs(I8
I3
tp138
g1
(g10
g3
NtRp139
(dp140
g13
F21.079452733456122
sg14
I8
sg15
I01
sg16
I3
sg17
I71
sbs(I3
I12
tp141
g1
(g10
g3
NtRp142
(dp143
g13
F-1.030478370067746
sg14
I3
sg15
I01
sg16
I12
sg17
I99
sbs(I5
I2
tp144
g1
(g10
g3
NtRp145
(dp146
g13
F20.023564204936232
sg14
I5
sg15
I01
sg16
I2
sg17
I11
sbs(I5
I7
tp147
g1
(g10
g3
NtRp148
(dp149
g13
F-26.290810062242436
sg14
I5
sg15
I01
sg16
I7
sg17
I28
sbs(I3
I8
tp150
g1
(g10
g3
NtRp151
(dp152
g13
F13.849124712868374
sg14
I3
sg15
I01
sg16
I8
sg17
I49
sbs(I15
I6
tp153
g1
(g10
g3
NtRp154
(dp155
g13
F12.029348138021444
sg14
I15
sg15
I01
sg16
I6
sg17
I152
sbs(I12
I3
tp156
g1
(g10
g3
NtRp157
(dp158
g13
F20.129266641615494
sg14
I12
sg15
I01
sg16
I3
sg17
I88
sbs(I4
I3
tp159
g1
(g10
g3
NtRp160
(dp161
g13
F8.4128429657627777
sg14
I4
sg15
I01
sg16
I3
sg17
I12
sbs(I16
I13
tp162
g1
(g10
g3
NtRp163
(dp164
g13
F-0.46853615311937857
sg14
I16
sg15
I01
sg16
I13
sg17
I255
sbs(I2
I4
tp165
g1
(g10
g3
NtRp166
(dp167
g13
F20.910341309590429
sg14
I2
sg15
I01
sg16
I4
sg17
I24
sbs(I8
I4
tp168
g1
(g10
g3
NtRp169
(dp170
g13
F-25.338727936894209
sg14
I8
sg15
I01
sg16
I4
sg17
I40
sbssS'_input_nodes'
p171
I1
sS'_output_nodes'
p172
I1
sS'_node_gene_type'
p173
cneat.genome
NodeGene
p174
sS'_conn_gene_type'
p175
g10
sS'fitness'
p176
F0.91171524034718354
sS'parent2_id'
p177
I8577
sS'_id'
p178
I8596
sS'parent1_id'
p179
I8577
sS'_node_genes'
p180
(lp181
g1
(g174
g3
NtRp182
(dp183
S'_bias'
p184
I0
sS'_type'
p185
S'INPUT'
p186
sg178
I1
sS'_response'
p187
F4.9242730000000003
sS'_activation_type'
p188
Nsbag1
(g174
g3
NtRp189
(dp190
g184
F-4.1493058825859936
sg185
S'OUTPUT'
p191
sg178
I2
sg187
F2.295128631131691
sg188
S'tanh'
p192
sbag1
(g174
g3
NtRp193
(dp194
g184
F-3.1464840376778707
sg185
S'HIDDEN'
p195
sg178
I3
sg187
F4.7066178856851648
sg188
g192
sbag1
(g174
g3
NtRp196
(dp197
g184
F3.8518867539201289
sg185
g195
sg178
I4
sg187
F4.6896481110653809
sg188
g192
sbag1
(g174
g3
NtRp198
(dp199
g184
F4.4490079814652086
sg185
g195
sg178
I5
sg187
F12.037164266742824
sg188
g192
sbag1
(g174
g3
NtRp200
(dp201
g184
F-1.6877150810262034
sg185
g195
sg178
I6
sg187
F2.1291151517526101
sg188
g192
sbag1
(g174
g3
NtRp202
(dp203
g184
F-2.5317277189016849
sg185
g195
sg178
I7
sg187
F6.3263476839784429
sg188
g192
sbag1
(g174
g3
NtRp204
(dp205
g184
F-2.6127010743961274
sg185
g195
sg178
I8
sg187
F9.3971792563405661
sg188
g192
sbag1
(g174
g3
NtRp206
(dp207
g184
F0.34983757231973189
sg185
g195
sg178
I9
sg187
F8.0733256909382156
sg188
g192
sbag1
(g174
g3
NtRp208
(dp209
g184
F2.3553542675695645
sg185
g195
sg178
I10
sg187
F4.7220554325473785
sg188
g192
sbag1
(g174
g3
NtRp210
(dp211
g184
F-0.76501742565262909
sg185
g195
sg178
I11
sg187
F6.5990412335580597
sg188
g192
sbag1
(g174
g3
NtRp212
(dp213
g184
F0.32552738039617135
sg185
g195
sg178
I12
sg187
F4.317990569119976
sg188
g192
sbag1
(g174
g3
NtRp214
(dp215
g184
F1.4016925073683468
sg185
g195
sg178
I13
sg187
F4.9482995903167852
sg188
g192
sbag1
(g174
g3
NtRp216
(dp217
g184
I0
sg185
g195
sg178
I14
sg187
F4.9242730000000003
sg188
g192
sbag1
(g174
g3
NtRp218
(dp219
g184
F0.57838767959161441
sg185
g195
sg178
I15
sg187
F5.0574055614531535
sg188
g192
sbag1
(g174
g3
NtRp220
(dp221
g184
I0
sg185
g195
sg178
I16
sg187
F4.7879156985033084
sg188
g192
sbasb.