ccopy_reg
_reconstructor
p1
(cneat.chromosome
Chromosome
p2
c__builtin__
object
p3
NtRp4
(dp5
S'species_id'
p6
I65
sS'_connection_genes'
p7
(dp8
(I1
I3
tp9
g1
(cneat.genome
ConnectionGene
p10
g3
NtRp11
(dp12
S'_ConnectionGene__weight'
p13
F25.566300749762298
sS'_ConnectionGene__in'
p14
I1
sS'_ConnectionGene__enabled'
p15
I00
sS'_ConnectionGene__out'
p16
I3
sS'_ConnectionGene__innov_number'
p17
I3
sbs(I6
I6
tp18
g1
(g10
g3
NtRp19
(dp20
g13
F8.5626120471253042
sg14
I6
sg15
I01
sg16
I6
sg17
I39
sbs(I5
I6
tp21
g1
(g10
g3
NtRp22
(dp23
g13
F5.2586178897253752
sg14
I5
sg15
I01
sg16
I6
sg17
I16
sbs(I14
I4
tp24
g1
(g10
g3
NtRp25
(dp26
g13
F-2.6235325540282686
sg14
I14
sg15
I01
sg16
I4
sg17
I159
sbs(I9
I8
tp27
g1
(g10
g3
NtRp28
(dp29
g13
F-11.538155941776626
sg14
I9
sg15
I01
sg16
I8
sg17
I60
sbs(I1
I17
tp30
g1
(g10
g3
NtRp31
(dp32
g13
F1
sg14
I1
sg15
I01
sg16
I17
sg17
I166
sbs(I1
I15
tp33
g1
(g10
g3
NtRp34
(dp35
g13
F-2.4175392937525908
sg14
I1
sg15
I00
sg16
I15
sg17
I168
sbs(I4
I12
tp36
g1
(g10
g3
NtRp37
(dp38
g13
F12.604270247349341
sg14
I4
sg15
I01
sg16
I12
sg17
I102
sbs(I9
I4
tp39
g1
(g10
g3
NtRp40
(dp41
g13
F19.186283811241228
sg14
I9
sg15
I01
sg16
I4
sg17
I77
sbs(I7
I2
tp42
g1
(g10
g3
NtRp43
(dp44
g13
F-10.412913905812816
sg14
I7
sg15
I01
sg16
I2
sg17
I33
sbs(I17
I15
tp45
g1
(g10
g3
NtRp46
(dp47
g13
F-2.4175392937525908
sg14
I17
sg15
I01
sg16
I15
sg17
I197
sbs(I1
I2
tp48
g1
(g10
g3
NtRp49
(dp50
g13
F21.742731259201349
sg14
I1
sg15
I01
sg16
I2
sg17
I1
sbs(I4
I9
tp51
g1
(g10
g3
NtRp52
(dp53
g13
F10.447843817986712
sg14
I4
sg15
I01
sg16
I9
sg17
I44
sbs(I3
I3
tp54
g1
(g10
g3
NtRp55
(dp56
g13
F30
sg14
I3
sg15
I01
sg16
I3
sg17
I9
sbs(I4
I4
tp57
g1
(g10
g3
NtRp58
(dp59
g13
F-13.40817822949891
sg14
I4
sg15
I00
sg16
I4
sg17
I15
sbs(I13
I16
tp60
g1
(g10
g3
NtRp61
(dp62
g13
F-0.36233844203703081
sg14
I13
sg15
I01
sg16
I16
sg17
I179
sbs(I4
I13
tp63
g1
(g10
g3
NtRp64
(dp65
g13
F-9.2597480153761733
sg14
I4
sg15
I01
sg16
I13
sg17
I119
sbs(I1
I5
tp66
g1
(g10
g3
NtRp67
(dp68
g13
F10.465339833738941
sg14
I1
sg15
I01
sg16
I5
sg17
I10
sbs(I4
I11
tp69
g1
(g10
g3
NtRp70
(dp71
g13
F8.9943968519474655
sg14
I4
sg15
I01
sg16
I11
sg17
I75
sbs(I3
I6
tp72
g1
(g10
g3
NtRp73
(dp74
g13
F-16.151749087443307
sg14
I3
sg15
I01
sg16
I6
sg17
I19
sbs(I2
I2
tp75
g1
(g10
g3
NtRp76
(dp77
g13
F17.103607122717278
sg14
I2
sg15
I01
sg16
I2
sg17
I2
sbs(I7
I9
tp78
g1
(g10
g3
NtRp79
(dp80
g13
F13.175399401600867
sg14
I7
sg15
I01
sg16
I9
sg17
I41
sbs(I11
I2
tp81
g1
(g10
g3
NtRp82
(dp83
g13
F27.641853235546563
sg14
I11
sg15
I01
sg16
I2
sg17
I74
sbs(I4
I10
tp84
g1
(g10
g3
NtRp85
(dp86
g13
F4.3607275463684569
sg14
I4
sg15
I01
sg16
I10
sg17
I63
sbs(I3
I2
tp87
g1
(g10
g3
NtRp88
(dp89
g13
F-12.802037968651719
sg14
I3
sg15
I01
sg16
I2
sg17
I4
sbs(I10
I4
tp90
g1
(g10
g3
NtRp91
(dp92
g13
F-11.072296748286677
sg14
I10
sg15
I01
sg16
I4
sg17
I90
sbs(I4
I5
tp93
g1
(g10
g3
NtRp94
(dp95
g13
F-29.934467301744789
sg14
I4
sg15
I01
sg16
I5
sg17
I30
sbs(I15
I3
tp96
g1
(g10
g3
NtRp97
(dp98
g13
F13.142673558272948
sg14
I15
sg15
I01
sg16
I3
sg17
I169
sbs(I8
I11
tp99
g1
(g10
g3
NtRp100
(dp101
g13
F1.1482456859416081
sg14
I8
sg15
I01
sg16
I11
sg17
I80
sbs(I7
I13
tp102
g1
(g10
g3
NtRp103
(dp104
g13
F-5.6804556953270087
sg14
I7
sg15
I01
sg16
I13
sg17
I136
sbs(I1
I4
tp105
g1
(g10
g3
NtRp106
(dp107
g13
F13.749529781583348
sg14
I1
sg15
I01
sg16
I4
sg17
I8
sbs(I2
I10
tp108
g1
(g10
g3
NtRp109
(dp110
g13
F-11.169457905980781
sg14
I2
sg15
I01
sg16
I10
sg17
I57
sbs(I2
I3
tp111
g1
(g10
g3
NtRp112
(dp113
g13
F-13.874221774475973
sg14
I2
sg15
I01
sg16
I3
sg17
I7
sbs(I12
I11
tp114
g1
(g10
g3
NtRp115
(dp116
g13
F5.8157391330115615
sg14
I12
sg15
I01
sg16
I11
sg17
I84
sbs(I4
I2
tp117
g1
(g10
g3
NtRp118
(dp119
g13
F26.263305822074763
sg14
I4
sg15
I00
sg16
I2
sg17
I6
sbs(I2
I14
tp120
g1
(g10
g3
NtRp121
(dp122
g13
F-6.2637272539527649
sg14
I2
sg15
I01
sg16
I14
sg17
I142
sbs(I6
I5
tp123
g1
(g10
g3
NtRp124
(dp125
g13
F27.298413304270934
sg14
I6
sg15
I01
sg16
I5
sg17
I23
sbs(I5
I3
tp126
g1
(g10
g3
NtRp127
(dp128
g13
F-11.873225726010887
sg14
I5
sg15
I01
sg16
I3
sg17
I14
sbs(I3
I5
tp129
g1
(g10
g3
NtRp130
(dp131
g13
F20.394924845481611
sg14
I3
sg15
I01
sg16
I5
sg17
I13
sbs(I8
I3
tp132
g1
(g10
g3
NtRp133
(dp134
g13
F-0.34810241176976242
sg14
I8
sg15
I01
sg16
I3
sg17
I71
sbs(I3
I4
tp135
g1
(g10
g3
NtRp136
(dp137
g13
F-16.44583420683642
sg14
I3
sg15
I00
sg16
I4
sg17
I5
sbs(I5
I7
tp138
g1
(g10
g3
NtRp139
(dp140
g13
F-4.0051010962051095
sg14
I5
sg15
I01
sg16
I7
sg17
I28
sbs(I16
I9
tp141
g1
(g10
g3
NtRp142
(dp143
g13
F-11.509041963240577
sg14
I16
sg15
I01
sg16
I9
sg17
I180
sbs(I3
I8
tp144
g1
(g10
g3
NtRp145
(dp146
g13
F13.855957516423029
sg14
I3
sg15
I01
sg16
I8
sg17
I49
sbs(I6
I2
tp147
g1
(g10
g3
NtRp148
(dp149
g13
F14.684775018091937
sg14
I6
sg15
I01
sg16
I2
sg17
I17
sbs(I4
I3
tp150
g1
(g10
g3
NtRp151
(dp152
g13
F-4.1364624310058824
sg14
I4
sg15
I01
sg16
I3
sg17
I12
sbs(I13
I9
tp153
g1
(g10
g3
NtRp154
(dp155
g13
F-5.5840819253684293
sg14
I13
sg15
I01
sg16
I9
sg17
I137
sbs(I5
I2
tp156
g1
(g10
g3
NtRp157
(dp158
g13
F24.836552926215656
sg14
I5
sg15
I01
sg16
I2
sg17
I11
sbs(I2
I4
tp159
g1
(g10
g3
NtRp160
(dp161
g13
F-21.189301046727028
sg14
I2
sg15
I00
sg16
I4
sg17
I24
sbs(I8
I4
tp162
g1
(g10
g3
NtRp163
(dp164
g13
F-18.408377482745617
sg14
I8
sg15
I01
sg16
I4
sg17
I40
sbssS'_input_nodes'
p165
I1
sS'_output_nodes'
p166
I1
sS'_node_gene_type'
p167
cneat.genome
NodeGene
p168
sS'_conn_gene_type'
p169
g10
sS'fitness'
p170
F0.99468764534043486
sS'parent2_id'
p171
I6520
sS'_id'
p172
I6529
sS'parent1_id'
p173
I6520
sS'_node_genes'
p174
(lp175
g1
(g168
g3
NtRp176
(dp177
S'_bias'
p178
I0
sS'_type'
p179
S'INPUT'
p180
sg172
I1
sS'_response'
p181
F4.9242730000000003
sS'_activation_type'
p182
Nsbag1
(g168
g3
NtRp183
(dp184
g178
F-0.41462680761883891
sg179
S'OUTPUT'
p185
sg172
I2
sg181
F6.9226910037583744
sg182
S'tanh'
p186
sbag1
(g168
g3
NtRp187
(dp188
g178
F-4.7293099505060008
sg179
S'HIDDEN'
p189
sg172
I3
sg181
F-0.67779618416543697
sg182
g186
sbag1
(g168
g3
NtRp190
(dp191
g178
F-2.1628470028843161
sg179
g189
sg172
I4
sg181
F4.7114083312567523
sg182
g186
sbag1
(g168
g3
NtRp192
(dp193
g178
F2.1408667384744446
sg179
g189
sg172
I5
sg181
F5.9770467344706573
sg182
g186
sbag1
(g168
g3
NtRp194
(dp195
g178
F-2.2489821785289332
sg179
g189
sg172
I6
sg181
F0.68457196655848618
sg182
g186
sbag1
(g168
g3
NtRp196
(dp197
g178
F-2.5296200740127364
sg179
g189
sg172
I7
sg181
F6.3354338100237708
sg182
g186
sbag1
(g168
g3
NtRp198
(dp199
g178
F-2.2784867904790778
sg179
g189
sg172
I8
sg181
F5.1695974956886346
sg182
g186
sbag1
(g168
g3
NtRp200
(dp201
g178
F1.3126449773353601
sg179
g189
sg172
I9
sg181
F5.4876194897251995
sg182
g186
sbag1
(g168
g3
NtRp202
(dp203
g178
F-1.9798787125582153
sg179
g189
sg172
I10
sg181
F0.49854879425517673
sg182
g186
sbag1
(g168
g3
NtRp204
(dp205
g178
F0.19899615706049029
sg179
g189
sg172
I11
sg181
F6.6717806820720629
sg182
g186
sbag1
(g168
g3
NtRp206
(dp207
g178
F-0.40936467202113591
sg179
g189
sg172
I12
sg181
F5.165674186831188
sg182
g186
sbag1
(g168
g3
NtRp208
(dp209
g178
F1.1836085953629951
sg179
g189
sg172
I13
sg181
F3.7536762076316381
sg182
g186
sbag1
(g168
g3
NtRp210
(dp211
g178
F0.35029699062870917
sg179
g189
sg172
I14
sg181
F3.9111153801649023
sg182
g186
sbag1
(g168
g3
NtRp212
(dp213
g178
F0.090995893658313246
sg179
g189
sg172
I15
sg181
F5.8512508788322348
sg182
g186
sbag1
(g168
g3
NtRp214
(dp215
g178
F-0.73595766892100201
sg179
g189
sg172
I16
sg181
F5.976737084226774
sg182
g186
sbag1
(g168
g3
NtRp216
(dp217
g178
I0
sg179
g189
sg172
I17
sg181
F4.9242730000000003
sg182
g186
sbasb.