ccopy_reg
_reconstructor
p1
(cneat.chromosome
Chromosome
p2
c__builtin__
object
p3
NtRp4
(dp5
S'species_id'
p6
I36
sS'_connection_genes'
p7
(dp8
(I1
I3
tp9
g1
(cneat.genome
ConnectionGene
p10
g3
NtRp11
(dp12
S'_ConnectionGene__weight'
p13
F25.239203948512628
sS'_ConnectionGene__in'
p14
I1
sS'_ConnectionGene__enabled'
p15
I01
sS'_ConnectionGene__out'
p16
I3
sS'_ConnectionGene__innov_number'
p17
I3
sbs(I6
I6
tp18
g1
(g10
g3
NtRp19
(dp20
g13
F11.093839946281985
sg14
I6
sg15
I01
sg16
I6
sg17
I39
sbs(I5
I6
tp21
g1
(g10
g3
NtRp22
(dp23
g13
F-18.982024638000617
sg14
I5
sg15
I01
sg16
I6
sg17
I16
sbs(I7
I2
tp24
g1
(g10
g3
NtRp25
(dp26
g13
F10.62496306139219
sg14
I7
sg15
I01
sg16
I2
sg17
I33
sbs(I1
I2
tp27
g1
(g10
g3
NtRp28
(dp29
g13
F14.294801660098683
sg14
I1
sg15
I01
sg16
I2
sg17
I1
sbs(I3
I3
tp30
g1
(g10
g3
NtRp31
(dp32
g13
F4.2221864268692189
sg14
I3
sg15
I01
sg16
I3
sg17
I9
sbs(I4
I4
tp33
g1
(g10
g3
NtRp34
(dp35
g13
F10.657067412658213
sg14
I4
sg15
I01
sg16
I4
sg17
I15
sbs(I1
I5
tp36
g1
(g10
g3
NtRp37
(dp38
g13
F-7.9430505269987783
sg14
I1
sg15
I01
sg16
I5
sg17
I10
sbs(I3
I6
tp39
g1
(g10
g3
NtRp40
(dp41
g13
F-8.4189114965752641
sg14
I3
sg15
I01
sg16
I6
sg17
I19
sbs(I2
I2
tp42
g1
(g10
g3
NtRp43
(dp44
g13
F7.9298349131520789
sg14
I2
sg15
I01
sg16
I2
sg17
I2
sbs(I3
I5
tp45
g1
(g10
g3
NtRp46
(dp47
g13
F5.5226329747460712
sg14
I3
sg15
I01
sg16
I5
sg17
I13
sbs(I3
I2
tp48
g1
(g10
g3
NtRp49
(dp50
g13
F13.273531926069671
sg14
I3
sg15
I00
sg16
I2
sg17
I4
sbs(I4
I5
tp51
g1
(g10
g3
NtRp52
(dp53
g13
F4.888852689602694
sg14
I4
sg15
I01
sg16
I5
sg17
I30
sbs(I1
I4
tp54
g1
(g10
g3
NtRp55
(dp56
g13
F10.949516191960949
sg14
I1
sg15
I01
sg16
I4
sg17
I8
sbs(I2
I3
tp57
g1
(g10
g3
NtRp58
(dp59
g13
F-23.769010081221872
sg14
I2
sg15
I01
sg16
I3
sg17
I7
sbs(I4
I2
tp60
g1
(g10
g3
NtRp61
(dp62
g13
F-2.1828673534222718
sg14
I4
sg15
I01
sg16
I2
sg17
I6
sbs(I6
I5
tp63
g1
(g10
g3
NtRp64
(dp65
g13
F12.863041824748592
sg14
I6
sg15
I01
sg16
I5
sg17
I23
sbs(I5
I3
tp66
g1
(g10
g3
NtRp67
(dp68
g13
F30
sg14
I5
sg15
I01
sg16
I3
sg17
I14
sbs(I8
I3
tp69
g1
(g10
g3
NtRp70
(dp71
g13
F8.3540865163500051
sg14
I8
sg15
I01
sg16
I3
sg17
I71
sbs(I5
I2
tp72
g1
(g10
g3
NtRp73
(dp74
g13
F24.767633263045266
sg14
I5
sg15
I00
sg16
I2
sg17
I11
sbs(I5
I7
tp75
g1
(g10
g3
NtRp76
(dp77
g13
F4.9776217073035092
sg14
I5
sg15
I01
sg16
I7
sg17
I28
sbs(I3
I8
tp78
g1
(g10
g3
NtRp79
(dp80
g13
F7.625872139033798
sg14
I3
sg15
I01
sg16
I8
sg17
I49
sbs(I3
I4
tp81
g1
(g10
g3
NtRp82
(dp83
g13
F-0.84446882535404355
sg14
I3
sg15
I00
sg16
I4
sg17
I5
sbs(I2
I4
tp84
g1
(g10
g3
NtRp85
(dp86
g13
F6.4881616182772559
sg14
I2
sg15
I01
sg16
I4
sg17
I24
sbs(I8
I4
tp87
g1
(g10
g3
NtRp88
(dp89
g13
F-3.1645697695562367
sg14
I8
sg15
I01
sg16
I4
sg17
I40
sbssS'_input_nodes'
p90
I1
sS'_output_nodes'
p91
I1
sS'_node_gene_type'
p92
cneat.genome
NodeGene
p93
sS'_conn_gene_type'
p94
g10
sS'fitness'
p95
F0.95841992153383648
sS'parent2_id'
p96
I3576
sS'_id'
p97
I3601
sS'parent1_id'
p98
I3576
sS'_node_genes'
p99
(lp100
g1
(g93
g3
NtRp101
(dp102
S'_bias'
p103
I0
sS'_type'
p104
S'INPUT'
p105
sg97
I1
sS'_response'
p106
F4.9242730000000003
sS'_activation_type'
p107
Nsbag1
(g93
g3
NtRp108
(dp109
g103
F-1.1353984403662611
sg104
S'OUTPUT'
p110
sg97
I2
sg106
F4.5098470790419452
sg107
S'tanh'
p111
sbag1
(g93
g3
NtRp112
(dp113
g103
F-1.6070895118287054
sg104
S'HIDDEN'
p114
sg97
I3
sg106
F1.8726353725628431
sg107
g111
sbag1
(g93
g3
NtRp115
(dp116
g103
F0.068427064380394739
sg104
g114
sg97
I4
sg106
F4.641524971859365
sg107
g111
sbag1
(g93
g3
NtRp117
(dp118
g103
F2.230650061470155
sg104
g114
sg97
I5
sg106
F4.8086060153359362
sg107
g111
sbag1
(g93
g3
NtRp119
(dp120
g103
F-2.4064835552507553
sg104
g114
sg97
I6
sg106
F2.5394781178147632
sg107
g111
sbag1
(g93
g3
NtRp121
(dp122
g103
F-1.5610160735722305
sg104
g114
sg97
I7
sg106
F4.9178858441778912
sg107
g111
sbag1
(g93
g3
NtRp123
(dp124
g103
F0.83477679993643839
sg104
g114
sg97
I8
sg106
F4.8553602712616097
sg107
g111
sbasb.