ccopy_reg
_reconstructor
p1
(cneat.chromosome
Chromosome
p2
c__builtin__
object
p3
NtRp4
(dp5
S'species_id'
p6
I27
sS'_connection_genes'
p7
(dp8
(I1
I2
tp9
g1
(cneat.genome
ConnectionGene
p10
g3
NtRp11
(dp12
S'_ConnectionGene__weight'
p13
F14.048768351938161
sS'_ConnectionGene__in'
p14
I1
sS'_ConnectionGene__enabled'
p15
I01
sS'_ConnectionGene__out'
p16
I2
sS'_ConnectionGene__innov_number'
p17
I1
sbs(I3
I2
tp18
g1
(g10
g3
NtRp19
(dp20
g13
F14.24401192843926
sg14
I3
sg15
I00
sg16
I2
sg17
I4
sbs(I1
I3
tp21
g1
(g10
g3
NtRp22
(dp23
g13
F13.008591947058022
sg14
I1
sg15
I01
sg16
I3
sg17
I3
sbs(I3
I3
tp24
g1
(g10
g3
NtRp25
(dp26
g13
F6.7858287502330494
sg14
I3
sg15
I01
sg16
I3
sg17
I9
sbs(I5
I6
tp27
g1
(g10
g3
NtRp28
(dp29
g13
F7.794302121107096
sg14
I5
sg15
I01
sg16
I6
sg17
I16
sbs(I5
I2
tp30
g1
(g10
g3
NtRp31
(dp32
g13
F28.777310348238835
sg14
I5
sg15
I01
sg16
I2
sg17
I11
sbs(I4
I4
tp33
g1
(g10
g3
NtRp34
(dp35
g13
F-5.9224321844153529
sg14
I4
sg15
I01
sg16
I4
sg17
I15
sbs(I1
I4
tp36
g1
(g10
g3
NtRp37
(dp38
g13
F7.3823965856832361
sg14
I1
sg15
I01
sg16
I4
sg17
I8
sbs(I1
I5
tp39
g1
(g10
g3
NtRp40
(dp41
g13
F7.3804080295588665
sg14
I1
sg15
I01
sg16
I5
sg17
I10
sbs(I2
I3
tp42
g1
(g10
g3
NtRp43
(dp44
g13
F-2.6536105812895023
sg14
I2
sg15
I01
sg16
I3
sg17
I7
sbs(I3
I6
tp45
g1
(g10
g3
NtRp46
(dp47
g13
F-1.6131983139438015
sg14
I3
sg15
I01
sg16
I6
sg17
I19
sbs(I2
I2
tp48
g1
(g10
g3
NtRp49
(dp50
g13
F9.2416433234466382
sg14
I2
sg15
I01
sg16
I2
sg17
I2
sbs(I4
I2
tp51
g1
(g10
g3
NtRp52
(dp53
g13
F16.838615840094469
sg14
I4
sg15
I01
sg16
I2
sg17
I6
sbs(I3
I5
tp54
g1
(g10
g3
NtRp55
(dp56
g13
F5.8869976398990556
sg14
I3
sg15
I01
sg16
I5
sg17
I13
sbs(I3
I4
tp57
g1
(g10
g3
NtRp58
(dp59
g13
F-0.3903498198637394
sg14
I3
sg15
I01
sg16
I4
sg17
I5
sbs(I2
I4
tp60
g1
(g10
g3
NtRp61
(dp62
g13
F-6.1182750171141205
sg14
I2
sg15
I01
sg16
I4
sg17
I24
sbs(I6
I5
tp63
g1
(g10
g3
NtRp64
(dp65
g13
F18.841400376900111
sg14
I6
sg15
I01
sg16
I5
sg17
I23
sbs(I5
I3
tp66
g1
(g10
g3
NtRp67
(dp68
g13
F10.876587373291546
sg14
I5
sg15
I01
sg16
I3
sg17
I14
sbssS'_input_nodes'
p69
I1
sS'_output_nodes'
p70
I1
sS'_node_gene_type'
p71
cneat.genome
NodeGene
p72
sS'_conn_gene_type'
p73
g10
sS'fitness'
p74
F0.96341248908170585
sS'parent2_id'
p75
I1881
sS'_id'
p76
I1899
sS'parent1_id'
p77
I1881
sS'_node_genes'
p78
(lp79
g1
(g72
g3
NtRp80
(dp81
S'_bias'
p82
I0
sS'_type'
p83
S'INPUT'
p84
sg76
I1
sS'_response'
p85
F4.9242730000000003
sS'_activation_type'
p86
Nsbag1
(g72
g3
NtRp87
(dp88
g82
F-0.5245158935530676
sg83
S'OUTPUT'
p89
sg76
I2
sg85
F5.6245584692741799
sg86
S'tanh'
p90
sbag1
(g72
g3
NtRp91
(dp92
g82
F1.9461646116552722
sg83
S'HIDDEN'
p93
sg76
I3
sg85
F3.4627201674470536
sg86
g90
sbag1
(g72
g3
NtRp94
(dp95
g82
F-1.1941221352325404
sg83
g93
sg76
I4
sg85
F3.2589413681281556
sg86
g90
sbag1
(g72
g3
NtRp96
(dp97
g82
F-0.96636512667712804
sg83
g93
sg76
I5
sg85
F3.7673118363010079
sg86
g90
sbag1
(g72
g3
NtRp98
(dp99
g82
F-2.5060697679780493
sg83
g93
sg76
I6
sg85
F4.9496856154074118
sg86
g90
sbasb.