ccopy_reg
_reconstructor
p1
(cneat.chromosome
Chromosome
p2
c__builtin__
object
p3
NtRp4
(dp5
S'species_id'
p6
I59
sS'_connection_genes'
p7
(dp8
(I3
I15
tp9
g1
(cneat.genome
ConnectionGene
p10
g3
NtRp11
(dp12
S'_ConnectionGene__weight'
p13
F-17.109599278716349
sS'_ConnectionGene__in'
p14
I3
sS'_ConnectionGene__enabled'
p15
I01
sS'_ConnectionGene__out'
p16
I15
sS'_ConnectionGene__innov_number'
p17
I151
sbs(I1
I3
tp18
g1
(g10
g3
NtRp19
(dp20
g13
F27.078131947771848
sg14
I1
sg15
I01
sg16
I3
sg17
I3
sbs(I6
I6
tp21
g1
(g10
g3
NtRp22
(dp23
g13
F15.718477320580046
sg14
I6
sg15
I01
sg16
I6
sg17
I39
sbs(I5
I6
tp24
g1
(g10
g3
NtRp25
(dp26
g13
F-2.3102363195854689
sg14
I5
sg15
I01
sg16
I6
sg17
I16
sbs(I9
I8
tp27
g1
(g10
g3
NtRp28
(dp29
g13
F-5.6201405404696043
sg14
I9
sg15
I01
sg16
I8
sg17
I60
sbs(I16
I2
tp30
g1
(g10
g3
NtRp31
(dp32
g13
F23.072687087749699
sg14
I16
sg15
I01
sg16
I2
sg17
I161
sbs(I4
I12
tp33
g1
(g10
g3
NtRp34
(dp35
g13
F-6.0753078858075931
sg14
I4
sg15
I01
sg16
I12
sg17
I102
sbs(I9
I4
tp36
g1
(g10
g3
NtRp37
(dp38
g13
F19.082887011217235
sg14
I9
sg15
I01
sg16
I4
sg17
I77
sbs(I7
I2
tp39
g1
(g10
g3
NtRp40
(dp41
g13
F-20.33304343516776
sg14
I7
sg15
I01
sg16
I2
sg17
I33
sbs(I12
I14
tp42
g1
(g10
g3
NtRp43
(dp44
g13
F-11.891546620700845
sg14
I12
sg15
I01
sg16
I14
sg17
I147
sbs(I1
I2
tp45
g1
(g10
g3
NtRp46
(dp47
g13
F14.802708374252379
sg14
I1
sg15
I01
sg16
I2
sg17
I1
sbs(I4
I9
tp48
g1
(g10
g3
NtRp49
(dp50
g13
F13.888483890764782
sg14
I4
sg15
I01
sg16
I9
sg17
I44
sbs(I3
I3
tp51
g1
(g10
g3
NtRp52
(dp53
g13
F21.740886609091511
sg14
I3
sg15
I01
sg16
I3
sg17
I9
sbs(I1
I16
tp54
g1
(g10
g3
NtRp55
(dp56
g13
F-5.1510836919253338
sg14
I1
sg15
I01
sg16
I16
sg17
I165
sbs(I4
I4
tp57
g1
(g10
g3
NtRp58
(dp59
g13
F12.299524764572602
sg14
I4
sg15
I01
sg16
I4
sg17
I15
sbs(I1
I5
tp60
g1
(g10
g3
NtRp61
(dp62
g13
F3.197173495191648
sg14
I1
sg15
I01
sg16
I5
sg17
I10
sbs(I6
I5
tp63
g1
(g10
g3
NtRp64
(dp65
g13
F27.576237590133715
sg14
I6
sg15
I01
sg16
I5
sg17
I23
sbs(I3
I6
tp66
g1
(g10
g3
NtRp67
(dp68
g13
F13.790852209947333
sg14
I3
sg15
I00
sg16
I6
sg17
I19
sbs(I2
I2
tp69
g1
(g10
g3
NtRp70
(dp71
g13
F1.9536814800322859
sg14
I2
sg15
I01
sg16
I2
sg17
I2
sbs(I5
I7
tp72
g1
(g10
g3
NtRp73
(dp74
g13
F25.189260992096205
sg14
I5
sg15
I01
sg16
I7
sg17
I28
sbs(I5
I3
tp75
g1
(g10
g3
NtRp76
(dp77
g13
F0.71953007858351303
sg14
I5
sg15
I01
sg16
I3
sg17
I14
sbs(I11
I2
tp78
g1
(g10
g3
NtRp79
(dp80
g13
F11.982847090640176
sg14
I11
sg15
I01
sg16
I2
sg17
I74
sbs(I14
I11
tp81
g1
(g10
g3
NtRp82
(dp83
g13
F-9.3963442113018587
sg14
I14
sg15
I01
sg16
I11
sg17
I148
sbs(I3
I2
tp84
g1
(g10
g3
NtRp85
(dp86
g13
F-11.618263505790031
sg14
I3
sg15
I01
sg16
I2
sg17
I4
sbs(I10
I4
tp87
g1
(g10
g3
NtRp88
(dp89
g13
F-8.5258474484094648
sg14
I10
sg15
I01
sg16
I4
sg17
I90
sbs(I4
I5
tp90
g1
(g10
g3
NtRp91
(dp92
g13
F-11.546938407692233
sg14
I4
sg15
I01
sg16
I5
sg17
I30
sbs(I1
I4
tp93
g1
(g10
g3
NtRp94
(dp95
g13
F24.465455161381122
sg14
I1
sg15
I01
sg16
I4
sg17
I8
sbs(I2
I10
tp96
g1
(g10
g3
NtRp97
(dp98
g13
F6.1626420791572016
sg14
I2
sg15
I01
sg16
I10
sg17
I57
sbs(I2
I3
tp99
g1
(g10
g3
NtRp100
(dp101
g13
F-8.8336324124587016
sg14
I2
sg15
I01
sg16
I3
sg17
I7
sbs(I12
I11
tp102
g1
(g10
g3
NtRp103
(dp104
g13
F2.2717828457308995
sg14
I12
sg15
I00
sg16
I11
sg17
I84
sbs(I4
I2
tp105
g1
(g10
g3
NtRp106
(dp107
g13
F22.12031203237941
sg14
I4
sg15
I00
sg16
I2
sg17
I6
sbs(I4
I11
tp108
g1
(g10
g3
NtRp109
(dp110
g13
F15.557672356695829
sg14
I4
sg15
I00
sg16
I11
sg17
I75
sbs(I7
I9
tp111
g1
(g10
g3
NtRp112
(dp113
g13
F-0.16455152870878853
sg14
I7
sg15
I01
sg16
I9
sg17
I41
sbs(I3
I5
tp114
g1
(g10
g3
NtRp115
(dp116
g13
F22.999878308279758
sg14
I3
sg15
I01
sg16
I5
sg17
I13
sbs(I8
I3
tp117
g1
(g10
g3
NtRp118
(dp119
g13
F14.839759635249926
sg14
I8
sg15
I01
sg16
I3
sg17
I71
sbs(I5
I10
tp120
g1
(g10
g3
NtRp121
(dp122
g13
F4.2029278978133693
sg14
I5
sg15
I01
sg16
I10
sg17
I82
sbs(I5
I2
tp123
g1
(g10
g3
NtRp124
(dp125
g13
F29.030986233548219
sg14
I5
sg15
I01
sg16
I2
sg17
I11
sbs(I7
I13
tp126
g1
(g10
g3
NtRp127
(dp128
g13
F9.1218714969078309
sg14
I7
sg15
I01
sg16
I13
sg17
I136
sbs(I14
I7
tp129
g1
(g10
g3
NtRp130
(dp131
g13
F3.9161129131457404
sg14
I14
sg15
I01
sg16
I7
sg17
I149
sbs(I3
I8
tp132
g1
(g10
g3
NtRp133
(dp134
g13
F10.508722299541446
sg14
I3
sg15
I01
sg16
I8
sg17
I49
sbs(I15
I6
tp135
g1
(g10
g3
NtRp136
(dp137
g13
F-4.7354393416129561
sg14
I15
sg15
I01
sg16
I6
sg17
I152
sbs(I4
I3
tp138
g1
(g10
g3
NtRp139
(dp140
g13
F-11.501919117510674
sg14
I4
sg15
I01
sg16
I3
sg17
I12
sbs(I13
I9
tp141
g1
(g10
g3
NtRp142
(dp143
g13
F4.3389363240825984
sg14
I13
sg15
I01
sg16
I9
sg17
I137
sbs(I3
I4
tp144
g1
(g10
g3
NtRp145
(dp146
g13
F-21.193645221508497
sg14
I3
sg15
I01
sg16
I4
sg17
I5
sbs(I2
I4
tp147
g1
(g10
g3
NtRp148
(dp149
g13
F-21.817815337767556
sg14
I2
sg15
I01
sg16
I4
sg17
I24
sbs(I8
I4
tp150
g1
(g10
g3
NtRp151
(dp152
g13
F-3.8272799273127944
sg14
I8
sg15
I01
sg16
I4
sg17
I40
sbssS'_input_nodes'
p153
I1
sS'_output_nodes'
p154
I1
sS'_node_gene_type'
p155
cneat.genome
NodeGene
p156
sS'_conn_gene_type'
p157
g10
sS'fitness'
p158
F0.96005511638070851
sS'parent2_id'
p159
I6268
sS'_id'
p160
I6284
sS'parent1_id'
p161
I6268
sS'_node_genes'
p162
(lp163
g1
(g156
g3
NtRp164
(dp165
S'_bias'
p166
I0
sS'_type'
p167
S'INPUT'
p168
sg160
I1
sS'_response'
p169
F4.9242730000000003
sS'_activation_type'
p170
Nsbag1
(g156
g3
NtRp171
(dp172
g166
F-1.0841757751125733
sg167
S'OUTPUT'
p173
sg160
I2
sg169
F3.7188509050943734
sg170
S'tanh'
p174
sbag1
(g156
g3
NtRp175
(dp176
g166
F-3.7899936333462434
sg167
S'HIDDEN'
p177
sg160
I3
sg169
F0.6185274704124647
sg170
g174
sbag1
(g156
g3
NtRp178
(dp179
g166
F-1.3349592436212512
sg167
g177
sg160
I4
sg169
F3.9879788889674277
sg170
g174
sbag1
(g156
g3
NtRp180
(dp181
g166
F1.4307252598367453
sg167
g177
sg160
I5
sg169
F3.6494392491318974
sg170
g174
sbag1
(g156
g3
NtRp182
(dp183
g166
F-2.1008400929339142
sg167
g177
sg160
I6
sg169
F0.36335007048686313
sg170
g174
sbag1
(g156
g3
NtRp184
(dp185
g166
F-6.6244259763625006
sg167
g177
sg160
I7
sg169
F3.1331071330951605
sg170
g174
sbag1
(g156
g3
NtRp186
(dp187
g166
F0.8254113233074718
sg167
g177
sg160
I8
sg169
F5.979060434288213
sg170
g174
sbag1
(g156
g3
NtRp188
(dp189
g166
F3.7222693834207088
sg167
g177
sg160
I9
sg169
F7.634272815740883
sg170
g174
sbag1
(g156
g3
NtRp190
(dp191
g166
F-0.21680589452082549
sg167
g177
sg160
I10
sg169
F3.5574072375512751
sg170
g174
sbag1
(g156
g3
NtRp192
(dp193
g166
F0.92466841471329686
sg167
g177
sg160
I11
sg169
F6.7131042670939864
sg170
g174
sbag1
(g156
g3
NtRp194
(dp195
g166
F-1.4431072769241118
sg167
g177
sg160
I12
sg169
F7.3038881366253925
sg170
g174
sbag1
(g156
g3
NtRp196
(dp197
g166
F0.26398780646703718
sg167
g177
sg160
I13
sg169
F4.268452710693392
sg170
g174
sbag1
(g156
g3
NtRp198
(dp199
g166
F-0.014911200317993015
sg167
g177
sg160
I14
sg169
F5.3951796819927589
sg170
g174
sbag1
(g156
g3
NtRp200
(dp201
g166
F-0.6159414484265392
sg167
g177
sg160
I15
sg169
F6.0490203276021726
sg170
g174
sbag1
(g156
g3
NtRp202
(dp203
g166
F-0.50512251770318128
sg167
g177
sg160
I16
sg169
F3.8529196467374729
sg170
g174
sbasb.