ccopy_reg
_reconstructor
p1
(cneat.chromosome
Chromosome
p2
c__builtin__
object
p3
NtRp4
(dp5
S'species_id'
p6
I39
sS'_connection_genes'
p7
(dp8
(I1
I3
tp9
g1
(cneat.genome
ConnectionGene
p10
g3
NtRp11
(dp12
S'_ConnectionGene__weight'
p13
F16.518419757543985
sS'_ConnectionGene__in'
p14
I1
sS'_ConnectionGene__enabled'
p15
I01
sS'_ConnectionGene__out'
p16
I3
sS'_ConnectionGene__innov_number'
p17
I3
sbs(I6
I6
tp18
g1
(g10
g3
NtRp19
(dp20
g13
F11.666237632384384
sg14
I6
sg15
I01
sg16
I6
sg17
I39
sbs(I5
I6
tp21
g1
(g10
g3
NtRp22
(dp23
g13
F-2.4790070884753859
sg14
I5
sg15
I01
sg16
I6
sg17
I16
sbs(I9
I8
tp24
g1
(g10
g3
NtRp25
(dp26
g13
F-11.456043005637403
sg14
I9
sg15
I01
sg16
I8
sg17
I60
sbs(I9
I4
tp27
g1
(g10
g3
NtRp28
(dp29
g13
F16.776914729014322
sg14
I9
sg15
I01
sg16
I4
sg17
I77
sbs(I7
I2
tp30
g1
(g10
g3
NtRp31
(dp32
g13
F-2.6121744279361905
sg14
I7
sg15
I01
sg16
I2
sg17
I33
sbs(I1
I2
tp33
g1
(g10
g3
NtRp34
(dp35
g13
F4.353907345318456
sg14
I1
sg15
I01
sg16
I2
sg17
I1
sbs(I4
I9
tp36
g1
(g10
g3
NtRp37
(dp38
g13
F5.8151064350810762
sg14
I4
sg15
I01
sg16
I9
sg17
I44
sbs(I3
I3
tp39
g1
(g10
g3
NtRp40
(dp41
g13
F20.695247169593436
sg14
I3
sg15
I01
sg16
I3
sg17
I9
sbs(I4
I4
tp42
g1
(g10
g3
NtRp43
(dp44
g13
F16.174983333443201
sg14
I4
sg15
I00
sg16
I4
sg17
I15
sbs(I1
I5
tp45
g1
(g10
g3
NtRp46
(dp47
g13
F-0.38806124572881845
sg14
I1
sg15
I01
sg16
I5
sg17
I10
sbs(I3
I6
tp48
g1
(g10
g3
NtRp49
(dp50
g13
F1.6245098775211215
sg14
I3
sg15
I01
sg16
I6
sg17
I19
sbs(I2
I2
tp51
g1
(g10
g3
NtRp52
(dp53
g13
F3.5108265418714506
sg14
I2
sg15
I01
sg16
I2
sg17
I2
sbs(I3
I5
tp54
g1
(g10
g3
NtRp55
(dp56
g13
F6.4088743561584165
sg14
I3
sg15
I01
sg16
I5
sg17
I13
sbs(I3
I2
tp57
g1
(g10
g3
NtRp58
(dp59
g13
F4.003645201073585
sg14
I3
sg15
I01
sg16
I2
sg17
I4
sbs(I4
I5
tp60
g1
(g10
g3
NtRp61
(dp62
g13
F1.7459955274297672
sg14
I4
sg15
I01
sg16
I5
sg17
I30
sbs(I1
I4
tp63
g1
(g10
g3
NtRp64
(dp65
g13
F13.386247560660884
sg14
I1
sg15
I01
sg16
I4
sg17
I8
sbs(I2
I3
tp66
g1
(g10
g3
NtRp67
(dp68
g13
F-20.168002790220484
sg14
I2
sg15
I01
sg16
I3
sg17
I7
sbs(I4
I2
tp69
g1
(g10
g3
NtRp70
(dp71
g13
F10.595963340863637
sg14
I4
sg15
I01
sg16
I2
sg17
I6
sbs(I6
I5
tp72
g1
(g10
g3
NtRp73
(dp74
g13
F4.8557328043220398
sg14
I6
sg15
I01
sg16
I5
sg17
I23
sbs(I5
I3
tp75
g1
(g10
g3
NtRp76
(dp77
g13
F9.5209187018307393
sg14
I5
sg15
I01
sg16
I3
sg17
I14
sbs(I8
I3
tp78
g1
(g10
g3
NtRp79
(dp80
g13
F7.7495574958938205
sg14
I8
sg15
I01
sg16
I3
sg17
I71
sbs(I5
I2
tp81
g1
(g10
g3
NtRp82
(dp83
g13
F15.070541650675803
sg14
I5
sg15
I01
sg16
I2
sg17
I11
sbs(I5
I7
tp84
g1
(g10
g3
NtRp85
(dp86
g13
F12.131763749203746
sg14
I5
sg15
I01
sg16
I7
sg17
I28
sbs(I3
I8
tp87
g1
(g10
g3
NtRp88
(dp89
g13
F20.561505274188615
sg14
I3
sg15
I01
sg16
I8
sg17
I49
sbs(I4
I3
tp90
g1
(g10
g3
NtRp91
(dp92
g13
F-1.911055901723886
sg14
I4
sg15
I01
sg16
I3
sg17
I12
sbs(I3
I4
tp93
g1
(g10
g3
NtRp94
(dp95
g13
F-6.334330277848248
sg14
I3
sg15
I00
sg16
I4
sg17
I5
sbs(I2
I4
tp96
g1
(g10
g3
NtRp97
(dp98
g13
F-2.9403895275097787
sg14
I2
sg15
I01
sg16
I4
sg17
I24
sbs(I8
I4
tp99
g1
(g10
g3
NtRp100
(dp101
g13
F-4.2174195030532022
sg14
I8
sg15
I01
sg16
I4
sg17
I40
sbssS'_input_nodes'
p102
I1
sS'_output_nodes'
p103
I1
sS'_node_gene_type'
p104
cneat.genome
NodeGene
p105
sS'_conn_gene_type'
p106
g10
sS'fitness'
p107
F0.9986977023749728
sS'parent2_id'
p108
I4341
sS'_id'
p109
I4358
sS'parent1_id'
p110
I4341
sS'_node_genes'
p111
(lp112
g1
(g105
g3
NtRp113
(dp114
S'_bias'
p115
I0
sS'_type'
p116
S'INPUT'
p117
sg109
I1
sS'_response'
p118
F4.9242730000000003
sS'_activation_type'
p119
Nsbag1
(g105
g3
NtRp120
(dp121
g115
F0.51075204724089251
sg116
S'OUTPUT'
p122
sg109
I2
sg118
F4.7229856037944948
sg119
S'tanh'
p123
sbag1
(g105
g3
NtRp124
(dp125
g115
F-1.7961106463503951
sg116
S'HIDDEN'
p126
sg109
I3
sg118
F2.3375292804235643
sg119
g123
sbag1
(g105
g3
NtRp127
(dp128
g115
F-0.060197685325815486
sg116
g126
sg109
I4
sg118
F6.1922086424600646
sg119
g123
sbag1
(g105
g3
NtRp129
(dp130
g115
F2.6513504152092939
sg116
g126
sg109
I5
sg118
F6.5546843770062759
sg119
g123
sbag1
(g105
g3
NtRp131
(dp132
g115
F-1.208856710306927
sg116
g126
sg109
I6
sg118
F3.3625132752793618
sg119
g123
sbag1
(g105
g3
NtRp133
(dp134
g115
F-1.6360267737481331
sg116
g126
sg109
I7
sg118
F5.8958897200037885
sg119
g123
sbag1
(g105
g3
NtRp135
(dp136
g115
F-0.40758431618286828
sg116
g126
sg109
I8
sg118
F5.251681329865912
sg119
g123
sbag1
(g105
g3
NtRp137
(dp138
g115
F-0.12454710523191426
sg116
g126
sg109
I9
sg118
F4.632797819652561
sg119
g123
sbasb.