ccopy_reg
_reconstructor
p1
(cneat.chromosome
Chromosome
p2
c__builtin__
object
p3
NtRp4
(dp5
S'species_id'
p6
I81
sS'_connection_genes'
p7
(dp8
(I1
I3
tp9
g1
(cneat.genome
ConnectionGene
p10
g3
NtRp11
(dp12
S'_ConnectionGene__weight'
p13
F18.801636464926819
sS'_ConnectionGene__in'
p14
I1
sS'_ConnectionGene__enabled'
p15
I01
sS'_ConnectionGene__out'
p16
I3
sS'_ConnectionGene__innov_number'
p17
I3
sbs(I11
I11
tp18
g1
(g10
g3
NtRp19
(dp20
g13
F12.132373906131457
sg14
I11
sg15
I01
sg16
I11
sg17
I122
sbs(I6
I6
tp21
g1
(g10
g3
NtRp22
(dp23
g13
F5.0514649617076337
sg14
I6
sg15
I00
sg16
I6
sg17
I39
sbs(I5
I6
tp24
g1
(g10
g3
NtRp25
(dp26
g13
F26.937950905819122
sg14
I5
sg15
I01
sg16
I6
sg17
I16
sbs(I9
I8
tp27
g1
(g10
g3
NtRp28
(dp29
g13
F-26.520361154736005
sg14
I9
sg15
I01
sg16
I8
sg17
I60
sbs(I10
I6
tp30
g1
(g10
g3
NtRp31
(dp32
g13
F-19.809174670028714
sg14
I10
sg15
I01
sg16
I6
sg17
I103
sbs(I14
I13
tp33
g1
(g10
g3
NtRp34
(dp35
g13
F-1.3294243077728354
sg14
I14
sg15
I01
sg16
I13
sg17
I252
sbs(I9
I4
tp36
g1
(g10
g3
NtRp37
(dp38
g13
F18.815495371568556
sg14
I9
sg15
I01
sg16
I4
sg17
I77
sbs(I13
I2
tp39
g1
(g10
g3
NtRp40
(dp41
g13
F-3.8263990345216383
sg14
I13
sg15
I01
sg16
I2
sg17
I133
sbs(I7
I2
tp42
g1
(g10
g3
NtRp43
(dp44
g13
F-5.5125216539513087
sg14
I7
sg15
I01
sg16
I2
sg17
I33
sbs(I1
I2
tp45
g1
(g10
g3
NtRp46
(dp47
g13
F30
sg14
I1
sg15
I01
sg16
I2
sg17
I1
sbs(I4
I13
tp48
g1
(g10
g3
NtRp49
(dp50
g13
F-0.13627746696900456
sg14
I4
sg15
I00
sg16
I13
sg17
I119
sbs(I11
I10
tp51
g1
(g10
g3
NtRp52
(dp53
g13
F-21.007043151049135
sg14
I11
sg15
I01
sg16
I10
sg17
I89
sbs(I4
I9
tp54
g1
(g10
g3
NtRp55
(dp56
g13
F19.71694654539608
sg14
I4
sg15
I01
sg16
I9
sg17
I44
sbs(I3
I3
tp57
g1
(g10
g3
NtRp58
(dp59
g13
F19.253934575704065
sg14
I3
sg15
I00
sg16
I3
sg17
I9
sbs(I3
I10
tp60
g1
(g10
g3
NtRp61
(dp62
g13
F-30
sg14
I3
sg15
I01
sg16
I10
sg17
I94
sbs(I4
I4
tp63
g1
(g10
g3
NtRp64
(dp65
g13
F21.446408523657286
sg14
I4
sg15
I01
sg16
I4
sg17
I15
sbs(I7
I4
tp66
g1
(g10
g3
NtRp67
(dp68
g13
F5.2858910115177746
sg14
I7
sg15
I01
sg16
I4
sg17
I46
sbs(I6
I3
tp69
g1
(g10
g3
NtRp70
(dp71
g13
F1.1862758371597026
sg14
I6
sg15
I01
sg16
I3
sg17
I22
sbs(I1
I5
tp72
g1
(g10
g3
NtRp73
(dp74
g13
F20.469165498120105
sg14
I1
sg15
I01
sg16
I5
sg17
I10
sbs(I9
I11
tp75
g1
(g10
g3
NtRp76
(dp77
g13
F-10.715918489830113
sg14
I9
sg15
I01
sg16
I11
sg17
I106
sbs(I3
I6
tp78
g1
(g10
g3
NtRp79
(dp80
g13
F-10.546472421049033
sg14
I3
sg15
I01
sg16
I6
sg17
I19
sbs(I2
I2
tp81
g1
(g10
g3
NtRp82
(dp83
g13
F21.79441943365957
sg14
I2
sg15
I01
sg16
I2
sg17
I2
sbs(I3
I4
tp84
g1
(g10
g3
NtRp85
(dp86
g13
F7.4397055820463986
sg14
I3
sg15
I01
sg16
I4
sg17
I5
sbs(I5
I3
tp87
g1
(g10
g3
NtRp88
(dp89
g13
F4.2182541301539507
sg14
I5
sg15
I01
sg16
I3
sg17
I14
sbs(I6
I15
tp90
g1
(g10
g3
NtRp91
(dp92
g13
F-1.6776536142019431
sg14
I6
sg15
I01
sg16
I15
sg17
I241
sbs(I10
I9
tp93
g1
(g10
g3
NtRp94
(dp95
g13
F13.36713581874756
sg14
I10
sg15
I01
sg16
I9
sg17
I58
sbs(I9
I7
tp96
g1
(g10
g3
NtRp97
(dp98
g13
F26.521750874704288
sg14
I9
sg15
I01
sg16
I7
sg17
I53
sbs(I3
I2
tp99
g1
(g10
g3
NtRp100
(dp101
g13
F-3.242907519308261
sg14
I3
sg15
I01
sg16
I2
sg17
I4
sbs(I11
I4
tp102
g1
(g10
g3
NtRp103
(dp104
g13
F28.654258175752322
sg14
I11
sg15
I01
sg16
I4
sg17
I101
sbs(I10
I4
tp105
g1
(g10
g3
NtRp106
(dp107
g13
F6.8976862665680514
sg14
I10
sg15
I01
sg16
I4
sg17
I90
sbs(I4
I5
tp108
g1
(g10
g3
NtRp109
(dp110
g13
F-14.358450506361915
sg14
I4
sg15
I01
sg16
I5
sg17
I30
sbs(I8
I11
tp111
g1
(g10
g3
NtRp112
(dp113
g13
F-3.9804223731899047
sg14
I8
sg15
I01
sg16
I11
sg17
I80
sbs(I4
I14
tp114
g1
(g10
g3
NtRp115
(dp116
g13
F3.3178313030181279
sg14
I4
sg15
I01
sg16
I14
sg17
I248
sbs(I1
I4
tp117
g1
(g10
g3
NtRp118
(dp119
g13
F-13.340203810301537
sg14
I1
sg15
I01
sg16
I4
sg17
I8
sbs(I4
I16
tp120
g1
(g10
g3
NtRp121
(dp122
g13
F3.4149415140363799
sg14
I4
sg15
I01
sg16
I16
sg17
I160
sbs(I2
I3
tp123
g1
(g10
g3
NtRp124
(dp125
g13
F-23.452684645813186
sg14
I2
sg15
I01
sg16
I3
sg17
I7
sbs(I4
I2
tp126
g1
(g10
g3
NtRp127
(dp128
g13
F4.4047391283164536
sg14
I4
sg15
I00
sg16
I2
sg17
I6
sbs(I6
I5
tp129
g1
(g10
g3
NtRp130
(dp131
g13
F3.235597457009562
sg14
I6
sg15
I01
sg16
I5
sg17
I23
sbs(I7
I9
tp132
g1
(g10
g3
NtRp133
(dp134
g13
F18.661351363067684
sg14
I7
sg15
I01
sg16
I9
sg17
I41
sbs(I3
I5
tp135
g1
(g10
g3
NtRp136
(dp137
g13
F-18.011019588720664
sg14
I3
sg15
I01
sg16
I5
sg17
I13
sbs(I8
I3
tp138
g1
(g10
g3
NtRp139
(dp140
g13
F18.757321014097016
sg14
I8
sg15
I01
sg16
I3
sg17
I71
sbs(I3
I12
tp141
g1
(g10
g3
NtRp142
(dp143
g13
F-3.9469354433753043
sg14
I3
sg15
I01
sg16
I12
sg17
I99
sbs(I5
I2
tp144
g1
(g10
g3
NtRp145
(dp146
g13
F14.032496402872686
sg14
I5
sg15
I01
sg16
I2
sg17
I11
sbs(I5
I7
tp147
g1
(g10
g3
NtRp148
(dp149
g13
F-19.185494485017607
sg14
I5
sg15
I01
sg16
I7
sg17
I28
sbs(I3
I8
tp150
g1
(g10
g3
NtRp151
(dp152
g13
F18.60099389174907
sg14
I3
sg15
I01
sg16
I8
sg17
I49
sbs(I15
I6
tp153
g1
(g10
g3
NtRp154
(dp155
g13
F11.503739774921355
sg14
I15
sg15
I01
sg16
I6
sg17
I152
sbs(I12
I3
tp156
g1
(g10
g3
NtRp157
(dp158
g13
F15.536472468819003
sg14
I12
sg15
I01
sg16
I3
sg17
I88
sbs(I4
I3
tp159
g1
(g10
g3
NtRp160
(dp161
g13
F5.0530837907945205
sg14
I4
sg15
I01
sg16
I3
sg17
I12
sbs(I16
I13
tp162
g1
(g10
g3
NtRp163
(dp164
g13
F-0.9880208252152638
sg14
I16
sg15
I01
sg16
I13
sg17
I255
sbs(I2
I4
tp165
g1
(g10
g3
NtRp166
(dp167
g13
F27.486886770523224
sg14
I2
sg15
I01
sg16
I4
sg17
I24
sbs(I8
I4
tp168
g1
(g10
g3
NtRp169
(dp170
g13
F-23.536209837187414
sg14
I8
sg15
I01
sg16
I4
sg17
I40
sbssS'_input_nodes'
p171
I1
sS'_output_nodes'
p172
I1
sS'_node_gene_type'
p173
cneat.genome
NodeGene
p174
sS'_conn_gene_type'
p175
g10
sS'fitness'
p176
F0.91712946492290826
sS'parent2_id'
p177
I8682
sS'_id'
p178
I8696
sS'parent1_id'
p179
I8682
sS'_node_genes'
p180
(lp181
g1
(g174
g3
NtRp182
(dp183
S'_bias'
p184
I0
sS'_type'
p185
S'INPUT'
p186
sg178
I1
sS'_response'
p187
F4.9242730000000003
sS'_activation_type'
p188
Nsbag1
(g174
g3
NtRp189
(dp190
g184
F-4.1493058825859936
sg185
S'OUTPUT'
p191
sg178
I2
sg187
F2.6370293671117655
sg188
S'tanh'
p192
sbag1
(g174
g3
NtRp193
(dp194
g184
F-3.1464840376778707
sg185
S'HIDDEN'
p195
sg178
I3
sg187
F4.3067407857389775
sg188
g192
sbag1
(g174
g3
NtRp196
(dp197
g184
F3.943888557311277
sg185
g195
sg178
I4
sg187
F4.9250216534753752
sg188
g192
sbag1
(g174
g3
NtRp198
(dp199
g184
F3.3580762052661917
sg185
g195
sg178
I5
sg187
F11.162084646136734
sg188
g192
sbag1
(g174
g3
NtRp200
(dp201
g184
F-1.6877150810262034
sg185
g195
sg178
I6
sg187
F1.7870955179841581
sg188
g192
sbag1
(g174
g3
NtRp202
(dp203
g184
F-2.3903882572953941
sg185
g195
sg178
I7
sg187
F6.5320165148826765
sg188
g192
sbag1
(g174
g3
NtRp204
(dp205
g184
F-2.3805886659817719
sg185
g195
sg178
I8
sg187
F9.3971792563405661
sg188
g192
sbag1
(g174
g3
NtRp206
(dp207
g184
F-0.38184332928466791
sg185
g195
sg178
I9
sg187
F8.0733256909382156
sg188
g192
sbag1
(g174
g3
NtRp208
(dp209
g184
F2.7657629098912508
sg185
g195
sg178
I10
sg187
F4.7220554325473785
sg188
g192
sbag1
(g174
g3
NtRp210
(dp211
g184
F-0.80662534646562223
sg185
g195
sg178
I11
sg187
F5.7734300930742126
sg188
g192
sbag1
(g174
g3
NtRp212
(dp213
g184
F1.1278261139699386
sg185
g195
sg178
I12
sg187
F4.4427007982231252
sg188
g192
sbag1
(g174
g3
NtRp214
(dp215
g184
F1.8621358233672294
sg185
g195
sg178
I13
sg187
F4.8336706177875284
sg188
g192
sbag1
(g174
g3
NtRp216
(dp217
g184
F-0.80779287952361756
sg185
g195
sg178
I14
sg187
F4.9242730000000003
sg188
g192
sbag1
(g174
g3
NtRp218
(dp219
g184
F0.57838767959161441
sg185
g195
sg178
I15
sg187
F4.8137828344983653
sg188
g192
sbag1
(g174
g3
NtRp220
(dp221
g184
I0
sg185
g195
sg178
I16
sg187
F4.1931188402065915
sg188
g192
sbasb.