ccopy_reg
_reconstructor
p1
(cneat.chromosome
Chromosome
p2
c__builtin__
object
p3
NtRp4
(dp5
S'species_id'
p6
I28
sS'_connection_genes'
p7
(dp8
(I1
I3
tp9
g1
(cneat.genome
ConnectionGene
p10
g3
NtRp11
(dp12
S'_ConnectionGene__weight'
p13
F12.304840910944606
sS'_ConnectionGene__in'
p14
I1
sS'_ConnectionGene__enabled'
p15
I01
sS'_ConnectionGene__out'
p16
I3
sS'_ConnectionGene__innov_number'
p17
I3
sbs(I5
I6
tp18
g1
(g10
g3
NtRp19
(dp20
g13
F-16.840237278579394
sg14
I5
sg15
I01
sg16
I6
sg17
I16
sbs(I3
I7
tp21
g1
(g10
g3
NtRp22
(dp23
g13
F-0.26785855834442057
sg14
I3
sg15
I00
sg16
I7
sg17
I26
sbs(I8
I5
tp24
g1
(g10
g3
NtRp25
(dp26
g13
F2.2862520499393133
sg14
I8
sg15
I01
sg16
I5
sg17
I36
sbs(I7
I2
tp27
g1
(g10
g3
NtRp28
(dp29
g13
F5.5290372002100305
sg14
I7
sg15
I01
sg16
I2
sg17
I33
sbs(I1
I2
tp30
g1
(g10
g3
NtRp31
(dp32
g13
F4.6790265398528437
sg14
I1
sg15
I01
sg16
I2
sg17
I1
sbs(I3
I3
tp33
g1
(g10
g3
NtRp34
(dp35
g13
F-4.6438202778062188
sg14
I3
sg15
I01
sg16
I3
sg17
I9
sbs(I3
I6
tp36
g1
(g10
g3
NtRp37
(dp38
g13
F-0.56098278787995381
sg14
I3
sg15
I01
sg16
I6
sg17
I19
sbs(I2
I2
tp39
g1
(g10
g3
NtRp40
(dp41
g13
F-1.08923061072807
sg14
I2
sg15
I01
sg16
I2
sg17
I2
sbs(I5
I3
tp42
g1
(g10
g3
NtRp43
(dp44
g13
F16.585102198243987
sg14
I5
sg15
I01
sg16
I3
sg17
I14
sbs(I9
I7
tp45
g1
(g10
g3
NtRp46
(dp47
g13
F-5.6222700210524099
sg14
I9
sg15
I01
sg16
I7
sg17
I53
sbs(I3
I2
tp48
g1
(g10
g3
NtRp49
(dp50
g13
F20.172693438801844
sg14
I3
sg15
I00
sg16
I2
sg17
I4
sbs(I1
I4
tp51
g1
(g10
g3
NtRp52
(dp53
g13
F6.3701327610558005
sg14
I1
sg15
I01
sg16
I4
sg17
I8
sbs(I3
I9
tp54
g1
(g10
g3
NtRp55
(dp56
g13
F0.82718161412618763
sg14
I3
sg15
I01
sg16
I9
sg17
I61
sbs(I2
I3
tp57
g1
(g10
g3
NtRp58
(dp59
g13
F11.915477470989465
sg14
I2
sg15
I01
sg16
I3
sg17
I7
sbs(I4
I2
tp60
g1
(g10
g3
NtRp61
(dp62
g13
F14.034965652917357
sg14
I4
sg15
I01
sg16
I2
sg17
I6
sbs(I6
I5
tp63
g1
(g10
g3
NtRp64
(dp65
g13
F3.4415853275242938
sg14
I6
sg15
I00
sg16
I5
sg17
I23
sbs(I3
I5
tp66
g1
(g10
g3
NtRp67
(dp68
g13
F5.162023224668058
sg14
I3
sg15
I01
sg16
I5
sg17
I13
sbs(I6
I8
tp69
g1
(g10
g3
NtRp70
(dp71
g13
F-8.5494619573024231
sg14
I6
sg15
I01
sg16
I8
sg17
I56
sbs(I3
I4
tp72
g1
(g10
g3
NtRp73
(dp74
g13
F18.751292663456653
sg14
I3
sg15
I01
sg16
I4
sg17
I5
sbs(I9
I9
tp75
g1
(g10
g3
NtRp76
(dp77
g13
F1.4688699602077842
sg14
I9
sg15
I01
sg16
I9
sg17
I86
sbs(I5
I2
tp78
g1
(g10
g3
NtRp79
(dp80
g13
F22.964589474648626
sg14
I5
sg15
I01
sg16
I2
sg17
I11
sbs(I2
I4
tp81
g1
(g10
g3
NtRp82
(dp83
g13
F-12.179494539001654
sg14
I2
sg15
I01
sg16
I4
sg17
I24
sbssS'_input_nodes'
p84
I1
sS'_output_nodes'
p85
I1
sS'_node_gene_type'
p86
cneat.genome
NodeGene
p87
sS'_conn_gene_type'
p88
g10
sS'fitness'
p89
F0.96334466471497138
sS'parent2_id'
p90
I2173
sS'_id'
p91
I2192
sS'parent1_id'
p92
I2173
sS'_node_genes'
p93
(lp94
g1
(g87
g3
NtRp95
(dp96
S'_bias'
p97
I0
sS'_type'
p98
S'INPUT'
p99
sg91
I1
sS'_response'
p100
F4.9242730000000003
sS'_activation_type'
p101
Nsbag1
(g87
g3
NtRp102
(dp103
g97
F0.65085701642137095
sg98
S'OUTPUT'
p104
sg91
I2
sg100
F3.9345946984831373
sg101
S'tanh'
p105
sbag1
(g87
g3
NtRp106
(dp107
g97
F0.575437302361407
sg98
S'HIDDEN'
p108
sg91
I3
sg100
F0.80685068566885365
sg101
g105
sbag1
(g87
g3
NtRp109
(dp110
g97
F-1.0408888006074544
sg98
g108
sg91
I4
sg100
F5.2458267956282398
sg101
g105
sbag1
(g87
g3
NtRp111
(dp112
g97
F2.905912428322019
sg98
g108
sg91
I5
sg100
F1.8588209169407142
sg101
g105
sbag1
(g87
g3
NtRp113
(dp114
g97
F-4.2792051307097028
sg98
g108
sg91
I6
sg100
F4.8562698348798872
sg101
g105
sbag1
(g87
g3
NtRp115
(dp116
g97
F0.44771144328529677
sg98
g108
sg91
I7
sg100
F5.3859575836697999
sg101
g105
sbag1
(g87
g3
NtRp117
(dp118
g97
F1.3626372201045756
sg98
g108
sg91
I8
sg100
F3.0106166952895039
sg101
g105
sbag1
(g87
g3
NtRp119
(dp120
g97
I0
sg98
g108
sg91
I9
sg100
F4.8939880461653367
sg101
g105
sbasb.