ccopy_reg
_reconstructor
p1
(cneat.chromosome
Chromosome
p2
c__builtin__
object
p3
NtRp4
(dp5
S'species_id'
p6
I19
sS'_connection_genes'
p7
(dp8
(I1
I2
tp9
g1
(cneat.genome
ConnectionGene
p10
g3
NtRp11
(dp12
S'_ConnectionGene__weight'
p13
F9.6419430062108873
sS'_ConnectionGene__in'
p14
I1
sS'_ConnectionGene__enabled'
p15
I01
sS'_ConnectionGene__out'
p16
I2
sS'_ConnectionGene__innov_number'
p17
I1
sbs(I8
I5
tp18
g1
(g10
g3
NtRp19
(dp20
g13
F13.825579458434706
sg14
I8
sg15
I01
sg16
I5
sg17
I36
sbs(I3
I2
tp21
g1
(g10
g3
NtRp22
(dp23
g13
F12.623679004154681
sg14
I3
sg15
I00
sg16
I2
sg17
I4
sbs(I1
I3
tp24
g1
(g10
g3
NtRp25
(dp26
g13
F-0.79388467966791443
sg14
I1
sg15
I01
sg16
I3
sg17
I3
sbs(I3
I7
tp27
g1
(g10
g3
NtRp28
(dp29
g13
F4.7682039796021156
sg14
I3
sg15
I01
sg16
I7
sg17
I26
sbs(I3
I3
tp30
g1
(g10
g3
NtRp31
(dp32
g13
F-1.9401684093782259
sg14
I3
sg15
I01
sg16
I3
sg17
I9
sbs(I6
I8
tp33
g1
(g10
g3
NtRp34
(dp35
g13
F-0.60835160665068522
sg14
I6
sg15
I01
sg16
I8
sg17
I56
sbs(I5
I6
tp36
g1
(g10
g3
NtRp37
(dp38
g13
F-7.5040575020026639
sg14
I5
sg15
I01
sg16
I6
sg17
I16
sbs(I3
I4
tp39
g1
(g10
g3
NtRp40
(dp41
g13
F14.710680125417179
sg14
I3
sg15
I01
sg16
I4
sg17
I5
sbs(I1
I4
tp42
g1
(g10
g3
NtRp43
(dp44
g13
F7.4291334717524471
sg14
I1
sg15
I01
sg16
I4
sg17
I8
sbs(I2
I3
tp45
g1
(g10
g3
NtRp46
(dp47
g13
F2.7099762162243439
sg14
I2
sg15
I01
sg16
I3
sg17
I7
sbs(I7
I2
tp48
g1
(g10
g3
NtRp49
(dp50
g13
F10.704241319676404
sg14
I7
sg15
I01
sg16
I2
sg17
I33
sbs(I3
I6
tp51
g1
(g10
g3
NtRp52
(dp53
g13
F-4.9501917451295698
sg14
I3
sg15
I01
sg16
I6
sg17
I19
sbs(I2
I2
tp54
g1
(g10
g3
NtRp55
(dp56
g13
F1.8665604903705353
sg14
I2
sg15
I01
sg16
I2
sg17
I2
sbs(I4
I2
tp57
g1
(g10
g3
NtRp58
(dp59
g13
F17.913134116466036
sg14
I4
sg15
I01
sg16
I2
sg17
I6
sbs(I3
I5
tp60
g1
(g10
g3
NtRp61
(dp62
g13
F4.2670509652588251
sg14
I3
sg15
I01
sg16
I5
sg17
I13
sbs(I5
I2
tp63
g1
(g10
g3
NtRp64
(dp65
g13
F26.069886217415561
sg14
I5
sg15
I01
sg16
I2
sg17
I11
sbs(I2
I4
tp66
g1
(g10
g3
NtRp67
(dp68
g13
F-5.84033591889101
sg14
I2
sg15
I01
sg16
I4
sg17
I24
sbs(I6
I5
tp69
g1
(g10
g3
NtRp70
(dp71
g13
F14.423991039342424
sg14
I6
sg15
I00
sg16
I5
sg17
I23
sbs(I5
I3
tp72
g1
(g10
g3
NtRp73
(dp74
g13
F17.937548050194636
sg14
I5
sg15
I01
sg16
I3
sg17
I14
sbssS'_input_nodes'
p75
I1
sS'_output_nodes'
p76
I1
sS'_node_gene_type'
p77
cneat.genome
NodeGene
p78
sS'_conn_gene_type'
p79
g10
sS'fitness'
p80
F0.92585195305502044
sS'parent2_id'
p81
I1471
sS'_id'
p82
I1491
sS'parent1_id'
p83
I1471
sS'_node_genes'
p84
(lp85
g1
(g78
g3
NtRp86
(dp87
S'_bias'
p88
I0
sS'_type'
p89
S'INPUT'
p90
sg82
I1
sS'_response'
p91
F4.9242730000000003
sS'_activation_type'
p92
Nsbag1
(g78
g3
NtRp93
(dp94
g88
F0.30330827044057401
sg89
S'OUTPUT'
p95
sg82
I2
sg91
F3.7093496388691856
sg92
S'tanh'
p96
sbag1
(g78
g3
NtRp97
(dp98
g88
F2.021677032681882
sg89
S'HIDDEN'
p99
sg82
I3
sg91
F1.6541774714059014
sg92
g96
sbag1
(g78
g3
NtRp100
(dp101
g88
F-1.4601529644684437
sg89
g99
sg82
I4
sg91
F5.1440528137551462
sg92
g96
sbag1
(g78
g3
NtRp102
(dp103
g88
F0.49754902898534548
sg89
g99
sg82
I5
sg91
F1.6594020877680249
sg92
g96
sbag1
(g78
g3
NtRp104
(dp105
g88
F-2.5217723801193195
sg89
g99
sg82
I6
sg91
F4.6175192749257183
sg92
g96
sbag1
(g78
g3
NtRp106
(dp107
g88
F-0.02089754463441728
sg89
g99
sg82
I7
sg91
F4.4792565285263484
sg92
g96
sbag1
(g78
g3
NtRp108
(dp109
g88
I0
sg89
g99
sg82
I8
sg91
F4.9242730000000003
sg92
g96
sbasb.