ccopy_reg
_reconstructor
p1
(cneat.chromosome
Chromosome
p2
c__builtin__
object
p3
NtRp4
(dp5
S'species_id'
p6
I76
sS'_connection_genes'
p7
(dp8
(I1
I3
tp9
g1
(cneat.genome
ConnectionGene
p10
g3
NtRp11
(dp12
S'_ConnectionGene__weight'
p13
F10.4811518266091
sS'_ConnectionGene__in'
p14
I1
sS'_ConnectionGene__enabled'
p15
I01
sS'_ConnectionGene__out'
p16
I3
sS'_ConnectionGene__innov_number'
p17
I3
sbs(I11
I11
tp18
g1
(g10
g3
NtRp19
(dp20
g13
F11.811772478955069
sg14
I11
sg15
I01
sg16
I11
sg17
I122
sbs(I6
I6
tp21
g1
(g10
g3
NtRp22
(dp23
g13
F15.950859408273674
sg14
I6
sg15
I01
sg16
I6
sg17
I39
sbs(I5
I6
tp24
g1
(g10
g3
NtRp25
(dp26
g13
F30
sg14
I5
sg15
I01
sg16
I6
sg17
I16
sbs(I9
I8
tp27
g1
(g10
g3
NtRp28
(dp29
g13
F-25.963075216504304
sg14
I9
sg15
I01
sg16
I8
sg17
I60
sbs(I10
I6
tp30
g1
(g10
g3
NtRp31
(dp32
g13
F-17.158134737645376
sg14
I10
sg15
I01
sg16
I6
sg17
I103
sbs(I9
I4
tp33
g1
(g10
g3
NtRp34
(dp35
g13
F20.885405635434552
sg14
I9
sg15
I01
sg16
I4
sg17
I77
sbs(I13
I2
tp36
g1
(g10
g3
NtRp37
(dp38
g13
F-3.5032846044502137
sg14
I13
sg15
I01
sg16
I2
sg17
I133
sbs(I7
I2
tp39
g1
(g10
g3
NtRp40
(dp41
g13
F-14.914564324845287
sg14
I7
sg15
I01
sg16
I2
sg17
I33
sbs(I1
I2
tp42
g1
(g10
g3
NtRp43
(dp44
g13
F28.769464447547104
sg14
I1
sg15
I01
sg16
I2
sg17
I1
sbs(I4
I13
tp45
g1
(g10
g3
NtRp46
(dp47
g13
F-3.1584004049466659
sg14
I4
sg15
I01
sg16
I13
sg17
I119
sbs(I11
I10
tp48
g1
(g10
g3
NtRp49
(dp50
g13
F-18.072344239334036
sg14
I11
sg15
I01
sg16
I10
sg17
I89
sbs(I4
I9
tp51
g1
(g10
g3
NtRp52
(dp53
g13
F22.09126081806366
sg14
I4
sg15
I01
sg16
I9
sg17
I44
sbs(I3
I3
tp54
g1
(g10
g3
NtRp55
(dp56
g13
F23.700637483167903
sg14
I3
sg15
I00
sg16
I3
sg17
I9
sbs(I3
I10
tp57
g1
(g10
g3
NtRp58
(dp59
g13
F-17.591320648668113
sg14
I3
sg15
I01
sg16
I10
sg17
I94
sbs(I4
I4
tp60
g1
(g10
g3
NtRp61
(dp62
g13
F28.881304625037938
sg14
I4
sg15
I01
sg16
I4
sg17
I15
sbs(I7
I4
tp63
g1
(g10
g3
NtRp64
(dp65
g13
F3.2657749578118755
sg14
I7
sg15
I01
sg16
I4
sg17
I46
sbs(I6
I3
tp66
g1
(g10
g3
NtRp67
(dp68
g13
F5.6501351393538144
sg14
I6
sg15
I01
sg16
I3
sg17
I22
sbs(I1
I5
tp69
g1
(g10
g3
NtRp70
(dp71
g13
F20.748460071611326
sg14
I1
sg15
I01
sg16
I5
sg17
I10
sbs(I9
I11
tp72
g1
(g10
g3
NtRp73
(dp74
g13
F-12.482899457284738
sg14
I9
sg15
I01
sg16
I11
sg17
I106
sbs(I3
I6
tp75
g1
(g10
g3
NtRp76
(dp77
g13
F-13.224729523368262
sg14
I3
sg15
I01
sg16
I6
sg17
I19
sbs(I2
I2
tp78
g1
(g10
g3
NtRp79
(dp80
g13
F27.625795421999054
sg14
I2
sg15
I01
sg16
I2
sg17
I2
sbs(I5
I3
tp81
g1
(g10
g3
NtRp82
(dp83
g13
F6.7587642782495356
sg14
I5
sg15
I01
sg16
I3
sg17
I14
sbs(I10
I9
tp84
g1
(g10
g3
NtRp85
(dp86
g13
F7.8933616713487131
sg14
I10
sg15
I01
sg16
I9
sg17
I58
sbs(I9
I7
tp87
g1
(g10
g3
NtRp88
(dp89
g13
F17.231425714696311
sg14
I9
sg15
I01
sg16
I7
sg17
I53
sbs(I3
I2
tp90
g1
(g10
g3
NtRp91
(dp92
g13
F-5.0815204189373073
sg14
I3
sg15
I01
sg16
I2
sg17
I4
sbs(I11
I4
tp93
g1
(g10
g3
NtRp94
(dp95
g13
F23.814616362411332
sg14
I11
sg15
I01
sg16
I4
sg17
I101
sbs(I10
I4
tp96
g1
(g10
g3
NtRp97
(dp98
g13
F-0.52194299520822018
sg14
I10
sg15
I01
sg16
I4
sg17
I90
sbs(I4
I5
tp99
g1
(g10
g3
NtRp100
(dp101
g13
F-15.300452501980692
sg14
I4
sg15
I01
sg16
I5
sg17
I30
sbs(I8
I11
tp102
g1
(g10
g3
NtRp103
(dp104
g13
F-9.2855597314188181
sg14
I8
sg15
I01
sg16
I11
sg17
I80
sbs(I1
I4
tp105
g1
(g10
g3
NtRp106
(dp107
g13
F-8.7473809449110203
sg14
I1
sg15
I01
sg16
I4
sg17
I8
sbs(I2
I3
tp108
g1
(g10
g3
NtRp109
(dp110
g13
F-23.165252765130408
sg14
I2
sg15
I01
sg16
I3
sg17
I7
sbs(I4
I2
tp111
g1
(g10
g3
NtRp112
(dp113
g13
F6.7418527273122342
sg14
I4
sg15
I00
sg16
I2
sg17
I6
sbs(I6
I5
tp114
g1
(g10
g3
NtRp115
(dp116
g13
F4.8207722276048068
sg14
I6
sg15
I01
sg16
I5
sg17
I23
sbs(I7
I9
tp117
g1
(g10
g3
NtRp118
(dp119
g13
F26.093625335485907
sg14
I7
sg15
I01
sg16
I9
sg17
I41
sbs(I3
I5
tp120
g1
(g10
g3
NtRp121
(dp122
g13
F-12.501638536038129
sg14
I3
sg15
I01
sg16
I5
sg17
I13
sbs(I8
I3
tp123
g1
(g10
g3
NtRp124
(dp125
g13
F11.244944054178998
sg14
I8
sg15
I01
sg16
I3
sg17
I71
sbs(I3
I12
tp126
g1
(g10
g3
NtRp127
(dp128
g13
F-1.6249663843036499
sg14
I3
sg15
I01
sg16
I12
sg17
I99
sbs(I5
I2
tp129
g1
(g10
g3
NtRp130
(dp131
g13
F18.308149044264535
sg14
I5
sg15
I01
sg16
I2
sg17
I11
sbs(I5
I7
tp132
g1
(g10
g3
NtRp133
(dp134
g13
F-26.45410489190499
sg14
I5
sg15
I01
sg16
I7
sg17
I28
sbs(I3
I8
tp135
g1
(g10
g3
NtRp136
(dp137
g13
F6.9645928477405059
sg14
I3
sg15
I01
sg16
I8
sg17
I49
sbs(I12
I3
tp138
g1
(g10
g3
NtRp139
(dp140
g13
F16.899211429339537
sg14
I12
sg15
I01
sg16
I3
sg17
I88
sbs(I4
I3
tp141
g1
(g10
g3
NtRp142
(dp143
g13
F7.9625166205160669
sg14
I4
sg15
I01
sg16
I3
sg17
I12
sbs(I3
I4
tp144
g1
(g10
g3
NtRp145
(dp146
g13
F8.2947355749017664
sg14
I3
sg15
I01
sg16
I4
sg17
I5
sbs(I2
I4
tp147
g1
(g10
g3
NtRp148
(dp149
g13
F21.9693947194293
sg14
I2
sg15
I01
sg16
I4
sg17
I24
sbs(I8
I4
tp150
g1
(g10
g3
NtRp151
(dp152
g13
F-26.613573761442687
sg14
I8
sg15
I01
sg16
I4
sg17
I40
sbssS'_input_nodes'
p153
I1
sS'_output_nodes'
p154
I1
sS'_node_gene_type'
p155
cneat.genome
NodeGene
p156
sS'_conn_gene_type'
p157
g10
sS'fitness'
p158
F0.86095207368905335
sS'parent2_id'
p159
I8315
sS'_id'
p160
I8333
sS'parent1_id'
p161
I8315
sS'_node_genes'
p162
(lp163
g1
(g156
g3
NtRp164
(dp165
S'_bias'
p166
I0
sS'_type'
p167
S'INPUT'
p168
sg160
I1
sS'_response'
p169
F4.9242730000000003
sS'_activation_type'
p170
Nsbag1
(g156
g3
NtRp171
(dp172
g166
F-4.9865647635756112
sg167
S'OUTPUT'
p173
sg160
I2
sg169
F2.8526247134786549
sg170
S'tanh'
p174
sbag1
(g156
g3
NtRp175
(dp176
g166
F-2.2887003494302567
sg167
S'HIDDEN'
p177
sg160
I3
sg169
F4.036611473763962
sg170
g174
sbag1
(g156
g3
NtRp178
(dp179
g166
F3.3979236328571094
sg167
g177
sg160
I4
sg169
F4.1611326418655219
sg170
g174
sbag1
(g156
g3
NtRp180
(dp181
g166
F4.8308775163013715
sg167
g177
sg160
I5
sg169
F12.037164266742824
sg170
g174
sbag1
(g156
g3
NtRp182
(dp183
g166
F-2.4006208622640912
sg167
g177
sg160
I6
sg169
F2.2625814102287358
sg170
g174
sbag1
(g156
g3
NtRp184
(dp185
g166
F-2.5049576042949249
sg167
g177
sg160
I7
sg169
F6.3263476839784429
sg170
g174
sbag1
(g156
g3
NtRp186
(dp187
g166
F-1.3951154275022597
sg167
g177
sg160
I8
sg169
F9.660109145314637
sg170
g174
sbag1
(g156
g3
NtRp188
(dp189
g166
F0.42521715280732114
sg167
g177
sg160
I9
sg169
F8.0733256909382156
sg170
g174
sbag1
(g156
g3
NtRp190
(dp191
g166
F2.1155092878153736
sg167
g177
sg160
I10
sg169
F4.1121013533647464
sg170
g174
sbag1
(g156
g3
NtRp192
(dp193
g166
F-0.63063115706545658
sg167
g177
sg160
I11
sg169
F6.1710997804568892
sg170
g174
sbag1
(g156
g3
NtRp194
(dp195
g166
F0.20809553723661769
sg167
g177
sg160
I12
sg169
F4.724123055071435
sg170
g174
sbag1
(g156
g3
NtRp196
(dp197
g166
F1.2597594971268424
sg167
g177
sg160
I13
sg169
F6.29474944843383
sg170
g174
sbasb.