ccopy_reg
_reconstructor
p1
(cneat.chromosome
Chromosome
p2
c__builtin__
object
p3
NtRp4
(dp5
S'species_id'
p6
I32
sS'_connection_genes'
p7
(dp8
(I7
I3
tp9
g1
(cneat.genome
ConnectionGene
p10
g3
NtRp11
(dp12
S'_ConnectionGene__weight'
p13
F9.5224531164463286
sS'_ConnectionGene__in'
p14
I7
sS'_ConnectionGene__enabled'
p15
I01
sS'_ConnectionGene__out'
p16
I3
sS'_ConnectionGene__innov_number'
p17
I29
sbs(I1
I3
tp18
g1
(g10
g3
NtRp19
(dp20
g13
F-5.4174259237901445
sg14
I1
sg15
I01
sg16
I3
sg17
I3
sbs(I4
I8
tp21
g1
(g10
g3
NtRp22
(dp23
g13
F-8.8098416204834358
sg14
I4
sg15
I01
sg16
I8
sg17
I35
sbs(I5
I6
tp24
g1
(g10
g3
NtRp25
(dp26
g13
F-11.798672689234682
sg14
I5
sg15
I01
sg16
I6
sg17
I16
sbs(I3
I11
tp27
g1
(g10
g3
NtRp28
(dp29
g13
F-4.4043642617127512
sg14
I3
sg15
I01
sg16
I11
sg17
I91
sbs(I6
I2
tp30
g1
(g10
g3
NtRp31
(dp32
g13
F-26.552629408477763
sg14
I6
sg15
I01
sg16
I2
sg17
I17
sbs(I8
I5
tp33
g1
(g10
g3
NtRp34
(dp35
g13
F9.0533085081044042
sg14
I8
sg15
I00
sg16
I5
sg17
I36
sbs(I1
I2
tp36
g1
(g10
g3
NtRp37
(dp38
g13
F-7.530945721327754
sg14
I1
sg15
I01
sg16
I2
sg17
I1
sbs(I2
I9
tp39
g1
(g10
g3
NtRp40
(dp41
g13
F7.3383675153291721
sg14
I2
sg15
I01
sg16
I9
sg17
I51
sbs(I11
I5
tp42
g1
(g10
g3
NtRp43
(dp44
g13
F3.7378800412222133
sg14
I11
sg15
I01
sg16
I5
sg17
I81
sbs(I2
I2
tp45
g1
(g10
g3
NtRp46
(dp47
g13
F-4.1346079734300734
sg14
I2
sg15
I01
sg16
I2
sg17
I2
sbs(I3
I2
tp48
g1
(g10
g3
NtRp49
(dp50
g13
F-14.457729532498398
sg14
I3
sg15
I01
sg16
I2
sg17
I4
sbs(I4
I5
tp51
g1
(g10
g3
NtRp52
(dp53
g13
F-6.490366284669399
sg14
I4
sg15
I01
sg16
I5
sg17
I30
sbs(I8
I11
tp54
g1
(g10
g3
NtRp55
(dp56
g13
F23.972899293457445
sg14
I8
sg15
I01
sg16
I11
sg17
I80
sbs(I9
I3
tp57
g1
(g10
g3
NtRp58
(dp59
g13
F14.362341579897908
sg14
I9
sg15
I01
sg16
I3
sg17
I42
sbs(I1
I4
tp60
g1
(g10
g3
NtRp61
(dp62
g13
F24.2438798339873
sg14
I1
sg15
I01
sg16
I4
sg17
I8
sbs(I7
I7
tp63
g1
(g10
g3
NtRp64
(dp65
g13
F18.138661760074747
sg14
I7
sg15
I01
sg16
I7
sg17
I47
sbs(I2
I3
tp66
g1
(g10
g3
NtRp67
(dp68
g13
F11.339420068697452
sg14
I2
sg15
I01
sg16
I3
sg17
I7
sbs(I4
I2
tp69
g1
(g10
g3
NtRp70
(dp71
g13
F-17.093940819260453
sg14
I4
sg15
I01
sg16
I2
sg17
I6
sbs(I2
I10
tp72
g1
(g10
g3
NtRp73
(dp74
g13
F2.1936050547710289
sg14
I2
sg15
I01
sg16
I10
sg17
I57
sbs(I3
I5
tp75
g1
(g10
g3
NtRp76
(dp77
g13
F16.752586858355993
sg14
I3
sg15
I01
sg16
I5
sg17
I13
sbs(I2
I7
tp78
g1
(g10
g3
NtRp79
(dp80
g13
F15.345568726414491
sg14
I2
sg15
I01
sg16
I7
sg17
I34
sbs(I8
I3
tp81
g1
(g10
g3
NtRp82
(dp83
g13
F-8.2781713015789737
sg14
I8
sg15
I01
sg16
I3
sg17
I71
sbs(I10
I10
tp84
g1
(g10
g3
NtRp85
(dp86
g13
F-10.732772232458645
sg14
I10
sg15
I01
sg16
I10
sg17
I72
sbs(I5
I2
tp87
g1
(g10
g3
NtRp88
(dp89
g13
F18.119368278432518
sg14
I5
sg15
I00
sg16
I2
sg17
I11
sbs(I3
I4
tp90
g1
(g10
g3
NtRp91
(dp92
g13
F8.6248988628592098
sg14
I3
sg15
I01
sg16
I4
sg17
I5
sbs(I10
I2
tp93
g1
(g10
g3
NtRp94
(dp95
g13
F6.780158001577627
sg14
I10
sg15
I01
sg16
I2
sg17
I65
sbssS'_input_nodes'
p96
I1
sS'_output_nodes'
p97
I1
sS'_node_gene_type'
p98
cneat.genome
NodeGene
p99
sS'_conn_gene_type'
p100
g10
sS'fitness'
p101
F0.97911150404360803
sS'parent2_id'
p102
I2859
sS'_id'
p103
I2873
sS'parent1_id'
p104
I2859
sS'_node_genes'
p105
(lp106
g1
(g99
g3
NtRp107
(dp108
S'_bias'
p109
I0
sS'_type'
p110
S'INPUT'
p111
sg103
I1
sS'_response'
p112
F4.9242730000000003
sS'_activation_type'
p113
Nsbag1
(g99
g3
NtRp114
(dp115
g109
F-3.0942267480024617
sg110
S'OUTPUT'
p116
sg103
I2
sg112
F5.7665327028350646
sg113
S'tanh'
p117
sbag1
(g99
g3
NtRp118
(dp119
g109
F1.0298777597746773
sg110
S'HIDDEN'
p120
sg103
I3
sg112
F0.46908516615876422
sg113
g117
sbag1
(g99
g3
NtRp121
(dp122
g109
F-1.169770291885436
sg110
g120
sg103
I4
sg112
F8.5008164884479935
sg113
g117
sbag1
(g99
g3
NtRp123
(dp124
g109
F-0.65301124467933325
sg110
g120
sg103
I5
sg112
F3.0821067260624284
sg113
g117
sbag1
(g99
g3
NtRp125
(dp126
g109
F-2.3068191159503666
sg110
g120
sg103
I6
sg112
F3.2424301446665273
sg113
g117
sbag1
(g99
g3
NtRp127
(dp128
g109
F3.1371591461110309
sg110
g120
sg103
I7
sg112
F2.6274463514272588
sg113
g117
sbag1
(g99
g3
NtRp129
(dp130
g109
F-1.2405576189351062
sg110
g120
sg103
I8
sg112
F6.0116230250414109
sg113
g117
sbag1
(g99
g3
NtRp131
(dp132
g109
F-0.45528978098437867
sg110
g120
sg103
I9
sg112
F5.7573261796075093
sg113
g117
sbag1
(g99
g3
NtRp133
(dp134
g109
F-0.91388280097833563
sg110
g120
sg103
I10
sg112
F3.9915900733995615
sg113
g117
sbag1
(g99
g3
NtRp135
(dp136
g109
F-0.11205266423706078
sg110
g120
sg103
I11
sg112
F6.3617454000140414
sg113
g117
sbasb.