ccopy_reg
_reconstructor
p1
(cneat.chromosome
Chromosome
p2
c__builtin__
object
p3
NtRp4
(dp5
S'species_id'
p6
I39
sS'_connection_genes'
p7
(dp8
(I1
I3
tp9
g1
(cneat.genome
ConnectionGene
p10
g3
NtRp11
(dp12
S'_ConnectionGene__weight'
p13
F17.814372435132206
sS'_ConnectionGene__in'
p14
I1
sS'_ConnectionGene__enabled'
p15
I01
sS'_ConnectionGene__out'
p16
I3
sS'_ConnectionGene__innov_number'
p17
I3
sbs(I6
I6
tp18
g1
(g10
g3
NtRp19
(dp20
g13
F10.458495693263256
sg14
I6
sg15
I01
sg16
I6
sg17
I39
sbs(I5
I6
tp21
g1
(g10
g3
NtRp22
(dp23
g13
F-2.9734188113948372
sg14
I5
sg15
I01
sg16
I6
sg17
I16
sbs(I9
I8
tp24
g1
(g10
g3
NtRp25
(dp26
g13
F-12.552007914945907
sg14
I9
sg15
I01
sg16
I8
sg17
I60
sbs(I9
I4
tp27
g1
(g10
g3
NtRp28
(dp29
g13
F16.342169531178239
sg14
I9
sg15
I01
sg16
I4
sg17
I77
sbs(I7
I2
tp30
g1
(g10
g3
NtRp31
(dp32
g13
F-1.6474163477309878
sg14
I7
sg15
I01
sg16
I2
sg17
I33
sbs(I1
I2
tp33
g1
(g10
g3
NtRp34
(dp35
g13
F6.2387292060803716
sg14
I1
sg15
I01
sg16
I2
sg17
I1
sbs(I4
I9
tp36
g1
(g10
g3
NtRp37
(dp38
g13
F7.6184721402035418
sg14
I4
sg15
I01
sg16
I9
sg17
I44
sbs(I3
I3
tp39
g1
(g10
g3
NtRp40
(dp41
g13
F24.154352042684735
sg14
I3
sg15
I01
sg16
I3
sg17
I9
sbs(I4
I4
tp42
g1
(g10
g3
NtRp43
(dp44
g13
F15.482823743909751
sg14
I4
sg15
I00
sg16
I4
sg17
I15
sbs(I1
I5
tp45
g1
(g10
g3
NtRp46
(dp47
g13
F-0.039050521468925847
sg14
I1
sg15
I01
sg16
I5
sg17
I10
sbs(I3
I6
tp48
g1
(g10
g3
NtRp49
(dp50
g13
F1.4371378484062576
sg14
I3
sg15
I01
sg16
I6
sg17
I19
sbs(I2
I2
tp51
g1
(g10
g3
NtRp52
(dp53
g13
F1.9297141802213984
sg14
I2
sg15
I01
sg16
I2
sg17
I2
sbs(I3
I5
tp54
g1
(g10
g3
NtRp55
(dp56
g13
F5.6281363167938441
sg14
I3
sg15
I01
sg16
I5
sg17
I13
sbs(I3
I2
tp57
g1
(g10
g3
NtRp58
(dp59
g13
F5.1276707574265314
sg14
I3
sg15
I01
sg16
I2
sg17
I4
sbs(I4
I5
tp60
g1
(g10
g3
NtRp61
(dp62
g13
F1.5644072358666972
sg14
I4
sg15
I01
sg16
I5
sg17
I30
sbs(I1
I4
tp63
g1
(g10
g3
NtRp64
(dp65
g13
F14.399302663386168
sg14
I1
sg15
I01
sg16
I4
sg17
I8
sbs(I2
I3
tp66
g1
(g10
g3
NtRp67
(dp68
g13
F-18.169422741546299
sg14
I2
sg15
I01
sg16
I3
sg17
I7
sbs(I4
I2
tp69
g1
(g10
g3
NtRp70
(dp71
g13
F9.3784635841965027
sg14
I4
sg15
I01
sg16
I2
sg17
I6
sbs(I6
I5
tp72
g1
(g10
g3
NtRp73
(dp74
g13
F4.8557328043220398
sg14
I6
sg15
I01
sg16
I5
sg17
I23
sbs(I5
I3
tp75
g1
(g10
g3
NtRp76
(dp77
g13
F9.5209187018307393
sg14
I5
sg15
I01
sg16
I3
sg17
I14
sbs(I8
I3
tp78
g1
(g10
g3
NtRp79
(dp80
g13
F6.4748442634076859
sg14
I8
sg15
I01
sg16
I3
sg17
I71
sbs(I3
I4
tp81
g1
(g10
g3
NtRp82
(dp83
g13
F-6.334330277848248
sg14
I3
sg15
I00
sg16
I4
sg17
I5
sbs(I5
I7
tp84
g1
(g10
g3
NtRp85
(dp86
g13
F10.450433004370268
sg14
I5
sg15
I01
sg16
I7
sg17
I28
sbs(I3
I8
tp87
g1
(g10
g3
NtRp88
(dp89
g13
F21.058570141069087
sg14
I3
sg15
I01
sg16
I8
sg17
I49
sbs(I4
I3
tp90
g1
(g10
g3
NtRp91
(dp92
g13
F-0.34071612128603057
sg14
I4
sg15
I01
sg16
I3
sg17
I12
sbs(I5
I2
tp93
g1
(g10
g3
NtRp94
(dp95
g13
F16.614741655104567
sg14
I5
sg15
I01
sg16
I2
sg17
I11
sbs(I2
I4
tp96
g1
(g10
g3
NtRp97
(dp98
g13
F-4.369732291836673
sg14
I2
sg15
I01
sg16
I4
sg17
I24
sbs(I8
I4
tp99
g1
(g10
g3
NtRp100
(dp101
g13
F-6.7688033848342553
sg14
I8
sg15
I01
sg16
I4
sg17
I40
sbssS'_input_nodes'
p102
I1
sS'_output_nodes'
p103
I1
sS'_node_gene_type'
p104
cneat.genome
NodeGene
p105
sS'_conn_gene_type'
p106
g10
sS'fitness'
p107
F0.92270286153843317
sS'parent2_id'
p108
I4320
sS'_id'
p109
I4341
sS'parent1_id'
p110
I4320
sS'_node_genes'
p111
(lp112
g1
(g105
g3
NtRp113
(dp114
S'_bias'
p115
I0
sS'_type'
p116
S'INPUT'
p117
sg109
I1
sS'_response'
p118
F4.9242730000000003
sS'_activation_type'
p119
Nsbag1
(g105
g3
NtRp120
(dp121
g115
F0.51075204724089251
sg116
S'OUTPUT'
p122
sg109
I2
sg118
F4.7229856037944948
sg119
S'tanh'
p123
sbag1
(g105
g3
NtRp124
(dp125
g115
F-1.7961106463503951
sg116
S'HIDDEN'
p126
sg109
I3
sg118
F2.3375292804235643
sg119
g123
sbag1
(g105
g3
NtRp127
(dp128
g115
F-0.060197685325815486
sg116
g126
sg109
I4
sg118
F5.7605021341997
sg119
g123
sbag1
(g105
g3
NtRp129
(dp130
g115
F2.6513504152092939
sg116
g126
sg109
I5
sg118
F6.5546843770062759
sg119
g123
sbag1
(g105
g3
NtRp131
(dp132
g115
F-1.004013334522005
sg116
g126
sg109
I6
sg118
F3.3625132752793618
sg119
g123
sbag1
(g105
g3
NtRp133
(dp134
g115
F-1.6360267737481331
sg116
g126
sg109
I7
sg118
F5.8958897200037885
sg119
g123
sbag1
(g105
g3
NtRp135
(dp136
g115
F-0.40758431618286828
sg116
g126
sg109
I8
sg118
F5.251681329865912
sg119
g123
sbag1
(g105
g3
NtRp137
(dp138
g115
F-0.12454710523191426
sg116
g126
sg109
I9
sg118
F4.6386459087954233
sg119
g123
sbasb.