ccopy_reg
_reconstructor
p1
(cneat.chromosome
Chromosome
p2
c__builtin__
object
p3
NtRp4
(dp5
S'species_id'
p6
I81
sS'_connection_genes'
p7
(dp8
(I1
I3
tp9
g1
(cneat.genome
ConnectionGene
p10
g3
NtRp11
(dp12
S'_ConnectionGene__weight'
p13
F13.253357073265336
sS'_ConnectionGene__in'
p14
I1
sS'_ConnectionGene__enabled'
p15
I01
sS'_ConnectionGene__out'
p16
I3
sS'_ConnectionGene__innov_number'
p17
I3
sbs(I11
I11
tp18
g1
(g10
g3
NtRp19
(dp20
g13
F13.518152095637817
sg14
I11
sg15
I01
sg16
I11
sg17
I122
sbs(I6
I6
tp21
g1
(g10
g3
NtRp22
(dp23
g13
F16.043213487515363
sg14
I6
sg15
I00
sg16
I6
sg17
I39
sbs(I5
I6
tp24
g1
(g10
g3
NtRp25
(dp26
g13
F25.715748556458895
sg14
I5
sg15
I01
sg16
I6
sg17
I16
sbs(I9
I8
tp27
g1
(g10
g3
NtRp28
(dp29
g13
F-27.562761520565761
sg14
I9
sg15
I01
sg16
I8
sg17
I60
sbs(I10
I6
tp30
g1
(g10
g3
NtRp31
(dp32
g13
F-19.065139887960164
sg14
I10
sg15
I01
sg16
I6
sg17
I103
sbs(I14
I13
tp33
g1
(g10
g3
NtRp34
(dp35
g13
F0.13494525712907635
sg14
I14
sg15
I01
sg16
I13
sg17
I252
sbs(I9
I4
tp36
g1
(g10
g3
NtRp37
(dp38
g13
F23.599336936383231
sg14
I9
sg15
I01
sg16
I4
sg17
I77
sbs(I3
I8
tp39
g1
(g10
g3
NtRp40
(dp41
g13
F12.678297623144205
sg14
I3
sg15
I01
sg16
I8
sg17
I49
sbs(I11
I4
tp42
g1
(g10
g3
NtRp43
(dp44
g13
F26.600465321068896
sg14
I11
sg15
I01
sg16
I4
sg17
I101
sbs(I7
I2
tp45
g1
(g10
g3
NtRp46
(dp47
g13
F-11.463016494603876
sg14
I7
sg15
I01
sg16
I2
sg17
I33
sbs(I1
I2
tp48
g1
(g10
g3
NtRp49
(dp50
g13
F29.90622879485322
sg14
I1
sg15
I01
sg16
I2
sg17
I1
sbs(I6
I3
tp51
g1
(g10
g3
NtRp52
(dp53
g13
F4.2708977282585971
sg14
I6
sg15
I01
sg16
I3
sg17
I22
sbs(I11
I10
tp54
g1
(g10
g3
NtRp55
(dp56
g13
F-16.356770355304498
sg14
I11
sg15
I01
sg16
I10
sg17
I89
sbs(I4
I9
tp57
g1
(g10
g3
NtRp58
(dp59
g13
F21.709337564813563
sg14
I4
sg15
I01
sg16
I9
sg17
I44
sbs(I3
I3
tp60
g1
(g10
g3
NtRp61
(dp62
g13
F20.469385958937089
sg14
I3
sg15
I00
sg16
I3
sg17
I9
sbs(I3
I10
tp63
g1
(g10
g3
NtRp64
(dp65
g13
F-22.419573835502199
sg14
I3
sg15
I01
sg16
I10
sg17
I94
sbs(I4
I4
tp66
g1
(g10
g3
NtRp67
(dp68
g13
F26.507367673401433
sg14
I4
sg15
I01
sg16
I4
sg17
I15
sbs(I4
I13
tp69
g1
(g10
g3
NtRp70
(dp71
g13
F-1.0626279624468549
sg14
I4
sg15
I00
sg16
I13
sg17
I119
sbs(I1
I5
tp72
g1
(g10
g3
NtRp73
(dp74
g13
F20.757071856262165
sg14
I1
sg15
I01
sg16
I5
sg17
I10
sbs(I9
I11
tp75
g1
(g10
g3
NtRp76
(dp77
g13
F-11.813418882726346
sg14
I9
sg15
I01
sg16
I11
sg17
I106
sbs(I3
I6
tp78
g1
(g10
g3
NtRp79
(dp80
g13
F-21.551229506823468
sg14
I3
sg15
I01
sg16
I6
sg17
I19
sbs(I2
I2
tp81
g1
(g10
g3
NtRp82
(dp83
g13
F22.551718437562851
sg14
I2
sg15
I01
sg16
I2
sg17
I2
sbs(I7
I9
tp84
g1
(g10
g3
NtRp85
(dp86
g13
F22.419521958035052
sg14
I7
sg15
I01
sg16
I9
sg17
I41
sbs(I6
I15
tp87
g1
(g10
g3
NtRp88
(dp89
g13
F1
sg14
I6
sg15
I01
sg16
I15
sg17
I241
sbs(I10
I9
tp90
g1
(g10
g3
NtRp91
(dp92
g13
F9.7227716136997611
sg14
I10
sg15
I01
sg16
I9
sg17
I58
sbs(I9
I7
tp93
g1
(g10
g3
NtRp94
(dp95
g13
F17.835859841573626
sg14
I9
sg15
I01
sg16
I7
sg17
I53
sbs(I3
I2
tp96
g1
(g10
g3
NtRp97
(dp98
g13
F-3.143724375789529
sg14
I3
sg15
I01
sg16
I2
sg17
I4
sbs(I13
I2
tp99
g1
(g10
g3
NtRp100
(dp101
g13
F-3.0958851987438218
sg14
I13
sg15
I01
sg16
I2
sg17
I133
sbs(I10
I4
tp102
g1
(g10
g3
NtRp103
(dp104
g13
F-1.432655748521712
sg14
I10
sg15
I01
sg16
I4
sg17
I90
sbs(I4
I5
tp105
g1
(g10
g3
NtRp106
(dp107
g13
F-15.109904924318981
sg14
I4
sg15
I01
sg16
I5
sg17
I30
sbs(I8
I11
tp108
g1
(g10
g3
NtRp109
(dp110
g13
F-13.866466862354491
sg14
I8
sg15
I01
sg16
I11
sg17
I80
sbs(I4
I14
tp111
g1
(g10
g3
NtRp112
(dp113
g13
F5.6705623215625547
sg14
I4
sg15
I01
sg16
I14
sg17
I248
sbs(I1
I4
tp114
g1
(g10
g3
NtRp115
(dp116
g13
F-13.63804869546264
sg14
I1
sg15
I01
sg16
I4
sg17
I8
sbs(I4
I16
tp117
g1
(g10
g3
NtRp118
(dp119
g13
F1
sg14
I4
sg15
I01
sg16
I16
sg17
I160
sbs(I2
I3
tp120
g1
(g10
g3
NtRp121
(dp122
g13
F-20.294698497942424
sg14
I2
sg15
I01
sg16
I3
sg17
I7
sbs(I4
I2
tp123
g1
(g10
g3
NtRp124
(dp125
g13
F5.1191768440105516
sg14
I4
sg15
I00
sg16
I2
sg17
I6
sbs(I6
I5
tp126
g1
(g10
g3
NtRp127
(dp128
g13
F1.7161765216481029
sg14
I6
sg15
I01
sg16
I5
sg17
I23
sbs(I5
I3
tp129
g1
(g10
g3
NtRp130
(dp131
g13
F7.4867574728321111
sg14
I5
sg15
I01
sg16
I3
sg17
I14
sbs(I3
I5
tp132
g1
(g10
g3
NtRp133
(dp134
g13
F-13.344297455188675
sg14
I3
sg15
I01
sg16
I5
sg17
I13
sbs(I16
I13
tp135
g1
(g10
g3
NtRp136
(dp137
g13
F-1.0626279624468549
sg14
I16
sg15
I01
sg16
I13
sg17
I255
sbs(I8
I3
tp138
g1
(g10
g3
NtRp139
(dp140
g13
F11.86832448182717
sg14
I8
sg15
I01
sg16
I3
sg17
I71
sbs(I3
I12
tp141
g1
(g10
g3
NtRp142
(dp143
g13
F2.9683351313629944
sg14
I3
sg15
I01
sg16
I12
sg17
I99
sbs(I3
I4
tp144
g1
(g10
g3
NtRp145
(dp146
g13
F8.1288482326406335
sg14
I3
sg15
I01
sg16
I4
sg17
I5
sbs(I5
I7
tp147
g1
(g10
g3
NtRp148
(dp149
g13
F-27.160602731916992
sg14
I5
sg15
I01
sg16
I7
sg17
I28
sbs(I7
I4
tp150
g1
(g10
g3
NtRp151
(dp152
g13
F3.4132384866817325
sg14
I7
sg15
I01
sg16
I4
sg17
I46
sbs(I15
I6
tp153
g1
(g10
g3
NtRp154
(dp155
g13
F16.043213487515363
sg14
I15
sg15
I01
sg16
I6
sg17
I152
sbs(I12
I3
tp156
g1
(g10
g3
NtRp157
(dp158
g13
F14.904915545569317
sg14
I12
sg15
I01
sg16
I3
sg17
I88
sbs(I4
I3
tp159
g1
(g10
g3
NtRp160
(dp161
g13
F6.9308727267555676
sg14
I4
sg15
I01
sg16
I3
sg17
I12
sbs(I5
I2
tp162
g1
(g10
g3
NtRp163
(dp164
g13
F18.797537897043028
sg14
I5
sg15
I01
sg16
I2
sg17
I11
sbs(I2
I4
tp165
g1
(g10
g3
NtRp166
(dp167
g13
F20.473722282138002
sg14
I2
sg15
I01
sg16
I4
sg17
I24
sbs(I8
I4
tp168
g1
(g10
g3
NtRp169
(dp170
g13
F-25.922238596099699
sg14
I8
sg15
I01
sg16
I4
sg17
I40
sbssS'_input_nodes'
p171
I1
sS'_output_nodes'
p172
I1
sS'_node_gene_type'
p173
cneat.genome
NodeGene
p174
sS'_conn_gene_type'
p175
g10
sS'fitness'
p176
F0.93510156440565029
sS'parent2_id'
p177
I8494
sS'_id'
p178
I8527
sS'parent1_id'
p179
I8494
sS'_node_genes'
p180
(lp181
g1
(g174
g3
NtRp182
(dp183
S'_bias'
p184
I0
sS'_type'
p185
S'INPUT'
p186
sg178
I1
sS'_response'
p187
F4.9242730000000003
sS'_activation_type'
p188
Nsbag1
(g174
g3
NtRp189
(dp190
g184
F-4.7206285407132871
sg185
S'OUTPUT'
p191
sg178
I2
sg187
F2.8526247134786549
sg188
S'tanh'
p192
sbag1
(g174
g3
NtRp193
(dp194
g184
F-2.5654507762245768
sg185
S'HIDDEN'
p195
sg178
I3
sg187
F4.5529253685455711
sg188
g192
sbag1
(g174
g3
NtRp196
(dp197
g184
F4.0829975874501532
sg185
g195
sg178
I4
sg187
F4.7271609640365471
sg188
g192
sbag1
(g174
g3
NtRp198
(dp199
g184
F4.8308775163013715
sg185
g195
sg178
I5
sg187
F12.037164266742824
sg188
g192
sbag1
(g174
g3
NtRp200
(dp201
g184
F-1.6877150810262034
sg185
g195
sg178
I6
sg187
F2.1291151517526101
sg188
g192
sbag1
(g174
g3
NtRp202
(dp203
g184
F-2.5317277189016849
sg185
g195
sg178
I7
sg187
F6.3263476839784429
sg188
g192
sbag1
(g174
g3
NtRp204
(dp205
g184
F-1.8264776001939302
sg185
g195
sg178
I8
sg187
F9.3971792563405661
sg188
g192
sbag1
(g174
g3
NtRp206
(dp207
g184
F0.42521715280732114
sg185
g195
sg178
I9
sg187
F8.0733256909382156
sg188
g192
sbag1
(g174
g3
NtRp208
(dp209
g184
F1.9240691618170431
sg185
g195
sg178
I10
sg187
F4.7220554325473785
sg188
g192
sbag1
(g174
g3
NtRp210
(dp211
g184
F-0.63063115706545658
sg185
g195
sg178
I11
sg187
F6.1710997804568892
sg188
g192
sbag1
(g174
g3
NtRp212
(dp213
g184
F1.4014581956243222
sg185
g195
sg178
I12
sg187
F4.8192449533774768
sg188
g192
sbag1
(g174
g3
NtRp214
(dp215
g184
F1.2597594971268424
sg185
g195
sg178
I13
sg187
F4.9482995903167852
sg188
g192
sbag1
(g174
g3
NtRp216
(dp217
g184
I0
sg185
g195
sg178
I14
sg187
F4.9242730000000003
sg188
g192
sbag1
(g174
g3
NtRp218
(dp219
g184
I0
sg185
g195
sg178
I15
sg187
F4.9242730000000003
sg188
g192
sbag1
(g174
g3
NtRp220
(dp221
g184
I0
sg185
g195
sg178
I16
sg187
F4.9242730000000003
sg188
g192
sbasb.