ccopy_reg
_reconstructor
p1
(cneat.chromosome
Chromosome
p2
c__builtin__
object
p3
NtRp4
(dp5
S'species_id'
p6
I142
sS'_connection_genes'
p7
(dp8
(I7
I3
tp9
g1
(cneat.genome
ConnectionGene
p10
g3
NtRp11
(dp12
S'_ConnectionGene__weight'
p13
F29.592291214625689
sS'_ConnectionGene__in'
p14
I7
sS'_ConnectionGene__enabled'
p15
I01
sS'_ConnectionGene__out'
p16
I3
sS'_ConnectionGene__innov_number'
p17
I36
sbs(I1
I3
tp18
g1
(g10
g3
NtRp19
(dp20
g13
F-22.217492190943762
sg14
I1
sg15
I01
sg16
I3
sg17
I3
sbs(I5
I9
tp21
g1
(g10
g3
NtRp22
(dp23
g13
F1.3352750076093929
sg14
I5
sg15
I01
sg16
I9
sg17
I100
sbs(I16
I9
tp24
g1
(g10
g3
NtRp25
(dp26
g13
F10.256316382718591
sg14
I16
sg15
I01
sg16
I9
sg17
I236
sbs(I9
I19
tp27
g1
(g10
g3
NtRp28
(dp29
g13
F-0.91812039905016729
sg14
I9
sg15
I01
sg16
I19
sg17
I312
sbs(I3
I2
tp30
g1
(g10
g3
NtRp31
(dp32
g13
F27.24164490818664
sg14
I3
sg15
I01
sg16
I2
sg17
I4
sbs(I8
I4
tp33
g1
(g10
g3
NtRp34
(dp35
g13
F17.93530374320116
sg14
I8
sg15
I01
sg16
I4
sg17
I41
sbs(I2
I12
tp36
g1
(g10
g3
NtRp37
(dp38
g13
F-11.05924793482537
sg14
I2
sg15
I01
sg16
I12
sg17
I135
sbs(I7
I11
tp39
g1
(g10
g3
NtRp40
(dp41
g13
F-26.244179941030051
sg14
I7
sg15
I01
sg16
I11
sg17
I92
sbs(I3
I7
tp42
g1
(g10
g3
NtRp43
(dp44
g13
F15.386136469473472
sg14
I3
sg15
I00
sg16
I7
sg17
I49
sbs(I14
I9
tp45
g1
(g10
g3
NtRp46
(dp47
g13
F17.759871642976648
sg14
I14
sg15
I01
sg16
I9
sg17
I130
sbs(I5
I8
tp48
g1
(g10
g3
NtRp49
(dp50
g13
F19.471504429294459
sg14
I5
sg15
I01
sg16
I8
sg17
I45
sbs(I1
I2
tp51
g1
(g10
g3
NtRp52
(dp53
g13
F-14.915841226348006
sg14
I1
sg15
I01
sg16
I2
sg17
I1
sbs(I12
I2
tp54
g1
(g10
g3
NtRp55
(dp56
g13
F25.251757456826621
sg14
I12
sg15
I01
sg16
I2
sg17
I104
sbs(I4
I9
tp57
g1
(g10
g3
NtRp58
(dp59
g13
F-19.756716860737811
sg14
I4
sg15
I01
sg16
I9
sg17
I57
sbs(I3
I3
tp60
g1
(g10
g3
NtRp61
(dp62
g13
F-4.513418560459586
sg14
I3
sg15
I01
sg16
I3
sg17
I8
sbs(I2
I9
tp63
g1
(g10
g3
NtRp64
(dp65
g13
F30
sg14
I2
sg15
I01
sg16
I9
sg17
I144
sbs(I6
I20
tp66
g1
(g10
g3
NtRp67
(dp68
g13
F-3.2788615183838647
sg14
I6
sg15
I01
sg16
I20
sg17
I341
sbs(I3
I10
tp69
g1
(g10
g3
NtRp70
(dp71
g13
F21.072842456389463
sg14
I3
sg15
I01
sg16
I10
sg17
I76
sbs(I4
I4
tp72
g1
(g10
g3
NtRp73
(dp74
g13
F-3.5745048972685032
sg14
I4
sg15
I01
sg16
I4
sg17
I11
sbs(I10
I12
tp75
g1
(g10
g3
NtRp76
(dp77
g13
F-10.320810985101613
sg14
I10
sg15
I01
sg16
I12
sg17
I111
sbs(I17
I2
tp78
g1
(g10
g3
NtRp79
(dp80
g13
F-0.74262680319550878
sg14
I17
sg15
I01
sg16
I2
sg17
I202
sbs(I13
I7
tp81
g1
(g10
g3
NtRp82
(dp83
g13
F-15.464353218674324
sg14
I13
sg15
I01
sg16
I7
sg17
I108
sbs(I9
I17
tp84
g1
(g10
g3
NtRp85
(dp86
g13
F7.9548076500956935
sg14
I9
sg15
I01
sg16
I17
sg17
I258
sbs(I18
I9
tp87
g1
(g10
g3
NtRp88
(dp89
g13
F-2.0742012853854388
sg14
I18
sg15
I01
sg16
I9
sg17
I268
sbs(I2
I2
tp90
g1
(g10
g3
NtRp91
(dp92
g13
F0.37876010685888928
sg14
I2
sg15
I01
sg16
I2
sg17
I2
sbs(I15
I4
tp93
g1
(g10
g3
NtRp94
(dp95
g13
F3.7493750335381337
sg14
I15
sg15
I01
sg16
I4
sg17
I173
sbs(I5
I11
tp96
g1
(g10
g3
NtRp97
(dp98
g13
F-15.768499014626844
sg14
I5
sg15
I01
sg16
I11
sg17
I90
sbs(I15
I12
tp99
g1
(g10
g3
NtRp100
(dp101
g13
F23.473558892032234
sg14
I15
sg15
I01
sg16
I12
sg17
I159
sbs(I5
I4
tp102
g1
(g10
g3
NtRp103
(dp104
g13
F9.5447960286763127
sg14
I5
sg15
I01
sg16
I4
sg17
I13
sbs(I6
I6
tp105
g1
(g10
g3
NtRp106
(dp107
g13
F10.055507671302319
sg14
I6
sg15
I01
sg16
I6
sg17
I37
sbs(I12
I14
tp108
g1
(g10
g3
NtRp109
(dp110
g13
F-15.165526158315934
sg14
I12
sg15
I01
sg16
I14
sg17
I131
sbs(I3
I13
tp111
g1
(g10
g3
NtRp112
(dp113
g13
F29.723006091024931
sg14
I3
sg15
I01
sg16
I13
sg17
I107
sbs(I9
I3
tp114
g1
(g10
g3
NtRp115
(dp116
g13
F-21.952634732047777
sg14
I9
sg15
I01
sg16
I3
sg17
I60
sbs(I9
I16
tp117
g1
(g10
g3
NtRp118
(dp119
g13
F29.433958483315706
sg14
I9
sg15
I01
sg16
I16
sg17
I240
sbs(I1
I19
tp120
g1
(g10
g3
NtRp121
(dp122
g13
F-2.8704874238171105
sg14
I1
sg15
I01
sg16
I19
sg17
I304
sbs(I2
I3
tp123
g1
(g10
g3
NtRp124
(dp125
g13
F0.045092891965619941
sg14
I2
sg15
I01
sg16
I3
sg17
I5
sbs(I1
I9
tp126
g1
(g10
g3
NtRp127
(dp128
g13
F24.365605388683846
sg14
I1
sg15
I01
sg16
I9
sg17
I47
sbs(I20
I5
tp129
g1
(g10
g3
NtRp130
(dp131
g13
F-21.423987355007529
sg14
I20
sg15
I01
sg16
I5
sg17
I342
sbs(I4
I2
tp132
g1
(g10
g3
NtRp133
(dp134
g13
F-26.099785279665394
sg14
I4
sg15
I01
sg16
I2
sg17
I7
sbs(I14
I2
tp135
g1
(g10
g3
NtRp136
(dp137
g13
F1.5518628039030804
sg14
I14
sg15
I01
sg16
I2
sg17
I125
sbs(I4
I11
tp138
g1
(g10
g3
NtRp139
(dp140
g13
F-19.312735516888907
sg14
I4
sg15
I01
sg16
I11
sg17
I86
sbs(I3
I5
tp141
g1
(g10
g3
NtRp142
(dp143
g13
F23.578068821714144
sg14
I3
sg15
I01
sg16
I5
sg17
I12
sbs(I10
I5
tp144
g1
(g10
g3
NtRp145
(dp146
g13
F25.465860013419189
sg14
I10
sg15
I01
sg16
I5
sg17
I79
sbs(I19
I9
tp147
g1
(g10
g3
NtRp148
(dp149
g13
F11.058585770501759
sg14
I19
sg15
I01
sg16
I9
sg17
I290
sbs(I6
I5
tp150
g1
(g10
g3
NtRp151
(dp152
g13
F-20.286434556275761
sg14
I6
sg15
I00
sg16
I5
sg17
I28
sbs(I9
I2
tp153
g1
(g10
g3
NtRp154
(dp155
g13
F-22.22458832902775
sg14
I9
sg15
I00
sg16
I2
sg17
I48
sbs(I7
I14
tp156
g1
(g10
g3
NtRp157
(dp158
g13
F-13.85392159738287
sg14
I7
sg15
I01
sg16
I14
sg17
I162
sbs(I9
I9
tp159
g1
(g10
g3
NtRp160
(dp161
g13
F24.067258655420282
sg14
I9
sg15
I00
sg16
I9
sg17
I73
sbs(I3
I6
tp162
g1
(g10
g3
NtRp163
(dp164
g13
F-26.002812141553584
sg14
I3
sg15
I01
sg16
I6
sg17
I22
sbs(I18
I7
tp165
g1
(g10
g3
NtRp166
(dp167
g13
F-6.5928346100743926
sg14
I18
sg15
I01
sg16
I7
sg17
I272
sbs(I11
I8
tp168
g1
(g10
g3
NtRp169
(dp170
g13
F16.761441200330097
sg14
I11
sg15
I01
sg16
I8
sg17
I91
sbs(I13
I18
tp171
g1
(g10
g3
NtRp172
(dp173
g13
F-13.55960365550278
sg14
I13
sg15
I01
sg16
I18
sg17
I271
sbs(I4
I3
tp174
g1
(g10
g3
NtRp175
(dp176
g13
F9.2137689665537224
sg14
I4
sg15
I01
sg16
I3
sg17
I10
sbs(I2
I15
tp177
g1
(g10
g3
NtRp178
(dp179
g13
F9.7607206294062987
sg14
I2
sg15
I01
sg16
I15
sg17
I172
sbs(I4
I8
tp180
g1
(g10
g3
NtRp181
(dp182
g13
F-13.854491004017826
sg14
I4
sg15
I01
sg16
I8
sg17
I38
sbs(I5
I2
tp183
g1
(g10
g3
NtRp184
(dp185
g13
F-9.9631347466212006
sg14
I5
sg15
I01
sg16
I2
sg17
I21
sbs(I2
I4
tp186
g1
(g10
g3
NtRp187
(dp188
g13
F17.21852415841953
sg14
I2
sg15
I01
sg16
I4
sg17
I16
sbs(I11
I6
tp189
g1
(g10
g3
NtRp190
(dp191
g13
F-14.078459507341758
sg14
I11
sg15
I01
sg16
I6
sg17
I110
sbs(I10
I2
tp192
g1
(g10
g3
NtRp193
(dp194
g13
F15.118330641769271
sg14
I10
sg15
I01
sg16
I2
sg17
I66
sbssS'_input_nodes'
p195
I1
sS'_output_nodes'
p196
I1
sS'_node_gene_type'
p197
cneat.genome
NodeGene
p198
sS'_conn_gene_type'
p199
g10
sS'fitness'
p200
F0.98912306309465436
sS'parent2_id'
p201
I20580
sS'_id'
p202
I20629
sS'parent1_id'
p203
I20580
sS'_node_genes'
p204
(lp205
g1
(g198
g3
NtRp206
(dp207
S'_bias'
p208
I0
sS'_type'
p209
S'INPUT'
p210
sg202
I1
sS'_response'
p211
F4.9242730000000003
sS'_activation_type'
p212
Nsbag1
(g198
g3
NtRp213
(dp214
g208
F0.55776526278451966
sg209
S'OUTPUT'
p215
sg202
I2
sg211
F8.919034455064125
sg212
S'tanh'
p216
sbag1
(g198
g3
NtRp217
(dp218
g208
F-4.6534780260542723
sg209
S'HIDDEN'
p219
sg202
I3
sg211
F6.0211874705151853
sg212
g216
sbag1
(g198
g3
NtRp220
(dp221
g208
F2.2282607304974604
sg209
g219
sg202
I4
sg211
F-3.6413795759046566
sg212
g216
sbag1
(g198
g3
NtRp222
(dp223
g208
F-4.6820096694818458
sg209
g219
sg202
I5
sg211
F5.4861969802982227
sg212
g216
sbag1
(g198
g3
NtRp224
(dp225
g208
F1.9203128097703919
sg209
g219
sg202
I6
sg211
F10.137476048370141
sg212
g216
sbag1
(g198
g3
NtRp226
(dp227
g208
F-1.0324301191291381
sg209
g219
sg202
I7
sg211
F13.038690076408944
sg212
g216
sbag1
(g198
g3
NtRp228
(dp229
g208
F-1.6343515119175491
sg209
g219
sg202
I8
sg211
F3.3981079033255419
sg212
g216
sbag1
(g198
g3
NtRp230
(dp231
g208
F1.8299988244244318
sg209
g219
sg202
I9
sg211
F-0.093332979811389882
sg212
g216
sbag1
(g198
g3
NtRp232
(dp233
g208
F7.8312065930036283
sg209
g219
sg202
I10
sg211
F1.5252656091175902
sg212
g216
sbag1
(g198
g3
NtRp234
(dp235
g208
F-6.2072973754156768
sg209
g219
sg202
I11
sg211
F8.3209083785936961
sg212
g216
sbag1
(g198
g3
NtRp236
(dp237
g208
F0.70622066532807182
sg209
g219
sg202
I12
sg211
F8.353415277174749
sg212
g216
sbag1
(g198
g3
NtRp238
(dp239
g208
F3.7065649924426953
sg209
g219
sg202
I13
sg211
F4.5216762475133692
sg212
g216
sbag1
(g198
g3
NtRp240
(dp241
g208
F0.20826624653043069
sg209
g219
sg202
I14
sg211
F2.1048349146982819
sg212
g216
sbag1
(g198
g3
NtRp242
(dp243
g208
F-2.742552767276321
sg209
g219
sg202
I15
sg211
F13.822486405237051
sg212
g216
sbag1
(g198
g3
NtRp244
(dp245
g208
F0.13278042279081709
sg209
g219
sg202
I16
sg211
F9.1534044506038743
sg212
g216
sbag1
(g198
g3
NtRp246
(dp247
g208
F0.96111380246232714
sg209
g219
sg202
I17
sg211
F3.0981563035607005
sg212
g216
sbag1
(g198
g3
NtRp248
(dp249
g208
F3.5382232818181656
sg209
g219
sg202
I18
sg211
F4.2690379034859465
sg212
g216
sbag1
(g198
g3
NtRp250
(dp251
g208
F-2.2844880024140264
sg209
g219
sg202
I19
sg211
F7.8440583016950294
sg212
g216
sbag1
(g198
g3
NtRp252
(dp253
g208
F1.0172473036850205
sg209
g219
sg202
I20
sg211
F3.5262808571654025
sg212
g216
sbasb.