ccopy_reg
_reconstructor
p1
(cneat.chromosome
Chromosome
p2
c__builtin__
object
p3
NtRp4
(dp5
S'species_id'
p6
I33
sS'_connection_genes'
p7
(dp8
(I1
I2
tp9
g1
(cneat.genome
ConnectionGene
p10
g3
NtRp11
(dp12
S'_ConnectionGene__weight'
p13
F-29.687118932619185
sS'_ConnectionGene__in'
p14
I1
sS'_ConnectionGene__enabled'
p15
I01
sS'_ConnectionGene__out'
p16
I2
sS'_ConnectionGene__innov_number'
p17
I1
sbs(I7
I3
tp18
g1
(g10
g3
NtRp19
(dp20
g13
F25.327970645177516
sg14
I7
sg15
I01
sg16
I3
sg17
I36
sbs(I3
I2
tp21
g1
(g10
g3
NtRp22
(dp23
g13
F7.5061353269942259
sg14
I3
sg15
I00
sg16
I2
sg17
I4
sbs(I1
I3
tp24
g1
(g10
g3
NtRp25
(dp26
g13
F7.3553856182068849
sg14
I1
sg15
I01
sg16
I3
sg17
I3
sbs(I3
I3
tp27
g1
(g10
g3
NtRp28
(dp29
g13
F5.9635012067380151
sg14
I3
sg15
I01
sg16
I3
sg17
I8
sbs(I4
I8
tp30
g1
(g10
g3
NtRp31
(dp32
g13
F1.4118585404947632
sg14
I4
sg15
I01
sg16
I8
sg17
I38
sbs(I9
I6
tp33
g1
(g10
g3
NtRp34
(dp35
g13
F-4.1486094187372773
sg14
I9
sg15
I01
sg16
I6
sg17
I63
sbs(I4
I4
tp36
g1
(g10
g3
NtRp37
(dp38
g13
F1.572899478898945
sg14
I4
sg15
I01
sg16
I4
sg17
I11
sbs(I4
I7
tp39
g1
(g10
g3
NtRp40
(dp41
g13
F3.8062756144017778
sg14
I4
sg15
I01
sg16
I7
sg17
I35
sbs(I1
I4
tp42
g1
(g10
g3
NtRp43
(dp44
g13
F1.6221628274059787
sg14
I1
sg15
I01
sg16
I4
sg17
I6
sbs(I6
I3
tp45
g1
(g10
g3
NtRp46
(dp47
g13
F22.089214930741189
sg14
I6
sg15
I01
sg16
I3
sg17
I23
sbs(I1
I6
tp48
g1
(g10
g3
NtRp49
(dp50
g13
F10.671937633999789
sg14
I1
sg15
I01
sg16
I6
sg17
I27
sbs(I4
I3
tp51
g1
(g10
g3
NtRp52
(dp53
g13
F15.724988266217192
sg14
I4
sg15
I01
sg16
I3
sg17
I10
sbs(I8
I6
tp54
g1
(g10
g3
NtRp55
(dp56
g13
F2.4235742533004325
sg14
I8
sg15
I00
sg16
I6
sg17
I54
sbs(I8
I3
tp57
g1
(g10
g3
NtRp58
(dp59
g13
F14.834555055905362
sg14
I8
sg15
I01
sg16
I3
sg17
I39
sbs(I8
I9
tp60
g1
(g10
g3
NtRp61
(dp62
g13
F0.093919287867609835
sg14
I8
sg15
I01
sg16
I9
sg17
I61
sbs(I3
I5
tp63
g1
(g10
g3
NtRp64
(dp65
g13
F6.0799982974785269
sg14
I3
sg15
I01
sg16
I5
sg17
I12
sbs(I5
I2
tp66
g1
(g10
g3
NtRp67
(dp68
g13
F17.86323662926042
sg14
I5
sg15
I01
sg16
I2
sg17
I21
sbs(I2
I4
tp69
g1
(g10
g3
NtRp70
(dp71
g13
F4.6902642131297902
sg14
I2
sg15
I01
sg16
I4
sg17
I16
sbs(I5
I3
tp72
g1
(g10
g3
NtRp73
(dp74
g13
F-7.6438817563012051
sg14
I5
sg15
I01
sg16
I3
sg17
I15
sbssS'_input_nodes'
p75
I1
sS'_output_nodes'
p76
I1
sS'_node_gene_type'
p77
cneat.genome
NodeGene
p78
sS'_conn_gene_type'
p79
g10
sS'fitness'
p80
F0.9855505384085691
sS'parent2_id'
p81
I5466
sS'_id'
p82
I5508
sS'parent1_id'
p83
I5466
sS'_node_genes'
p84
(lp85
g1
(g78
g3
NtRp86
(dp87
S'_bias'
p88
I0
sS'_type'
p89
S'INPUT'
p90
sg82
I1
sS'_response'
p91
F4.9242730000000003
sS'_activation_type'
p92
Nsbag1
(g78
g3
NtRp93
(dp94
g88
F-0.18957964534355271
sg89
S'OUTPUT'
p95
sg82
I2
sg91
F4.6316745728954851
sg92
S'tanh'
p96
sbag1
(g78
g3
NtRp97
(dp98
g88
F-0.47858281288445148
sg89
S'HIDDEN'
p99
sg82
I3
sg91
F1.1617533816958461
sg92
g96
sbag1
(g78
g3
NtRp100
(dp101
g88
F-2.4128810044969553
sg89
g99
sg82
I4
sg91
F9.3010990595989256
sg92
g96
sbag1
(g78
g3
NtRp102
(dp103
g88
F0.41701699293014249
sg89
g99
sg82
I5
sg91
F4.5014317939835342
sg92
g96
sbag1
(g78
g3
NtRp104
(dp105
g88
F0.11003542721101259
sg89
g99
sg82
I6
sg91
F6.4123702755237666
sg92
g96
sbag1
(g78
g3
NtRp106
(dp107
g88
F0.74478456003107851
sg89
g99
sg82
I7
sg91
F4.299988209632895
sg92
g96
sbag1
(g78
g3
NtRp108
(dp109
g88
F0.025626390774514618
sg89
g99
sg82
I8
sg91
F6.8659506702125057
sg92
g96
sbag1
(g78
g3
NtRp110
(dp111
g88
I0
sg89
g99
sg82
I9
sg91
F4.9242730000000003
sg92
g96
sbasb.