ccopy_reg
_reconstructor
p1
(cneat.chromosome
Chromosome
p2
c__builtin__
object
p3
NtRp4
(dp5
S'species_id'
p6
I118
sS'_connection_genes'
p7
(dp8
(I7
I3
tp9
g1
(cneat.genome
ConnectionGene
p10
g3
NtRp11
(dp12
S'_ConnectionGene__weight'
p13
F15.806744432129879
sS'_ConnectionGene__in'
p14
I7
sS'_ConnectionGene__enabled'
p15
I01
sS'_ConnectionGene__out'
p16
I3
sS'_ConnectionGene__innov_number'
p17
I36
sbs(I1
I3
tp18
g1
(g10
g3
NtRp19
(dp20
g13
F-19.144871986799039
sg14
I1
sg15
I01
sg16
I3
sg17
I3
sbs(I5
I9
tp21
g1
(g10
g3
NtRp22
(dp23
g13
F-0.83441345370331854
sg14
I5
sg15
I01
sg16
I9
sg17
I100
sbs(I16
I9
tp24
g1
(g10
g3
NtRp25
(dp26
g13
F-5.6210312839350784
sg14
I16
sg15
I01
sg16
I9
sg17
I236
sbs(I11
I2
tp27
g1
(g10
g3
NtRp28
(dp29
g13
F18.666023331932688
sg14
I11
sg15
I01
sg16
I2
sg17
I89
sbs(I10
I6
tp30
g1
(g10
g3
NtRp31
(dp32
g13
F2.2298449086649814
sg14
I10
sg15
I01
sg16
I6
sg17
I68
sbs(I3
I2
tp33
g1
(g10
g3
NtRp34
(dp35
g13
F5.0633151457330854
sg14
I3
sg15
I01
sg16
I2
sg17
I4
sbs(I10
I15
tp36
g1
(g10
g3
NtRp37
(dp38
g13
F-14.433877027958996
sg14
I10
sg15
I01
sg16
I15
sg17
I169
sbs(I11
I8
tp39
g1
(g10
g3
NtRp40
(dp41
g13
F-25.439438972272875
sg14
I11
sg15
I01
sg16
I8
sg17
I91
sbs(I13
I8
tp42
g1
(g10
g3
NtRp43
(dp44
g13
F10.234423149615933
sg14
I13
sg15
I01
sg16
I8
sg17
I177
sbs(I3
I7
tp45
g1
(g10
g3
NtRp46
(dp47
g13
F-12.728575945896756
sg14
I3
sg15
I01
sg16
I7
sg17
I49
sbs(I1
I11
tp48
g1
(g10
g3
NtRp49
(dp50
g13
F-16.230816547974616
sg14
I1
sg15
I01
sg16
I11
sg17
I88
sbs(I5
I8
tp51
g1
(g10
g3
NtRp52
(dp53
g13
F20.714886318285657
sg14
I5
sg15
I01
sg16
I8
sg17
I45
sbs(I1
I2
tp54
g1
(g10
g3
NtRp55
(dp56
g13
F-28.085052806641208
sg14
I1
sg15
I01
sg16
I2
sg17
I1
sbs(I12
I2
tp57
g1
(g10
g3
NtRp58
(dp59
g13
F12.227324059901543
sg14
I12
sg15
I01
sg16
I2
sg17
I104
sbs(I15
I5
tp60
g1
(g10
g3
NtRp61
(dp62
g13
F-1.8656246172413227
sg14
I15
sg15
I01
sg16
I5
sg17
I147
sbs(I4
I9
tp63
g1
(g10
g3
NtRp64
(dp65
g13
F-12.854547360462117
sg14
I4
sg15
I01
sg16
I9
sg17
I57
sbs(I3
I3
tp66
g1
(g10
g3
NtRp67
(dp68
g13
F-0.3485694504511021
sg14
I3
sg15
I01
sg16
I3
sg17
I8
sbs(I2
I9
tp69
g1
(g10
g3
NtRp70
(dp71
g13
F7.1009614333359501
sg14
I2
sg15
I00
sg16
I9
sg17
I144
sbs(I13
I3
tp72
g1
(g10
g3
NtRp73
(dp74
g13
F26.236887566408999
sg14
I13
sg15
I00
sg16
I3
sg17
I117
sbs(I12
I13
tp75
g1
(g10
g3
NtRp76
(dp77
g13
F2.0685514358356434
sg14
I12
sg15
I01
sg16
I13
sg17
I120
sbs(I3
I10
tp78
g1
(g10
g3
NtRp79
(dp80
g13
F-25.359423028760933
sg14
I3
sg15
I01
sg16
I10
sg17
I76
sbs(I4
I4
tp81
g1
(g10
g3
NtRp82
(dp83
g13
F4.3687428342175849
sg14
I4
sg15
I00
sg16
I4
sg17
I11
sbs(I10
I12
tp84
g1
(g10
g3
NtRp85
(dp86
g13
F-2.3823728212409438
sg14
I10
sg15
I01
sg16
I12
sg17
I111
sbs(I4
I8
tp87
g1
(g10
g3
NtRp88
(dp89
g13
F-0.70886193487068416
sg14
I4
sg15
I01
sg16
I8
sg17
I38
sbs(I2
I13
tp90
g1
(g10
g3
NtRp91
(dp92
g13
F-20.265233554186889
sg14
I2
sg15
I01
sg16
I13
sg17
I176
sbs(I4
I11
tp93
g1
(g10
g3
NtRp94
(dp95
g13
F-6.4926726834473847
sg14
I4
sg15
I01
sg16
I11
sg17
I86
sbs(I3
I6
tp96
g1
(g10
g3
NtRp97
(dp98
g13
F13.853348851745396
sg14
I3
sg15
I01
sg16
I6
sg17
I22
sbs(I2
I2
tp99
g1
(g10
g3
NtRp100
(dp101
g13
F3.4090745605146866
sg14
I2
sg15
I01
sg16
I2
sg17
I2
sbs(I3
I5
tp102
g1
(g10
g3
NtRp103
(dp104
g13
F22.174658906388068
sg14
I3
sg15
I01
sg16
I5
sg17
I12
sbs(I2
I16
tp105
g1
(g10
g3
NtRp106
(dp107
g13
F4.6877394545887157
sg14
I2
sg15
I01
sg16
I16
sg17
I228
sbs(I5
I4
tp108
g1
(g10
g3
NtRp109
(dp110
g13
F14.133981103498584
sg14
I5
sg15
I01
sg16
I4
sg17
I13
sbs(I6
I6
tp111
g1
(g10
g3
NtRp112
(dp113
g13
F-7.7906636355147647
sg14
I6
sg15
I01
sg16
I6
sg17
I37
sbs(I5
I11
tp114
g1
(g10
g3
NtRp115
(dp116
g13
F20.927721943195685
sg14
I5
sg15
I01
sg16
I11
sg17
I90
sbs(I9
I3
tp117
g1
(g10
g3
NtRp118
(dp119
g13
F-26.39312873368597
sg14
I9
sg15
I01
sg16
I3
sg17
I60
sbs(I2
I3
tp120
g1
(g10
g3
NtRp121
(dp122
g13
F21.890886014304165
sg14
I2
sg15
I01
sg16
I3
sg17
I5
sbs(I1
I9
tp123
g1
(g10
g3
NtRp124
(dp125
g13
F11.054032486980445
sg14
I1
sg15
I01
sg16
I9
sg17
I47
sbs(I4
I2
tp126
g1
(g10
g3
NtRp127
(dp128
g13
F-3.5065069606002037
sg14
I4
sg15
I01
sg16
I2
sg17
I7
sbs(I6
I5
tp129
g1
(g10
g3
NtRp130
(dp131
g13
F-26.136558873288255
sg14
I6
sg15
I01
sg16
I5
sg17
I28
sbs(I5
I3
tp132
g1
(g10
g3
NtRp133
(dp134
g13
F14.786828620389521
sg14
I5
sg15
I01
sg16
I3
sg17
I15
sbs(I10
I5
tp135
g1
(g10
g3
NtRp136
(dp137
g13
F-2.1781710992855419
sg14
I10
sg15
I00
sg16
I5
sg17
I79
sbs(I13
I14
tp138
g1
(g10
g3
NtRp139
(dp140
g13
F-3.3812335208987458
sg14
I13
sg15
I01
sg16
I14
sg17
I189
sbs(I9
I9
tp141
g1
(g10
g3
NtRp142
(dp143
g13
F-8.6294522963521114
sg14
I9
sg15
I01
sg16
I9
sg17
I73
sbs(I9
I2
tp144
g1
(g10
g3
NtRp145
(dp146
g13
F3.0240580023967993
sg14
I9
sg15
I01
sg16
I2
sg17
I48
sbs(I12
I4
tp147
g1
(g10
g3
NtRp148
(dp149
g13
F-2.6658703054314592
sg14
I12
sg15
I01
sg16
I4
sg17
I115
sbs(I4
I3
tp150
g1
(g10
g3
NtRp151
(dp152
g13
F-17.334088013280397
sg14
I4
sg15
I01
sg16
I3
sg17
I10
sbs(I15
I9
tp153
g1
(g10
g3
NtRp154
(dp155
g13
F0.34198810722463413
sg14
I15
sg15
I01
sg16
I9
sg17
I171
sbs(I14
I3
tp156
g1
(g10
g3
NtRp157
(dp158
g13
F24.291324789015704
sg14
I14
sg15
I01
sg16
I3
sg17
I132
sbs(I8
I4
tp159
g1
(g10
g3
NtRp160
(dp161
g13
F13.352023473391876
sg14
I8
sg15
I01
sg16
I4
sg17
I41
sbs(I5
I2
tp162
g1
(g10
g3
NtRp163
(dp164
g13
F1.6955692607624004
sg14
I5
sg15
I01
sg16
I2
sg17
I21
sbs(I2
I4
tp165
g1
(g10
g3
NtRp166
(dp167
g13
F3.0510016438709675
sg14
I2
sg15
I01
sg16
I4
sg17
I16
sbs(I10
I2
tp168
g1
(g10
g3
NtRp169
(dp170
g13
F20.178205265986076
sg14
I10
sg15
I01
sg16
I2
sg17
I66
sbssS'_input_nodes'
p171
I1
sS'_output_nodes'
p172
I1
sS'_node_gene_type'
p173
cneat.genome
NodeGene
p174
sS'_conn_gene_type'
p175
g10
sS'fitness'
p176
F0.99594674240264847
sS'parent2_id'
p177
I16926
sS'_id'
p178
I16970
sS'parent1_id'
p179
I16926
sS'_node_genes'
p180
(lp181
g1
(g174
g3
NtRp182
(dp183
S'_bias'
p184
I0
sS'_type'
p185
S'INPUT'
p186
sg178
I1
sS'_response'
p187
F4.9242730000000003
sS'_activation_type'
p188
Nsbag1
(g174
g3
NtRp189
(dp190
g184
F-0.97071082823637789
sg185
S'OUTPUT'
p191
sg178
I2
sg187
F4.7803990038832413
sg188
S'tanh'
p192
sbag1
(g174
g3
NtRp193
(dp194
g184
F-3.2667996390906637
sg185
S'HIDDEN'
p195
sg178
I3
sg187
F5.8649783013051167
sg188
g192
sbag1
(g174
g3
NtRp196
(dp197
g184
F2.2732331320184413
sg185
g195
sg178
I4
sg187
F5.4763617942515967
sg188
g192
sbag1
(g174
g3
NtRp198
(dp199
g184
F-2.0846080848707715
sg185
g195
sg178
I5
sg187
F6.0595274419224809
sg188
g192
sbag1
(g174
g3
NtRp200
(dp201
g184
F2.4127425077445368
sg185
g195
sg178
I6
sg187
F9.8351232676494078
sg188
g192
sbag1
(g174
g3
NtRp202
(dp203
g184
F-4.2645659675650194
sg185
g195
sg178
I7
sg187
F12.940035102566673
sg188
g192
sbag1
(g174
g3
NtRp204
(dp205
g184
F-6.1069164564136011
sg185
g195
sg178
I8
sg187
F4.6493181690377767
sg188
g192
sbag1
(g174
g3
NtRp206
(dp207
g184
F4.741322659250061
sg185
g195
sg178
I9
sg187
F4.4496153286921016
sg188
g192
sbag1
(g174
g3
NtRp208
(dp209
g184
F-1.2508003677532638
sg185
g195
sg178
I10
sg187
F4.5387820136886372
sg188
g192
sbag1
(g174
g3
NtRp210
(dp211
g184
F-1.2127710370160141
sg185
g195
sg178
I11
sg187
F5.7339962445381554
sg188
g192
sbag1
(g174
g3
NtRp212
(dp213
g184
F1.0653042754194422
sg185
g195
sg178
I12
sg187
F11.540036956086114
sg188
g192
sbag1
(g174
g3
NtRp214
(dp215
g184
F-2.3957924995434294
sg185
g195
sg178
I13
sg187
F7.0717096861468711
sg188
g192
sbag1
(g174
g3
NtRp216
(dp217
g184
F1.6920254521738751
sg185
g195
sg178
I14
sg187
F4.8534568063197776
sg188
g192
sbag1
(g174
g3
NtRp218
(dp219
g184
F0.84110738579238276
sg185
g195
sg178
I15
sg187
F5.7645211651662969
sg188
g192
sbag1
(g174
g3
NtRp220
(dp221
g184
F0.98179234399869564
sg185
g195
sg178
I16
sg187
F3.9206268520392382
sg188
g192
sbasb.