ccopy_reg
_reconstructor
p1
(cneat.chromosome
Chromosome
p2
c__builtin__
object
p3
NtRp4
(dp5
S'species_id'
p6
I109
sS'_connection_genes'
p7
(dp8
(I7
I3
tp9
g1
(cneat.genome
ConnectionGene
p10
g3
NtRp11
(dp12
S'_ConnectionGene__weight'
p13
F25.372701908795399
sS'_ConnectionGene__in'
p14
I7
sS'_ConnectionGene__enabled'
p15
I01
sS'_ConnectionGene__out'
p16
I3
sS'_ConnectionGene__innov_number'
p17
I36
sbs(I1
I3
tp18
g1
(g10
g3
NtRp19
(dp20
g13
F-8.3653939064064051
sg14
I1
sg15
I01
sg16
I3
sg17
I3
sbs(I5
I9
tp21
g1
(g10
g3
NtRp22
(dp23
g13
F-20.082997141122881
sg14
I5
sg15
I01
sg16
I9
sg17
I100
sbs(I11
I2
tp24
g1
(g10
g3
NtRp25
(dp26
g13
F12.341956212106355
sg14
I11
sg15
I01
sg16
I2
sg17
I89
sbs(I3
I2
tp27
g1
(g10
g3
NtRp28
(dp29
g13
F14.524101809951445
sg14
I3
sg15
I01
sg16
I2
sg17
I4
sbs(I10
I12
tp30
g1
(g10
g3
NtRp31
(dp32
g13
F-2.9477086278463642
sg14
I10
sg15
I01
sg16
I12
sg17
I111
sbs(I10
I15
tp33
g1
(g10
g3
NtRp34
(dp35
g13
F1
sg14
I10
sg15
I01
sg16
I15
sg17
I169
sbs(I3
I7
tp36
g1
(g10
g3
NtRp37
(dp38
g13
F-10.806844477911593
sg14
I3
sg15
I01
sg16
I7
sg17
I49
sbs(I1
I11
tp39
g1
(g10
g3
NtRp40
(dp41
g13
F-6.0316582736570039
sg14
I1
sg15
I01
sg16
I11
sg17
I88
sbs(I5
I8
tp42
g1
(g10
g3
NtRp43
(dp44
g13
F8.6552805595825397
sg14
I5
sg15
I01
sg16
I8
sg17
I45
sbs(I1
I2
tp45
g1
(g10
g3
NtRp46
(dp47
g13
F-12.934685566259811
sg14
I1
sg15
I01
sg16
I2
sg17
I1
sbs(I12
I2
tp48
g1
(g10
g3
NtRp49
(dp50
g13
F19.86427585675105
sg14
I12
sg15
I01
sg16
I2
sg17
I104
sbs(I13
I12
tp51
g1
(g10
g3
NtRp52
(dp53
g13
F-0.85838003110919037
sg14
I13
sg15
I01
sg16
I12
sg17
I291
sbs(I4
I9
tp54
g1
(g10
g3
NtRp55
(dp56
g13
F20.068871850169607
sg14
I4
sg15
I01
sg16
I9
sg17
I57
sbs(I3
I3
tp57
g1
(g10
g3
NtRp58
(dp59
g13
F-2.9643457149044177
sg14
I3
sg15
I01
sg16
I3
sg17
I8
sbs(I2
I9
tp60
g1
(g10
g3
NtRp61
(dp62
g13
F-0.050737635489798816
sg14
I2
sg15
I01
sg16
I9
sg17
I144
sbs(I13
I3
tp63
g1
(g10
g3
NtRp64
(dp65
g13
F30
sg14
I13
sg15
I01
sg16
I3
sg17
I117
sbs(I3
I10
tp66
g1
(g10
g3
NtRp67
(dp68
g13
F-17.554067482711076
sg14
I3
sg15
I01
sg16
I10
sg17
I76
sbs(I4
I8
tp69
g1
(g10
g3
NtRp70
(dp71
g13
F10.574880914552423
sg14
I4
sg15
I01
sg16
I8
sg17
I38
sbs(I4
I4
tp72
g1
(g10
g3
NtRp73
(dp74
g13
F-13.170415113349453
sg14
I4
sg15
I00
sg16
I4
sg17
I11
sbs(I2
I13
tp75
g1
(g10
g3
NtRp76
(dp77
g13
F10.754315359015814
sg14
I2
sg15
I01
sg16
I13
sg17
I176
sbs(I4
I11
tp78
g1
(g10
g3
NtRp79
(dp80
g13
F6.7643920707982588
sg14
I4
sg15
I01
sg16
I11
sg17
I86
sbs(I3
I6
tp81
g1
(g10
g3
NtRp82
(dp83
g13
F-16.495195823213429
sg14
I3
sg15
I01
sg16
I6
sg17
I22
sbs(I2
I2
tp84
g1
(g10
g3
NtRp85
(dp86
g13
F-1.6422541830228765
sg14
I2
sg15
I01
sg16
I2
sg17
I2
sbs(I3
I5
tp87
g1
(g10
g3
NtRp88
(dp89
g13
F27.443259525472584
sg14
I3
sg15
I01
sg16
I5
sg17
I12
sbs(I5
I4
tp90
g1
(g10
g3
NtRp91
(dp92
g13
F-7.5999499546183831
sg14
I5
sg15
I01
sg16
I4
sg17
I13
sbs(I6
I6
tp93
g1
(g10
g3
NtRp94
(dp95
g13
F1.6025771026476745
sg14
I6
sg15
I01
sg16
I6
sg17
I37
sbs(I7
I10
tp96
g1
(g10
g3
NtRp97
(dp98
g13
F21.984325681862501
sg14
I7
sg15
I01
sg16
I10
sg17
I78
sbs(I5
I11
tp99
g1
(g10
g3
NtRp100
(dp101
g13
F20.686133158991424
sg14
I5
sg15
I01
sg16
I11
sg17
I90
sbs(I9
I3
tp102
g1
(g10
g3
NtRp103
(dp104
g13
F-24.376411211838445
sg14
I9
sg15
I01
sg16
I3
sg17
I60
sbs(I2
I3
tp105
g1
(g10
g3
NtRp106
(dp107
g13
F18.767612189666789
sg14
I2
sg15
I01
sg16
I3
sg17
I5
sbs(I1
I9
tp108
g1
(g10
g3
NtRp109
(dp110
g13
F20.431674068426258
sg14
I1
sg15
I01
sg16
I9
sg17
I47
sbs(I4
I2
tp111
g1
(g10
g3
NtRp112
(dp113
g13
F-4.2669434993951159
sg14
I4
sg15
I01
sg16
I2
sg17
I7
sbs(I6
I5
tp114
g1
(g10
g3
NtRp115
(dp116
g13
F-25.428189563077325
sg14
I6
sg15
I01
sg16
I5
sg17
I28
sbs(I5
I3
tp117
g1
(g10
g3
NtRp118
(dp119
g13
F4.2221346785751619
sg14
I5
sg15
I00
sg16
I3
sg17
I15
sbs(I2
I7
tp120
g1
(g10
g3
NtRp121
(dp122
g13
F-11.166954218987568
sg14
I2
sg15
I01
sg16
I7
sg17
I42
sbs(I10
I5
tp123
g1
(g10
g3
NtRp124
(dp125
g13
F19.817307365114583
sg14
I10
sg15
I01
sg16
I5
sg17
I79
sbs(I15
I2
tp126
g1
(g10
g3
NtRp127
(dp128
g13
F4.0116821197328685
sg14
I15
sg15
I01
sg16
I2
sg17
I150
sbs(I9
I2
tp129
g1
(g10
g3
NtRp130
(dp131
g13
F1.5560863168372774
sg14
I9
sg15
I01
sg16
I2
sg17
I48
sbs(I9
I9
tp132
g1
(g10
g3
NtRp133
(dp134
g13
F-6.2290174751669891
sg14
I9
sg15
I01
sg16
I9
sg17
I73
sbs(I5
I14
tp135
g1
(g10
g3
NtRp136
(dp137
g13
F27.763518043760108
sg14
I5
sg15
I01
sg16
I14
sg17
I122
sbs(I11
I8
tp138
g1
(g10
g3
NtRp139
(dp140
g13
F1.9482916004346609
sg14
I11
sg15
I01
sg16
I8
sg17
I91
sbs(I12
I4
tp141
g1
(g10
g3
NtRp142
(dp143
g13
F-18.882350890233326
sg14
I12
sg15
I01
sg16
I4
sg17
I115
sbs(I4
I3
tp144
g1
(g10
g3
NtRp145
(dp146
g13
F-23.421293783258349
sg14
I4
sg15
I01
sg16
I3
sg17
I10
sbs(I14
I3
tp147
g1
(g10
g3
NtRp148
(dp149
g13
F10.937814050539336
sg14
I14
sg15
I01
sg16
I3
sg17
I132
sbs(I13
I9
tp150
g1
(g10
g3
NtRp151
(dp152
g13
F4.1906482109579368
sg14
I13
sg15
I01
sg16
I9
sg17
I137
sbs(I8
I4
tp153
g1
(g10
g3
NtRp154
(dp155
g13
F0.37413191243169747
sg14
I8
sg15
I01
sg16
I4
sg17
I41
sbs(I5
I2
tp156
g1
(g10
g3
NtRp157
(dp158
g13
F-15.829982012869628
sg14
I5
sg15
I01
sg16
I2
sg17
I21
sbs(I2
I4
tp159
g1
(g10
g3
NtRp160
(dp161
g13
F9.3739910611330348
sg14
I2
sg15
I01
sg16
I4
sg17
I16
sbs(I10
I2
tp162
g1
(g10
g3
NtRp163
(dp164
g13
F4.0116821197328685
sg14
I10
sg15
I00
sg16
I2
sg17
I66
sbssS'_input_nodes'
p165
I1
sS'_output_nodes'
p166
I1
sS'_node_gene_type'
p167
cneat.genome
NodeGene
p168
sS'_conn_gene_type'
p169
g10
sS'fitness'
p170
F0.95007813697300103
sS'parent2_id'
p171
I16163
sS'_id'
p172
I16205
sS'parent1_id'
p173
I16163
sS'_node_genes'
p174
(lp175
g1
(g168
g3
NtRp176
(dp177
S'_bias'
p178
I0
sS'_type'
p179
S'INPUT'
p180
sg172
I1
sS'_response'
p181
F4.9242730000000003
sS'_activation_type'
p182
Nsbag1
(g168
g3
NtRp183
(dp184
g178
F-2.2225068718749115
sg179
S'OUTPUT'
p185
sg172
I2
sg181
F5.783679261622602
sg182
S'tanh'
p186
sbag1
(g168
g3
NtRp187
(dp188
g178
F-3.883953008780797
sg179
S'HIDDEN'
p189
sg172
I3
sg181
F5.0754168656844172
sg182
g186
sbag1
(g168
g3
NtRp190
(dp191
g178
F2.1454179106134048
sg179
g189
sg172
I4
sg181
F-0.62581842042277458
sg182
g186
sbag1
(g168
g3
NtRp192
(dp193
g178
F-2.4703662614977144
sg179
g189
sg172
I5
sg181
F4.6545633961329269
sg182
g186
sbag1
(g168
g3
NtRp194
(dp195
g178
F2.6273911540159021
sg179
g189
sg172
I6
sg181
F9.4046602868926499
sg182
g186
sbag1
(g168
g3
NtRp196
(dp197
g178
F-2.7440958696013058
sg179
g189
sg172
I7
sg181
F8.8106059519253073
sg182
g186
sbag1
(g168
g3
NtRp198
(dp199
g178
F-4.9345095124568381
sg179
g189
sg172
I8
sg181
F6.1249807403544132
sg182
g186
sbag1
(g168
g3
NtRp200
(dp201
g178
F4.4571621208981087
sg179
g189
sg172
I9
sg181
F2.2857204625401293
sg182
g186
sbag1
(g168
g3
NtRp202
(dp203
g178
F-1.523351121707905
sg179
g189
sg172
I10
sg181
F3.5065196771356928
sg182
g186
sbag1
(g168
g3
NtRp204
(dp205
g178
F-1.4363880020428379
sg179
g189
sg172
I11
sg181
F5.9151611921668037
sg182
g186
sbag1
(g168
g3
NtRp206
(dp207
g178
F-0.13024224650506394
sg179
g189
sg172
I12
sg181
F7.7487527203929094
sg182
g186
sbag1
(g168
g3
NtRp208
(dp209
g178
F-0.88179499066484557
sg179
g189
sg172
I13
sg181
F7.317825100641647
sg182
g186
sbag1
(g168
g3
NtRp210
(dp211
g178
F0.20428770692132836
sg179
g189
sg172
I14
sg181
F5.5238979043627348
sg182
g186
sbag1
(g168
g3
NtRp212
(dp213
g178
I0
sg179
g189
sg172
I15
sg181
F4.9242730000000003
sg182
g186
sbasb.