ccopy_reg
_reconstructor
p1
(cneat.chromosome
Chromosome
p2
c__builtin__
object
p3
NtRp4
(dp5
S'species_id'
p6
I76
sS'_connection_genes'
p7
(dp8
(I1
I3
tp9
g1
(cneat.genome
ConnectionGene
p10
g3
NtRp11
(dp12
S'_ConnectionGene__weight'
p13
F16.106481933705314
sS'_ConnectionGene__in'
p14
I1
sS'_ConnectionGene__enabled'
p15
I01
sS'_ConnectionGene__out'
p16
I3
sS'_ConnectionGene__innov_number'
p17
I3
sbs(I5
I6
tp18
g1
(g10
g3
NtRp19
(dp20
g13
F-8.6879537674775076
sg14
I5
sg15
I01
sg16
I6
sg17
I25
sbs(I11
I2
tp21
g1
(g10
g3
NtRp22
(dp23
g13
F-23.124260306242583
sg14
I11
sg15
I01
sg16
I2
sg17
I89
sbs(I16
I2
tp24
g1
(g10
g3
NtRp25
(dp26
g13
F-12.885423391656433
sg14
I16
sg15
I01
sg16
I2
sg17
I196
sbs(I8
I9
tp27
g1
(g10
g3
NtRp28
(dp29
g13
F-7.6137341733513608
sg14
I8
sg15
I01
sg16
I9
sg17
I61
sbs(I6
I2
tp30
g1
(g10
g3
NtRp31
(dp32
g13
F-7.0942477183356534
sg14
I6
sg15
I01
sg16
I2
sg17
I18
sbs(I7
I16
tp33
g1
(g10
g3
NtRp34
(dp35
g13
F4.3507267244927865
sg14
I7
sg15
I01
sg16
I16
sg17
I195
sbs(I3
I7
tp36
g1
(g10
g3
NtRp37
(dp38
g13
F-22.643050283614048
sg14
I3
sg15
I01
sg16
I7
sg17
I49
sbs(I7
I2
tp39
g1
(g10
g3
NtRp40
(dp41
g13
F-15.425005176073666
sg14
I7
sg15
I00
sg16
I2
sg17
I31
sbs(I1
I2
tp42
g1
(g10
g3
NtRp43
(dp44
g13
F-22.131849637366305
sg14
I1
sg15
I01
sg16
I2
sg17
I1
sbs(I6
I7
tp45
g1
(g10
g3
NtRp46
(dp47
g13
F1.1807059482887159
sg14
I6
sg15
I01
sg16
I7
sg17
I34
sbs(I3
I3
tp48
g1
(g10
g3
NtRp49
(dp50
g13
F20.889557856553992
sg14
I3
sg15
I01
sg16
I3
sg17
I8
sbs(I8
I10
tp51
g1
(g10
g3
NtRp52
(dp53
g13
F8.3513243888817073
sg14
I8
sg15
I01
sg16
I10
sg17
I65
sbs(I13
I7
tp54
g1
(g10
g3
NtRp55
(dp56
g13
F-26.822761854355111
sg14
I13
sg15
I01
sg16
I7
sg17
I108
sbs(I3
I14
tp57
g1
(g10
g3
NtRp58
(dp59
g13
F-6.9314323567677203
sg14
I3
sg15
I01
sg16
I14
sg17
I133
sbs(I5
I3
tp60
g1
(g10
g3
NtRp61
(dp62
g13
F29.253404313066028
sg14
I5
sg15
I01
sg16
I3
sg17
I15
sbs(I12
I3
tp63
g1
(g10
g3
NtRp64
(dp65
g13
F8.6567456717560507
sg14
I12
sg15
I00
sg16
I3
sg17
I106
sbs(I3
I2
tp66
g1
(g10
g3
NtRp67
(dp68
g13
F-10.358853158025406
sg14
I3
sg15
I00
sg16
I2
sg17
I4
sbs(I8
I2
tp69
g1
(g10
g3
NtRp70
(dp71
g13
F-19.634248881939335
sg14
I8
sg15
I01
sg16
I2
sg17
I46
sbs(I3
I13
tp72
g1
(g10
g3
NtRp73
(dp74
g13
F6.9674660164339155
sg14
I3
sg15
I01
sg16
I13
sg17
I107
sbs(I15
I3
tp75
g1
(g10
g3
NtRp76
(dp77
g13
F9.3038871043291334
sg14
I15
sg15
I01
sg16
I3
sg17
I182
sbs(I8
I11
tp78
g1
(g10
g3
NtRp79
(dp80
g13
F14.622156308162529
sg14
I8
sg15
I01
sg16
I11
sg17
I98
sbs(I9
I3
tp81
g1
(g10
g3
NtRp82
(dp83
g13
F-6.16422654264536
sg14
I9
sg15
I01
sg16
I3
sg17
I60
sbs(I12
I15
tp84
g1
(g10
g3
NtRp85
(dp86
g13
F0.88866585450262037
sg14
I12
sg15
I01
sg16
I15
sg17
I185
sbs(I1
I4
tp87
g1
(g10
g3
NtRp88
(dp89
g13
F14.541433878976454
sg14
I1
sg15
I01
sg16
I4
sg17
I6
sbs(I2
I10
tp90
g1
(g10
g3
NtRp91
(dp92
g13
F-20.420961531593584
sg14
I2
sg15
I01
sg16
I10
sg17
I69
sbs(I7
I5
tp93
g1
(g10
g3
NtRp94
(dp95
g13
F9.7022671014575632
sg14
I7
sg15
I01
sg16
I5
sg17
I50
sbs(I3
I12
tp96
g1
(g10
g3
NtRp97
(dp98
g13
F25.821162760272859
sg14
I3
sg15
I01
sg16
I12
sg17
I105
sbs(I5
I8
tp99
g1
(g10
g3
NtRp100
(dp101
g13
F-5.5513901617810415
sg14
I5
sg15
I01
sg16
I8
sg17
I45
sbs(I14
I2
tp102
g1
(g10
g3
NtRp103
(dp104
g13
F-15.685730289932161
sg14
I14
sg15
I01
sg16
I2
sg17
I125
sbs(I3
I5
tp105
g1
(g10
g3
NtRp106
(dp107
g13
F16.574129418057712
sg14
I3
sg15
I01
sg16
I5
sg17
I12
sbs(I8
I3
tp108
g1
(g10
g3
NtRp109
(dp110
g13
F10.723976822650307
sg14
I8
sg15
I01
sg16
I3
sg17
I39
sbs(I5
I10
tp111
g1
(g10
g3
NtRp112
(dp113
g13
F-10.801815242902748
sg14
I5
sg15
I01
sg16
I10
sg17
I67
sbs(I13
I14
tp114
g1
(g10
g3
NtRp115
(dp116
g13
F-0.28496853713350934
sg14
I13
sg15
I01
sg16
I14
sg17
I189
sbs(I4
I3
tp117
g1
(g10
g3
NtRp118
(dp119
g13
F20.371522871439279
sg14
I4
sg15
I01
sg16
I3
sg17
I10
sbs(I5
I2
tp120
g1
(g10
g3
NtRp121
(dp122
g13
F-20.845028871024766
sg14
I5
sg15
I01
sg16
I2
sg17
I21
sbs(I2
I4
tp123
g1
(g10
g3
NtRp124
(dp125
g13
F-13.165226328103362
sg14
I2
sg15
I01
sg16
I4
sg17
I16
sbs(I10
I2
tp126
g1
(g10
g3
NtRp127
(dp128
g13
F-26.364034783528414
sg14
I10
sg15
I01
sg16
I2
sg17
I66
sbssS'_input_nodes'
p129
I1
sS'_output_nodes'
p130
I1
sS'_node_gene_type'
p131
cneat.genome
NodeGene
p132
sS'_conn_gene_type'
p133
g10
sS'fitness'
p134
F0.97745145814473566
sS'parent2_id'
p135
I11017
sS'_id'
p136
I11093
sS'parent1_id'
p137
I11017
sS'_node_genes'
p138
(lp139
g1
(g132
g3
NtRp140
(dp141
S'_bias'
p142
I0
sS'_type'
p143
S'INPUT'
p144
sg136
I1
sS'_response'
p145
F4.9242730000000003
sS'_activation_type'
p146
Nsbag1
(g132
g3
NtRp147
(dp148
g142
F-2.0538220316560154
sg143
S'OUTPUT'
p149
sg136
I2
sg145
F2.2554446719945216
sg146
S'tanh'
p150
sbag1
(g132
g3
NtRp151
(dp152
g142
F1.8690971379336578
sg143
S'HIDDEN'
p153
sg136
I3
sg145
F-2.3655021910703695
sg146
g150
sbag1
(g132
g3
NtRp154
(dp155
g142
F-3.5849058727344323
sg143
g153
sg136
I4
sg145
F8.6591359251321052
sg146
g150
sbag1
(g132
g3
NtRp156
(dp157
g142
F2.2944429094907632
sg143
g153
sg136
I5
sg145
F7.0694159489997928
sg146
g150
sbag1
(g132
g3
NtRp158
(dp159
g142
F-2.8570313939997738
sg143
g153
sg136
I6
sg145
F3.3797722949444555
sg146
g150
sbag1
(g132
g3
NtRp160
(dp161
g142
F-1.9328477420362273
sg143
g153
sg136
I7
sg145
F5.4728024089147036
sg146
g150
sbag1
(g132
g3
NtRp162
(dp163
g142
F4.1390731654449722
sg143
g153
sg136
I8
sg145
F3.1381793096528692
sg146
g150
sbag1
(g132
g3
NtRp164
(dp165
g142
F1.359289789268344
sg143
g153
sg136
I9
sg145
F4.3601159593337542
sg146
g150
sbag1
(g132
g3
NtRp166
(dp167
g142
F-1.1752031996713816
sg143
g153
sg136
I10
sg145
F1.8527256463722741
sg146
g150
sbag1
(g132
g3
NtRp168
(dp169
g142
F0.34902157817342194
sg143
g153
sg136
I11
sg145
F6.4815338926353601
sg146
g150
sbag1
(g132
g3
NtRp170
(dp171
g142
F-1.239311248153689
sg143
g153
sg136
I12
sg145
F7.2472389470828826
sg146
g150
sbag1
(g132
g3
NtRp172
(dp173
g142
F-1.0810354415422476
sg143
g153
sg136
I13
sg145
F4.0875929005088034
sg146
g150
sbag1
(g132
g3
NtRp174
(dp175
g142
F1.2106250011531166
sg143
g153
sg136
I14
sg145
F2.7304223085671659
sg146
g150
sbag1
(g132
g3
NtRp176
(dp177
g142
F0.52688120417451834
sg143
g153
sg136
I15
sg145
F5.4594101265165609
sg146
g150
sbag1
(g132
g3
NtRp178
(dp179
g142
I0
sg143
g153
sg136
I16
sg145
F4.9242730000000003
sg146
g150
sbasb.