ccopy_reg
_reconstructor
p1
(cneat.chromosome
Chromosome
p2
c__builtin__
object
p3
NtRp4
(dp5
S'species_id'
p6
I113
sS'_connection_genes'
p7
(dp8
(I5
I9
tp9
g1
(cneat.genome
ConnectionGene
p10
g3
NtRp11
(dp12
S'_ConnectionGene__weight'
p13
F-0.56928359088790148
sS'_ConnectionGene__in'
p14
I5
sS'_ConnectionGene__enabled'
p15
I01
sS'_ConnectionGene__out'
p16
I9
sS'_ConnectionGene__innov_number'
p17
I100
sbs(I1
I3
tp18
g1
(g10
g3
NtRp19
(dp20
g13
F-10.93410572844607
sg14
I1
sg15
I01
sg16
I3
sg17
I3
sbs(I7
I3
tp21
g1
(g10
g3
NtRp22
(dp23
g13
F28.078515608381259
sg14
I7
sg15
I01
sg16
I3
sg17
I36
sbs(I11
I2
tp24
g1
(g10
g3
NtRp25
(dp26
g13
F23.753825621467072
sg14
I11
sg15
I01
sg16
I2
sg17
I89
sbs(I5
I4
tp27
g1
(g10
g3
NtRp28
(dp29
g13
F14.345161290003428
sg14
I5
sg15
I01
sg16
I4
sg17
I13
sbs(I10
I15
tp30
g1
(g10
g3
NtRp31
(dp32
g13
F4.5262033394668268
sg14
I10
sg15
I01
sg16
I15
sg17
I169
sbs(I13
I14
tp33
g1
(g10
g3
NtRp34
(dp35
g13
F2.3753983261560396
sg14
I13
sg15
I01
sg16
I14
sg17
I189
sbs(I13
I8
tp36
g1
(g10
g3
NtRp37
(dp38
g13
F-8.4516294484064698
sg14
I13
sg15
I01
sg16
I8
sg17
I177
sbs(I6
I12
tp39
g1
(g10
g3
NtRp40
(dp41
g13
F0.71709796343811538
sg14
I6
sg15
I01
sg16
I12
sg17
I288
sbs(I3
I7
tp42
g1
(g10
g3
NtRp43
(dp44
g13
F-6.6212555483462294
sg14
I3
sg15
I01
sg16
I7
sg17
I49
sbs(I15
I5
tp45
g1
(g10
g3
NtRp46
(dp47
g13
F-12.534160502111671
sg14
I15
sg15
I01
sg16
I5
sg17
I147
sbs(I5
I8
tp48
g1
(g10
g3
NtRp49
(dp50
g13
F7.6295165595712628
sg14
I5
sg15
I01
sg16
I8
sg17
I45
sbs(I1
I2
tp51
g1
(g10
g3
NtRp52
(dp53
g13
F-19.984674679063573
sg14
I1
sg15
I01
sg16
I2
sg17
I1
sbs(I10
I8
tp54
g1
(g10
g3
NtRp55
(dp56
g13
F5.3667867606815642
sg14
I10
sg15
I01
sg16
I8
sg17
I164
sbs(I1
I11
tp57
g1
(g10
g3
NtRp58
(dp59
g13
F-9.4644625972257508
sg14
I1
sg15
I01
sg16
I11
sg17
I88
sbs(I4
I9
tp60
g1
(g10
g3
NtRp61
(dp62
g13
F-9.1824245587522473
sg14
I4
sg15
I01
sg16
I9
sg17
I57
sbs(I3
I3
tp63
g1
(g10
g3
NtRp64
(dp65
g13
F8.9698520101474024
sg14
I3
sg15
I01
sg16
I3
sg17
I8
sbs(I2
I9
tp66
g1
(g10
g3
NtRp67
(dp68
g13
F-5.4781437169193419
sg14
I2
sg15
I00
sg16
I9
sg17
I144
sbs(I13
I3
tp69
g1
(g10
g3
NtRp70
(dp71
g13
F26.669401085919404
sg14
I13
sg15
I00
sg16
I3
sg17
I117
sbs(I3
I10
tp72
g1
(g10
g3
NtRp73
(dp74
g13
F-27.687002955751918
sg14
I3
sg15
I01
sg16
I10
sg17
I76
sbs(I4
I4
tp75
g1
(g10
g3
NtRp76
(dp77
g13
F2.8227191553552178
sg14
I4
sg15
I01
sg16
I4
sg17
I11
sbs(I10
I12
tp78
g1
(g10
g3
NtRp79
(dp80
g13
F-9.0830489252868851
sg14
I10
sg15
I01
sg16
I12
sg17
I111
sbs(I4
I8
tp81
g1
(g10
g3
NtRp82
(dp83
g13
F-1.9943790013463587
sg14
I4
sg15
I01
sg16
I8
sg17
I38
sbs(I2
I13
tp84
g1
(g10
g3
NtRp85
(dp86
g13
F2.7538358727781436
sg14
I2
sg15
I01
sg16
I13
sg17
I176
sbs(I6
I5
tp87
g1
(g10
g3
NtRp88
(dp89
g13
F-28.967840071965728
sg14
I6
sg15
I01
sg16
I5
sg17
I28
sbs(I3
I6
tp90
g1
(g10
g3
NtRp91
(dp92
g13
F-1.2745558025168988
sg14
I3
sg15
I01
sg16
I6
sg17
I22
sbs(I2
I2
tp93
g1
(g10
g3
NtRp94
(dp95
g13
F16.342781361120419
sg14
I2
sg15
I01
sg16
I2
sg17
I2
sbs(I5
I3
tp96
g1
(g10
g3
NtRp97
(dp98
g13
F11.840274995924547
sg14
I5
sg15
I01
sg16
I3
sg17
I15
sbs(I3
I2
tp99
g1
(g10
g3
NtRp100
(dp101
g13
F8.5964084504297382
sg14
I3
sg15
I01
sg16
I2
sg17
I4
sbs(I6
I6
tp102
g1
(g10
g3
NtRp103
(dp104
g13
F-6.0422100211817629
sg14
I6
sg15
I01
sg16
I6
sg17
I37
sbs(I5
I11
tp105
g1
(g10
g3
NtRp106
(dp107
g13
F15.615265648916726
sg14
I5
sg15
I01
sg16
I11
sg17
I90
sbs(I9
I3
tp108
g1
(g10
g3
NtRp109
(dp110
g13
F-26.571891928124593
sg14
I9
sg15
I01
sg16
I3
sg17
I60
sbs(I2
I3
tp111
g1
(g10
g3
NtRp112
(dp113
g13
F17.964963152563715
sg14
I2
sg15
I01
sg16
I3
sg17
I5
sbs(I1
I9
tp114
g1
(g10
g3
NtRp115
(dp116
g13
F24.639681135831161
sg14
I1
sg15
I01
sg16
I9
sg17
I47
sbs(I4
I2
tp117
g1
(g10
g3
NtRp118
(dp119
g13
F-3.8770008169814334
sg14
I4
sg15
I01
sg16
I2
sg17
I7
sbs(I4
I11
tp120
g1
(g10
g3
NtRp121
(dp122
g13
F-11.350365145686725
sg14
I4
sg15
I01
sg16
I11
sg17
I86
sbs(I3
I5
tp123
g1
(g10
g3
NtRp124
(dp125
g13
F30
sg14
I3
sg15
I01
sg16
I5
sg17
I12
sbs(I10
I5
tp126
g1
(g10
g3
NtRp127
(dp128
g13
F2.2600644614408338
sg14
I10
sg15
I01
sg16
I5
sg17
I79
sbs(I12
I2
tp129
g1
(g10
g3
NtRp130
(dp131
g13
F16.10515731934688
sg14
I12
sg15
I01
sg16
I2
sg17
I104
sbs(I9
I2
tp132
g1
(g10
g3
NtRp133
(dp134
g13
F-10.645090078651794
sg14
I9
sg15
I01
sg16
I2
sg17
I48
sbs(I9
I9
tp135
g1
(g10
g3
NtRp136
(dp137
g13
F6.584638383058981
sg14
I9
sg15
I01
sg16
I9
sg17
I73
sbs(I11
I8
tp138
g1
(g10
g3
NtRp139
(dp140
g13
F-20.056850757597839
sg14
I11
sg15
I01
sg16
I8
sg17
I91
sbs(I12
I4
tp141
g1
(g10
g3
NtRp142
(dp143
g13
F-3.5364428310196891
sg14
I12
sg15
I01
sg16
I4
sg17
I115
sbs(I4
I3
tp144
g1
(g10
g3
NtRp145
(dp146
g13
F-15.818463083203351
sg14
I4
sg15
I01
sg16
I3
sg17
I10
sbs(I14
I3
tp147
g1
(g10
g3
NtRp148
(dp149
g13
F30
sg14
I14
sg15
I01
sg16
I3
sg17
I132
sbs(I10
I2
tp150
g1
(g10
g3
NtRp151
(dp152
g13
F22.391413173428408
sg14
I10
sg15
I01
sg16
I2
sg17
I66
sbs(I5
I2
tp153
g1
(g10
g3
NtRp154
(dp155
g13
F6.5110078640316509
sg14
I5
sg15
I01
sg16
I2
sg17
I21
sbs(I2
I4
tp156
g1
(g10
g3
NtRp157
(dp158
g13
F7.0988193938740602
sg14
I2
sg15
I01
sg16
I4
sg17
I16
sbs(I8
I4
tp159
g1
(g10
g3
NtRp160
(dp161
g13
F-2.3580758837817313
sg14
I8
sg15
I01
sg16
I4
sg17
I41
sbssS'_input_nodes'
p162
I1
sS'_output_nodes'
p163
I1
sS'_node_gene_type'
p164
cneat.genome
NodeGene
p165
sS'_conn_gene_type'
p166
g10
sS'fitness'
p167
F0.99611127831052781
sS'parent2_id'
p168
I16330
sS'_id'
p169
I16374
sS'parent1_id'
p170
I16330
sS'_node_genes'
p171
(lp172
g1
(g165
g3
NtRp173
(dp174
S'_bias'
p175
I0
sS'_type'
p176
S'INPUT'
p177
sg169
I1
sS'_response'
p178
F4.9242730000000003
sS'_activation_type'
p179
Nsbag1
(g165
g3
NtRp180
(dp181
g175
F-0.93594544952491177
sg176
S'OUTPUT'
p182
sg169
I2
sg178
F3.9774872093280367
sg179
S'tanh'
p183
sbag1
(g165
g3
NtRp184
(dp185
g175
F-3.9924491062817999
sg176
S'HIDDEN'
p186
sg169
I3
sg178
F4.8173733772069136
sg179
g183
sbag1
(g165
g3
NtRp187
(dp188
g175
F3.5954364050727761
sg176
g186
sg169
I4
sg178
F4.5475680346249732
sg179
g183
sbag1
(g165
g3
NtRp189
(dp190
g175
F-2.754190196110998
sg176
g186
sg169
I5
sg178
F6.315234297351318
sg179
g183
sbag1
(g165
g3
NtRp191
(dp192
g175
F1.856736739443585
sg176
g186
sg169
I6
sg178
F9.4425210954054997
sg179
g183
sbag1
(g165
g3
NtRp193
(dp194
g175
F-2.7364663614849238
sg176
g186
sg169
I7
sg178
F13.417157940449128
sg179
g183
sbag1
(g165
g3
NtRp195
(dp196
g175
F-6.6744285822961205
sg176
g186
sg169
I8
sg178
F3.3799198118098932
sg179
g183
sbag1
(g165
g3
NtRp197
(dp198
g175
F4.3645495117737578
sg176
g186
sg169
I9
sg178
F5.6356868030901968
sg179
g183
sbag1
(g165
g3
NtRp199
(dp200
g175
F-1.6304106265343381
sg176
g186
sg169
I10
sg178
F5.5340859110295391
sg179
g183
sbag1
(g165
g3
NtRp201
(dp202
g175
F-0.894826408549656
sg176
g186
sg169
I11
sg178
F6.0664635254658199
sg179
g183
sbag1
(g165
g3
NtRp203
(dp204
g175
F-0.63392059985467897
sg176
g186
sg169
I12
sg178
F9.9122788673513345
sg179
g183
sbag1
(g165
g3
NtRp205
(dp206
g175
F0.16589120758456549
sg176
g186
sg169
I13
sg178
F6.4201244411785794
sg179
g183
sbag1
(g165
g3
NtRp207
(dp208
g175
F0.41959780734269919
sg176
g186
sg169
I14
sg178
F2.1755626030339874
sg179
g183
sbag1
(g165
g3
NtRp209
(dp210
g175
I0
sg176
g186
sg169
I15
sg178
F4.3471074564866194
sg179
g183
sbasb.