ccopy_reg
_reconstructor
p1
(cneat.chromosome
Chromosome
p2
c__builtin__
object
p3
NtRp4
(dp5
S'species_id'
p6
I85
sS'_connection_genes'
p7
(dp8
(I7
I3
tp9
g1
(cneat.genome
ConnectionGene
p10
g3
NtRp11
(dp12
S'_ConnectionGene__weight'
p13
F30
sS'_ConnectionGene__in'
p14
I7
sS'_ConnectionGene__enabled'
p15
I01
sS'_ConnectionGene__out'
p16
I3
sS'_ConnectionGene__innov_number'
p17
I36
sbs(I1
I3
tp18
g1
(g10
g3
NtRp19
(dp20
g13
F-16.410112507749638
sg14
I1
sg15
I01
sg16
I3
sg17
I3
sbs(I5
I9
tp21
g1
(g10
g3
NtRp22
(dp23
g13
F-7.9347925458660749
sg14
I5
sg15
I01
sg16
I9
sg17
I100
sbs(I3
I2
tp24
g1
(g10
g3
NtRp25
(dp26
g13
F15.308154568309456
sg14
I3
sg15
I01
sg16
I2
sg17
I4
sbs(I10
I12
tp27
g1
(g10
g3
NtRp28
(dp29
g13
F-10.179550171489446
sg14
I10
sg15
I01
sg16
I12
sg17
I111
sbs(I3
I7
tp30
g1
(g10
g3
NtRp31
(dp32
g13
F-4.6898153206502098
sg14
I3
sg15
I00
sg16
I7
sg17
I49
sbs(I5
I8
tp33
g1
(g10
g3
NtRp34
(dp35
g13
F4.7362418223704132
sg14
I5
sg15
I01
sg16
I8
sg17
I45
sbs(I1
I2
tp36
g1
(g10
g3
NtRp37
(dp38
g13
F-25.907590413610663
sg14
I1
sg15
I01
sg16
I2
sg17
I1
sbs(I12
I2
tp39
g1
(g10
g3
NtRp40
(dp41
g13
F23.925612187012046
sg14
I12
sg15
I01
sg16
I2
sg17
I104
sbs(I4
I9
tp42
g1
(g10
g3
NtRp43
(dp44
g13
F5.490828252914425
sg14
I4
sg15
I01
sg16
I9
sg17
I57
sbs(I3
I3
tp45
g1
(g10
g3
NtRp46
(dp47
g13
F-8.5114153714692993
sg14
I3
sg15
I01
sg16
I3
sg17
I8
sbs(I2
I9
tp48
g1
(g10
g3
NtRp49
(dp50
g13
F4.9915644130748333
sg14
I2
sg15
I01
sg16
I9
sg17
I144
sbs(I3
I10
tp51
g1
(g10
g3
NtRp52
(dp53
g13
F-7.3972501803861208
sg14
I3
sg15
I01
sg16
I10
sg17
I76
sbs(I6
I6
tp54
g1
(g10
g3
NtRp55
(dp56
g13
F-4.5393500836017662
sg14
I6
sg15
I01
sg16
I6
sg17
I37
sbs(I4
I4
tp57
g1
(g10
g3
NtRp58
(dp59
g13
F-8.4806308995857123
sg14
I4
sg15
I00
sg16
I4
sg17
I11
sbs(I4
I8
tp60
g1
(g10
g3
NtRp61
(dp62
g13
F4.2026323044630258
sg14
I4
sg15
I01
sg16
I8
sg17
I38
sbs(I13
I7
tp63
g1
(g10
g3
NtRp64
(dp65
g13
F-10.306739814642309
sg14
I13
sg15
I01
sg16
I7
sg17
I108
sbs(I4
I11
tp66
g1
(g10
g3
NtRp67
(dp68
g13
F-8.5680736883890667
sg14
I4
sg15
I01
sg16
I11
sg17
I86
sbs(I3
I6
tp69
g1
(g10
g3
NtRp70
(dp71
g13
F-11.427406725789936
sg14
I3
sg15
I01
sg16
I6
sg17
I22
sbs(I2
I2
tp72
g1
(g10
g3
NtRp73
(dp74
g13
F2.1700413057484647
sg14
I2
sg15
I01
sg16
I2
sg17
I2
sbs(I5
I11
tp75
g1
(g10
g3
NtRp76
(dp77
g13
F12.616076388841329
sg14
I5
sg15
I01
sg16
I11
sg17
I90
sbs(I5
I4
tp78
g1
(g10
g3
NtRp79
(dp80
g13
F7.0899477238786064
sg14
I5
sg15
I01
sg16
I4
sg17
I13
sbs(I12
I14
tp81
g1
(g10
g3
NtRp82
(dp83
g13
F3.6936735921446724
sg14
I12
sg15
I01
sg16
I14
sg17
I131
sbs(I3
I13
tp84
g1
(g10
g3
NtRp85
(dp86
g13
F3.4236486327326312
sg14
I3
sg15
I01
sg16
I13
sg17
I107
sbs(I9
I3
tp87
g1
(g10
g3
NtRp88
(dp89
g13
F-20.966277406013816
sg14
I9
sg15
I01
sg16
I3
sg17
I60
sbs(I2
I3
tp90
g1
(g10
g3
NtRp91
(dp92
g13
F16.022852503418001
sg14
I2
sg15
I01
sg16
I3
sg17
I5
sbs(I1
I9
tp93
g1
(g10
g3
NtRp94
(dp95
g13
F15.580023359768017
sg14
I1
sg15
I01
sg16
I9
sg17
I47
sbs(I4
I2
tp96
g1
(g10
g3
NtRp97
(dp98
g13
F-10.114066227815115
sg14
I4
sg15
I01
sg16
I2
sg17
I7
sbs(I14
I2
tp99
g1
(g10
g3
NtRp100
(dp101
g13
F23.878626905690268
sg14
I14
sg15
I01
sg16
I2
sg17
I125
sbs(I6
I5
tp102
g1
(g10
g3
NtRp103
(dp104
g13
F-9.6235629459069827
sg14
I6
sg15
I01
sg16
I5
sg17
I28
sbs(I3
I5
tp105
g1
(g10
g3
NtRp106
(dp107
g13
F25.461532269426712
sg14
I3
sg15
I01
sg16
I5
sg17
I12
sbs(I10
I5
tp108
g1
(g10
g3
NtRp109
(dp110
g13
F6.5223854358839048
sg14
I10
sg15
I01
sg16
I5
sg17
I79
sbs(I9
I2
tp111
g1
(g10
g3
NtRp112
(dp113
g13
F2.5261346019141921
sg14
I9
sg15
I01
sg16
I2
sg17
I48
sbs(I9
I9
tp114
g1
(g10
g3
NtRp115
(dp116
g13
F11.273561475602001
sg14
I9
sg15
I01
sg16
I9
sg17
I73
sbs(I11
I8
tp117
g1
(g10
g3
NtRp118
(dp119
g13
F-3.9249300194187398
sg14
I11
sg15
I01
sg16
I8
sg17
I91
sbs(I4
I3
tp120
g1
(g10
g3
NtRp121
(dp122
g13
F-13.468371341852448
sg14
I4
sg15
I01
sg16
I3
sg17
I10
sbs(I8
I4
tp123
g1
(g10
g3
NtRp124
(dp125
g13
F10.398288419228587
sg14
I8
sg15
I01
sg16
I4
sg17
I41
sbs(I5
I2
tp126
g1
(g10
g3
NtRp127
(dp128
g13
F-15.672795145408621
sg14
I5
sg15
I01
sg16
I2
sg17
I21
sbs(I2
I4
tp129
g1
(g10
g3
NtRp130
(dp131
g13
F18.735704783488771
sg14
I2
sg15
I01
sg16
I4
sg17
I16
sbs(I10
I2
tp132
g1
(g10
g3
NtRp133
(dp134
g13
F24.294030636695251
sg14
I10
sg15
I01
sg16
I2
sg17
I66
sbssS'_input_nodes'
p135
I1
sS'_output_nodes'
p136
I1
sS'_node_gene_type'
p137
cneat.genome
NodeGene
p138
sS'_conn_gene_type'
p139
g10
sS'fitness'
p140
F0.98140924732228618
sS'parent2_id'
p141
I12054
sS'_id'
p142
I12090
sS'parent1_id'
p143
I12054
sS'_node_genes'
p144
(lp145
g1
(g138
g3
NtRp146
(dp147
S'_bias'
p148
I0
sS'_type'
p149
S'INPUT'
p150
sg142
I1
sS'_response'
p151
F4.9242730000000003
sS'_activation_type'
p152
Nsbag1
(g138
g3
NtRp153
(dp154
g148
F0.092624309846144892
sg149
S'OUTPUT'
p155
sg142
I2
sg151
F5.4444380768314629
sg152
S'tanh'
p156
sbag1
(g138
g3
NtRp157
(dp158
g148
F-2.1054147749619894
sg149
S'HIDDEN'
p159
sg142
I3
sg151
F5.1564768862563515
sg152
g156
sbag1
(g138
g3
NtRp160
(dp161
g148
F2.6127303862343321
sg149
g159
sg142
I4
sg151
F1.0072674067671288
sg152
g156
sbag1
(g138
g3
NtRp162
(dp163
g148
F-1.6087624063337373
sg149
g159
sg142
I5
sg151
F6.0128824078620209
sg152
g156
sbag1
(g138
g3
NtRp164
(dp165
g148
F3.3680463827915883
sg149
g159
sg142
I6
sg151
F11.294064412300244
sg152
g156
sbag1
(g138
g3
NtRp166
(dp167
g148
F-1.4851762969899516
sg149
g159
sg142
I7
sg151
F11.933021115642974
sg152
g156
sbag1
(g138
g3
NtRp168
(dp169
g148
F-2.8136315604335866
sg149
g159
sg142
I8
sg151
F4.352999904441214
sg152
g156
sbag1
(g138
g3
NtRp170
(dp171
g148
F2.6791771510305162
sg149
g159
sg142
I9
sg151
F3.0225813059253728
sg152
g156
sbag1
(g138
g3
NtRp172
(dp173
g148
F1.6426393130341608
sg149
g159
sg142
I10
sg151
F3.9678452090169509
sg152
g156
sbag1
(g138
g3
NtRp174
(dp175
g148
F-4.27044663308026
sg149
g159
sg142
I11
sg151
F7.3317112935225381
sg152
g156
sbag1
(g138
g3
NtRp176
(dp177
g148
F1.7806381584264857
sg149
g159
sg142
I12
sg151
F4.8540400786181799
sg152
g156
sbag1
(g138
g3
NtRp178
(dp179
g148
F0.29379447523158631
sg149
g159
sg142
I13
sg151
F4.5785873245102247
sg152
g156
sbag1
(g138
g3
NtRp180
(dp181
g148
F-0.06304211415873863
sg149
g159
sg142
I14
sg151
F4.9242730000000003
sg152
g156
sbasb.