ccopy_reg
_reconstructor
p1
(cneat.chromosome
Chromosome
p2
c__builtin__
object
p3
NtRp4
(dp5
S'species_id'
p6
I29
sS'_connection_genes'
p7
(dp8
(I1
I2
tp9
g1
(cneat.genome
ConnectionGene
p10
g3
NtRp11
(dp12
S'_ConnectionGene__weight'
p13
F-13.841023330036734
sS'_ConnectionGene__in'
p14
I1
sS'_ConnectionGene__enabled'
p15
I01
sS'_ConnectionGene__out'
p16
I2
sS'_ConnectionGene__innov_number'
p17
I1
sbs(I3
I2
tp18
g1
(g10
g3
NtRp19
(dp20
g13
F2.9023614760064786
sg14
I3
sg15
I01
sg16
I2
sg17
I4
sbs(I1
I3
tp21
g1
(g10
g3
NtRp22
(dp23
g13
F10.116309897034789
sg14
I1
sg15
I00
sg16
I3
sg17
I3
sbs(I3
I3
tp24
g1
(g10
g3
NtRp25
(dp26
g13
F20.881583309035058
sg14
I3
sg15
I01
sg16
I3
sg17
I8
sbs(I5
I6
tp27
g1
(g10
g3
NtRp28
(dp29
g13
F-2.2092540414677218
sg14
I5
sg15
I01
sg16
I6
sg17
I25
sbs(I1
I4
tp30
g1
(g10
g3
NtRp31
(dp32
g13
F21.223862526218181
sg14
I1
sg15
I01
sg16
I4
sg17
I6
sbs(I6
I2
tp33
g1
(g10
g3
NtRp34
(dp35
g13
F-3.2359335995067808
sg14
I6
sg15
I01
sg16
I2
sg17
I18
sbs(I4
I3
tp36
g1
(g10
g3
NtRp37
(dp38
g13
F14.438995137981898
sg14
I4
sg15
I01
sg16
I3
sg17
I10
sbs(I3
I5
tp39
g1
(g10
g3
NtRp40
(dp41
g13
F16.116434628505502
sg14
I3
sg15
I01
sg16
I5
sg17
I12
sbs(I5
I2
tp42
g1
(g10
g3
NtRp43
(dp44
g13
F-15.601147231637995
sg14
I5
sg15
I01
sg16
I2
sg17
I21
sbs(I2
I4
tp45
g1
(g10
g3
NtRp46
(dp47
g13
F-5.5862657704017131
sg14
I2
sg15
I01
sg16
I4
sg17
I16
sbs(I5
I3
tp48
g1
(g10
g3
NtRp49
(dp50
g13
F5.9750872786607054
sg14
I5
sg15
I01
sg16
I3
sg17
I15
sbssS'_input_nodes'
p51
I1
sS'_output_nodes'
p52
I1
sS'_node_gene_type'
p53
cneat.genome
NodeGene
p54
sS'_conn_gene_type'
p55
g10
sS'fitness'
p56
F0.97257830600002826
sS'parent2_id'
p57
I4141
sS'_id'
p58
I4190
sS'parent1_id'
p59
I4141
sS'_node_genes'
p60
(lp61
g1
(g54
g3
NtRp62
(dp63
S'_bias'
p64
I0
sS'_type'
p65
S'INPUT'
p66
sg58
I1
sS'_response'
p67
F4.9242730000000003
sS'_activation_type'
p68
Nsbag1
(g54
g3
NtRp69
(dp70
g64
F-2.2672915146105193
sg65
S'OUTPUT'
p71
sg58
I2
sg67
F5.4837821594886913
sg68
S'tanh'
p72
sbag1
(g54
g3
NtRp73
(dp74
g64
F1.589681415602582
sg65
S'HIDDEN'
p75
sg58
I3
sg67
F3.0316056158388416
sg68
g72
sbag1
(g54
g3
NtRp76
(dp77
g64
F0.75113587117337111
sg65
g75
sg58
I4
sg67
F8.007362307377818
sg68
g72
sbag1
(g54
g3
NtRp78
(dp79
g64
F0.7305544942148221
sg65
g75
sg58
I5
sg67
F4.5120981566616134
sg68
g72
sbag1
(g54
g3
NtRp80
(dp81
g64
F-0.87812164813448679
sg65
g75
sg58
I6
sg67
F5.0016092827996648
sg68
g72
sbasb.