ccopy_reg
_reconstructor
p1
(cneat.chromosome
Chromosome
p2
c__builtin__
object
p3
NtRp4
(dp5
S'species_id'
p6
I129
sS'_connection_genes'
p7
(dp8
(I7
I3
tp9
g1
(cneat.genome
ConnectionGene
p10
g3
NtRp11
(dp12
S'_ConnectionGene__weight'
p13
F28.088121490734196
sS'_ConnectionGene__in'
p14
I7
sS'_ConnectionGene__enabled'
p15
I01
sS'_ConnectionGene__out'
p16
I3
sS'_ConnectionGene__innov_number'
p17
I36
sbs(I1
I3
tp18
g1
(g10
g3
NtRp19
(dp20
g13
F-20.631514427506044
sg14
I1
sg15
I01
sg16
I3
sg17
I3
sbs(I5
I9
tp21
g1
(g10
g3
NtRp22
(dp23
g13
F8.6028955572318875
sg14
I5
sg15
I01
sg16
I9
sg17
I100
sbs(I16
I9
tp24
g1
(g10
g3
NtRp25
(dp26
g13
F26.729743244410621
sg14
I16
sg15
I01
sg16
I9
sg17
I236
sbs(I3
I13
tp27
g1
(g10
g3
NtRp28
(dp29
g13
F23.261066387526277
sg14
I3
sg15
I01
sg16
I13
sg17
I107
sbs(I5
I4
tp30
g1
(g10
g3
NtRp31
(dp32
g13
F9.3735606063690646
sg14
I5
sg15
I01
sg16
I4
sg17
I13
sbs(I2
I12
tp33
g1
(g10
g3
NtRp34
(dp35
g13
F3.5740651232517906
sg14
I2
sg15
I01
sg16
I12
sg17
I135
sbs(I7
I11
tp36
g1
(g10
g3
NtRp37
(dp38
g13
F-11.447838402179061
sg14
I7
sg15
I01
sg16
I11
sg17
I92
sbs(I3
I7
tp39
g1
(g10
g3
NtRp40
(dp41
g13
F4.3511193515887525
sg14
I3
sg15
I00
sg16
I7
sg17
I49
sbs(I14
I9
tp42
g1
(g10
g3
NtRp43
(dp44
g13
F15.07925081886404
sg14
I14
sg15
I01
sg16
I9
sg17
I130
sbs(I5
I8
tp45
g1
(g10
g3
NtRp46
(dp47
g13
F20.432962338277626
sg14
I5
sg15
I01
sg16
I8
sg17
I45
sbs(I1
I2
tp48
g1
(g10
g3
NtRp49
(dp50
g13
F-27.558946624939754
sg14
I1
sg15
I01
sg16
I2
sg17
I1
sbs(I12
I2
tp51
g1
(g10
g3
NtRp52
(dp53
g13
F19.962895174504794
sg14
I12
sg15
I01
sg16
I2
sg17
I104
sbs(I4
I9
tp54
g1
(g10
g3
NtRp55
(dp56
g13
F0.47873932086995519
sg14
I4
sg15
I01
sg16
I9
sg17
I57
sbs(I3
I3
tp57
g1
(g10
g3
NtRp58
(dp59
g13
F-11.601203363071281
sg14
I3
sg15
I01
sg16
I3
sg17
I8
sbs(I2
I9
tp60
g1
(g10
g3
NtRp61
(dp62
g13
F27.781113905499659
sg14
I2
sg15
I01
sg16
I9
sg17
I144
sbs(I3
I10
tp63
g1
(g10
g3
NtRp64
(dp65
g13
F9.9569193585288982
sg14
I3
sg15
I01
sg16
I10
sg17
I76
sbs(I4
I4
tp66
g1
(g10
g3
NtRp67
(dp68
g13
F6.1052062052340403
sg14
I4
sg15
I01
sg16
I4
sg17
I11
sbs(I10
I12
tp69
g1
(g10
g3
NtRp70
(dp71
g13
F-20.883334087120939
sg14
I10
sg15
I01
sg16
I12
sg17
I111
sbs(I17
I2
tp72
g1
(g10
g3
NtRp73
(dp74
g13
F-10.149579515782509
sg14
I17
sg15
I01
sg16
I2
sg17
I202
sbs(I4
I8
tp75
g1
(g10
g3
NtRp76
(dp77
g13
F-8.9169789849443895
sg14
I4
sg15
I01
sg16
I8
sg17
I38
sbs(I13
I7
tp78
g1
(g10
g3
NtRp79
(dp80
g13
F-11.042825761957207
sg14
I13
sg15
I01
sg16
I7
sg17
I108
sbs(I9
I17
tp81
g1
(g10
g3
NtRp82
(dp83
g13
F3.139202597296153
sg14
I9
sg15
I01
sg16
I17
sg17
I258
sbs(I18
I9
tp84
g1
(g10
g3
NtRp85
(dp86
g13
F-4.4080288956214062
sg14
I18
sg15
I01
sg16
I9
sg17
I268
sbs(I2
I2
tp87
g1
(g10
g3
NtRp88
(dp89
g13
F7.034272600294325
sg14
I2
sg15
I01
sg16
I2
sg17
I2
sbs(I15
I4
tp90
g1
(g10
g3
NtRp91
(dp92
g13
F4.1856480502458515
sg14
I15
sg15
I01
sg16
I4
sg17
I173
sbs(I10
I2
tp93
g1
(g10
g3
NtRp94
(dp95
g13
F22.541230773546431
sg14
I10
sg15
I01
sg16
I2
sg17
I66
sbs(I15
I12
tp96
g1
(g10
g3
NtRp97
(dp98
g13
F0.48168124761498832
sg14
I15
sg15
I01
sg16
I12
sg17
I159
sbs(I3
I2
tp99
g1
(g10
g3
NtRp100
(dp101
g13
F14.075203167761837
sg14
I3
sg15
I01
sg16
I2
sg17
I4
sbs(I6
I6
tp102
g1
(g10
g3
NtRp103
(dp104
g13
F7.3080979086214199
sg14
I6
sg15
I01
sg16
I6
sg17
I37
sbs(I12
I14
tp105
g1
(g10
g3
NtRp106
(dp107
g13
F-14.297644256343206
sg14
I12
sg15
I01
sg16
I14
sg17
I131
sbs(I5
I11
tp108
g1
(g10
g3
NtRp109
(dp110
g13
F-4.9175628434009617
sg14
I5
sg15
I01
sg16
I11
sg17
I90
sbs(I9
I3
tp111
g1
(g10
g3
NtRp112
(dp113
g13
F-23.793389352755835
sg14
I9
sg15
I01
sg16
I3
sg17
I60
sbs(I9
I16
tp114
g1
(g10
g3
NtRp115
(dp116
g13
F27.794409241564257
sg14
I9
sg15
I01
sg16
I16
sg17
I240
sbs(I2
I3
tp117
g1
(g10
g3
NtRp118
(dp119
g13
F9.5887258475034791
sg14
I2
sg15
I01
sg16
I3
sg17
I5
sbs(I1
I9
tp120
g1
(g10
g3
NtRp121
(dp122
g13
F12.935945756466456
sg14
I1
sg15
I01
sg16
I9
sg17
I47
sbs(I4
I2
tp123
g1
(g10
g3
NtRp124
(dp125
g13
F-29.723527926608899
sg14
I4
sg15
I01
sg16
I2
sg17
I7
sbs(I14
I2
tp126
g1
(g10
g3
NtRp127
(dp128
g13
F7.3827936544555719
sg14
I14
sg15
I01
sg16
I2
sg17
I125
sbs(I4
I11
tp129
g1
(g10
g3
NtRp130
(dp131
g13
F-28.373174998542005
sg14
I4
sg15
I01
sg16
I11
sg17
I86
sbs(I3
I5
tp132
g1
(g10
g3
NtRp133
(dp134
g13
F21.565943053462192
sg14
I3
sg15
I01
sg16
I5
sg17
I12
sbs(I10
I5
tp135
g1
(g10
g3
NtRp136
(dp137
g13
F21.454534825310077
sg14
I10
sg15
I01
sg16
I5
sg17
I79
sbs(I19
I9
tp138
g1
(g10
g3
NtRp139
(dp140
g13
F10.718634563348086
sg14
I19
sg15
I01
sg16
I9
sg17
I290
sbs(I6
I5
tp141
g1
(g10
g3
NtRp142
(dp143
g13
F-16.46646194408795
sg14
I6
sg15
I01
sg16
I5
sg17
I28
sbs(I9
I2
tp144
g1
(g10
g3
NtRp145
(dp146
g13
F-21.374525499104948
sg14
I9
sg15
I00
sg16
I2
sg17
I48
sbs(I7
I14
tp147
g1
(g10
g3
NtRp148
(dp149
g13
F-3.1101234711115939
sg14
I7
sg15
I01
sg16
I14
sg17
I162
sbs(I9
I9
tp150
g1
(g10
g3
NtRp151
(dp152
g13
F18.088408949574532
sg14
I9
sg15
I00
sg16
I9
sg17
I73
sbs(I3
I6
tp153
g1
(g10
g3
NtRp154
(dp155
g13
F-19.880779917913333
sg14
I3
sg15
I01
sg16
I6
sg17
I22
sbs(I18
I7
tp156
g1
(g10
g3
NtRp157
(dp158
g13
F8.882916583467507
sg14
I18
sg15
I01
sg16
I7
sg17
I272
sbs(I11
I8
tp159
g1
(g10
g3
NtRp160
(dp161
g13
F8.3539275719134416
sg14
I11
sg15
I01
sg16
I8
sg17
I91
sbs(I13
I18
tp162
g1
(g10
g3
NtRp163
(dp164
g13
F5.9585181539880097
sg14
I13
sg15
I01
sg16
I18
sg17
I271
sbs(I4
I3
tp165
g1
(g10
g3
NtRp166
(dp167
g13
F4.7629758340000361
sg14
I4
sg15
I01
sg16
I3
sg17
I10
sbs(I2
I15
tp168
g1
(g10
g3
NtRp169
(dp170
g13
F0.70135459778116505
sg14
I2
sg15
I01
sg16
I15
sg17
I172
sbs(I9
I19
tp171
g1
(g10
g3
NtRp172
(dp173
g13
F-0.072186354202916192
sg14
I9
sg15
I01
sg16
I19
sg17
I312
sbs(I5
I2
tp174
g1
(g10
g3
NtRp175
(dp176
g13
F-11.662159313757055
sg14
I5
sg15
I01
sg16
I2
sg17
I21
sbs(I2
I4
tp177
g1
(g10
g3
NtRp178
(dp179
g13
F28.231224944265776
sg14
I2
sg15
I01
sg16
I4
sg17
I16
sbs(I11
I6
tp180
g1
(g10
g3
NtRp181
(dp182
g13
F-5.3962922167465344
sg14
I11
sg15
I01
sg16
I6
sg17
I110
sbs(I8
I4
tp183
g1
(g10
g3
NtRp184
(dp185
g13
F17.906788995127485
sg14
I8
sg15
I01
sg16
I4
sg17
I41
sbssS'_input_nodes'
p186
I1
sS'_output_nodes'
p187
I1
sS'_node_gene_type'
p188
cneat.genome
NodeGene
p189
sS'_conn_gene_type'
p190
g10
sS'fitness'
p191
F0.94146613069390273
sS'parent2_id'
p192
I18154
sS'_id'
p193
I18195
sS'parent1_id'
p194
I18154
sS'_node_genes'
p195
(lp196
g1
(g189
g3
NtRp197
(dp198
S'_bias'
p199
I0
sS'_type'
p200
S'INPUT'
p201
sg193
I1
sS'_response'
p202
F4.9242730000000003
sS'_activation_type'
p203
Nsbag1
(g189
g3
NtRp204
(dp205
g199
F0.21429425582098571
sg200
S'OUTPUT'
p206
sg193
I2
sg202
F9.8076730247923969
sg203
S'tanh'
p207
sbag1
(g189
g3
NtRp208
(dp209
g199
F-4.3898419100015076
sg200
S'HIDDEN'
p210
sg193
I3
sg202
F6.1581855612865501
sg203
g207
sbag1
(g189
g3
NtRp211
(dp212
g199
F2.1497296907587482
sg200
g210
sg193
I4
sg202
F-2.38482470074036
sg203
g207
sbag1
(g189
g3
NtRp213
(dp214
g199
F-3.5702951214937904
sg200
g210
sg193
I5
sg202
F7.6030316452234468
sg203
g207
sbag1
(g189
g3
NtRp215
(dp216
g199
F0.8672465314507154
sg200
g210
sg193
I6
sg202
F10.61079898839907
sg203
g207
sbag1
(g189
g3
NtRp217
(dp218
g199
F0.23543131516863547
sg200
g210
sg193
I7
sg202
F12.2941063687745
sg203
g207
sbag1
(g189
g3
NtRp219
(dp220
g199
F-0.37891149372145116
sg200
g210
sg193
I8
sg202
F4.0369687414071533
sg203
g207
sbag1
(g189
g3
NtRp221
(dp222
g199
F2.9866016441393359
sg200
g210
sg193
I9
sg202
F-0.25276613267459297
sg203
g207
sbag1
(g189
g3
NtRp223
(dp224
g199
F5.774189668035639
sg200
g210
sg193
I10
sg202
F2.4395254233257018
sg203
g207
sbag1
(g189
g3
NtRp225
(dp226
g199
F-4.6740670530415036
sg200
g210
sg193
I11
sg202
F9.1769742253685642
sg203
g207
sbag1
(g189
g3
NtRp227
(dp228
g199
F2.0071411186719321
sg200
g210
sg193
I12
sg202
F7.1821530669786906
sg203
g207
sbag1
(g189
g3
NtRp229
(dp230
g199
F3.3700101033590215
sg200
g210
sg193
I13
sg202
F5.2196686429483572
sg203
g207
sbag1
(g189
g3
NtRp231
(dp232
g199
F1.0590363493150774
sg200
g210
sg193
I14
sg202
F5.6933643247737757
sg203
g207
sbag1
(g189
g3
NtRp233
(dp234
g199
F-1.4801654117075369
sg200
g210
sg193
I15
sg202
F12.742029350703676
sg203
g207
sbag1
(g189
g3
NtRp235
(dp236
g199
F-3.0274404300416191
sg200
g210
sg193
I16
sg202
F6.0628068971879676
sg203
g207
sbag1
(g189
g3
NtRp237
(dp238
g199
F-1.1484246652899244
sg200
g210
sg193
I17
sg202
F2.8730990818267079
sg203
g207
sbag1
(g189
g3
NtRp239
(dp240
g199
F1.6960403293597328
sg200
g210
sg193
I18
sg202
F4.5640033822729249
sg203
g207
sbag1
(g189
g3
NtRp241
(dp242
g199
F-1.0720074459151672
sg200
g210
sg193
I19
sg202
F7.5273800597737042
sg203
g207
sbasb.