ccopy_reg
_reconstructor
p1
(cneat.chromosome
Chromosome
p2
c__builtin__
object
p3
NtRp4
(dp5
S'species_id'
p6
I39
sS'_connection_genes'
p7
(dp8
(I1
I2
tp9
g1
(cneat.genome
ConnectionGene
p10
g3
NtRp11
(dp12
S'_ConnectionGene__weight'
p13
F-22.209869532025344
sS'_ConnectionGene__in'
p14
I1
sS'_ConnectionGene__enabled'
p15
I01
sS'_ConnectionGene__out'
p16
I2
sS'_ConnectionGene__innov_number'
p17
I1
sbs(I5
I4
tp18
g1
(g10
g3
NtRp19
(dp20
g13
F-3.3163435772469225
sg14
I5
sg15
I01
sg16
I4
sg17
I13
sbs(I1
I3
tp21
g1
(g10
g3
NtRp22
(dp23
g13
F-6.0048529219358402
sg14
I1
sg15
I01
sg16
I3
sg17
I3
sbs(I3
I3
tp24
g1
(g10
g3
NtRp25
(dp26
g13
F10.353065933939622
sg14
I3
sg15
I01
sg16
I3
sg17
I8
sbs(I6
I6
tp27
g1
(g10
g3
NtRp28
(dp29
g13
F2.0566089133061372
sg14
I6
sg15
I01
sg16
I6
sg17
I37
sbs(I4
I5
tp30
g1
(g10
g3
NtRp31
(dp32
g13
F-4.3921450882643533
sg14
I4
sg15
I01
sg16
I5
sg17
I20
sbs(I5
I5
tp33
g1
(g10
g3
NtRp34
(dp35
g13
F-2.0066110394625571
sg14
I5
sg15
I01
sg16
I5
sg17
I24
sbs(I4
I3
tp36
g1
(g10
g3
NtRp37
(dp38
g13
F9.0352398469599287
sg14
I4
sg15
I01
sg16
I3
sg17
I10
sbs(I4
I4
tp39
g1
(g10
g3
NtRp40
(dp41
g13
F-2.4073639524646335
sg14
I4
sg15
I01
sg16
I4
sg17
I11
sbs(I3
I2
tp42
g1
(g10
g3
NtRp43
(dp44
g13
F7.7050446614716241
sg14
I3
sg15
I00
sg16
I2
sg17
I4
sbs(I1
I4
tp45
g1
(g10
g3
NtRp46
(dp47
g13
F4.3757052032396384
sg14
I1
sg15
I01
sg16
I4
sg17
I6
sbs(I3
I5
tp48
g1
(g10
g3
NtRp49
(dp50
g13
F-10.245640932339683
sg14
I3
sg15
I00
sg16
I5
sg17
I12
sbs(I2
I3
tp51
g1
(g10
g3
NtRp52
(dp53
g13
F-10.383651078787492
sg14
I2
sg15
I00
sg16
I3
sg17
I5
sbs(I3
I6
tp54
g1
(g10
g3
NtRp55
(dp56
g13
F-8.9099881580338582
sg14
I3
sg15
I01
sg16
I6
sg17
I22
sbs(I2
I2
tp57
g1
(g10
g3
NtRp58
(dp59
g13
F-2.5560574048340352
sg14
I2
sg15
I01
sg16
I2
sg17
I2
sbs(I4
I2
tp60
g1
(g10
g3
NtRp61
(dp62
g13
F7.1994956099511338
sg14
I4
sg15
I01
sg16
I2
sg17
I7
sbs(I5
I3
tp63
g1
(g10
g3
NtRp64
(dp65
g13
F13.465632794476464
sg14
I5
sg15
I01
sg16
I3
sg17
I15
sbs(I5
I2
tp66
g1
(g10
g3
NtRp67
(dp68
g13
F-11.797576068217529
sg14
I5
sg15
I01
sg16
I2
sg17
I21
sbs(I2
I4
tp69
g1
(g10
g3
NtRp70
(dp71
g13
F-15.264404472070858
sg14
I2
sg15
I01
sg16
I4
sg17
I16
sbs(I6
I5
tp72
g1
(g10
g3
NtRp73
(dp74
g13
F2.5501729725199409
sg14
I6
sg15
I01
sg16
I5
sg17
I28
sbs(I4
I6
tp75
g1
(g10
g3
NtRp76
(dp77
g13
F-4.2944038300901237
sg14
I4
sg15
I01
sg16
I6
sg17
I29
sbssS'_input_nodes'
p78
I1
sS'_output_nodes'
p79
I1
sS'_node_gene_type'
p80
cneat.genome
NodeGene
p81
sS'_conn_gene_type'
p82
g10
sS'fitness'
p83
F0.99804834704520384
sS'parent2_id'
p84
I6347
sS'_id'
p85
I6391
sS'parent1_id'
p86
I6347
sS'_node_genes'
p87
(lp88
g1
(g81
g3
NtRp89
(dp90
S'_bias'
p91
I0
sS'_type'
p92
S'INPUT'
p93
sg85
I1
sS'_response'
p94
F4.9242730000000003
sS'_activation_type'
p95
Nsbag1
(g81
g3
NtRp96
(dp97
g91
F3.1437806896657352
sg92
S'OUTPUT'
p98
sg85
I2
sg94
F2.8981986986213237
sg95
S'tanh'
p99
sbag1
(g81
g3
NtRp100
(dp101
g91
F-0.57085428704128727
sg92
S'HIDDEN'
p102
sg85
I3
sg94
F4.2657524497654382
sg95
g99
sbag1
(g81
g3
NtRp103
(dp104
g91
F0.819135104430326
sg92
g102
sg85
I4
sg94
F4.5092651672292465
sg95
g99
sbag1
(g81
g3
NtRp105
(dp106
g91
F0.48848203365194232
sg92
g102
sg85
I5
sg94
F5.1985481012913306
sg95
g99
sbag1
(g81
g3
NtRp107
(dp108
g91
F-1.4992791904187148
sg92
g102
sg85
I6
sg94
F3.3130987327370605
sg95
g99
sbasb.