ccopy_reg
_reconstructor
p1
(cneat.chromosome
Chromosome
p2
c__builtin__
object
p3
NtRp4
(dp5
S'species_id'
p6
I104
sS'_connection_genes'
p7
(dp8
(I7
I3
tp9
g1
(cneat.genome
ConnectionGene
p10
g3
NtRp11
(dp12
S'_ConnectionGene__weight'
p13
F14.295782696732298
sS'_ConnectionGene__in'
p14
I7
sS'_ConnectionGene__enabled'
p15
I01
sS'_ConnectionGene__out'
p16
I3
sS'_ConnectionGene__innov_number'
p17
I36
sbs(I1
I3
tp18
g1
(g10
g3
NtRp19
(dp20
g13
F-10.332647983866607
sg14
I1
sg15
I01
sg16
I3
sg17
I3
sbs(I5
I9
tp21
g1
(g10
g3
NtRp22
(dp23
g13
F5.7114721190533793
sg14
I5
sg15
I01
sg16
I9
sg17
I100
sbs(I11
I2
tp24
g1
(g10
g3
NtRp25
(dp26
g13
F13.232836007934656
sg14
I11
sg15
I01
sg16
I2
sg17
I89
sbs(I3
I2
tp27
g1
(g10
g3
NtRp28
(dp29
g13
F13.147057336196898
sg14
I3
sg15
I01
sg16
I2
sg17
I4
sbs(I9
I2
tp30
g1
(g10
g3
NtRp31
(dp32
g13
F-4.1421080799341912
sg14
I9
sg15
I01
sg16
I2
sg17
I48
sbs(I13
I8
tp33
g1
(g10
g3
NtRp34
(dp35
g13
F-5.1117713787397197
sg14
I13
sg15
I01
sg16
I8
sg17
I177
sbs(I3
I7
tp36
g1
(g10
g3
NtRp37
(dp38
g13
F-4.6055348851764224
sg14
I3
sg15
I01
sg16
I7
sg17
I49
sbs(I1
I11
tp39
g1
(g10
g3
NtRp40
(dp41
g13
F-4.1236118547831211
sg14
I1
sg15
I01
sg16
I11
sg17
I88
sbs(I5
I8
tp42
g1
(g10
g3
NtRp43
(dp44
g13
F10.931009515046114
sg14
I5
sg15
I01
sg16
I8
sg17
I45
sbs(I1
I2
tp45
g1
(g10
g3
NtRp46
(dp47
g13
F-19.980239122703409
sg14
I1
sg15
I01
sg16
I2
sg17
I1
sbs(I12
I2
tp48
g1
(g10
g3
NtRp49
(dp50
g13
F30
sg14
I12
sg15
I01
sg16
I2
sg17
I104
sbs(I4
I9
tp51
g1
(g10
g3
NtRp52
(dp53
g13
F-12.63401644429103
sg14
I4
sg15
I01
sg16
I9
sg17
I57
sbs(I3
I3
tp54
g1
(g10
g3
NtRp55
(dp56
g13
F0.48817390446873976
sg14
I3
sg15
I01
sg16
I3
sg17
I8
sbs(I2
I9
tp57
g1
(g10
g3
NtRp58
(dp59
g13
F1.0416562121425776
sg14
I2
sg15
I01
sg16
I9
sg17
I144
sbs(I13
I3
tp60
g1
(g10
g3
NtRp61
(dp62
g13
F30
sg14
I13
sg15
I00
sg16
I3
sg17
I117
sbs(I3
I10
tp63
g1
(g10
g3
NtRp64
(dp65
g13
F-28.115505017415224
sg14
I3
sg15
I01
sg16
I10
sg17
I76
sbs(I4
I4
tp66
g1
(g10
g3
NtRp67
(dp68
g13
F1.9388775498936102
sg14
I4
sg15
I00
sg16
I4
sg17
I11
sbs(I10
I12
tp69
g1
(g10
g3
NtRp70
(dp71
g13
F0.24860865243473595
sg14
I10
sg15
I01
sg16
I12
sg17
I111
sbs(I4
I8
tp72
g1
(g10
g3
NtRp73
(dp74
g13
F1.0307316541410518
sg14
I4
sg15
I01
sg16
I8
sg17
I38
sbs(I2
I13
tp75
g1
(g10
g3
NtRp76
(dp77
g13
F-6.2067841610575547
sg14
I2
sg15
I01
sg16
I13
sg17
I176
sbs(I4
I11
tp78
g1
(g10
g3
NtRp79
(dp80
g13
F-6.8071758073755859
sg14
I4
sg15
I01
sg16
I11
sg17
I86
sbs(I3
I6
tp81
g1
(g10
g3
NtRp82
(dp83
g13
F-4.0916244876421572
sg14
I3
sg15
I01
sg16
I6
sg17
I22
sbs(I2
I2
tp84
g1
(g10
g3
NtRp85
(dp86
g13
F5.6653279313516443
sg14
I2
sg15
I01
sg16
I2
sg17
I2
sbs(I3
I5
tp87
g1
(g10
g3
NtRp88
(dp89
g13
F27.628586258556851
sg14
I3
sg15
I01
sg16
I5
sg17
I12
sbs(I5
I4
tp90
g1
(g10
g3
NtRp91
(dp92
g13
F16.361378650369176
sg14
I5
sg15
I01
sg16
I4
sg17
I13
sbs(I6
I6
tp93
g1
(g10
g3
NtRp94
(dp95
g13
F-10.051130770178425
sg14
I6
sg15
I01
sg16
I6
sg17
I37
sbs(I5
I11
tp96
g1
(g10
g3
NtRp97
(dp98
g13
F27.929121730422157
sg14
I5
sg15
I01
sg16
I11
sg17
I90
sbs(I9
I3
tp99
g1
(g10
g3
NtRp100
(dp101
g13
F-28.491440885308869
sg14
I9
sg15
I01
sg16
I3
sg17
I60
sbs(I2
I3
tp102
g1
(g10
g3
NtRp103
(dp104
g13
F20.869042067130213
sg14
I2
sg15
I01
sg16
I3
sg17
I5
sbs(I1
I9
tp105
g1
(g10
g3
NtRp106
(dp107
g13
F25.937899517848862
sg14
I1
sg15
I01
sg16
I9
sg17
I47
sbs(I4
I2
tp108
g1
(g10
g3
NtRp109
(dp110
g13
F-12.689466265737138
sg14
I4
sg15
I01
sg16
I2
sg17
I7
sbs(I6
I5
tp111
g1
(g10
g3
NtRp112
(dp113
g13
F-11.815493464798733
sg14
I6
sg15
I01
sg16
I5
sg17
I28
sbs(I5
I3
tp114
g1
(g10
g3
NtRp115
(dp116
g13
F2.1274957548136566
sg14
I5
sg15
I01
sg16
I3
sg17
I15
sbs(I10
I5
tp117
g1
(g10
g3
NtRp118
(dp119
g13
F6.8933303407207882
sg14
I10
sg15
I01
sg16
I5
sg17
I79
sbs(I11
I8
tp120
g1
(g10
g3
NtRp121
(dp122
g13
F-21.188634849342424
sg14
I11
sg15
I01
sg16
I8
sg17
I91
sbs(I9
I9
tp123
g1
(g10
g3
NtRp124
(dp125
g13
F5.4218269796344183
sg14
I9
sg15
I01
sg16
I9
sg17
I73
sbs(I13
I14
tp126
g1
(g10
g3
NtRp127
(dp128
g13
F-5.6631214074390686
sg14
I13
sg15
I01
sg16
I14
sg17
I189
sbs(I12
I4
tp129
g1
(g10
g3
NtRp130
(dp131
g13
F-10.23258051714358
sg14
I12
sg15
I01
sg16
I4
sg17
I115
sbs(I4
I3
tp132
g1
(g10
g3
NtRp133
(dp134
g13
F-24.483992738486592
sg14
I4
sg15
I01
sg16
I3
sg17
I10
sbs(I14
I3
tp135
g1
(g10
g3
NtRp136
(dp137
g13
F21.888182518345271
sg14
I14
sg15
I01
sg16
I3
sg17
I132
sbs(I8
I4
tp138
g1
(g10
g3
NtRp139
(dp140
g13
F-9.4325522418167527
sg14
I8
sg15
I01
sg16
I4
sg17
I41
sbs(I5
I2
tp141
g1
(g10
g3
NtRp142
(dp143
g13
F12.343797411104802
sg14
I5
sg15
I01
sg16
I2
sg17
I21
sbs(I2
I4
tp144
g1
(g10
g3
NtRp145
(dp146
g13
F6.9372886101577667
sg14
I2
sg15
I01
sg16
I4
sg17
I16
sbs(I10
I2
tp147
g1
(g10
g3
NtRp148
(dp149
g13
F25.914264800243629
sg14
I10
sg15
I01
sg16
I2
sg17
I66
sbssS'_input_nodes'
p150
I1
sS'_output_nodes'
p151
I1
sS'_node_gene_type'
p152
cneat.genome
NodeGene
p153
sS'_conn_gene_type'
p154
g10
sS'fitness'
p155
F0.99627403715582097
sS'parent2_id'
p156
I15070
sS'_id'
p157
I15120
sS'parent1_id'
p158
I15070
sS'_node_genes'
p159
(lp160
g1
(g153
g3
NtRp161
(dp162
S'_bias'
p163
I0
sS'_type'
p164
S'INPUT'
p165
sg157
I1
sS'_response'
p166
F4.9242730000000003
sS'_activation_type'
p167
Nsbag1
(g153
g3
NtRp168
(dp169
g163
F0.32754058655636953
sg164
S'OUTPUT'
p170
sg157
I2
sg166
F4.4403561132874181
sg167
S'tanh'
p171
sbag1
(g153
g3
NtRp172
(dp173
g163
F-4.2818593370822011
sg164
S'HIDDEN'
p174
sg157
I3
sg166
F4.9909016130281429
sg167
g171
sbag1
(g153
g3
NtRp175
(dp176
g163
F2.2009141045125387
sg164
g174
sg157
I4
sg166
F3.6646725766428361
sg167
g171
sbag1
(g153
g3
NtRp177
(dp178
g163
F-3.21923434826074
sg164
g174
sg157
I5
sg166
F6.0199298544105773
sg167
g171
sbag1
(g153
g3
NtRp179
(dp180
g163
F3.3897246670093995
sg164
g174
sg157
I6
sg166
F9.7934510361995262
sg167
g171
sbag1
(g153
g3
NtRp181
(dp182
g163
F-2.5091045065823239
sg164
g174
sg157
I7
sg166
F11.55800951796742
sg167
g171
sbag1
(g153
g3
NtRp183
(dp184
g163
F-5.2872055799675648
sg164
g174
sg157
I8
sg166
F3.1724663120557413
sg167
g171
sbag1
(g153
g3
NtRp185
(dp186
g163
F4.8640831980245451
sg164
g174
sg157
I9
sg166
F4.4278394380006798
sg167
g171
sbag1
(g153
g3
NtRp187
(dp188
g163
F-0.49021609483694273
sg164
g174
sg157
I10
sg166
F3.9796251001677234
sg167
g171
sbag1
(g153
g3
NtRp189
(dp190
g163
F-2.0242728267532768
sg164
g174
sg157
I11
sg166
F6.7516193891433254
sg167
g171
sbag1
(g153
g3
NtRp191
(dp192
g163
F-0.43646172530195604
sg164
g174
sg157
I12
sg166
F9.1698110375494473
sg167
g171
sbag1
(g153
g3
NtRp193
(dp194
g163
F-0.30335883503382732
sg164
g174
sg157
I13
sg166
F5.4521242567147992
sg167
g171
sbag1
(g153
g3
NtRp195
(dp196
g163
F-0.099417734980698155
sg164
g174
sg157
I14
sg166
F2.8563179352140491
sg167
g171
sbasb.