ccopy_reg
_reconstructor
p1
(cneat.chromosome
Chromosome
p2
c__builtin__
object
p3
NtRp4
(dp5
S'species_id'
p6
I69
sS'_connection_genes'
p7
(dp8
(I1
I3
tp9
g1
(cneat.genome
ConnectionGene
p10
g3
NtRp11
(dp12
S'_ConnectionGene__weight'
p13
F17.419436977257909
sS'_ConnectionGene__in'
p14
I1
sS'_ConnectionGene__enabled'
p15
I01
sS'_ConnectionGene__out'
p16
I3
sS'_ConnectionGene__innov_number'
p17
I3
sbs(I5
I6
tp18
g1
(g10
g3
NtRp19
(dp20
g13
F-9.682325516856487
sg14
I5
sg15
I01
sg16
I6
sg17
I25
sbs(I11
I2
tp21
g1
(g10
g3
NtRp22
(dp23
g13
F-15.577998137915571
sg14
I11
sg15
I01
sg16
I2
sg17
I89
sbs(I8
I9
tp24
g1
(g10
g3
NtRp25
(dp26
g13
F-2.9708910437824252
sg14
I8
sg15
I01
sg16
I9
sg17
I61
sbs(I6
I2
tp27
g1
(g10
g3
NtRp28
(dp29
g13
F-15.189082248562245
sg14
I6
sg15
I01
sg16
I2
sg17
I18
sbs(I3
I7
tp30
g1
(g10
g3
NtRp31
(dp32
g13
F-27.610159334198677
sg14
I3
sg15
I01
sg16
I7
sg17
I49
sbs(I3
I14
tp33
g1
(g10
g3
NtRp34
(dp35
g13
F0.05332058986385535
sg14
I3
sg15
I01
sg16
I14
sg17
I133
sbs(I1
I2
tp36
g1
(g10
g3
NtRp37
(dp38
g13
F-23.981807920529917
sg14
I1
sg15
I01
sg16
I2
sg17
I1
sbs(I6
I7
tp39
g1
(g10
g3
NtRp40
(dp41
g13
F-1.4486108689978237
sg14
I6
sg15
I01
sg16
I7
sg17
I34
sbs(I3
I3
tp42
g1
(g10
g3
NtRp43
(dp44
g13
F18.83925554828744
sg14
I3
sg15
I01
sg16
I3
sg17
I8
sbs(I8
I10
tp45
g1
(g10
g3
NtRp46
(dp47
g13
F1.9811284405606095
sg14
I8
sg15
I01
sg16
I10
sg17
I65
sbs(I13
I16
tp48
g1
(g10
g3
NtRp49
(dp50
g13
F0.98265421574932743
sg14
I13
sg15
I01
sg16
I16
sg17
I191
sbs(I13
I7
tp51
g1
(g10
g3
NtRp52
(dp53
g13
F-27.908113832858426
sg14
I13
sg15
I00
sg16
I7
sg17
I108
sbs(I7
I2
tp54
g1
(g10
g3
NtRp55
(dp56
g13
F-14.415648736518975
sg14
I7
sg15
I01
sg16
I2
sg17
I31
sbs(I5
I3
tp57
g1
(g10
g3
NtRp58
(dp59
g13
F30
sg14
I5
sg15
I01
sg16
I3
sg17
I15
sbs(I12
I3
tp60
g1
(g10
g3
NtRp61
(dp62
g13
F7.2043990948380952
sg14
I12
sg15
I00
sg16
I3
sg17
I106
sbs(I3
I2
tp63
g1
(g10
g3
NtRp64
(dp65
g13
F-13.398710722702091
sg14
I3
sg15
I00
sg16
I2
sg17
I4
sbs(I8
I2
tp66
g1
(g10
g3
NtRp67
(dp68
g13
F-13.970639253791163
sg14
I8
sg15
I01
sg16
I2
sg17
I46
sbs(I3
I13
tp69
g1
(g10
g3
NtRp70
(dp71
g13
F5.0176835668466442
sg14
I3
sg15
I01
sg16
I13
sg17
I107
sbs(I15
I3
tp72
g1
(g10
g3
NtRp73
(dp74
g13
F13.937346832711578
sg14
I15
sg15
I01
sg16
I3
sg17
I182
sbs(I8
I11
tp75
g1
(g10
g3
NtRp76
(dp77
g13
F13.951897410043207
sg14
I8
sg15
I01
sg16
I11
sg17
I98
sbs(I9
I3
tp78
g1
(g10
g3
NtRp79
(dp80
g13
F-9.5207794290149312
sg14
I9
sg15
I01
sg16
I3
sg17
I60
sbs(I12
I15
tp81
g1
(g10
g3
NtRp82
(dp83
g13
F-3.1471690128116458
sg14
I12
sg15
I01
sg16
I15
sg17
I185
sbs(I16
I7
tp84
g1
(g10
g3
NtRp85
(dp86
g13
F-29.348634626545632
sg14
I16
sg15
I01
sg16
I7
sg17
I192
sbs(I2
I10
tp87
g1
(g10
g3
NtRp88
(dp89
g13
F-14.562176552278345
sg14
I2
sg15
I01
sg16
I10
sg17
I69
sbs(I7
I5
tp90
g1
(g10
g3
NtRp91
(dp92
g13
F5.665269973956546
sg14
I7
sg15
I01
sg16
I5
sg17
I50
sbs(I1
I4
tp93
g1
(g10
g3
NtRp94
(dp95
g13
F12.710594539330744
sg14
I1
sg15
I01
sg16
I4
sg17
I6
sbs(I3
I12
tp96
g1
(g10
g3
NtRp97
(dp98
g13
F25.486648307019056
sg14
I3
sg15
I01
sg16
I12
sg17
I105
sbs(I5
I8
tp99
g1
(g10
g3
NtRp100
(dp101
g13
F-2.7604873695747036
sg14
I5
sg15
I01
sg16
I8
sg17
I45
sbs(I14
I2
tp102
g1
(g10
g3
NtRp103
(dp104
g13
F-15.662157384101002
sg14
I14
sg15
I01
sg16
I2
sg17
I125
sbs(I3
I5
tp105
g1
(g10
g3
NtRp106
(dp107
g13
F18.396249376142702
sg14
I3
sg15
I01
sg16
I5
sg17
I12
sbs(I8
I3
tp108
g1
(g10
g3
NtRp109
(dp110
g13
F12.088344879116116
sg14
I8
sg15
I01
sg16
I3
sg17
I39
sbs(I5
I10
tp111
g1
(g10
g3
NtRp112
(dp113
g13
F-9.8630044472796961
sg14
I5
sg15
I01
sg16
I10
sg17
I67
sbs(I13
I14
tp114
g1
(g10
g3
NtRp115
(dp116
g13
F5.3706831411902032
sg14
I13
sg15
I01
sg16
I14
sg17
I189
sbs(I4
I3
tp117
g1
(g10
g3
NtRp118
(dp119
g13
F18.276689577288927
sg14
I4
sg15
I01
sg16
I3
sg17
I10
sbs(I5
I2
tp120
g1
(g10
g3
NtRp121
(dp122
g13
F-19.582182558900495
sg14
I5
sg15
I01
sg16
I2
sg17
I21
sbs(I2
I4
tp123
g1
(g10
g3
NtRp124
(dp125
g13
F-15.442480468898314
sg14
I2
sg15
I01
sg16
I4
sg17
I16
sbs(I10
I2
tp126
g1
(g10
g3
NtRp127
(dp128
g13
F-28.164031126835987
sg14
I10
sg15
I01
sg16
I2
sg17
I66
sbssS'_input_nodes'
p129
I1
sS'_output_nodes'
p130
I1
sS'_node_gene_type'
p131
cneat.genome
NodeGene
p132
sS'_conn_gene_type'
p133
g10
sS'fitness'
p134
F0.98270892442510915
sS'parent2_id'
p135
I11357
sS'_id'
p136
I11526
sS'parent1_id'
p137
I11357
sS'_node_genes'
p138
(lp139
g1
(g132
g3
NtRp140
(dp141
S'_bias'
p142
I0
sS'_type'
p143
S'INPUT'
p144
sg136
I1
sS'_response'
p145
F4.9242730000000003
sS'_activation_type'
p146
Nsbag1
(g132
g3
NtRp147
(dp148
g142
F-2.9456389199338289
sg143
S'OUTPUT'
p149
sg136
I2
sg145
F2.2554446719945216
sg146
S'tanh'
p150
sbag1
(g132
g3
NtRp151
(dp152
g142
F2.6798479204859786
sg143
S'HIDDEN'
p153
sg136
I3
sg145
F-1.8862961575417883
sg146
g150
sbag1
(g132
g3
NtRp154
(dp155
g142
F-3.9952720077880453
sg143
g153
sg136
I4
sg145
F8.9171576351579542
sg146
g150
sbag1
(g132
g3
NtRp156
(dp157
g142
F2.2944429094907632
sg143
g153
sg136
I5
sg145
F6.4336645804026551
sg146
g150
sbag1
(g132
g3
NtRp158
(dp159
g142
F-1.8599995706326502
sg143
g153
sg136
I6
sg145
F3.2446602533143314
sg146
g150
sbag1
(g132
g3
NtRp160
(dp161
g142
F-2.3848491256715389
sg143
g153
sg136
I7
sg145
F5.7094510018437301
sg146
g150
sbag1
(g132
g3
NtRp162
(dp163
g142
F4.040452066656206
sg143
g153
sg136
I8
sg145
F3.4602863042721483
sg146
g150
sbag1
(g132
g3
NtRp164
(dp165
g142
F2.160444981711108
sg143
g153
sg136
I9
sg145
F3.6181555250309594
sg146
g150
sbag1
(g132
g3
NtRp166
(dp167
g142
F-1.0960006594046239
sg143
g153
sg136
I10
sg145
F1.6137544494376845
sg146
g150
sbag1
(g132
g3
NtRp168
(dp169
g142
F0.23394766282997986
sg143
g153
sg136
I11
sg145
F6.6074739052327365
sg146
g150
sbag1
(g132
g3
NtRp170
(dp171
g142
F-1.2307420327377601
sg143
g153
sg136
I12
sg145
F7.2472389470828826
sg146
g150
sbag1
(g132
g3
NtRp172
(dp173
g142
F-1.0203402306468576
sg143
g153
sg136
I13
sg145
F5.3944481559919231
sg146
g150
sbag1
(g132
g3
NtRp174
(dp175
g142
F0.98303158962263892
sg143
g153
sg136
I14
sg145
F3.6159577023827025
sg146
g150
sbag1
(g132
g3
NtRp176
(dp177
g142
F0.38949752673517635
sg143
g153
sg136
I15
sg145
F4.6787341619709881
sg146
g150
sbag1
(g132
g3
NtRp178
(dp179
g142
F0.66511087614935349
sg143
g153
sg136
I16
sg145
F4.1977013499125366
sg146
g150
sbasb.