ccopy_reg
_reconstructor
p1
(cneat.chromosome
Chromosome
p2
c__builtin__
object
p3
NtRp4
(dp5
S'species_id'
p6
I154
sS'_connection_genes'
p7
(dp8
(I7
I3
tp9
g1
(cneat.genome
ConnectionGene
p10
g3
NtRp11
(dp12
S'_ConnectionGene__weight'
p13
F29.521835672425478
sS'_ConnectionGene__in'
p14
I7
sS'_ConnectionGene__enabled'
p15
I01
sS'_ConnectionGene__out'
p16
I3
sS'_ConnectionGene__innov_number'
p17
I36
sbs(I4
I7
tp18
g1
(g10
g3
NtRp19
(dp20
g13
F-3.8247790645175814
sg14
I4
sg15
I01
sg16
I7
sg17
I35
sbs(I1
I3
tp21
g1
(g10
g3
NtRp22
(dp23
g13
F-26.270430675788742
sg14
I1
sg15
I01
sg16
I3
sg17
I3
sbs(I10
I11
tp24
g1
(g10
g3
NtRp25
(dp26
g13
F-3.8493626973570443
sg14
I10
sg15
I01
sg16
I11
sg17
I95
sbs(I20
I3
tp27
g1
(g10
g3
NtRp28
(dp29
g13
F6.631108198356233
sg14
I20
sg15
I01
sg16
I3
sg17
I322
sbs(I5
I9
tp30
g1
(g10
g3
NtRp31
(dp32
g13
F20.429100641068462
sg14
I5
sg15
I01
sg16
I9
sg17
I100
sbs(I16
I9
tp33
g1
(g10
g3
NtRp34
(dp35
g13
F-0.44670092580899357
sg14
I16
sg15
I01
sg16
I9
sg17
I236
sbs(I11
I2
tp36
g1
(g10
g3
NtRp37
(dp38
g13
F30
sg14
I11
sg15
I01
sg16
I2
sg17
I89
sbs(I10
I6
tp39
g1
(g10
g3
NtRp40
(dp41
g13
F-10.433650742861662
sg14
I10
sg15
I01
sg16
I6
sg17
I68
sbs(I5
I4
tp42
g1
(g10
g3
NtRp43
(dp44
g13
F8.0927117231820525
sg14
I5
sg15
I01
sg16
I4
sg17
I13
sbs(I9
I2
tp45
g1
(g10
g3
NtRp46
(dp47
g13
F7.8985697694179287
sg14
I9
sg15
I01
sg16
I2
sg17
I48
sbs(I1
I15
tp48
g1
(g10
g3
NtRp49
(dp50
g13
F7.3280242948101044
sg14
I1
sg15
I01
sg16
I15
sg17
I149
sbs(I10
I15
tp51
g1
(g10
g3
NtRp52
(dp53
g13
F-30
sg14
I10
sg15
I01
sg16
I15
sg17
I169
sbs(I19
I15
tp54
g1
(g10
g3
NtRp55
(dp56
g13
F-7.8128778727792199
sg14
I19
sg15
I01
sg16
I15
sg17
I308
sbs(I13
I8
tp57
g1
(g10
g3
NtRp58
(dp59
g13
F3.4386131854712478
sg14
I13
sg15
I01
sg16
I8
sg17
I177
sbs(I15
I19
tp60
g1
(g10
g3
NtRp61
(dp62
g13
F0.70927097745983581
sg14
I15
sg15
I01
sg16
I19
sg17
I345
sbs(I3
I7
tp63
g1
(g10
g3
NtRp64
(dp65
g13
F-2.2781685743799436
sg14
I3
sg15
I01
sg16
I7
sg17
I49
sbs(I1
I11
tp66
g1
(g10
g3
NtRp67
(dp68
g13
F-19.673612411174595
sg14
I1
sg15
I01
sg16
I11
sg17
I88
sbs(I5
I8
tp69
g1
(g10
g3
NtRp70
(dp71
g13
F29.582955053581721
sg14
I5
sg15
I01
sg16
I8
sg17
I45
sbs(I1
I2
tp72
g1
(g10
g3
NtRp73
(dp74
g13
F-17.487260878900365
sg14
I1
sg15
I01
sg16
I2
sg17
I1
sbs(I12
I2
tp75
g1
(g10
g3
NtRp76
(dp77
g13
F23.428953944339217
sg14
I12
sg15
I01
sg16
I2
sg17
I104
sbs(I13
I12
tp78
g1
(g10
g3
NtRp79
(dp80
g13
F-4.5003556475520448
sg14
I13
sg15
I01
sg16
I12
sg17
I291
sbs(I15
I5
tp81
g1
(g10
g3
NtRp82
(dp83
g13
F14.299463106046826
sg14
I15
sg15
I00
sg16
I5
sg17
I147
sbs(I4
I9
tp84
g1
(g10
g3
NtRp85
(dp86
g13
F-20.400178188490319
sg14
I4
sg15
I01
sg16
I9
sg17
I57
sbs(I15
I23
tp87
g1
(g10
g3
NtRp88
(dp89
g13
F2.3487062497455531
sg14
I15
sg15
I01
sg16
I23
sg17
I467
sbs(I2
I9
tp90
g1
(g10
g3
NtRp91
(dp92
g13
F11.348982827980686
sg14
I2
sg15
I00
sg16
I9
sg17
I144
sbs(I13
I3
tp93
g1
(g10
g3
NtRp94
(dp95
g13
F23.980032732194321
sg14
I13
sg15
I01
sg16
I3
sg17
I117
sbs(I12
I13
tp96
g1
(g10
g3
NtRp97
(dp98
g13
F12.95428670803587
sg14
I12
sg15
I01
sg16
I13
sg17
I120
sbs(I3
I10
tp99
g1
(g10
g3
NtRp100
(dp101
g13
F-18.066460947274827
sg14
I3
sg15
I01
sg16
I10
sg17
I76
sbs(I4
I4
tp102
g1
(g10
g3
NtRp103
(dp104
g13
F-13.402903749887697
sg14
I4
sg15
I00
sg16
I4
sg17
I11
sbs(I10
I12
tp105
g1
(g10
g3
NtRp106
(dp107
g13
F2.6768701819349747
sg14
I10
sg15
I01
sg16
I12
sg17
I111
sbs(I4
I8
tp108
g1
(g10
g3
NtRp109
(dp110
g13
F12.90208970801236
sg14
I4
sg15
I01
sg16
I8
sg17
I38
sbs(I11
I4
tp111
g1
(g10
g3
NtRp112
(dp113
g13
F11.67151805619387
sg14
I11
sg15
I01
sg16
I4
sg17
I83
sbs(I2
I13
tp114
g1
(g10
g3
NtRp115
(dp116
g13
F-10.917405328573372
sg14
I2
sg15
I01
sg16
I13
sg17
I176
sbs(I12
I4
tp117
g1
(g10
g3
NtRp118
(dp119
g13
F-11.015036117103973
sg14
I12
sg15
I01
sg16
I4
sg17
I115
sbs(I6
I5
tp120
g1
(g10
g3
NtRp121
(dp122
g13
F-10.610732729118936
sg14
I6
sg15
I01
sg16
I5
sg17
I28
sbs(I3
I6
tp123
g1
(g10
g3
NtRp124
(dp125
g13
F5.5877500620717448
sg14
I3
sg15
I00
sg16
I6
sg17
I22
sbs(I2
I2
tp126
g1
(g10
g3
NtRp127
(dp128
g13
F-20.684780111972263
sg14
I2
sg15
I01
sg16
I2
sg17
I2
sbs(I3
I3
tp129
g1
(g10
g3
NtRp130
(dp131
g13
F-24.486972074979189
sg14
I3
sg15
I01
sg16
I3
sg17
I8
sbs(I23
I6
tp132
g1
(g10
g3
NtRp133
(dp134
g13
F0.36286919460477252
sg14
I23
sg15
I01
sg16
I6
sg17
I472
sbs(I5
I3
tp135
g1
(g10
g3
NtRp136
(dp137
g13
F5.5000171166632548
sg14
I5
sg15
I01
sg16
I3
sg17
I15
sbs(I14
I18
tp138
g1
(g10
g3
NtRp139
(dp140
g13
F1.5216638095761783
sg14
I14
sg15
I01
sg16
I18
sg17
I267
sbs(I2
I16
tp141
g1
(g10
g3
NtRp142
(dp143
g13
F11.065907721441878
sg14
I2
sg15
I01
sg16
I16
sg17
I228
sbs(I3
I2
tp144
g1
(g10
g3
NtRp145
(dp146
g13
F-6.0756338317310687
sg14
I3
sg15
I01
sg16
I2
sg17
I4
sbs(I6
I6
tp147
g1
(g10
g3
NtRp148
(dp149
g13
F6.3074172125865671
sg14
I6
sg15
I01
sg16
I6
sg17
I37
sbs(I5
I11
tp150
g1
(g10
g3
NtRp151
(dp152
g13
F27.81919277400214
sg14
I5
sg15
I01
sg16
I11
sg17
I90
sbs(I9
I3
tp153
g1
(g10
g3
NtRp154
(dp155
g13
F-11.286365362848427
sg14
I9
sg15
I01
sg16
I3
sg17
I60
sbs(I2
I20
tp156
g1
(g10
g3
NtRp157
(dp158
g13
F3.7773062933506858
sg14
I2
sg15
I01
sg16
I20
sg17
I365
sbs(I17
I5
tp159
g1
(g10
g3
NtRp160
(dp161
g13
F15.690544848918313
sg14
I17
sg15
I01
sg16
I5
sg17
I277
sbs(I18
I6
tp162
g1
(g10
g3
NtRp163
(dp164
g13
F9.980926344120018
sg14
I18
sg15
I01
sg16
I6
sg17
I326
sbs(I14
I15
tp165
g1
(g10
g3
NtRp166
(dp167
g13
F-3.1323779263165501
sg14
I14
sg15
I01
sg16
I15
sg17
I190
sbs(I1
I9
tp168
g1
(g10
g3
NtRp169
(dp170
g13
F-9.5371316261429762
sg14
I1
sg15
I01
sg16
I9
sg17
I47
sbs(I4
I2
tp171
g1
(g10
g3
NtRp172
(dp173
g13
F29.421225021012948
sg14
I4
sg15
I01
sg16
I2
sg17
I7
sbs(I2
I14
tp174
g1
(g10
g3
NtRp175
(dp176
g13
F-9.0204677877346811
sg14
I2
sg15
I01
sg16
I14
sg17
I331
sbs(I21
I18
tp177
g1
(g10
g3
NtRp178
(dp179
g13
F2.2559946313251693
sg14
I21
sg15
I01
sg16
I18
sg17
I417
sbs(I19
I10
tp180
g1
(g10
g3
NtRp181
(dp182
g13
F3.4558902747745059
sg14
I19
sg15
I01
sg16
I10
sg17
I379
sbs(I4
I11
tp183
g1
(g10
g3
NtRp184
(dp185
g13
F-24.144854854274428
sg14
I4
sg15
I01
sg16
I11
sg17
I86
sbs(I3
I5
tp186
g1
(g10
g3
NtRp187
(dp188
g13
F19.693421283439221
sg14
I3
sg15
I01
sg16
I5
sg17
I12
sbs(I10
I5
tp189
g1
(g10
g3
NtRp190
(dp191
g13
F2.5214111469477549
sg14
I10
sg15
I01
sg16
I5
sg17
I79
sbs(I23
I5
tp192
g1
(g10
g3
NtRp193
(dp194
g13
F14.305273256509139
sg14
I23
sg15
I01
sg16
I5
sg17
I468
sbs(I3
I22
tp195
g1
(g10
g3
NtRp196
(dp197
g13
F1.8725690476094634
sg14
I3
sg15
I01
sg16
I22
sg17
I339
sbs(I3
I21
tp198
g1
(g10
g3
NtRp199
(dp200
g13
F1.15416284563632
sg14
I3
sg15
I01
sg16
I21
sg17
I394
sbs(I13
I14
tp201
g1
(g10
g3
NtRp202
(dp203
g13
F18.541118612755579
sg14
I13
sg15
I01
sg16
I14
sg17
I189
sbs(I2
I11
tp204
g1
(g10
g3
NtRp205
(dp206
g13
F3.1190848251478465
sg14
I2
sg15
I01
sg16
I11
sg17
I82
sbs(I9
I9
tp207
g1
(g10
g3
NtRp208
(dp209
g13
F5.984783202709794
sg14
I9
sg15
I01
sg16
I9
sg17
I73
sbs(I2
I4
tp210
g1
(g10
g3
NtRp211
(dp212
g13
F-11.611354004366461
sg14
I2
sg15
I01
sg16
I4
sg17
I16
sbs(I15
I10
tp213
g1
(g10
g3
NtRp214
(dp215
g13
F1.4635814989277394
sg14
I15
sg15
I01
sg16
I10
sg17
I180
sbs(I11
I8
tp216
g1
(g10
g3
NtRp217
(dp218
g13
F-26.705981029191854
sg14
I11
sg15
I01
sg16
I8
sg17
I91
sbs(I3
I18
tp219
g1
(g10
g3
NtRp220
(dp221
g13
F-1.2239713329729942
sg14
I3
sg15
I00
sg16
I18
sg17
I293
sbs(I22
I18
tp222
g1
(g10
g3
NtRp223
(dp224
g13
F-1.8058277519295474
sg14
I22
sg15
I01
sg16
I18
sg17
I403
sbs(I3
I17
tp225
g1
(g10
g3
NtRp226
(dp227
g13
F18.139307407868291
sg14
I3
sg15
I01
sg16
I17
sg17
I247
sbs(I4
I3
tp228
g1
(g10
g3
NtRp229
(dp230
g13
F-12.882048942313261
sg14
I4
sg15
I01
sg16
I3
sg17
I10
sbs(I15
I9
tp231
g1
(g10
g3
NtRp232
(dp233
g13
F-7.9503227890275801
sg14
I15
sg15
I01
sg16
I9
sg17
I171
sbs(I14
I3
tp234
g1
(g10
g3
NtRp235
(dp236
g13
F18.403143757026367
sg14
I14
sg15
I01
sg16
I3
sg17
I132
sbs(I13
I9
tp237
g1
(g10
g3
NtRp238
(dp239
g13
F1.7700058852998151
sg14
I13
sg15
I01
sg16
I9
sg17
I137
sbs(I10
I2
tp240
g1
(g10
g3
NtRp241
(dp242
g13
F11.731689790373727
sg14
I10
sg15
I01
sg16
I2
sg17
I66
sbs(I5
I2
tp243
g1
(g10
g3
NtRp244
(dp245
g13
F16.44872148118338
sg14
I5
sg15
I01
sg16
I2
sg17
I21
sbs(I17
I17
tp246
g1
(g10
g3
NtRp247
(dp248
g13
F0.16046571133898108
sg14
I17
sg15
I01
sg16
I17
sg17
I324
sbs(I2
I3
tp249
g1
(g10
g3
NtRp250
(dp251
g13
F9.1631633802828638
sg14
I2
sg15
I00
sg16
I3
sg17
I5
sbs(I8
I4
tp252
g1
(g10
g3
NtRp253
(dp254
g13
F3.1644025008347003
sg14
I8
sg15
I01
sg16
I4
sg17
I41
sbssS'_input_nodes'
p255
I1
sS'_output_nodes'
p256
I1
sS'_node_gene_type'
p257
cneat.genome
NodeGene
p258
sS'_conn_gene_type'
p259
g10
sS'fitness'
p260
F0.9920540815929676
sS'parent2_id'
p261
I22413
sS'_id'
p262
I22456
sS'parent1_id'
p263
I22413
sS'_node_genes'
p264
(lp265
g1
(g258
g3
NtRp266
(dp267
S'_bias'
p268
I0
sS'_type'
p269
S'INPUT'
p270
sg262
I1
sS'_response'
p271
F4.9242730000000003
sS'_activation_type'
p272
Nsbag1
(g258
g3
NtRp273
(dp274
g268
F-3.2960109506325006
sg269
S'OUTPUT'
p275
sg262
I2
sg271
F6.0618402046864093
sg272
S'tanh'
p276
sbag1
(g258
g3
NtRp277
(dp278
g268
F-3.1612534166022415
sg269
S'HIDDEN'
p279
sg262
I3
sg271
F3.8711278252931995
sg272
g276
sbag1
(g258
g3
NtRp280
(dp281
g268
F6.015804643123877
sg269
g279
sg262
I4
sg271
F4.8244692139317493
sg272
g276
sbag1
(g258
g3
NtRp282
(dp283
g268
F-3.4576847993856208
sg269
g279
sg262
I5
sg271
F6.759809437956819
sg272
g276
sbag1
(g258
g3
NtRp284
(dp285
g268
F3.124535947327356
sg269
g279
sg262
I6
sg271
F10.322774185918398
sg272
g276
sbag1
(g258
g3
NtRp286
(dp287
g268
F-2.7336650445459432
sg269
g279
sg262
I7
sg271
F9.7372733971094192
sg272
g276
sbag1
(g258
g3
NtRp288
(dp289
g268
F-3.8143655020555687
sg269
g279
sg262
I8
sg271
F5.9520423651405627
sg272
g276
sbag1
(g258
g3
NtRp290
(dp291
g268
F6.1685860672748332
sg269
g279
sg262
I9
sg271
F5.1385748198974994
sg272
g276
sbag1
(g258
g3
NtRp292
(dp293
g268
F-1.3484215241019757
sg269
g279
sg262
I10
sg271
F1.7642651621123622
sg272
g276
sbag1
(g258
g3
NtRp294
(dp295
g268
F-0.97038864912173706
sg269
g279
sg262
I11
sg271
F5.9122216001074079
sg272
g276
sbag1
(g258
g3
NtRp296
(dp297
g268
F3.4421611108382959
sg269
g279
sg262
I12
sg271
F10.91787618678867
sg272
g276
sbag1
(g258
g3
NtRp298
(dp299
g268
F-8.6736632829867339
sg269
g279
sg262
I13
sg271
F6.8849243705023238
sg272
g276
sbag1
(g258
g3
NtRp300
(dp301
g268
F0.94391116368269246
sg269
g279
sg262
I14
sg271
F6.6744271542461293
sg272
g276
sbag1
(g258
g3
NtRp302
(dp303
g268
F-1.0619282384016466
sg269
g279
sg262
I15
sg271
F4.7207042466676281
sg272
g276
sbag1
(g258
g3
NtRp304
(dp305
g268
F0.44850954740152327
sg269
g279
sg262
I16
sg271
F4.4536252520056188
sg272
g276
sbag1
(g258
g3
NtRp306
(dp307
g268
F-5.1018065235672889
sg269
g279
sg262
I17
sg271
F4.3166717534009731
sg272
g276
sbag1
(g258
g3
NtRp308
(dp309
g268
F-2.1618078350555932
sg269
g279
sg262
I18
sg271
F5.8857403681986451
sg272
g276
sbag1
(g258
g3
NtRp310
(dp311
g268
F-1.45087552765897
sg269
g279
sg262
I19
sg271
F7.9862080657468093
sg272
g276
sbag1
(g258
g3
NtRp312
(dp313
g268
F0.33850490165357722
sg269
g279
sg262
I20
sg271
F4.8974882934462247
sg272
g276
sbag1
(g258
g3
NtRp314
(dp315
g268
F1.7992247324640229
sg269
g279
sg262
I21
sg271
F5.1650362259861193
sg272
g276
sbag1
(g258
g3
NtRp316
(dp317
g268
F0.44384606900694079
sg269
g279
sg262
I22
sg271
F5.7097260028610242
sg272
g276
sbag1
(g258
g3
NtRp318
(dp319
g268
F0.048206769159340468
sg269
g279
sg262
I23
sg271
F5.3544656626859686
sg272
g276
sbasb.