ccopy_reg
_reconstructor
p1
(cneat.chromosome
Chromosome
p2
c__builtin__
object
p3
NtRp4
(dp5
S'species_id'
p6
I70
sS'_connection_genes'
p7
(dp8
(I1
I3
tp9
g1
(cneat.genome
ConnectionGene
p10
g3
NtRp11
(dp12
S'_ConnectionGene__weight'
p13
F27.839311883828067
sS'_ConnectionGene__in'
p14
I1
sS'_ConnectionGene__enabled'
p15
I01
sS'_ConnectionGene__out'
p16
I3
sS'_ConnectionGene__innov_number'
p17
I3
sbs(I5
I6
tp18
g1
(g10
g3
NtRp19
(dp20
g13
F-20.715619806352251
sg14
I5
sg15
I01
sg16
I6
sg17
I25
sbs(I11
I2
tp21
g1
(g10
g3
NtRp22
(dp23
g13
F-22.978968703837872
sg14
I11
sg15
I01
sg16
I2
sg17
I89
sbs(I8
I9
tp24
g1
(g10
g3
NtRp25
(dp26
g13
F-1.3507511889662511
sg14
I8
sg15
I01
sg16
I9
sg17
I61
sbs(I6
I2
tp27
g1
(g10
g3
NtRp28
(dp29
g13
F5.8527051233830436
sg14
I6
sg15
I01
sg16
I2
sg17
I18
sbs(I3
I7
tp30
g1
(g10
g3
NtRp31
(dp32
g13
F-11.668690790500865
sg14
I3
sg15
I01
sg16
I7
sg17
I49
sbs(I7
I2
tp33
g1
(g10
g3
NtRp34
(dp35
g13
F-20.797666689340939
sg14
I7
sg15
I01
sg16
I2
sg17
I31
sbs(I12
I14
tp36
g1
(g10
g3
NtRp37
(dp38
g13
F0.64287080063147073
sg14
I12
sg15
I01
sg16
I14
sg17
I131
sbs(I1
I2
tp39
g1
(g10
g3
NtRp40
(dp41
g13
F-17.814125441528329
sg14
I1
sg15
I01
sg16
I2
sg17
I1
sbs(I11
I10
tp42
g1
(g10
g3
NtRp43
(dp44
g13
F-5.2579635000727496
sg14
I11
sg15
I01
sg16
I10
sg17
I126
sbs(I3
I3
tp45
g1
(g10
g3
NtRp46
(dp47
g13
F22.404671006690386
sg14
I3
sg15
I01
sg16
I3
sg17
I8
sbs(I8
I10
tp48
g1
(g10
g3
NtRp49
(dp50
g13
F11.382907548160075
sg14
I8
sg15
I01
sg16
I10
sg17
I65
sbs(I13
I7
tp51
g1
(g10
g3
NtRp52
(dp53
g13
F-4.5087520958093776
sg14
I13
sg15
I01
sg16
I7
sg17
I108
sbs(I5
I8
tp54
g1
(g10
g3
NtRp55
(dp56
g13
F-14.591194460825694
sg14
I5
sg15
I01
sg16
I8
sg17
I45
sbs(I3
I5
tp57
g1
(g10
g3
NtRp58
(dp59
g13
F15.275557252187557
sg14
I3
sg15
I01
sg16
I5
sg17
I12
sbs(I12
I3
tp60
g1
(g10
g3
NtRp61
(dp62
g13
F16.715258509759671
sg14
I12
sg15
I00
sg16
I3
sg17
I106
sbs(I3
I2
tp63
g1
(g10
g3
NtRp64
(dp65
g13
F-15.994489638850578
sg14
I3
sg15
I01
sg16
I2
sg17
I4
sbs(I8
I2
tp66
g1
(g10
g3
NtRp67
(dp68
g13
F-15.127207183983822
sg14
I8
sg15
I01
sg16
I2
sg17
I46
sbs(I3
I13
tp69
g1
(g10
g3
NtRp70
(dp71
g13
F0.30594591890643064
sg14
I3
sg15
I01
sg16
I13
sg17
I107
sbs(I8
I11
tp72
g1
(g10
g3
NtRp73
(dp74
g13
F18.853172054160755
sg14
I8
sg15
I01
sg16
I11
sg17
I98
sbs(I9
I3
tp75
g1
(g10
g3
NtRp76
(dp77
g13
F-11.669710379957625
sg14
I9
sg15
I01
sg16
I3
sg17
I60
sbs(I1
I4
tp78
g1
(g10
g3
NtRp79
(dp80
g13
F-0.97556129939480285
sg14
I1
sg15
I01
sg16
I4
sg17
I6
sbs(I2
I10
tp81
g1
(g10
g3
NtRp82
(dp83
g13
F-2.8335543194997692
sg14
I2
sg15
I01
sg16
I10
sg17
I69
sbs(I7
I5
tp84
g1
(g10
g3
NtRp85
(dp86
g13
F9.4426783288961929
sg14
I7
sg15
I01
sg16
I5
sg17
I50
sbs(I12
I11
tp87
g1
(g10
g3
NtRp88
(dp89
g13
F-6.8526747968758137
sg14
I12
sg15
I01
sg16
I11
sg17
I140
sbs(I5
I10
tp90
g1
(g10
g3
NtRp91
(dp92
g13
F-9.0364867866628664
sg14
I5
sg15
I01
sg16
I10
sg17
I67
sbs(I5
I3
tp93
g1
(g10
g3
NtRp94
(dp95
g13
F1.4675249023505164
sg14
I5
sg15
I01
sg16
I3
sg17
I15
sbs(I8
I3
tp96
g1
(g10
g3
NtRp97
(dp98
g13
F0.48118663578466947
sg14
I8
sg15
I01
sg16
I3
sg17
I39
sbs(I3
I12
tp99
g1
(g10
g3
NtRp100
(dp101
g13
F12.813427927306817
sg14
I3
sg15
I01
sg16
I12
sg17
I105
sbs(I11
I3
tp102
g1
(g10
g3
NtRp103
(dp104
g13
F7.8419018330856458
sg14
I11
sg15
I01
sg16
I3
sg17
I97
sbs(I4
I3
tp105
g1
(g10
g3
NtRp106
(dp107
g13
F17.079886098923943
sg14
I4
sg15
I01
sg16
I3
sg17
I10
sbs(I14
I3
tp108
g1
(g10
g3
NtRp109
(dp110
g13
F10.396981841520205
sg14
I14
sg15
I01
sg16
I3
sg17
I132
sbs(I5
I2
tp111
g1
(g10
g3
NtRp112
(dp113
g13
F-24.052737211985978
sg14
I5
sg15
I01
sg16
I2
sg17
I21
sbs(I2
I4
tp114
g1
(g10
g3
NtRp115
(dp116
g13
F-5.7996683545048295
sg14
I2
sg15
I01
sg16
I4
sg17
I16
sbs(I10
I2
tp117
g1
(g10
g3
NtRp118
(dp119
g13
F-19.678907733963932
sg14
I10
sg15
I01
sg16
I2
sg17
I66
sbssS'_input_nodes'
p120
I1
sS'_output_nodes'
p121
I1
sS'_node_gene_type'
p122
cneat.genome
NodeGene
p123
sS'_conn_gene_type'
p124
g10
sS'fitness'
p125
F0.98805117826601851
sS'parent2_id'
p126
I10633
sS'_id'
p127
I10678
sS'parent1_id'
p128
I10635
sS'_node_genes'
p129
(lp130
g1
(g123
g3
NtRp131
(dp132
S'_bias'
p133
I0
sS'_type'
p134
S'INPUT'
p135
sg127
I1
sS'_response'
p136
F4.9242730000000003
sS'_activation_type'
p137
Nsbag1
(g123
g3
NtRp138
(dp139
g133
F1.2990229130288979
sg134
S'OUTPUT'
p140
sg127
I2
sg136
F6.3126841496847081
sg137
S'tanh'
p141
sbag1
(g123
g3
NtRp142
(dp143
g133
F0.36881364967420871
sg134
S'HIDDEN'
p144
sg127
I3
sg136
F-1.7446692377311113
sg137
g141
sbag1
(g123
g3
NtRp145
(dp146
g133
F-2.5415806689390981
sg134
g144
sg127
I4
sg136
F10.689922514218136
sg137
g141
sbag1
(g123
g3
NtRp147
(dp148
g133
F-1.5113159330933053
sg134
g144
sg127
I5
sg136
F6.9172199319541372
sg137
g141
sbag1
(g123
g3
NtRp149
(dp150
g133
F-1.261229729251848
sg134
g144
sg127
I6
sg136
F1.1540647404088522
sg137
g141
sbag1
(g123
g3
NtRp151
(dp152
g133
F-3.7500881915885818
sg134
g144
sg127
I7
sg136
F2.5062186690875672
sg137
g141
sbag1
(g123
g3
NtRp153
(dp154
g133
F4.2522404306908426
sg134
g144
sg127
I8
sg136
F5.5811009068105477
sg137
g141
sbag1
(g123
g3
NtRp155
(dp156
g133
F2.4961541470011297
sg134
g144
sg127
I9
sg136
F4.5089692755950388
sg137
g141
sbag1
(g123
g3
NtRp157
(dp158
g133
F-0.60288755638234059
sg134
g144
sg127
I10
sg136
F4.0042569243903534
sg137
g141
sbag1
(g123
g3
NtRp159
(dp160
g133
F0.66765480370382901
sg134
g144
sg127
I11
sg136
F5.5386799483748987
sg137
g141
sbag1
(g123
g3
NtRp161
(dp162
g133
F-0.87915084077600081
sg134
g144
sg127
I12
sg136
F6.058769698837807
sg137
g141
sbag1
(g123
g3
NtRp163
(dp164
g133
F-1.7905929479173961
sg134
g144
sg127
I13
sg136
F4.9508674182821641
sg137
g141
sbag1
(g123
g3
NtRp165
(dp166
g133
F0.73816159684474381
sg134
g144
sg127
I14
sg136
F4.5271068088830972
sg137
g141
sbasb.