ccopy_reg
_reconstructor
p1
(cneat.chromosome
Chromosome
p2
c__builtin__
object
p3
NtRp4
(dp5
S'species_id'
p6
I125
sS'_connection_genes'
p7
(dp8
(I7
I3
tp9
g1
(cneat.genome
ConnectionGene
p10
g3
NtRp11
(dp12
S'_ConnectionGene__weight'
p13
F12.683083643906617
sS'_ConnectionGene__in'
p14
I7
sS'_ConnectionGene__enabled'
p15
I01
sS'_ConnectionGene__out'
p16
I3
sS'_ConnectionGene__innov_number'
p17
I36
sbs(I1
I3
tp18
g1
(g10
g3
NtRp19
(dp20
g13
F-24.385718018779606
sg14
I1
sg15
I01
sg16
I3
sg17
I3
sbs(I5
I9
tp21
g1
(g10
g3
NtRp22
(dp23
g13
F-2.5249566902237133
sg14
I5
sg15
I01
sg16
I9
sg17
I100
sbs(I16
I9
tp24
g1
(g10
g3
NtRp25
(dp26
g13
F-6.3662727967543233
sg14
I16
sg15
I01
sg16
I9
sg17
I236
sbs(I11
I2
tp27
g1
(g10
g3
NtRp28
(dp29
g13
F21.05999398864461
sg14
I11
sg15
I01
sg16
I2
sg17
I89
sbs(I10
I6
tp30
g1
(g10
g3
NtRp31
(dp32
g13
F1.7745202693164095
sg14
I10
sg15
I01
sg16
I6
sg17
I68
sbs(I3
I2
tp33
g1
(g10
g3
NtRp34
(dp35
g13
F1.6844535364390683
sg14
I3
sg15
I01
sg16
I2
sg17
I4
sbs(I10
I15
tp36
g1
(g10
g3
NtRp37
(dp38
g13
F-22.621817481233322
sg14
I10
sg15
I01
sg16
I15
sg17
I169
sbs(I11
I8
tp39
g1
(g10
g3
NtRp40
(dp41
g13
F-28.510534414583049
sg14
I11
sg15
I01
sg16
I8
sg17
I91
sbs(I13
I8
tp42
g1
(g10
g3
NtRp43
(dp44
g13
F8.1755332643732626
sg14
I13
sg15
I01
sg16
I8
sg17
I177
sbs(I3
I7
tp45
g1
(g10
g3
NtRp46
(dp47
g13
F-6.3825461784121575
sg14
I3
sg15
I01
sg16
I7
sg17
I49
sbs(I1
I11
tp48
g1
(g10
g3
NtRp49
(dp50
g13
F-23.295628079838945
sg14
I1
sg15
I01
sg16
I11
sg17
I88
sbs(I5
I8
tp51
g1
(g10
g3
NtRp52
(dp53
g13
F21.707316151742361
sg14
I5
sg15
I01
sg16
I8
sg17
I45
sbs(I1
I2
tp54
g1
(g10
g3
NtRp55
(dp56
g13
F-28.501591709230436
sg14
I1
sg15
I01
sg16
I2
sg17
I1
sbs(I12
I2
tp57
g1
(g10
g3
NtRp58
(dp59
g13
F8.2333354025446148
sg14
I12
sg15
I01
sg16
I2
sg17
I104
sbs(I15
I5
tp60
g1
(g10
g3
NtRp61
(dp62
g13
F6.4399228746387944
sg14
I15
sg15
I01
sg16
I5
sg17
I147
sbs(I4
I9
tp63
g1
(g10
g3
NtRp64
(dp65
g13
F-21.068876232042616
sg14
I4
sg15
I01
sg16
I9
sg17
I57
sbs(I3
I3
tp66
g1
(g10
g3
NtRp67
(dp68
g13
F-16.956765238328746
sg14
I3
sg15
I01
sg16
I3
sg17
I8
sbs(I2
I9
tp69
g1
(g10
g3
NtRp70
(dp71
g13
F4.7436007579956989
sg14
I2
sg15
I00
sg16
I9
sg17
I144
sbs(I13
I3
tp72
g1
(g10
g3
NtRp73
(dp74
g13
F28.100926296017633
sg14
I13
sg15
I00
sg16
I3
sg17
I117
sbs(I12
I13
tp75
g1
(g10
g3
NtRp76
(dp77
g13
F-0.78269031587801718
sg14
I12
sg15
I01
sg16
I13
sg17
I120
sbs(I3
I10
tp78
g1
(g10
g3
NtRp79
(dp80
g13
F-28.937593333989174
sg14
I3
sg15
I01
sg16
I10
sg17
I76
sbs(I4
I4
tp81
g1
(g10
g3
NtRp82
(dp83
g13
F11.723642593009638
sg14
I4
sg15
I00
sg16
I4
sg17
I11
sbs(I10
I12
tp84
g1
(g10
g3
NtRp85
(dp86
g13
F-9.0832792501691291
sg14
I10
sg15
I01
sg16
I12
sg17
I111
sbs(I4
I8
tp87
g1
(g10
g3
NtRp88
(dp89
g13
F8.3096925744349583
sg14
I4
sg15
I01
sg16
I8
sg17
I38
sbs(I2
I13
tp90
g1
(g10
g3
NtRp91
(dp92
g13
F-15.437090469709036
sg14
I2
sg15
I01
sg16
I13
sg17
I176
sbs(I4
I11
tp93
g1
(g10
g3
NtRp94
(dp95
g13
F-2.8098252520354157
sg14
I4
sg15
I01
sg16
I11
sg17
I86
sbs(I3
I6
tp96
g1
(g10
g3
NtRp97
(dp98
g13
F20.031223231780015
sg14
I3
sg15
I01
sg16
I6
sg17
I22
sbs(I2
I2
tp99
g1
(g10
g3
NtRp100
(dp101
g13
F-1.9222864863640983
sg14
I2
sg15
I01
sg16
I2
sg17
I2
sbs(I3
I5
tp102
g1
(g10
g3
NtRp103
(dp104
g13
F21.526442879531622
sg14
I3
sg15
I01
sg16
I5
sg17
I12
sbs(I2
I16
tp105
g1
(g10
g3
NtRp106
(dp107
g13
F12.242271438832702
sg14
I2
sg15
I01
sg16
I16
sg17
I228
sbs(I5
I4
tp108
g1
(g10
g3
NtRp109
(dp110
g13
F14.181451359952765
sg14
I5
sg15
I01
sg16
I4
sg17
I13
sbs(I6
I6
tp111
g1
(g10
g3
NtRp112
(dp113
g13
F-11.333372910376664
sg14
I6
sg15
I01
sg16
I6
sg17
I37
sbs(I5
I11
tp114
g1
(g10
g3
NtRp115
(dp116
g13
F29.219409097041456
sg14
I5
sg15
I01
sg16
I11
sg17
I90
sbs(I9
I3
tp117
g1
(g10
g3
NtRp118
(dp119
g13
F-29.192520487861898
sg14
I9
sg15
I01
sg16
I3
sg17
I60
sbs(I7
I7
tp120
g1
(g10
g3
NtRp121
(dp122
g13
F-1.9454629866873936
sg14
I7
sg15
I01
sg16
I7
sg17
I56
sbs(I2
I3
tp123
g1
(g10
g3
NtRp124
(dp125
g13
F13.846045865027776
sg14
I2
sg15
I01
sg16
I3
sg17
I5
sbs(I1
I9
tp126
g1
(g10
g3
NtRp127
(dp128
g13
F8.231033524538141
sg14
I1
sg15
I01
sg16
I9
sg17
I47
sbs(I4
I2
tp129
g1
(g10
g3
NtRp130
(dp131
g13
F-1.1664523510037219
sg14
I4
sg15
I01
sg16
I2
sg17
I7
sbs(I6
I5
tp132
g1
(g10
g3
NtRp133
(dp134
g13
F-23.306804736733291
sg14
I6
sg15
I01
sg16
I5
sg17
I28
sbs(I5
I3
tp135
g1
(g10
g3
NtRp136
(dp137
g13
F14.227202726129065
sg14
I5
sg15
I01
sg16
I3
sg17
I15
sbs(I10
I5
tp138
g1
(g10
g3
NtRp139
(dp140
g13
F-5.2293308414396442
sg14
I10
sg15
I00
sg16
I5
sg17
I79
sbs(I13
I14
tp141
g1
(g10
g3
NtRp142
(dp143
g13
F-8.078410998207028
sg14
I13
sg15
I01
sg16
I14
sg17
I189
sbs(I9
I9
tp144
g1
(g10
g3
NtRp145
(dp146
g13
F-9.240035569231086
sg14
I9
sg15
I01
sg16
I9
sg17
I73
sbs(I9
I2
tp147
g1
(g10
g3
NtRp148
(dp149
g13
F5.7634936312130201
sg14
I9
sg15
I01
sg16
I2
sg17
I48
sbs(I12
I4
tp150
g1
(g10
g3
NtRp151
(dp152
g13
F6.0058546040690945
sg14
I12
sg15
I01
sg16
I4
sg17
I115
sbs(I4
I3
tp153
g1
(g10
g3
NtRp154
(dp155
g13
F-18.41015006917057
sg14
I4
sg15
I01
sg16
I3
sg17
I10
sbs(I15
I9
tp156
g1
(g10
g3
NtRp157
(dp158
g13
F-8.645272968647582
sg14
I15
sg15
I01
sg16
I9
sg17
I171
sbs(I14
I3
tp159
g1
(g10
g3
NtRp160
(dp161
g13
F21.565479996026315
sg14
I14
sg15
I01
sg16
I3
sg17
I132
sbs(I8
I4
tp162
g1
(g10
g3
NtRp163
(dp164
g13
F11.760622413133206
sg14
I8
sg15
I01
sg16
I4
sg17
I41
sbs(I5
I2
tp165
g1
(g10
g3
NtRp166
(dp167
g13
F6.9944105294761938
sg14
I5
sg15
I01
sg16
I2
sg17
I21
sbs(I2
I4
tp168
g1
(g10
g3
NtRp169
(dp170
g13
F-3.3955818626020928
sg14
I2
sg15
I01
sg16
I4
sg17
I16
sbs(I10
I2
tp171
g1
(g10
g3
NtRp172
(dp173
g13
F14.427407918878727
sg14
I10
sg15
I01
sg16
I2
sg17
I66
sbssS'_input_nodes'
p174
I1
sS'_output_nodes'
p175
I1
sS'_node_gene_type'
p176
cneat.genome
NodeGene
p177
sS'_conn_gene_type'
p178
g10
sS'fitness'
p179
F0.99964152586167576
sS'parent2_id'
p180
I17528
sS'_id'
p181
I17593
sS'parent1_id'
p182
I17528
sS'_node_genes'
p183
(lp184
g1
(g177
g3
NtRp185
(dp186
S'_bias'
p187
I0
sS'_type'
p188
S'INPUT'
p189
sg181
I1
sS'_response'
p190
F4.9242730000000003
sS'_activation_type'
p191
Nsbag1
(g177
g3
NtRp192
(dp193
g187
F-0.99864018895235951
sg188
S'OUTPUT'
p194
sg181
I2
sg190
F5.3242181708126015
sg191
S'tanh'
p195
sbag1
(g177
g3
NtRp196
(dp197
g187
F-3.3562434072954734
sg188
S'HIDDEN'
p198
sg181
I3
sg190
F5.8229041887840216
sg191
g195
sbag1
(g177
g3
NtRp199
(dp200
g187
F3.1206338959452937
sg188
g198
sg181
I4
sg190
F5.1436638967303638
sg191
g195
sbag1
(g177
g3
NtRp201
(dp202
g187
F-2.4994445707641875
sg188
g198
sg181
I5
sg190
F5.8661775133448533
sg191
g195
sbag1
(g177
g3
NtRp203
(dp204
g187
F2.3599473390263386
sg188
g198
sg181
I6
sg190
F9.8351232676494078
sg191
g195
sbag1
(g177
g3
NtRp205
(dp206
g187
F-3.3967135353058269
sg188
g198
sg181
I7
sg190
F12.940035102566673
sg191
g195
sbag1
(g177
g3
NtRp207
(dp208
g187
F-4.8098063502657356
sg188
g198
sg181
I8
sg190
F4.3583130205211553
sg191
g195
sbag1
(g177
g3
NtRp209
(dp210
g187
F5.3738649216959704
sg188
g198
sg181
I9
sg190
F5.3838921967521518
sg191
g195
sbag1
(g177
g3
NtRp211
(dp212
g187
F-2.6381906419969825
sg188
g198
sg181
I10
sg190
F4.0994116106409288
sg191
g195
sbag1
(g177
g3
NtRp213
(dp214
g187
F-0.033100769823636494
sg188
g198
sg181
I11
sg190
F6.3708342282771797
sg191
g195
sbag1
(g177
g3
NtRp215
(dp216
g187
F-0.1427009915943645
sg188
g198
sg181
I12
sg190
F10.567376231756541
sg191
g195
sbag1
(g177
g3
NtRp217
(dp218
g187
F-3.4815469431357675
sg188
g198
sg181
I13
sg190
F6.7989242026824002
sg191
g195
sbag1
(g177
g3
NtRp219
(dp220
g187
F0.72272705236113888
sg188
g198
sg181
I14
sg190
F5.9028561685799383
sg191
g195
sbag1
(g177
g3
NtRp221
(dp222
g187
F-0.47322474888207777
sg188
g198
sg181
I15
sg190
F4.9562010314730092
sg191
g195
sbag1
(g177
g3
NtRp223
(dp224
g187
F0.98179234399869564
sg188
g198
sg181
I16
sg190
F2.7544084898966492
sg191
g195
sbasb.