ccopy_reg
_reconstructor
p1
(cneat.chromosome
Chromosome
p2
c__builtin__
object
p3
NtRp4
(dp5
S'species_id'
p6
I32
sS'_connection_genes'
p7
(dp8
(I1
I2
tp9
g1
(cneat.genome
ConnectionGene
p10
g3
NtRp11
(dp12
S'_ConnectionGene__weight'
p13
F-9.5524569371894881
sS'_ConnectionGene__in'
p14
I1
sS'_ConnectionGene__enabled'
p15
I01
sS'_ConnectionGene__out'
p16
I2
sS'_ConnectionGene__innov_number'
p17
I1
sbs(I7
I3
tp18
g1
(g10
g3
NtRp19
(dp20
g13
F9.6891488240097488
sg14
I7
sg15
I01
sg16
I3
sg17
I36
sbs(I5
I4
tp21
g1
(g10
g3
NtRp22
(dp23
g13
F-4.1886094833872392
sg14
I5
sg15
I01
sg16
I4
sg17
I13
sbs(I1
I3
tp24
g1
(g10
g3
NtRp25
(dp26
g13
F0.75410003869760978
sg14
I1
sg15
I01
sg16
I3
sg17
I3
sbs(I3
I3
tp27
g1
(g10
g3
NtRp28
(dp29
g13
F-0.17631180834227611
sg14
I3
sg15
I01
sg16
I3
sg17
I8
sbs(I6
I6
tp30
g1
(g10
g3
NtRp31
(dp32
g13
F7.6277418239452741
sg14
I6
sg15
I01
sg16
I6
sg17
I37
sbs(I4
I4
tp33
g1
(g10
g3
NtRp34
(dp35
g13
F0.97938481705385227
sg14
I4
sg15
I00
sg16
I4
sg17
I11
sbs(I3
I2
tp36
g1
(g10
g3
NtRp37
(dp38
g13
F15.040906149758195
sg14
I3
sg15
I01
sg16
I2
sg17
I4
sbs(I3
I6
tp39
g1
(g10
g3
NtRp40
(dp41
g13
F-2.785366415938114
sg14
I3
sg15
I01
sg16
I6
sg17
I22
sbs(I4
I8
tp42
g1
(g10
g3
NtRp43
(dp44
g13
F7.2470089660636958
sg14
I4
sg15
I01
sg16
I8
sg17
I38
sbs(I2
I3
tp45
g1
(g10
g3
NtRp46
(dp47
g13
F2.6318204901762638
sg14
I2
sg15
I00
sg16
I3
sg17
I5
sbs(I4
I3
tp48
g1
(g10
g3
NtRp49
(dp50
g13
F4.6903540163367952
sg14
I4
sg15
I01
sg16
I3
sg17
I10
sbs(I3
I7
tp51
g1
(g10
g3
NtRp52
(dp53
g13
F5.9038381160037465
sg14
I3
sg15
I01
sg16
I7
sg17
I49
sbs(I3
I5
tp54
g1
(g10
g3
NtRp55
(dp56
g13
F-2.5074305540525041
sg14
I3
sg15
I01
sg16
I5
sg17
I12
sbs(I5
I2
tp57
g1
(g10
g3
NtRp58
(dp59
g13
F-2.1823116197011729
sg14
I5
sg15
I01
sg16
I2
sg17
I21
sbs(I2
I4
tp60
g1
(g10
g3
NtRp61
(dp62
g13
F8.6054575285546395
sg14
I2
sg15
I01
sg16
I4
sg17
I16
sbs(I6
I5
tp63
g1
(g10
g3
NtRp64
(dp65
g13
F-4.7694819845810743
sg14
I6
sg15
I01
sg16
I5
sg17
I28
sbs(I8
I4
tp66
g1
(g10
g3
NtRp67
(dp68
g13
F-6.3408638350883422
sg14
I8
sg15
I01
sg16
I4
sg17
I41
sbssS'_input_nodes'
p69
I1
sS'_output_nodes'
p70
I1
sS'_node_gene_type'
p71
cneat.genome
NodeGene
p72
sS'_conn_gene_type'
p73
g10
sS'fitness'
p74
F0.9875412440227721
sS'parent2_id'
p75
I4578
sS'_id'
p76
I4628
sS'parent1_id'
p77
I4578
sS'_node_genes'
p78
(lp79
g1
(g72
g3
NtRp80
(dp81
S'_bias'
p82
I0
sS'_type'
p83
S'INPUT'
p84
sg76
I1
sS'_response'
p85
F4.9242730000000003
sS'_activation_type'
p86
Nsbag1
(g72
g3
NtRp87
(dp88
g82
F3.4711772702071615
sg83
S'OUTPUT'
p89
sg76
I2
sg85
F4.347350923533547
sg86
S'tanh'
p90
sbag1
(g72
g3
NtRp91
(dp92
g82
F-1.4838599338857006
sg83
S'HIDDEN'
p93
sg76
I3
sg85
F3.6652666154492488
sg86
g90
sbag1
(g72
g3
NtRp94
(dp95
g82
F0.7667305996836854
sg83
g93
sg76
I4
sg85
F4.721340572447347
sg86
g90
sbag1
(g72
g3
NtRp96
(dp97
g82
F-0.67396976977112721
sg83
g93
sg76
I5
sg85
F4.9322740220028347
sg86
g90
sbag1
(g72
g3
NtRp98
(dp99
g82
F0.33736867311740237
sg83
g93
sg76
I6
sg85
F6.6776480118422921
sg86
g90
sbag1
(g72
g3
NtRp100
(dp101
g82
F-0.62797531921276872
sg83
g93
sg76
I7
sg85
F6.52539859827721
sg86
g90
sbag1
(g72
g3
NtRp102
(dp103
g82
F-0.60185604018413141
sg83
g93
sg76
I8
sg85
F3.9571384903856401
sg86
g90
sbasb.