ccopy_reg
_reconstructor
p1
(cneat.chromosome
Chromosome
p2
c__builtin__
object
p3
NtRp4
(dp5
S'species_id'
p6
I68
sS'_connection_genes'
p7
(dp8
(I7
I3
tp9
g1
(cneat.genome
ConnectionGene
p10
g3
NtRp11
(dp12
S'_ConnectionGene__weight'
p13
F19.221737715691138
sS'_ConnectionGene__in'
p14
I7
sS'_ConnectionGene__enabled'
p15
I01
sS'_ConnectionGene__out'
p16
I3
sS'_ConnectionGene__innov_number'
p17
I36
sbs(I6
I9
tp18
g1
(g10
g3
NtRp19
(dp20
g13
F-0.22872822646485963
sg14
I6
sg15
I01
sg16
I9
sg17
I81
sbs(I1
I3
tp21
g1
(g10
g3
NtRp22
(dp23
g13
F-6.6153134130622915
sg14
I1
sg15
I01
sg16
I3
sg17
I3
sbs(I5
I9
tp24
g1
(g10
g3
NtRp25
(dp26
g13
F1.8912152127794806
sg14
I5
sg15
I01
sg16
I9
sg17
I100
sbs(I3
I2
tp27
g1
(g10
g3
NtRp28
(dp29
g13
F18.540514883772573
sg14
I3
sg15
I00
sg16
I2
sg17
I4
sbs(I3
I7
tp30
g1
(g10
g3
NtRp31
(dp32
g13
F-8.3756470992733849
sg14
I3
sg15
I01
sg16
I7
sg17
I49
sbs(I12
I9
tp33
g1
(g10
g3
NtRp34
(dp35
g13
F0.62218120357844986
sg14
I12
sg15
I01
sg16
I9
sg17
I109
sbs(I1
I2
tp36
g1
(g10
g3
NtRp37
(dp38
g13
F-21.761996411023599
sg14
I1
sg15
I01
sg16
I2
sg17
I1
sbs(I4
I9
tp39
g1
(g10
g3
NtRp40
(dp41
g13
F14.551646423011174
sg14
I4
sg15
I01
sg16
I9
sg17
I57
sbs(I3
I3
tp42
g1
(g10
g3
NtRp43
(dp44
g13
F-18.541718305543544
sg14
I3
sg15
I01
sg16
I3
sg17
I8
sbs(I3
I10
tp45
g1
(g10
g3
NtRp46
(dp47
g13
F7.2883368165714426
sg14
I3
sg15
I01
sg16
I10
sg17
I76
sbs(I6
I6
tp48
g1
(g10
g3
NtRp49
(dp50
g13
F-6.3073982862843412
sg14
I6
sg15
I01
sg16
I6
sg17
I37
sbs(I4
I4
tp51
g1
(g10
g3
NtRp52
(dp53
g13
F0.8000015642304189
sg14
I4
sg15
I00
sg16
I4
sg17
I11
sbs(I4
I8
tp54
g1
(g10
g3
NtRp55
(dp56
g13
F0.96698284699786063
sg14
I4
sg15
I00
sg16
I8
sg17
I38
sbs(I4
I11
tp57
g1
(g10
g3
NtRp58
(dp59
g13
F5.8887021357170601
sg14
I4
sg15
I01
sg16
I11
sg17
I86
sbs(I3
I6
tp60
g1
(g10
g3
NtRp61
(dp62
g13
F-13.445315910306755
sg14
I3
sg15
I01
sg16
I6
sg17
I22
sbs(I5
I4
tp63
g1
(g10
g3
NtRp64
(dp65
g13
F2.2108611060963876
sg14
I5
sg15
I01
sg16
I4
sg17
I13
sbs(I9
I3
tp66
g1
(g10
g3
NtRp67
(dp68
g13
F-10.704513366839063
sg14
I9
sg15
I01
sg16
I3
sg17
I60
sbs(I2
I3
tp69
g1
(g10
g3
NtRp70
(dp71
g13
F0.85119734527834834
sg14
I2
sg15
I01
sg16
I3
sg17
I5
sbs(I1
I9
tp72
g1
(g10
g3
NtRp73
(dp74
g13
F7.4351377572609234
sg14
I1
sg15
I01
sg16
I9
sg17
I47
sbs(I6
I5
tp75
g1
(g10
g3
NtRp76
(dp77
g13
F-4.6268714472724337
sg14
I6
sg15
I01
sg16
I5
sg17
I28
sbs(I3
I5
tp78
g1
(g10
g3
NtRp79
(dp80
g13
F7.3564948349153756
sg14
I3
sg15
I01
sg16
I5
sg17
I12
sbs(I10
I5
tp81
g1
(g10
g3
NtRp82
(dp83
g13
F6.5057664027722808
sg14
I10
sg15
I01
sg16
I5
sg17
I79
sbs(I9
I2
tp84
g1
(g10
g3
NtRp85
(dp86
g13
F1.833943037499105
sg14
I9
sg15
I01
sg16
I2
sg17
I48
sbs(I9
I9
tp87
g1
(g10
g3
NtRp88
(dp89
g13
F3.3337109153014457
sg14
I9
sg15
I00
sg16
I9
sg17
I73
sbs(I11
I8
tp90
g1
(g10
g3
NtRp91
(dp92
g13
F1.0185805074965217
sg14
I11
sg15
I01
sg16
I8
sg17
I91
sbs(I4
I3
tp93
g1
(g10
g3
NtRp94
(dp95
g13
F-6.8175452459108383
sg14
I4
sg15
I01
sg16
I3
sg17
I10
sbs(I8
I4
tp96
g1
(g10
g3
NtRp97
(dp98
g13
F1.1611568553170986
sg14
I8
sg15
I01
sg16
I4
sg17
I41
sbs(I5
I2
tp99
g1
(g10
g3
NtRp100
(dp101
g13
F-13.958844998373296
sg14
I5
sg15
I01
sg16
I2
sg17
I21
sbs(I2
I4
tp102
g1
(g10
g3
NtRp103
(dp104
g13
F26.457889369995303
sg14
I2
sg15
I01
sg16
I4
sg17
I16
sbs(I9
I12
tp105
g1
(g10
g3
NtRp106
(dp107
g13
F0.5716290777012365
sg14
I9
sg15
I01
sg16
I12
sg17
I127
sbs(I10
I2
tp108
g1
(g10
g3
NtRp109
(dp110
g13
F24.811843690152092
sg14
I10
sg15
I01
sg16
I2
sg17
I66
sbssS'_input_nodes'
p111
I1
sS'_output_nodes'
p112
I1
sS'_node_gene_type'
p113
cneat.genome
NodeGene
p114
sS'_conn_gene_type'
p115
g10
sS'fitness'
p116
F0.99306495314057974
sS'parent2_id'
p117
I10124
sS'_id'
p118
I10165
sS'parent1_id'
p119
I10124
sS'_node_genes'
p120
(lp121
g1
(g114
g3
NtRp122
(dp123
S'_bias'
p124
I0
sS'_type'
p125
S'INPUT'
p126
sg118
I1
sS'_response'
p127
F4.9242730000000003
sS'_activation_type'
p128
Nsbag1
(g114
g3
NtRp129
(dp130
g124
F0.075573628129521842
sg125
S'OUTPUT'
p131
sg118
I2
sg127
F2.8726965767916637
sg128
S'tanh'
p132
sbag1
(g114
g3
NtRp133
(dp134
g124
F-1.9341475171745552
sg125
S'HIDDEN'
p135
sg118
I3
sg127
F6.7644603925563933
sg128
g132
sbag1
(g114
g3
NtRp136
(dp137
g124
F2.2173957717313293
sg125
g135
sg118
I4
sg127
F1.7603847771677579
sg128
g132
sbag1
(g114
g3
NtRp138
(dp139
g124
F-3.3022787417189949
sg125
g135
sg118
I5
sg127
F5.3804391995187055
sg128
g132
sbag1
(g114
g3
NtRp140
(dp141
g124
F-0.040474605912334899
sg125
g135
sg118
I6
sg127
F10.434095335900416
sg128
g132
sbag1
(g114
g3
NtRp142
(dp143
g124
F-0.69945808017123523
sg125
g135
sg118
I7
sg127
F11.337173017714898
sg128
g132
sbag1
(g114
g3
NtRp144
(dp145
g124
F-4.1284654894572812
sg125
g135
sg118
I8
sg127
F4.8459421160748981
sg128
g132
sbag1
(g114
g3
NtRp146
(dp147
g124
F1.9607390260756583
sg125
g135
sg118
I9
sg127
F1.9003951648725224
sg128
g132
sbag1
(g114
g3
NtRp148
(dp149
g124
F2.1925842979580663
sg125
g135
sg118
I10
sg127
F3.340718904350191
sg128
g132
sbag1
(g114
g3
NtRp150
(dp151
g124
F-0.080064889561863042
sg125
g135
sg118
I11
sg127
F5.8434376824697658
sg128
g132
sbag1
(g114
g3
NtRp152
(dp153
g124
I0
sg125
g135
sg118
I12
sg127
F4.4171961429243014
sg128
g132
sbasb.