ccopy_reg
_reconstructor
p1
(cneat.chromosome
Chromosome
p2
c__builtin__
object
p3
NtRp4
(dp5
S'species_id'
p6
I148
sS'_connection_genes'
p7
(dp8
(I7
I3
tp9
g1
(cneat.genome
ConnectionGene
p10
g3
NtRp11
(dp12
S'_ConnectionGene__weight'
p13
F28.255881612626752
sS'_ConnectionGene__in'
p14
I7
sS'_ConnectionGene__enabled'
p15
I01
sS'_ConnectionGene__out'
p16
I3
sS'_ConnectionGene__innov_number'
p17
I36
sbs(I1
I3
tp18
g1
(g10
g3
NtRp19
(dp20
g13
F-17.826202177952155
sg14
I1
sg15
I01
sg16
I3
sg17
I3
sbs(I5
I9
tp21
g1
(g10
g3
NtRp22
(dp23
g13
F-3.2490649404166225
sg14
I5
sg15
I01
sg16
I9
sg17
I100
sbs(I16
I9
tp24
g1
(g10
g3
NtRp25
(dp26
g13
F14.51264756275391
sg14
I16
sg15
I01
sg16
I9
sg17
I236
sbs(I9
I19
tp27
g1
(g10
g3
NtRp28
(dp29
g13
F10.593594972254571
sg14
I9
sg15
I01
sg16
I19
sg17
I312
sbs(I3
I2
tp30
g1
(g10
g3
NtRp31
(dp32
g13
F30
sg14
I3
sg15
I01
sg16
I2
sg17
I4
sbs(I8
I4
tp33
g1
(g10
g3
NtRp34
(dp35
g13
F25.302876576596894
sg14
I8
sg15
I01
sg16
I4
sg17
I41
sbs(I2
I12
tp36
g1
(g10
g3
NtRp37
(dp38
g13
F-11.010447887625327
sg14
I2
sg15
I01
sg16
I12
sg17
I135
sbs(I7
I11
tp39
g1
(g10
g3
NtRp40
(dp41
g13
F-26.661497664980111
sg14
I7
sg15
I01
sg16
I11
sg17
I92
sbs(I3
I7
tp42
g1
(g10
g3
NtRp43
(dp44
g13
F15.446285459397787
sg14
I3
sg15
I00
sg16
I7
sg17
I49
sbs(I14
I9
tp45
g1
(g10
g3
NtRp46
(dp47
g13
F15.221161509339593
sg14
I14
sg15
I01
sg16
I9
sg17
I130
sbs(I5
I8
tp48
g1
(g10
g3
NtRp49
(dp50
g13
F18.572350610953897
sg14
I5
sg15
I01
sg16
I8
sg17
I45
sbs(I1
I2
tp51
g1
(g10
g3
NtRp52
(dp53
g13
F-13.260818623106992
sg14
I1
sg15
I01
sg16
I2
sg17
I1
sbs(I12
I2
tp54
g1
(g10
g3
NtRp55
(dp56
g13
F25.204243494967702
sg14
I12
sg15
I01
sg16
I2
sg17
I104
sbs(I4
I9
tp57
g1
(g10
g3
NtRp58
(dp59
g13
F-22.230431674189102
sg14
I4
sg15
I01
sg16
I9
sg17
I57
sbs(I3
I3
tp60
g1
(g10
g3
NtRp61
(dp62
g13
F-15.84666020973015
sg14
I3
sg15
I01
sg16
I3
sg17
I8
sbs(I2
I9
tp63
g1
(g10
g3
NtRp64
(dp65
g13
F29.268578850009192
sg14
I2
sg15
I01
sg16
I9
sg17
I144
sbs(I6
I20
tp66
g1
(g10
g3
NtRp67
(dp68
g13
F-3.9206551567841483
sg14
I6
sg15
I01
sg16
I20
sg17
I341
sbs(I3
I10
tp69
g1
(g10
g3
NtRp70
(dp71
g13
F20.831332451087583
sg14
I3
sg15
I01
sg16
I10
sg17
I76
sbs(I4
I4
tp72
g1
(g10
g3
NtRp73
(dp74
g13
F3.5530490539751423
sg14
I4
sg15
I01
sg16
I4
sg17
I11
sbs(I10
I12
tp75
g1
(g10
g3
NtRp76
(dp77
g13
F-6.4583784507974613
sg14
I10
sg15
I01
sg16
I12
sg17
I111
sbs(I17
I2
tp78
g1
(g10
g3
NtRp79
(dp80
g13
F1.0972701522115742
sg14
I17
sg15
I01
sg16
I2
sg17
I202
sbs(I13
I7
tp81
g1
(g10
g3
NtRp82
(dp83
g13
F-12.738668332610324
sg14
I13
sg15
I01
sg16
I7
sg17
I108
sbs(I9
I17
tp84
g1
(g10
g3
NtRp85
(dp86
g13
F12.531243607366941
sg14
I9
sg15
I01
sg16
I17
sg17
I258
sbs(I18
I9
tp87
g1
(g10
g3
NtRp88
(dp89
g13
F-8.0544801687205183
sg14
I18
sg15
I01
sg16
I9
sg17
I268
sbs(I2
I2
tp90
g1
(g10
g3
NtRp91
(dp92
g13
F1.5771231568893245
sg14
I2
sg15
I01
sg16
I2
sg17
I2
sbs(I15
I4
tp93
g1
(g10
g3
NtRp94
(dp95
g13
F2.0470367745137126
sg14
I15
sg15
I01
sg16
I4
sg17
I173
sbs(I5
I11
tp96
g1
(g10
g3
NtRp97
(dp98
g13
F-9.4258085618389966
sg14
I5
sg15
I01
sg16
I11
sg17
I90
sbs(I15
I12
tp99
g1
(g10
g3
NtRp100
(dp101
g13
F19.792128412611401
sg14
I15
sg15
I01
sg16
I12
sg17
I159
sbs(I5
I4
tp102
g1
(g10
g3
NtRp103
(dp104
g13
F10.981730022047806
sg14
I5
sg15
I01
sg16
I4
sg17
I13
sbs(I6
I6
tp105
g1
(g10
g3
NtRp106
(dp107
g13
F11.904012557711273
sg14
I6
sg15
I01
sg16
I6
sg17
I37
sbs(I12
I14
tp108
g1
(g10
g3
NtRp109
(dp110
g13
F-13.064233454525288
sg14
I12
sg15
I01
sg16
I14
sg17
I131
sbs(I3
I13
tp111
g1
(g10
g3
NtRp112
(dp113
g13
F23.661190890973522
sg14
I3
sg15
I01
sg16
I13
sg17
I107
sbs(I9
I3
tp114
g1
(g10
g3
NtRp115
(dp116
g13
F-15.362575779968289
sg14
I9
sg15
I01
sg16
I3
sg17
I60
sbs(I9
I16
tp117
g1
(g10
g3
NtRp118
(dp119
g13
F25.76357776010795
sg14
I9
sg15
I01
sg16
I16
sg17
I240
sbs(I1
I19
tp120
g1
(g10
g3
NtRp121
(dp122
g13
F-4.6547528950240276
sg14
I1
sg15
I01
sg16
I19
sg17
I304
sbs(I2
I3
tp123
g1
(g10
g3
NtRp124
(dp125
g13
F8.9815094467307937
sg14
I2
sg15
I01
sg16
I3
sg17
I5
sbs(I1
I9
tp126
g1
(g10
g3
NtRp127
(dp128
g13
F29.034526438886868
sg14
I1
sg15
I01
sg16
I9
sg17
I47
sbs(I20
I5
tp129
g1
(g10
g3
NtRp130
(dp131
g13
F-26.241057723213224
sg14
I20
sg15
I01
sg16
I5
sg17
I342
sbs(I4
I2
tp132
g1
(g10
g3
NtRp133
(dp134
g13
F-30
sg14
I4
sg15
I01
sg16
I2
sg17
I7
sbs(I14
I2
tp135
g1
(g10
g3
NtRp136
(dp137
g13
F-6.8408191718166034
sg14
I14
sg15
I01
sg16
I2
sg17
I125
sbs(I4
I11
tp138
g1
(g10
g3
NtRp139
(dp140
g13
F-14.814515013542149
sg14
I4
sg15
I01
sg16
I11
sg17
I86
sbs(I3
I5
tp141
g1
(g10
g3
NtRp142
(dp143
g13
F24.267746702782144
sg14
I3
sg15
I01
sg16
I5
sg17
I12
sbs(I10
I5
tp144
g1
(g10
g3
NtRp145
(dp146
g13
F19.373111602313756
sg14
I10
sg15
I01
sg16
I5
sg17
I79
sbs(I19
I9
tp147
g1
(g10
g3
NtRp148
(dp149
g13
F17.77742585914466
sg14
I19
sg15
I01
sg16
I9
sg17
I290
sbs(I6
I5
tp150
g1
(g10
g3
NtRp151
(dp152
g13
F-24.324379248943767
sg14
I6
sg15
I00
sg16
I5
sg17
I28
sbs(I9
I2
tp153
g1
(g10
g3
NtRp154
(dp155
g13
F-21.498043209393806
sg14
I9
sg15
I00
sg16
I2
sg17
I48
sbs(I7
I14
tp156
g1
(g10
g3
NtRp157
(dp158
g13
F-14.680699588853965
sg14
I7
sg15
I01
sg16
I14
sg17
I162
sbs(I9
I9
tp159
g1
(g10
g3
NtRp160
(dp161
g13
F15.698159481940806
sg14
I9
sg15
I00
sg16
I9
sg17
I73
sbs(I3
I6
tp162
g1
(g10
g3
NtRp163
(dp164
g13
F-26.223970414290704
sg14
I3
sg15
I01
sg16
I6
sg17
I22
sbs(I18
I7
tp165
g1
(g10
g3
NtRp166
(dp167
g13
F-3.1456053723266049
sg14
I18
sg15
I01
sg16
I7
sg17
I272
sbs(I11
I8
tp168
g1
(g10
g3
NtRp169
(dp170
g13
F17.667576674078944
sg14
I11
sg15
I01
sg16
I8
sg17
I91
sbs(I13
I18
tp171
g1
(g10
g3
NtRp172
(dp173
g13
F-4.9163503828795223
sg14
I13
sg15
I01
sg16
I18
sg17
I271
sbs(I4
I3
tp174
g1
(g10
g3
NtRp175
(dp176
g13
F14.953855872633389
sg14
I4
sg15
I01
sg16
I3
sg17
I10
sbs(I2
I15
tp177
g1
(g10
g3
NtRp178
(dp179
g13
F3.3061780894628243
sg14
I2
sg15
I01
sg16
I15
sg17
I172
sbs(I4
I8
tp180
g1
(g10
g3
NtRp181
(dp182
g13
F-9.3893187121138322
sg14
I4
sg15
I01
sg16
I8
sg17
I38
sbs(I5
I2
tp183
g1
(g10
g3
NtRp184
(dp185
g13
F-11.089081985846756
sg14
I5
sg15
I01
sg16
I2
sg17
I21
sbs(I2
I4
tp186
g1
(g10
g3
NtRp187
(dp188
g13
F27.614070293089213
sg14
I2
sg15
I01
sg16
I4
sg17
I16
sbs(I11
I6
tp189
g1
(g10
g3
NtRp190
(dp191
g13
F-25.875987986052085
sg14
I11
sg15
I01
sg16
I6
sg17
I110
sbs(I10
I2
tp192
g1
(g10
g3
NtRp193
(dp194
g13
F13.960890376762423
sg14
I10
sg15
I01
sg16
I2
sg17
I66
sbssS'_input_nodes'
p195
I1
sS'_output_nodes'
p196
I1
sS'_node_gene_type'
p197
cneat.genome
NodeGene
p198
sS'_conn_gene_type'
p199
g10
sS'fitness'
p200
F0.98326352111000015
sS'parent2_id'
p201
I21420
sS'_id'
p202
I21488
sS'parent1_id'
p203
I21420
sS'_node_genes'
p204
(lp205
g1
(g198
g3
NtRp206
(dp207
S'_bias'
p208
I0
sS'_type'
p209
S'INPUT'
p210
sg202
I1
sS'_response'
p211
F4.9242730000000003
sS'_activation_type'
p212
Nsbag1
(g198
g3
NtRp213
(dp214
g208
F0.6925880718967713
sg209
S'OUTPUT'
p215
sg202
I2
sg211
F10.11431519214617
sg212
S'tanh'
p216
sbag1
(g198
g3
NtRp217
(dp218
g208
F-5.5325226592431127
sg209
S'HIDDEN'
p219
sg202
I3
sg211
F6.1449776318473255
sg212
g216
sbag1
(g198
g3
NtRp220
(dp221
g208
F1.6115692025869084
sg209
g219
sg202
I4
sg211
F-3.9247845211786276
sg212
g216
sbag1
(g198
g3
NtRp222
(dp223
g208
F-5.9458076593029583
sg209
g219
sg202
I5
sg211
F5.7913352124656221
sg212
g216
sbag1
(g198
g3
NtRp224
(dp225
g208
F3.0915131628074661
sg209
g219
sg202
I6
sg211
F11.532459552469467
sg212
g216
sbag1
(g198
g3
NtRp226
(dp227
g208
F-2.0182585406749016
sg209
g219
sg202
I7
sg211
F13.273224910033026
sg212
g216
sbag1
(g198
g3
NtRp228
(dp229
g208
F-2.0980885789312538
sg209
g219
sg202
I8
sg211
F3.3125567345782203
sg212
g216
sbag1
(g198
g3
NtRp230
(dp231
g208
F0.44521595576682227
sg209
g219
sg202
I9
sg211
F-0.89030552219161807
sg212
g216
sbag1
(g198
g3
NtRp232
(dp233
g208
F8.3488049287929549
sg209
g219
sg202
I10
sg211
F1.4328470206586701
sg212
g216
sbag1
(g198
g3
NtRp234
(dp235
g208
F-6.572856373472141
sg209
g219
sg202
I11
sg211
F8.8456718609553402
sg212
g216
sbag1
(g198
g3
NtRp236
(dp237
g208
F1.4415989279707475
sg209
g219
sg202
I12
sg211
F7.2159355198470259
sg212
g216
sbag1
(g198
g3
NtRp238
(dp239
g208
F3.8035044685814041
sg209
g219
sg202
I13
sg211
F4.713447098694636
sg212
g216
sbag1
(g198
g3
NtRp240
(dp241
g208
F-1.5442218236111367
sg209
g219
sg202
I14
sg211
F4.7055816721162422
sg212
g216
sbag1
(g198
g3
NtRp242
(dp243
g208
F-3.5989297552380854
sg209
g219
sg202
I15
sg211
F13.928442972977626
sg212
g216
sbag1
(g198
g3
NtRp244
(dp245
g208
F1.3346978826491986
sg209
g219
sg202
I16
sg211
F10.166165242306285
sg212
g216
sbag1
(g198
g3
NtRp246
(dp247
g208
F1.035372482787537
sg209
g219
sg202
I17
sg211
F3.4107220233465352
sg212
g216
sbag1
(g198
g3
NtRp248
(dp249
g208
F3.5651462683630113
sg209
g219
sg202
I18
sg211
F2.5751605013760317
sg212
g216
sbag1
(g198
g3
NtRp250
(dp251
g208
F-0.88836856946168441
sg209
g219
sg202
I19
sg211
F7.6520351364247485
sg212
g216
sbag1
(g198
g3
NtRp252
(dp253
g208
F1.6618813856381829
sg209
g219
sg202
I20
sg211
F2.2727091822581209
sg212
g216
sbasb.