ccopy_reg
_reconstructor
p1
(cneat.chromosome
Chromosome
p2
c__builtin__
object
p3
NtRp4
(dp5
S'species_id'
p6
I41
sS'_connection_genes'
p7
(dp8
(I1
I2
tp9
g1
(cneat.genome
ConnectionGene
p10
g3
NtRp11
(dp12
S'_ConnectionGene__weight'
p13
F-7.7173313230419343
sS'_ConnectionGene__in'
p14
I1
sS'_ConnectionGene__enabled'
p15
I01
sS'_ConnectionGene__out'
p16
I2
sS'_ConnectionGene__innov_number'
p17
I1
sbs(I8
I9
tp18
g1
(g10
g3
NtRp19
(dp20
g13
F4.7220512172878211
sg14
I8
sg15
I01
sg16
I9
sg17
I61
sbs(I3
I2
tp21
g1
(g10
g3
NtRp22
(dp23
g13
F8.6184426381729935
sg14
I3
sg15
I01
sg16
I2
sg17
I4
sbs(I1
I3
tp24
g1
(g10
g3
NtRp25
(dp26
g13
F29.921392879545696
sg14
I1
sg15
I00
sg16
I3
sg17
I3
sbs(I6
I7
tp27
g1
(g10
g3
NtRp28
(dp29
g13
F2.4080661948978728
sg14
I6
sg15
I01
sg16
I7
sg17
I34
sbs(I3
I3
tp30
g1
(g10
g3
NtRp31
(dp32
g13
F29.098905912667679
sg14
I3
sg15
I01
sg16
I3
sg17
I8
sbs(I5
I6
tp33
g1
(g10
g3
NtRp34
(dp35
g13
F-2.306906399456774
sg14
I5
sg15
I01
sg16
I6
sg17
I25
sbs(I1
I4
tp36
g1
(g10
g3
NtRp37
(dp38
g13
F13.006420670205861
sg14
I1
sg15
I01
sg16
I4
sg17
I6
sbs(I9
I10
tp39
g1
(g10
g3
NtRp40
(dp41
g13
F6.3072920804099057
sg14
I9
sg15
I01
sg16
I10
sg17
I84
sbs(I9
I2
tp42
g1
(g10
g3
NtRp43
(dp44
g13
F-14.993935833334625
sg14
I9
sg15
I00
sg16
I2
sg17
I48
sbs(I3
I5
tp45
g1
(g10
g3
NtRp46
(dp47
g13
F6.4760661405469477
sg14
I3
sg15
I01
sg16
I5
sg17
I12
sbs(I6
I2
tp48
g1
(g10
g3
NtRp49
(dp50
g13
F17.337582533191583
sg14
I6
sg15
I00
sg16
I2
sg17
I18
sbs(I5
I3
tp51
g1
(g10
g3
NtRp52
(dp53
g13
F2.7579355172971978
sg14
I5
sg15
I01
sg16
I3
sg17
I15
sbs(I7
I2
tp54
g1
(g10
g3
NtRp55
(dp56
g13
F4.2552437607441025
sg14
I7
sg15
I01
sg16
I2
sg17
I31
sbs(I4
I3
tp57
g1
(g10
g3
NtRp58
(dp59
g13
F23.593103152689245
sg14
I4
sg15
I01
sg16
I3
sg17
I10
sbs(I3
I9
tp60
g1
(g10
g3
NtRp61
(dp62
g13
F-4.539848699083695
sg14
I3
sg15
I01
sg16
I9
sg17
I62
sbs(I10
I2
tp63
g1
(g10
g3
NtRp64
(dp65
g13
F-12.807369170166293
sg14
I10
sg15
I01
sg16
I2
sg17
I66
sbs(I5
I2
tp66
g1
(g10
g3
NtRp67
(dp68
g13
F-23.526017759241384
sg14
I5
sg15
I00
sg16
I2
sg17
I21
sbs(I2
I4
tp69
g1
(g10
g3
NtRp70
(dp71
g13
F3.7981675895565452
sg14
I2
sg15
I01
sg16
I4
sg17
I16
sbs(I5
I8
tp72
g1
(g10
g3
NtRp73
(dp74
g13
F0.69481071569187103
sg14
I5
sg15
I01
sg16
I8
sg17
I45
sbs(I8
I2
tp75
g1
(g10
g3
NtRp76
(dp77
g13
F-29.649129427528159
sg14
I8
sg15
I00
sg16
I2
sg17
I46
sbssS'_input_nodes'
p78
I1
sS'_output_nodes'
p79
I1
sS'_node_gene_type'
p80
cneat.genome
NodeGene
p81
sS'_conn_gene_type'
p82
g10
sS'fitness'
p83
F0.99780096027789278
sS'parent2_id'
p84
I6579
sS'_id'
p85
I6623
sS'parent1_id'
p86
I6579
sS'_node_genes'
p87
(lp88
g1
(g81
g3
NtRp89
(dp90
S'_bias'
p91
I0
sS'_type'
p92
S'INPUT'
p93
sg85
I1
sS'_response'
p94
F4.9242730000000003
sS'_activation_type'
p95
Nsbag1
(g81
g3
NtRp96
(dp97
g91
F-4.9446255665198127
sg92
S'OUTPUT'
p98
sg85
I2
sg94
F6.5443940614742111
sg95
S'tanh'
p99
sbag1
(g81
g3
NtRp100
(dp101
g91
F1.9549697633683008
sg92
S'HIDDEN'
p102
sg85
I3
sg94
F4.482453425426872
sg95
g99
sbag1
(g81
g3
NtRp103
(dp104
g91
F0.42438832312504216
sg92
g102
sg85
I4
sg94
F8.2438981279264087
sg95
g99
sbag1
(g81
g3
NtRp105
(dp106
g91
F1.5730218532005606
sg92
g102
sg85
I5
sg94
F5.3953801892858051
sg95
g99
sbag1
(g81
g3
NtRp107
(dp108
g91
F0.9051734098393649
sg92
g102
sg85
I6
sg94
F3.6821581772582181
sg95
g99
sbag1
(g81
g3
NtRp109
(dp110
g91
F1.6874338526913153
sg92
g102
sg85
I7
sg94
F5.2524407258464327
sg95
g99
sbag1
(g81
g3
NtRp111
(dp112
g91
F-1.0181500042696354
sg92
g102
sg85
I8
sg94
F5.3780705486651117
sg95
g99
sbag1
(g81
g3
NtRp113
(dp114
g91
F3.1941472652455611
sg92
g102
sg85
I9
sg94
F4.7567740650518635
sg95
g99
sbag1
(g81
g3
NtRp115
(dp116
g91
F-0.59911601841236994
sg92
g102
sg85
I10
sg94
F5.2836994168830911
sg95
g99
sbasb.