ccopy_reg
_reconstructor
p1
(cneat.chromosome
Chromosome
p2
c__builtin__
object
p3
NtRp4
(dp5
S'species_id'
p6
I40
sS'_connection_genes'
p7
(dp8
(I1
I2
tp9
g1
(cneat.genome
ConnectionGene
p10
g3
NtRp11
(dp12
S'_ConnectionGene__weight'
p13
F-9.1292038043348001
sS'_ConnectionGene__in'
p14
I1
sS'_ConnectionGene__enabled'
p15
I01
sS'_ConnectionGene__out'
p16
I2
sS'_ConnectionGene__innov_number'
p17
I1
sbs(I7
I3
tp18
g1
(g10
g3
NtRp19
(dp20
g13
F0.17754833539286596
sg14
I7
sg15
I01
sg16
I3
sg17
I36
sbs(I5
I4
tp21
g1
(g10
g3
NtRp22
(dp23
g13
F-6.5099322092658927
sg14
I5
sg15
I01
sg16
I4
sg17
I13
sbs(I1
I3
tp24
g1
(g10
g3
NtRp25
(dp26
g13
F0.24858074086280529
sg14
I1
sg15
I01
sg16
I3
sg17
I3
sbs(I3
I3
tp27
g1
(g10
g3
NtRp28
(dp29
g13
F-8.5903449522993363
sg14
I3
sg15
I01
sg16
I3
sg17
I8
sbs(I6
I6
tp30
g1
(g10
g3
NtRp31
(dp32
g13
F0.73511044717038998
sg14
I6
sg15
I01
sg16
I6
sg17
I37
sbs(I9
I2
tp33
g1
(g10
g3
NtRp34
(dp35
g13
F10.476599458843571
sg14
I9
sg15
I01
sg16
I2
sg17
I48
sbs(I4
I3
tp36
g1
(g10
g3
NtRp37
(dp38
g13
F7.1960896726644785
sg14
I4
sg15
I01
sg16
I3
sg17
I10
sbs(I4
I4
tp39
g1
(g10
g3
NtRp40
(dp41
g13
F5.0490015399632311
sg14
I4
sg15
I00
sg16
I4
sg17
I11
sbs(I3
I2
tp42
g1
(g10
g3
NtRp43
(dp44
g13
F10.476599458843571
sg14
I3
sg15
I00
sg16
I2
sg17
I4
sbs(I4
I8
tp45
g1
(g10
g3
NtRp46
(dp47
g13
F0.87337017664376582
sg14
I4
sg15
I01
sg16
I8
sg17
I38
sbs(I3
I9
tp48
g1
(g10
g3
NtRp49
(dp50
g13
F1
sg14
I3
sg15
I01
sg16
I9
sg17
I62
sbs(I2
I3
tp51
g1
(g10
g3
NtRp52
(dp53
g13
F2.2137323876676516
sg14
I2
sg15
I00
sg16
I3
sg17
I5
sbs(I3
I6
tp54
g1
(g10
g3
NtRp55
(dp56
g13
F-8.8294957754410941
sg14
I3
sg15
I01
sg16
I6
sg17
I22
sbs(I3
I7
tp57
g1
(g10
g3
NtRp58
(dp59
g13
F8.2854630688579611
sg14
I3
sg15
I01
sg16
I7
sg17
I49
sbs(I3
I5
tp60
g1
(g10
g3
NtRp61
(dp62
g13
F-4.2967032204340079
sg14
I3
sg15
I01
sg16
I5
sg17
I12
sbs(I5
I2
tp63
g1
(g10
g3
NtRp64
(dp65
g13
F-1.6084172669235035
sg14
I5
sg15
I01
sg16
I2
sg17
I21
sbs(I2
I4
tp66
g1
(g10
g3
NtRp67
(dp68
g13
F13.699848832354331
sg14
I2
sg15
I01
sg16
I4
sg17
I16
sbs(I6
I5
tp69
g1
(g10
g3
NtRp70
(dp71
g13
F-1.2597970810779318
sg14
I6
sg15
I01
sg16
I5
sg17
I28
sbs(I8
I4
tp72
g1
(g10
g3
NtRp73
(dp74
g13
F0.57542313710305604
sg14
I8
sg15
I01
sg16
I4
sg17
I41
sbssS'_input_nodes'
p75
I1
sS'_output_nodes'
p76
I1
sS'_node_gene_type'
p77
cneat.genome
NodeGene
p78
sS'_conn_gene_type'
p79
g10
sS'fitness'
p80
F0.97511250752326661
sS'parent2_id'
p81
I5410
sS'_id'
p82
I5488
sS'parent1_id'
p83
I5410
sS'_node_genes'
p84
(lp85
g1
(g78
g3
NtRp86
(dp87
S'_bias'
p88
I0
sS'_type'
p89
S'INPUT'
p90
sg82
I1
sS'_response'
p91
F4.9242730000000003
sS'_activation_type'
p92
Nsbag1
(g78
g3
NtRp93
(dp94
g88
F3.9406206777731656
sg89
S'OUTPUT'
p95
sg82
I2
sg91
F4.684802829092706
sg92
S'tanh'
p96
sbag1
(g78
g3
NtRp97
(dp98
g88
F-1.7609022854562946
sg89
S'HIDDEN'
p99
sg82
I3
sg91
F4.156059267153589
sg92
g96
sbag1
(g78
g3
NtRp100
(dp101
g88
F1.7179516691377565
sg89
g99
sg82
I4
sg91
F4.6850976491399772
sg92
g96
sbag1
(g78
g3
NtRp102
(dp103
g88
F-1.6831622322906021
sg89
g99
sg82
I5
sg91
F4.5906966958926825
sg92
g96
sbag1
(g78
g3
NtRp104
(dp105
g88
F0.54837746387165787
sg89
g99
sg82
I6
sg91
F7.6299262652420961
sg92
g96
sbag1
(g78
g3
NtRp106
(dp107
g88
F-1.5738978509462453
sg89
g99
sg82
I7
sg91
F6.5327957102077292
sg92
g96
sbag1
(g78
g3
NtRp108
(dp109
g88
F-0.50224606810917882
sg89
g99
sg82
I8
sg91
F4.5544813173810477
sg92
g96
sbag1
(g78
g3
NtRp110
(dp111
g88
I0
sg89
g99
sg82
I9
sg91
F4.9242730000000003
sg92
g96
sbasb.