ccopy_reg
_reconstructor
p1
(cneat.chromosome
Chromosome
p2
c__builtin__
object
p3
NtRp4
(dp5
S'species_id'
p6
I96
sS'_connection_genes'
p7
(dp8
(I7
I3
tp9
g1
(cneat.genome
ConnectionGene
p10
g3
NtRp11
(dp12
S'_ConnectionGene__weight'
p13
F30
sS'_ConnectionGene__in'
p14
I7
sS'_ConnectionGene__enabled'
p15
I01
sS'_ConnectionGene__out'
p16
I3
sS'_ConnectionGene__innov_number'
p17
I36
sbs(I6
I9
tp18
g1
(g10
g3
NtRp19
(dp20
g13
F-18.291359262687923
sg14
I6
sg15
I01
sg16
I9
sg17
I81
sbs(I1
I3
tp21
g1
(g10
g3
NtRp22
(dp23
g13
F6.402421596460572
sg14
I1
sg15
I01
sg16
I3
sg17
I3
sbs(I8
I13
tp24
g1
(g10
g3
NtRp25
(dp26
g13
F-1.8795726650970912
sg14
I8
sg15
I01
sg16
I13
sg17
I197
sbs(I5
I9
tp27
g1
(g10
g3
NtRp28
(dp29
g13
F7.1005007063317507
sg14
I5
sg15
I01
sg16
I9
sg17
I100
sbs(I13
I4
tp30
g1
(g10
g3
NtRp31
(dp32
g13
F-1.7942381544886548
sg14
I13
sg15
I01
sg16
I4
sg17
I163
sbs(I3
I2
tp33
g1
(g10
g3
NtRp34
(dp35
g13
F30
sg14
I3
sg15
I00
sg16
I2
sg17
I4
sbs(I11
I8
tp36
g1
(g10
g3
NtRp37
(dp38
g13
F8.7467599312041546
sg14
I11
sg15
I01
sg16
I8
sg17
I91
sbs(I3
I7
tp39
g1
(g10
g3
NtRp40
(dp41
g13
F2.375543709534742
sg14
I3
sg15
I01
sg16
I7
sg17
I49
sbs(I12
I9
tp42
g1
(g10
g3
NtRp43
(dp44
g13
F15.541819632555562
sg14
I12
sg15
I01
sg16
I9
sg17
I109
sbs(I1
I2
tp45
g1
(g10
g3
NtRp46
(dp47
g13
F-11.794225880202269
sg14
I1
sg15
I01
sg16
I2
sg17
I1
sbs(I4
I9
tp48
g1
(g10
g3
NtRp49
(dp50
g13
F30
sg14
I4
sg15
I01
sg16
I9
sg17
I57
sbs(I3
I3
tp51
g1
(g10
g3
NtRp52
(dp53
g13
F-23.844086740625833
sg14
I3
sg15
I01
sg16
I3
sg17
I8
sbs(I9
I15
tp54
g1
(g10
g3
NtRp55
(dp56
g13
F-0.78073365086868796
sg14
I9
sg15
I01
sg16
I15
sg17
I219
sbs(I3
I10
tp57
g1
(g10
g3
NtRp58
(dp59
g13
F27.04111876103266
sg14
I3
sg15
I01
sg16
I10
sg17
I76
sbs(I4
I8
tp60
g1
(g10
g3
NtRp61
(dp62
g13
F17.93364581230782
sg14
I4
sg15
I01
sg16
I8
sg17
I38
sbs(I4
I4
tp63
g1
(g10
g3
NtRp64
(dp65
g13
F2.3803266757267059
sg14
I4
sg15
I01
sg16
I4
sg17
I11
sbs(I4
I11
tp66
g1
(g10
g3
NtRp67
(dp68
g13
F-0.68279271859130763
sg14
I4
sg15
I01
sg16
I11
sg17
I86
sbs(I3
I6
tp69
g1
(g10
g3
NtRp70
(dp71
g13
F-16.972105349127961
sg14
I3
sg15
I01
sg16
I6
sg17
I22
sbs(I14
I14
tp72
g1
(g10
g3
NtRp73
(dp74
g13
F2.6134798685282332
sg14
I14
sg15
I01
sg16
I14
sg17
I184
sbs(I15
I12
tp75
g1
(g10
g3
NtRp76
(dp77
g13
F-1.79747752048195
sg14
I15
sg15
I01
sg16
I12
sg17
I159
sbs(I5
I4
tp78
g1
(g10
g3
NtRp79
(dp80
g13
F2.1775344978009681
sg14
I5
sg15
I01
sg16
I4
sg17
I13
sbs(I6
I6
tp81
g1
(g10
g3
NtRp82
(dp83
g13
F-4.0743058243681665
sg14
I6
sg15
I01
sg16
I6
sg17
I37
sbs(I15
I3
tp84
g1
(g10
g3
NtRp85
(dp86
g13
F-1.1563401652132241
sg14
I15
sg15
I01
sg16
I3
sg17
I182
sbs(I9
I3
tp87
g1
(g10
g3
NtRp88
(dp89
g13
F11.520861633722159
sg14
I9
sg15
I00
sg16
I3
sg17
I60
sbs(I2
I3
tp90
g1
(g10
g3
NtRp91
(dp92
g13
F-9.1051228919656335
sg14
I2
sg15
I01
sg16
I3
sg17
I5
sbs(I1
I9
tp93
g1
(g10
g3
NtRp94
(dp95
g13
F13.178447287566279
sg14
I1
sg15
I01
sg16
I9
sg17
I47
sbs(I14
I2
tp96
g1
(g10
g3
NtRp97
(dp98
g13
F22.73263231555519
sg14
I14
sg15
I01
sg16
I2
sg17
I125
sbs(I6
I5
tp99
g1
(g10
g3
NtRp100
(dp101
g13
F-18.082156160858752
sg14
I6
sg15
I01
sg16
I5
sg17
I28
sbs(I3
I5
tp102
g1
(g10
g3
NtRp103
(dp104
g13
F28.876597092804388
sg14
I3
sg15
I01
sg16
I5
sg17
I12
sbs(I10
I5
tp105
g1
(g10
g3
NtRp106
(dp107
g13
F-3.7542486072390782
sg14
I10
sg15
I01
sg16
I5
sg17
I79
sbs(I6
I8
tp108
g1
(g10
g3
NtRp109
(dp110
g13
F-7.1322998318533539
sg14
I6
sg15
I01
sg16
I8
sg17
I51
sbs(I13
I14
tp111
g1
(g10
g3
NtRp112
(dp113
g13
F-1.6184745668604603
sg14
I13
sg15
I01
sg16
I14
sg17
I189
sbs(I9
I9
tp114
g1
(g10
g3
NtRp115
(dp116
g13
F5.0927045407073681
sg14
I9
sg15
I00
sg16
I9
sg17
I73
sbs(I9
I2
tp117
g1
(g10
g3
NtRp118
(dp119
g13
F-11.341557120448865
sg14
I9
sg15
I01
sg16
I2
sg17
I48
sbs(I10
I14
tp120
g1
(g10
g3
NtRp121
(dp122
g13
F8.4433971104847831
sg14
I10
sg15
I01
sg16
I14
sg17
I145
sbs(I4
I3
tp123
g1
(g10
g3
NtRp124
(dp125
g13
F3.6262207604669201
sg14
I4
sg15
I01
sg16
I3
sg17
I10
sbs(I8
I4
tp126
g1
(g10
g3
NtRp127
(dp128
g13
F13.609640042885916
sg14
I8
sg15
I01
sg16
I4
sg17
I41
sbs(I5
I2
tp129
g1
(g10
g3
NtRp130
(dp131
g13
F-6.4054123556306042
sg14
I5
sg15
I01
sg16
I2
sg17
I21
sbs(I2
I4
tp132
g1
(g10
g3
NtRp133
(dp134
g13
F21.866520663291936
sg14
I2
sg15
I01
sg16
I4
sg17
I16
sbs(I9
I12
tp135
g1
(g10
g3
NtRp136
(dp137
g13
F2.0998580946044791
sg14
I9
sg15
I01
sg16
I12
sg17
I127
sbs(I10
I2
tp138
g1
(g10
g3
NtRp139
(dp140
g13
F27.311961273235362
sg14
I10
sg15
I00
sg16
I2
sg17
I66
sbssS'_input_nodes'
p141
I1
sS'_output_nodes'
p142
I1
sS'_node_gene_type'
p143
cneat.genome
NodeGene
p144
sS'_conn_gene_type'
p145
g10
sS'fitness'
p146
F0.99082572420861126
sS'parent2_id'
p147
I13433
sS'_id'
p148
I13474
sS'parent1_id'
p149
I13433
sS'_node_genes'
p150
(lp151
g1
(g144
g3
NtRp152
(dp153
S'_bias'
p154
I0
sS'_type'
p155
S'INPUT'
p156
sg148
I1
sS'_response'
p157
F4.9242730000000003
sS'_activation_type'
p158
Nsbag1
(g144
g3
NtRp159
(dp160
g154
F-0.093281088683044022
sg155
S'OUTPUT'
p161
sg148
I2
sg157
F5.4143072458189758
sg158
S'tanh'
p162
sbag1
(g144
g3
NtRp163
(dp164
g154
F-4.949887546319613
sg155
S'HIDDEN'
p165
sg148
I3
sg157
F4.985654154859593
sg158
g162
sbag1
(g144
g3
NtRp166
(dp167
g154
F4.437059684219375
sg155
g165
sg148
I4
sg157
F1.5005611925829856
sg158
g162
sbag1
(g144
g3
NtRp168
(dp169
g154
F-2.8403175109833647
sg155
g165
sg148
I5
sg157
F8.6896377787454373
sg158
g162
sbag1
(g144
g3
NtRp170
(dp171
g154
F0.68403668670395734
sg155
g165
sg148
I6
sg157
F8.6160898427918013
sg158
g162
sbag1
(g144
g3
NtRp172
(dp173
g154
F-3.6165291695378907
sg155
g165
sg148
I7
sg157
F9.489578185558134
sg158
g162
sbag1
(g144
g3
NtRp174
(dp175
g154
F-1.1368801851522152
sg155
g165
sg148
I8
sg157
F2.1269014358359088
sg158
g162
sbag1
(g144
g3
NtRp176
(dp177
g154
F0.0099048099492105579
sg155
g165
sg148
I9
sg157
F2.7875474379792529
sg158
g162
sbag1
(g144
g3
NtRp178
(dp179
g154
F4.3880658915662289
sg155
g165
sg148
I10
sg157
F2.322926239913079
sg158
g162
sbag1
(g144
g3
NtRp180
(dp181
g154
F0.15253180702572799
sg155
g165
sg148
I11
sg157
F7.6200407701186563
sg158
g162
sbag1
(g144
g3
NtRp182
(dp183
g154
F1.1192790535653212
sg155
g165
sg148
I12
sg157
F4.5174604697509357
sg158
g162
sbag1
(g144
g3
NtRp184
(dp185
g154
F-0.15766495756616047
sg155
g165
sg148
I13
sg157
F5.1935166248452784
sg158
g162
sbag1
(g144
g3
NtRp186
(dp187
g154
F-0.91631091790185804
sg155
g165
sg148
I14
sg157
F6.4891735380593909
sg158
g162
sbag1
(g144
g3
NtRp188
(dp189
g154
F-0.21899120162740099
sg155
g165
sg148
I15
sg157
F5.0691122544795082
sg158
g162
sbasb.