ccopy_reg
_reconstructor
p1
(cneat.chromosome
Chromosome
p2
c__builtin__
object
p3
NtRp4
(dp5
S'species_id'
p6
I90
sS'_connection_genes'
p7
(dp8
(I7
I3
tp9
g1
(cneat.genome
ConnectionGene
p10
g3
NtRp11
(dp12
S'_ConnectionGene__weight'
p13
F27.108319094124852
sS'_ConnectionGene__in'
p14
I7
sS'_ConnectionGene__enabled'
p15
I01
sS'_ConnectionGene__out'
p16
I3
sS'_ConnectionGene__innov_number'
p17
I36
sbs(I1
I3
tp18
g1
(g10
g3
NtRp19
(dp20
g13
F-13.511740262752289
sg14
I1
sg15
I01
sg16
I3
sg17
I3
sbs(I5
I9
tp21
g1
(g10
g3
NtRp22
(dp23
g13
F-3.7293018342410122
sg14
I5
sg15
I01
sg16
I9
sg17
I100
sbs(I11
I2
tp24
g1
(g10
g3
NtRp25
(dp26
g13
F6.9770779340155293
sg14
I11
sg15
I01
sg16
I2
sg17
I89
sbs(I5
I4
tp27
g1
(g10
g3
NtRp28
(dp29
g13
F-6.93603459718687
sg14
I5
sg15
I01
sg16
I4
sg17
I13
sbs(I3
I7
tp30
g1
(g10
g3
NtRp31
(dp32
g13
F-6.3698952237861537
sg14
I3
sg15
I01
sg16
I7
sg17
I49
sbs(I1
I11
tp33
g1
(g10
g3
NtRp34
(dp35
g13
F-0.78628604756051268
sg14
I1
sg15
I01
sg16
I11
sg17
I88
sbs(I5
I8
tp36
g1
(g10
g3
NtRp37
(dp38
g13
F8.128280546421081
sg14
I5
sg15
I01
sg16
I8
sg17
I45
sbs(I1
I2
tp39
g1
(g10
g3
NtRp40
(dp41
g13
F-20.376450941600652
sg14
I1
sg15
I01
sg16
I2
sg17
I1
sbs(I12
I2
tp42
g1
(g10
g3
NtRp43
(dp44
g13
F29.812051146992118
sg14
I12
sg15
I01
sg16
I2
sg17
I104
sbs(I4
I9
tp45
g1
(g10
g3
NtRp46
(dp47
g13
F-0.84963696585975201
sg14
I4
sg15
I01
sg16
I9
sg17
I57
sbs(I3
I3
tp48
g1
(g10
g3
NtRp49
(dp50
g13
F2.648336901831438
sg14
I3
sg15
I01
sg16
I3
sg17
I8
sbs(I2
I9
tp51
g1
(g10
g3
NtRp52
(dp53
g13
F-1.441674016201322
sg14
I2
sg15
I01
sg16
I9
sg17
I144
sbs(I13
I3
tp54
g1
(g10
g3
NtRp55
(dp56
g13
F11.08884642055909
sg14
I13
sg15
I01
sg16
I3
sg17
I117
sbs(I3
I10
tp57
g1
(g10
g3
NtRp58
(dp59
g13
F-13.983483561885556
sg14
I3
sg15
I01
sg16
I10
sg17
I76
sbs(I4
I4
tp60
g1
(g10
g3
NtRp61
(dp62
g13
F-8.2957027436841866
sg14
I4
sg15
I00
sg16
I4
sg17
I11
sbs(I10
I12
tp63
g1
(g10
g3
NtRp64
(dp65
g13
F-9.9068561269372424
sg14
I10
sg15
I01
sg16
I12
sg17
I111
sbs(I4
I8
tp66
g1
(g10
g3
NtRp67
(dp68
g13
F6.170958404895984
sg14
I4
sg15
I01
sg16
I8
sg17
I38
sbs(I2
I13
tp69
g1
(g10
g3
NtRp70
(dp71
g13
F1.2934131296126523
sg14
I2
sg15
I01
sg16
I13
sg17
I176
sbs(I6
I5
tp72
g1
(g10
g3
NtRp73
(dp74
g13
F-16.966863049461491
sg14
I6
sg15
I01
sg16
I5
sg17
I28
sbs(I3
I6
tp75
g1
(g10
g3
NtRp76
(dp77
g13
F-17.136573191199208
sg14
I3
sg15
I01
sg16
I6
sg17
I22
sbs(I2
I2
tp78
g1
(g10
g3
NtRp79
(dp80
g13
F-2.9716576280866533
sg14
I2
sg15
I01
sg16
I2
sg17
I2
sbs(I5
I3
tp81
g1
(g10
g3
NtRp82
(dp83
g13
F-6.1621004720093611
sg14
I5
sg15
I01
sg16
I3
sg17
I15
sbs(I3
I2
tp84
g1
(g10
g3
NtRp85
(dp86
g13
F4.6133354608628956
sg14
I3
sg15
I01
sg16
I2
sg17
I4
sbs(I6
I6
tp87
g1
(g10
g3
NtRp88
(dp89
g13
F-9.0120515323592389
sg14
I6
sg15
I01
sg16
I6
sg17
I37
sbs(I5
I11
tp90
g1
(g10
g3
NtRp91
(dp92
g13
F24.715442629362435
sg14
I5
sg15
I01
sg16
I11
sg17
I90
sbs(I9
I3
tp93
g1
(g10
g3
NtRp94
(dp95
g13
F-18.386333691801838
sg14
I9
sg15
I01
sg16
I3
sg17
I60
sbs(I2
I3
tp96
g1
(g10
g3
NtRp97
(dp98
g13
F13.103959932755918
sg14
I2
sg15
I00
sg16
I3
sg17
I5
sbs(I1
I9
tp99
g1
(g10
g3
NtRp100
(dp101
g13
F23.780648182104962
sg14
I1
sg15
I01
sg16
I9
sg17
I47
sbs(I4
I2
tp102
g1
(g10
g3
NtRp103
(dp104
g13
F-7.8448304736787833
sg14
I4
sg15
I01
sg16
I2
sg17
I7
sbs(I4
I11
tp105
g1
(g10
g3
NtRp106
(dp107
g13
F7.2137723719080142
sg14
I4
sg15
I01
sg16
I11
sg17
I86
sbs(I3
I5
tp108
g1
(g10
g3
NtRp109
(dp110
g13
F27.28896794112039
sg14
I3
sg15
I01
sg16
I5
sg17
I12
sbs(I10
I5
tp111
g1
(g10
g3
NtRp112
(dp113
g13
F18.899378214516297
sg14
I10
sg15
I01
sg16
I5
sg17
I79
sbs(I9
I2
tp114
g1
(g10
g3
NtRp115
(dp116
g13
F-4.2886827270023362
sg14
I9
sg15
I01
sg16
I2
sg17
I48
sbs(I9
I9
tp117
g1
(g10
g3
NtRp118
(dp119
g13
F-1.2812758176124226
sg14
I9
sg15
I01
sg16
I9
sg17
I73
sbs(I11
I8
tp120
g1
(g10
g3
NtRp121
(dp122
g13
F-9.3830904840286777
sg14
I11
sg15
I01
sg16
I8
sg17
I91
sbs(I12
I4
tp123
g1
(g10
g3
NtRp124
(dp125
g13
F-3.033345959236049
sg14
I12
sg15
I01
sg16
I4
sg17
I115
sbs(I4
I3
tp126
g1
(g10
g3
NtRp127
(dp128
g13
F-13.81192924974221
sg14
I4
sg15
I01
sg16
I3
sg17
I10
sbs(I10
I2
tp129
g1
(g10
g3
NtRp130
(dp131
g13
F26.539906462933914
sg14
I10
sg15
I01
sg16
I2
sg17
I66
sbs(I5
I2
tp132
g1
(g10
g3
NtRp133
(dp134
g13
F-13.431999106178075
sg14
I5
sg15
I01
sg16
I2
sg17
I21
sbs(I2
I4
tp135
g1
(g10
g3
NtRp136
(dp137
g13
F16.006118204746738
sg14
I2
sg15
I01
sg16
I4
sg17
I16
sbs(I8
I4
tp138
g1
(g10
g3
NtRp139
(dp140
g13
F6.2410501516423835
sg14
I8
sg15
I01
sg16
I4
sg17
I41
sbssS'_input_nodes'
p141
I1
sS'_output_nodes'
p142
I1
sS'_node_gene_type'
p143
cneat.genome
NodeGene
p144
sS'_conn_gene_type'
p145
g10
sS'fitness'
p146
F0.9966556215391702
sS'parent2_id'
p147
I12417
sS'_id'
p148
I12454
sS'parent1_id'
p149
I12417
sS'_node_genes'
p150
(lp151
g1
(g144
g3
NtRp152
(dp153
S'_bias'
p154
I0
sS'_type'
p155
S'INPUT'
p156
sg148
I1
sS'_response'
p157
F4.9242730000000003
sS'_activation_type'
p158
Nsbag1
(g144
g3
NtRp159
(dp160
g154
F0.63217191716513899
sg155
S'OUTPUT'
p161
sg148
I2
sg157
F6.2676184788299754
sg158
S'tanh'
p162
sbag1
(g144
g3
NtRp163
(dp164
g154
F-2.6144586588225724
sg155
S'HIDDEN'
p165
sg148
I3
sg157
F6.6666775364588213
sg158
g162
sbag1
(g144
g3
NtRp166
(dp167
g154
F1.7070392905676444
sg155
g165
sg148
I4
sg157
F-0.30298626471645979
sg158
g162
sbag1
(g144
g3
NtRp168
(dp169
g154
F-3.1464262660834681
sg155
g165
sg148
I5
sg157
F5.4639882626921414
sg158
g162
sbag1
(g144
g3
NtRp170
(dp171
g154
F3.0275351566499449
sg155
g165
sg148
I6
sg157
F10.248539232470595
sg158
g162
sbag1
(g144
g3
NtRp172
(dp173
g154
F-1.1813027301203876
sg155
g165
sg148
I7
sg157
F10.369774705465339
sg158
g162
sbag1
(g144
g3
NtRp174
(dp175
g154
F-4.3327968100969967
sg155
g165
sg148
I8
sg157
F4.361214069426298
sg158
g162
sbag1
(g144
g3
NtRp176
(dp177
g154
F2.4527131490198117
sg155
g165
sg148
I9
sg157
F3.019380709554663
sg158
g162
sbag1
(g144
g3
NtRp178
(dp179
g154
F0.35760847913535421
sg155
g165
sg148
I10
sg157
F4.1182148180283651
sg158
g162
sbag1
(g144
g3
NtRp180
(dp181
g154
F-0.66234599476365741
sg155
g165
sg148
I11
sg157
F6.8118566173112409
sg158
g162
sbag1
(g144
g3
NtRp182
(dp183
g154
F1.3872678968258518
sg155
g165
sg148
I12
sg157
F6.3193830580392927
sg158
g162
sbag1
(g144
g3
NtRp184
(dp185
g154
I0
sg155
g165
sg148
I13
sg157
F5.7718430216554184
sg158
g162
sbasb.