ccopy_reg
_reconstructor
p1
(cneat.chromosome
Chromosome
p2
c__builtin__
object
p3
NtRp4
(dp5
S'species_id'
p6
I113
sS'_connection_genes'
p7
(dp8
(I5
I9
tp9
g1
(cneat.genome
ConnectionGene
p10
g3
NtRp11
(dp12
S'_ConnectionGene__weight'
p13
F1.0091119235415522
sS'_ConnectionGene__in'
p14
I5
sS'_ConnectionGene__enabled'
p15
I00
sS'_ConnectionGene__out'
p16
I9
sS'_ConnectionGene__innov_number'
p17
I100
sbs(I1
I3
tp18
g1
(g10
g3
NtRp19
(dp20
g13
F-13.987974674862441
sg14
I1
sg15
I01
sg16
I3
sg17
I3
sbs(I7
I3
tp21
g1
(g10
g3
NtRp22
(dp23
g13
F28.078515608381259
sg14
I7
sg15
I01
sg16
I3
sg17
I36
sbs(I16
I9
tp24
g1
(g10
g3
NtRp25
(dp26
g13
F1.0091119235415522
sg14
I16
sg15
I01
sg16
I9
sg17
I236
sbs(I11
I2
tp27
g1
(g10
g3
NtRp28
(dp29
g13
F22.91223378451399
sg14
I11
sg15
I01
sg16
I2
sg17
I89
sbs(I5
I4
tp30
g1
(g10
g3
NtRp31
(dp32
g13
F14.345161290003428
sg14
I5
sg15
I01
sg16
I4
sg17
I13
sbs(I9
I2
tp33
g1
(g10
g3
NtRp34
(dp35
g13
F-10.601132619980552
sg14
I9
sg15
I01
sg16
I2
sg17
I48
sbs(I10
I15
tp36
g1
(g10
g3
NtRp37
(dp38
g13
F4.6903609422357242
sg14
I10
sg15
I01
sg16
I15
sg17
I169
sbs(I13
I8
tp39
g1
(g10
g3
NtRp40
(dp41
g13
F-7.3627591445954597
sg14
I13
sg15
I01
sg16
I8
sg17
I177
sbs(I6
I12
tp42
g1
(g10
g3
NtRp43
(dp44
g13
F1.2594420972910001
sg14
I6
sg15
I01
sg16
I12
sg17
I288
sbs(I3
I7
tp45
g1
(g10
g3
NtRp46
(dp47
g13
F-7.8458300740429001
sg14
I3
sg15
I01
sg16
I7
sg17
I49
sbs(I15
I5
tp48
g1
(g10
g3
NtRp49
(dp50
g13
F-11.869651314901123
sg14
I15
sg15
I01
sg16
I5
sg17
I147
sbs(I5
I8
tp51
g1
(g10
g3
NtRp52
(dp53
g13
F9.0472919022175979
sg14
I5
sg15
I01
sg16
I8
sg17
I45
sbs(I1
I2
tp54
g1
(g10
g3
NtRp55
(dp56
g13
F-19.585970728664407
sg14
I1
sg15
I01
sg16
I2
sg17
I1
sbs(I10
I8
tp57
g1
(g10
g3
NtRp58
(dp59
g13
F5.9444864228849994
sg14
I10
sg15
I01
sg16
I8
sg17
I164
sbs(I1
I11
tp60
g1
(g10
g3
NtRp61
(dp62
g13
F-7.3874520548702662
sg14
I1
sg15
I01
sg16
I11
sg17
I88
sbs(I4
I9
tp63
g1
(g10
g3
NtRp64
(dp65
g13
F-7.865355392278035
sg14
I4
sg15
I01
sg16
I9
sg17
I57
sbs(I3
I3
tp66
g1
(g10
g3
NtRp67
(dp68
g13
F8.2257903409703896
sg14
I3
sg15
I01
sg16
I3
sg17
I8
sbs(I2
I9
tp69
g1
(g10
g3
NtRp70
(dp71
g13
F-6.1848507113097195
sg14
I2
sg15
I00
sg16
I9
sg17
I144
sbs(I13
I3
tp72
g1
(g10
g3
NtRp73
(dp74
g13
F26.669401085919404
sg14
I13
sg15
I00
sg16
I3
sg17
I117
sbs(I3
I10
tp75
g1
(g10
g3
NtRp76
(dp77
g13
F-26.528064288806746
sg14
I3
sg15
I01
sg16
I10
sg17
I76
sbs(I4
I4
tp78
g1
(g10
g3
NtRp79
(dp80
g13
F0.52263371757218469
sg14
I4
sg15
I01
sg16
I4
sg17
I11
sbs(I10
I12
tp81
g1
(g10
g3
NtRp82
(dp83
g13
F-12.224532670860869
sg14
I10
sg15
I01
sg16
I12
sg17
I111
sbs(I4
I8
tp84
g1
(g10
g3
NtRp85
(dp86
g13
F-1.9943790013463587
sg14
I4
sg15
I01
sg16
I8
sg17
I38
sbs(I2
I13
tp87
g1
(g10
g3
NtRp88
(dp89
g13
F3.0184887062797285
sg14
I2
sg15
I01
sg16
I13
sg17
I176
sbs(I6
I5
tp90
g1
(g10
g3
NtRp91
(dp92
g13
F-28.967840071965728
sg14
I6
sg15
I01
sg16
I5
sg17
I28
sbs(I3
I6
tp93
g1
(g10
g3
NtRp94
(dp95
g13
F-0.83342324479176511
sg14
I3
sg15
I01
sg16
I6
sg17
I22
sbs(I2
I2
tp96
g1
(g10
g3
NtRp97
(dp98
g13
F19.04000212155422
sg14
I2
sg15
I01
sg16
I2
sg17
I2
sbs(I5
I3
tp99
g1
(g10
g3
NtRp100
(dp101
g13
F11.840274995924547
sg14
I5
sg15
I01
sg16
I3
sg17
I15
sbs(I3
I2
tp102
g1
(g10
g3
NtRp103
(dp104
g13
F7.1210640985573184
sg14
I3
sg15
I01
sg16
I2
sg17
I4
sbs(I6
I6
tp105
g1
(g10
g3
NtRp106
(dp107
g13
F-4.4630376667425278
sg14
I6
sg15
I01
sg16
I6
sg17
I37
sbs(I5
I11
tp108
g1
(g10
g3
NtRp109
(dp110
g13
F16.390578100101688
sg14
I5
sg15
I01
sg16
I11
sg17
I90
sbs(I9
I3
tp111
g1
(g10
g3
NtRp112
(dp113
g13
F-28.304427688192391
sg14
I9
sg15
I01
sg16
I3
sg17
I60
sbs(I2
I3
tp114
g1
(g10
g3
NtRp115
(dp116
g13
F16.37203412027641
sg14
I2
sg15
I01
sg16
I3
sg17
I5
sbs(I1
I9
tp117
g1
(g10
g3
NtRp118
(dp119
g13
F24.737266676349495
sg14
I1
sg15
I01
sg16
I9
sg17
I47
sbs(I4
I2
tp120
g1
(g10
g3
NtRp121
(dp122
g13
F-0.82784787692712491
sg14
I4
sg15
I01
sg16
I2
sg17
I7
sbs(I4
I11
tp123
g1
(g10
g3
NtRp124
(dp125
g13
F-10.508669598200074
sg14
I4
sg15
I01
sg16
I11
sg17
I86
sbs(I3
I5
tp126
g1
(g10
g3
NtRp127
(dp128
g13
F30
sg14
I3
sg15
I01
sg16
I5
sg17
I12
sbs(I10
I5
tp129
g1
(g10
g3
NtRp130
(dp131
g13
F2.6346949118843743
sg14
I10
sg15
I01
sg16
I5
sg17
I79
sbs(I12
I2
tp132
g1
(g10
g3
NtRp133
(dp134
g13
F16.774930116447184
sg14
I12
sg15
I01
sg16
I2
sg17
I104
sbs(I5
I16
tp135
g1
(g10
g3
NtRp136
(dp137
g13
F1
sg14
I5
sg15
I01
sg16
I16
sg17
I187
sbs(I11
I8
tp138
g1
(g10
g3
NtRp139
(dp140
g13
F-17.106941481138627
sg14
I11
sg15
I01
sg16
I8
sg17
I91
sbs(I9
I9
tp141
g1
(g10
g3
NtRp142
(dp143
g13
F5.0371061093087892
sg14
I9
sg15
I01
sg16
I9
sg17
I73
sbs(I13
I14
tp144
g1
(g10
g3
NtRp145
(dp146
g13
F2.187799883374776
sg14
I13
sg15
I01
sg16
I14
sg17
I189
sbs(I12
I4
tp147
g1
(g10
g3
NtRp148
(dp149
g13
F-1.1157023752779285
sg14
I12
sg15
I01
sg16
I4
sg17
I115
sbs(I4
I3
tp150
g1
(g10
g3
NtRp151
(dp152
g13
F-17.082822990594345
sg14
I4
sg15
I01
sg16
I3
sg17
I10
sbs(I14
I3
tp153
g1
(g10
g3
NtRp154
(dp155
g13
F29.886290065431098
sg14
I14
sg15
I01
sg16
I3
sg17
I132
sbs(I10
I2
tp156
g1
(g10
g3
NtRp157
(dp158
g13
F23.937841536490502
sg14
I10
sg15
I01
sg16
I2
sg17
I66
sbs(I5
I2
tp159
g1
(g10
g3
NtRp160
(dp161
g13
F7.2003062660737163
sg14
I5
sg15
I01
sg16
I2
sg17
I21
sbs(I2
I4
tp162
g1
(g10
g3
NtRp163
(dp164
g13
F11.414631636132427
sg14
I2
sg15
I01
sg16
I4
sg17
I16
sbs(I8
I4
tp165
g1
(g10
g3
NtRp166
(dp167
g13
F-1.5767651840638095
sg14
I8
sg15
I01
sg16
I4
sg17
I41
sbssS'_input_nodes'
p168
I1
sS'_output_nodes'
p169
I1
sS'_node_gene_type'
p170
cneat.genome
NodeGene
p171
sS'_conn_gene_type'
p172
g10
sS'fitness'
p173
F0.99932046660122875
sS'parent2_id'
p174
I16417
sS'_id'
p175
I16465
sS'parent1_id'
p176
I16417
sS'_node_genes'
p177
(lp178
g1
(g171
g3
NtRp179
(dp180
S'_bias'
p181
I0
sS'_type'
p182
S'INPUT'
p183
sg175
I1
sS'_response'
p184
F4.9242730000000003
sS'_activation_type'
p185
Nsbag1
(g171
g3
NtRp186
(dp187
g181
F-0.93594544952491177
sg182
S'OUTPUT'
p188
sg175
I2
sg184
F3.9774872093280367
sg185
S'tanh'
p189
sbag1
(g171
g3
NtRp190
(dp191
g181
F-3.9924491062817999
sg182
S'HIDDEN'
p192
sg175
I3
sg184
F4.8173733772069136
sg185
g189
sbag1
(g171
g3
NtRp193
(dp194
g181
F3.1749704732722481
sg182
g192
sg175
I4
sg184
F4.5475680346249732
sg185
g189
sbag1
(g171
g3
NtRp195
(dp196
g181
F-2.8745332536124883
sg182
g192
sg175
I5
sg184
F6.315234297351318
sg185
g189
sbag1
(g171
g3
NtRp197
(dp198
g181
F1.856736739443585
sg182
g192
sg175
I6
sg184
F9.2249871473902623
sg185
g189
sbag1
(g171
g3
NtRp199
(dp200
g181
F-2.7364663614849238
sg182
g192
sg175
I7
sg184
F13.417157940449128
sg185
g189
sbag1
(g171
g3
NtRp201
(dp202
g181
F-6.6744285822961205
sg182
g192
sg175
I8
sg184
F3.3799198118098932
sg185
g189
sbag1
(g171
g3
NtRp203
(dp204
g181
F4.3645495117737578
sg182
g192
sg175
I9
sg184
F6.2300033790555895
sg185
g189
sbag1
(g171
g3
NtRp205
(dp206
g181
F-1.6304106265343381
sg182
g192
sg175
I10
sg184
F5.5340859110295391
sg185
g189
sbag1
(g171
g3
NtRp207
(dp208
g181
F-0.894826408549656
sg182
g192
sg175
I11
sg184
F6.0664635254658199
sg185
g189
sbag1
(g171
g3
NtRp209
(dp210
g181
F-0.63392059985467897
sg182
g192
sg175
I12
sg184
F9.9122788673513345
sg185
g189
sbag1
(g171
g3
NtRp211
(dp212
g181
F0.16589120758456549
sg182
g192
sg175
I13
sg184
F6.4201244411785794
sg185
g189
sbag1
(g171
g3
NtRp213
(dp214
g181
F0.41959780734269919
sg182
g192
sg175
I14
sg184
F2.1755626030339874
sg185
g189
sbag1
(g171
g3
NtRp215
(dp216
g181
I0
sg182
g192
sg175
I15
sg184
F4.3471074564866194
sg185
g189
sbag1
(g171
g3
NtRp217
(dp218
g181
I0
sg182
g192
sg175
I16
sg184
F4.9242730000000003
sg185
g189
sbasb.