ccopy_reg
_reconstructor
p1
(cneat.chromosome
Chromosome
p2
c__builtin__
object
p3
NtRp4
(dp5
S'species_id'
p6
I65
sS'_connection_genes'
p7
(dp8
(I1
I3
tp9
g1
(cneat.genome
ConnectionGene
p10
g3
NtRp11
(dp12
S'_ConnectionGene__weight'
p13
F2.9076094991492032
sS'_ConnectionGene__in'
p14
I1
sS'_ConnectionGene__enabled'
p15
I01
sS'_ConnectionGene__out'
p16
I3
sS'_ConnectionGene__innov_number'
p17
I3
sbs(I5
I6
tp18
g1
(g10
g3
NtRp19
(dp20
g13
F0.83046281059000959
sg14
I5
sg15
I01
sg16
I6
sg17
I25
sbs(I11
I2
tp21
g1
(g10
g3
NtRp22
(dp23
g13
F0.0080784601592411298
sg14
I11
sg15
I01
sg16
I2
sg17
I89
sbs(I8
I9
tp24
g1
(g10
g3
NtRp25
(dp26
g13
F7.3208733724928994
sg14
I8
sg15
I01
sg16
I9
sg17
I61
sbs(I6
I2
tp27
g1
(g10
g3
NtRp28
(dp29
g13
F-9.1168379792747771
sg14
I6
sg15
I00
sg16
I2
sg17
I18
sbs(I3
I7
tp30
g1
(g10
g3
NtRp31
(dp32
g13
F-4.2386287229850605
sg14
I3
sg15
I01
sg16
I7
sg17
I49
sbs(I7
I2
tp33
g1
(g10
g3
NtRp34
(dp35
g13
F-1.2193847181970967
sg14
I7
sg15
I01
sg16
I2
sg17
I31
sbs(I6
I14
tp36
g1
(g10
g3
NtRp37
(dp38
g13
F-8.4051603477737835
sg14
I6
sg15
I01
sg16
I14
sg17
I165
sbs(I1
I2
tp39
g1
(g10
g3
NtRp40
(dp41
g13
F-24.852337246915223
sg14
I1
sg15
I01
sg16
I2
sg17
I1
sbs(I12
I2
tp42
g1
(g10
g3
NtRp43
(dp44
g13
F6.2755338305684321
sg14
I12
sg15
I01
sg16
I2
sg17
I104
sbs(I3
I3
tp45
g1
(g10
g3
NtRp46
(dp47
g13
F27.799419322207669
sg14
I3
sg15
I00
sg16
I3
sg17
I8
sbs(I13
I3
tp48
g1
(g10
g3
NtRp49
(dp50
g13
F6.9038443134657816
sg14
I13
sg15
I01
sg16
I3
sg17
I117
sbs(I4
I13
tp51
g1
(g10
g3
NtRp52
(dp53
g13
F10.771455076558667
sg14
I4
sg15
I01
sg16
I13
sg17
I129
sbs(I5
I8
tp54
g1
(g10
g3
NtRp55
(dp56
g13
F-3.0321132585541797
sg14
I5
sg15
I01
sg16
I8
sg17
I45
sbs(I12
I10
tp57
g1
(g10
g3
NtRp58
(dp59
g13
F-1.5295619618052347
sg14
I12
sg15
I01
sg16
I10
sg17
I128
sbs(I3
I5
tp60
g1
(g10
g3
NtRp61
(dp62
g13
F22.199534597761254
sg14
I3
sg15
I01
sg16
I5
sg17
I12
sbs(I12
I3
tp63
g1
(g10
g3
NtRp64
(dp65
g13
F4.0701697622450101
sg14
I12
sg15
I01
sg16
I3
sg17
I106
sbs(I3
I2
tp66
g1
(g10
g3
NtRp67
(dp68
g13
F-15.559292201447644
sg14
I3
sg15
I01
sg16
I2
sg17
I4
sbs(I8
I2
tp69
g1
(g10
g3
NtRp70
(dp71
g13
F-25.756986793619426
sg14
I8
sg15
I01
sg16
I2
sg17
I46
sbs(I8
I11
tp72
g1
(g10
g3
NtRp73
(dp74
g13
F18.69680729988071
sg14
I8
sg15
I01
sg16
I11
sg17
I98
sbs(I9
I3
tp75
g1
(g10
g3
NtRp76
(dp77
g13
F-2.7181869619752588
sg14
I9
sg15
I01
sg16
I3
sg17
I60
sbs(I1
I4
tp78
g1
(g10
g3
NtRp79
(dp80
g13
F2.1365710846976107
sg14
I1
sg15
I01
sg16
I4
sg17
I6
sbs(I2
I10
tp81
g1
(g10
g3
NtRp82
(dp83
g13
F5.1934649237198443
sg14
I2
sg15
I01
sg16
I10
sg17
I69
sbs(I7
I5
tp84
g1
(g10
g3
NtRp85
(dp86
g13
F-2.3605185515245486
sg14
I7
sg15
I01
sg16
I5
sg17
I50
sbs(I5
I10
tp87
g1
(g10
g3
NtRp88
(dp89
g13
F-6.1079658859360233
sg14
I5
sg15
I01
sg16
I10
sg17
I67
sbs(I14
I2
tp90
g1
(g10
g3
NtRp91
(dp92
g13
F-10.59274255605764
sg14
I14
sg15
I01
sg16
I2
sg17
I125
sbs(I5
I3
tp93
g1
(g10
g3
NtRp94
(dp95
g13
F11.779513964710803
sg14
I5
sg15
I01
sg16
I3
sg17
I15
sbs(I8
I3
tp96
g1
(g10
g3
NtRp97
(dp98
g13
F-16.311449783965038
sg14
I8
sg15
I01
sg16
I3
sg17
I39
sbs(I3
I12
tp99
g1
(g10
g3
NtRp100
(dp101
g13
F10.887860211872223
sg14
I3
sg15
I01
sg16
I12
sg17
I105
sbs(I13
I5
tp102
g1
(g10
g3
NtRp103
(dp104
g13
F-4.9716176045473688
sg14
I13
sg15
I01
sg16
I5
sg17
I114
sbs(I4
I3
tp105
g1
(g10
g3
NtRp106
(dp107
g13
F9.363032049727531
sg14
I4
sg15
I01
sg16
I3
sg17
I10
sbs(I5
I2
tp108
g1
(g10
g3
NtRp109
(dp110
g13
F-15.971291455244092
sg14
I5
sg15
I01
sg16
I2
sg17
I21
sbs(I2
I4
tp111
g1
(g10
g3
NtRp112
(dp113
g13
F-23.243077734737888
sg14
I2
sg15
I01
sg16
I4
sg17
I16
sbs(I10
I2
tp114
g1
(g10
g3
NtRp115
(dp116
g13
F-23.17284231256555
sg14
I10
sg15
I01
sg16
I2
sg17
I66
sbssS'_input_nodes'
p117
I1
sS'_output_nodes'
p118
I1
sS'_node_gene_type'
p119
cneat.genome
NodeGene
p120
sS'_conn_gene_type'
p121
g10
sS'fitness'
p122
F0.98060319422466069
sS'parent2_id'
p123
I10688
sS'_id'
p124
I10817
sS'parent1_id'
p125
I10731
sS'_node_genes'
p126
(lp127
g1
(g120
g3
NtRp128
(dp129
S'_bias'
p130
I0
sS'_type'
p131
S'INPUT'
p132
sg124
I1
sS'_response'
p133
F4.9242730000000003
sS'_activation_type'
p134
Nsbag1
(g120
g3
NtRp135
(dp136
g130
F-1.0935712460906166
sg131
S'OUTPUT'
p137
sg124
I2
sg133
F5.3585164844988915
sg134
S'tanh'
p138
sbag1
(g120
g3
NtRp139
(dp140
g130
F0.45051921271331552
sg131
S'HIDDEN'
p141
sg124
I3
sg133
F-1.6694090394406487
sg134
g138
sbag1
(g120
g3
NtRp142
(dp143
g130
F-4.502857352748407
sg131
g141
sg124
I4
sg133
F6.5442133296295264
sg134
g138
sbag1
(g120
g3
NtRp144
(dp145
g130
F0.9106960206884035
sg131
g141
sg124
I5
sg133
F1.9583100278225791
sg134
g138
sbag1
(g120
g3
NtRp146
(dp147
g130
F-0.11734910218306727
sg131
g141
sg124
I6
sg133
F1.2095414691870081
sg134
g138
sbag1
(g120
g3
NtRp148
(dp149
g130
F-4.1122694986798631
sg131
g141
sg124
I7
sg133
F3.1576402136501152
sg134
g138
sbag1
(g120
g3
NtRp150
(dp151
g130
F2.6663059074386237
sg131
g141
sg124
I8
sg133
F5.2951903514860819
sg134
g138
sbag1
(g120
g3
NtRp152
(dp153
g130
F1.1976343797156299
sg131
g141
sg124
I9
sg133
F5.6077510936800294
sg134
g138
sbag1
(g120
g3
NtRp154
(dp155
g130
F-1.4565999488788317
sg131
g141
sg124
I10
sg133
F6.7194214426055918
sg134
g138
sbag1
(g120
g3
NtRp156
(dp157
g130
F-0.74850804612274668
sg131
g141
sg124
I11
sg133
F3.6450469382630035
sg134
g138
sbag1
(g120
g3
NtRp158
(dp159
g130
F-0.51573222833122034
sg131
g141
sg124
I12
sg133
F6.044599422625839
sg134
g138
sbag1
(g120
g3
NtRp160
(dp161
g130
F1.4614769740174023
sg131
g141
sg124
I13
sg133
F4.9657234593868766
sg134
g138
sbag1
(g120
g3
NtRp162
(dp163
g130
F-0.049081294374929307
sg131
g141
sg124
I14
sg133
F5.7893229122160044
sg134
g138
sbasb.