ccopy_reg
_reconstructor
p1
(cneat.chromosome
Chromosome
p2
c__builtin__
object
p3
NtRp4
(dp5
S'species_id'
p6
I63
sS'_connection_genes'
p7
(dp8
(I1
I3
tp9
g1
(cneat.genome
ConnectionGene
p10
g3
NtRp11
(dp12
S'_ConnectionGene__weight'
p13
F15.591428668387318
sS'_ConnectionGene__in'
p14
I1
sS'_ConnectionGene__enabled'
p15
I01
sS'_ConnectionGene__out'
p16
I3
sS'_ConnectionGene__innov_number'
p17
I3
sbs(I5
I6
tp18
g1
(g10
g3
NtRp19
(dp20
g13
F-13.352434665533671
sg14
I5
sg15
I01
sg16
I6
sg17
I25
sbs(I11
I2
tp21
g1
(g10
g3
NtRp22
(dp23
g13
F-23.994587086870538
sg14
I11
sg15
I01
sg16
I2
sg17
I89
sbs(I8
I9
tp24
g1
(g10
g3
NtRp25
(dp26
g13
F3.7986107525823587
sg14
I8
sg15
I01
sg16
I9
sg17
I61
sbs(I6
I2
tp27
g1
(g10
g3
NtRp28
(dp29
g13
F-1.4907466645601821
sg14
I6
sg15
I01
sg16
I2
sg17
I18
sbs(I3
I7
tp30
g1
(g10
g3
NtRp31
(dp32
g13
F-15.349239206484084
sg14
I3
sg15
I01
sg16
I7
sg17
I49
sbs(I5
I8
tp33
g1
(g10
g3
NtRp34
(dp35
g13
F-12.439401816749232
sg14
I5
sg15
I01
sg16
I8
sg17
I45
sbs(I1
I2
tp36
g1
(g10
g3
NtRp37
(dp38
g13
F-12.211656682930498
sg14
I1
sg15
I01
sg16
I2
sg17
I1
sbs(I11
I10
tp39
g1
(g10
g3
NtRp40
(dp41
g13
F-0.48023623490810485
sg14
I11
sg15
I01
sg16
I10
sg17
I126
sbs(I3
I3
tp42
g1
(g10
g3
NtRp43
(dp44
g13
F27.648407403143349
sg14
I3
sg15
I00
sg16
I3
sg17
I8
sbs(I8
I10
tp45
g1
(g10
g3
NtRp46
(dp47
g13
F5.7659689194964763
sg14
I8
sg15
I01
sg16
I10
sg17
I65
sbs(I13
I7
tp48
g1
(g10
g3
NtRp49
(dp50
g13
F-5.2553224150562059
sg14
I13
sg15
I01
sg16
I7
sg17
I108
sbs(I7
I2
tp51
g1
(g10
g3
NtRp52
(dp53
g13
F-22.144414172203689
sg14
I7
sg15
I01
sg16
I2
sg17
I31
sbs(I5
I3
tp54
g1
(g10
g3
NtRp55
(dp56
g13
F14.076649754163487
sg14
I5
sg15
I01
sg16
I3
sg17
I15
sbs(I12
I3
tp57
g1
(g10
g3
NtRp58
(dp59
g13
F17.200843590268196
sg14
I12
sg15
I01
sg16
I3
sg17
I106
sbs(I3
I2
tp60
g1
(g10
g3
NtRp61
(dp62
g13
F-13.711836334421672
sg14
I3
sg15
I01
sg16
I2
sg17
I4
sbs(I8
I2
tp63
g1
(g10
g3
NtRp64
(dp65
g13
F-20.445260664738132
sg14
I8
sg15
I01
sg16
I2
sg17
I46
sbs(I3
I13
tp66
g1
(g10
g3
NtRp67
(dp68
g13
F-5.7018824255005285
sg14
I3
sg15
I01
sg16
I13
sg17
I107
sbs(I8
I11
tp69
g1
(g10
g3
NtRp70
(dp71
g13
F16.689678795137844
sg14
I8
sg15
I01
sg16
I11
sg17
I98
sbs(I9
I3
tp72
g1
(g10
g3
NtRp73
(dp74
g13
F-12.516272690534942
sg14
I9
sg15
I01
sg16
I3
sg17
I60
sbs(I1
I4
tp75
g1
(g10
g3
NtRp76
(dp77
g13
F-0.63314346955375145
sg14
I1
sg15
I01
sg16
I4
sg17
I6
sbs(I2
I10
tp78
g1
(g10
g3
NtRp79
(dp80
g13
F-6.8725902270745296
sg14
I2
sg15
I01
sg16
I10
sg17
I69
sbs(I7
I5
tp81
g1
(g10
g3
NtRp82
(dp83
g13
F2.2493207373498283
sg14
I7
sg15
I01
sg16
I5
sg17
I50
sbs(I12
I11
tp84
g1
(g10
g3
NtRp85
(dp86
g13
F-6.3237545124741832
sg14
I12
sg15
I01
sg16
I11
sg17
I140
sbs(I3
I12
tp87
g1
(g10
g3
NtRp88
(dp89
g13
F10.343132469636627
sg14
I3
sg15
I01
sg16
I12
sg17
I105
sbs(I3
I5
tp90
g1
(g10
g3
NtRp91
(dp92
g13
F16.641198678245946
sg14
I3
sg15
I01
sg16
I5
sg17
I12
sbs(I8
I3
tp93
g1
(g10
g3
NtRp94
(dp95
g13
F-0.14513653808346638
sg14
I8
sg15
I01
sg16
I3
sg17
I39
sbs(I5
I10
tp96
g1
(g10
g3
NtRp97
(dp98
g13
F-2.4674954567215779
sg14
I5
sg15
I01
sg16
I10
sg17
I67
sbs(I11
I3
tp99
g1
(g10
g3
NtRp100
(dp101
g13
F8.4533441255683677
sg14
I11
sg15
I01
sg16
I3
sg17
I97
sbs(I4
I3
tp102
g1
(g10
g3
NtRp103
(dp104
g13
F25.314243715024794
sg14
I4
sg15
I01
sg16
I3
sg17
I10
sbs(I5
I2
tp105
g1
(g10
g3
NtRp106
(dp107
g13
F-23.94039017696922
sg14
I5
sg15
I01
sg16
I2
sg17
I21
sbs(I2
I4
tp108
g1
(g10
g3
NtRp109
(dp110
g13
F-13.352292238124646
sg14
I2
sg15
I01
sg16
I4
sg17
I16
sbs(I10
I2
tp111
g1
(g10
g3
NtRp112
(dp113
g13
F-30
sg14
I10
sg15
I01
sg16
I2
sg17
I66
sbssS'_input_nodes'
p114
I1
sS'_output_nodes'
p115
I1
sS'_node_gene_type'
p116
cneat.genome
NodeGene
p117
sS'_conn_gene_type'
p118
g10
sS'fitness'
p119
F0.98509606170453645
sS'parent2_id'
p120
I9543
sS'_id'
p121
I9590
sS'parent1_id'
p122
I9543
sS'_node_genes'
p123
(lp124
g1
(g117
g3
NtRp125
(dp126
S'_bias'
p127
I0
sS'_type'
p128
S'INPUT'
p129
sg121
I1
sS'_response'
p130
F4.9242730000000003
sS'_activation_type'
p131
Nsbag1
(g117
g3
NtRp132
(dp133
g127
F-1.7554821777798748
sg128
S'OUTPUT'
p134
sg121
I2
sg130
F5.7155499245129331
sg131
S'tanh'
p135
sbag1
(g117
g3
NtRp136
(dp137
g127
F0.82923134895031292
sg128
S'HIDDEN'
p138
sg121
I3
sg130
F-2.2679907328658335
sg131
g135
sbag1
(g117
g3
NtRp139
(dp140
g127
F-1.6556808786153299
sg128
g138
sg121
I4
sg130
F9.8449818280549728
sg131
g135
sbag1
(g117
g3
NtRp141
(dp142
g127
F-0.39127726149827713
sg128
g138
sg121
I5
sg130
F6.7622037048645387
sg131
g135
sbag1
(g117
g3
NtRp143
(dp144
g127
F-0.92938679708990124
sg128
g138
sg121
I6
sg130
F0.8483913264054842
sg131
g135
sbag1
(g117
g3
NtRp145
(dp146
g127
F-3.575023437502356
sg128
g138
sg121
I7
sg130
F1.3058193100805355
sg131
g135
sbag1
(g117
g3
NtRp147
(dp148
g127
F3.2363652899979778
sg128
g138
sg121
I8
sg130
F5.1996233349768071
sg131
g135
sbag1
(g117
g3
NtRp149
(dp150
g127
F2.4112957827856265
sg128
g138
sg121
I9
sg130
F5.8373551016609975
sg131
g135
sbag1
(g117
g3
NtRp151
(dp152
g127
F-0.53243655074787621
sg128
g138
sg121
I10
sg130
F3.3860334640892038
sg131
g135
sbag1
(g117
g3
NtRp153
(dp154
g127
F-0.21798714794394058
sg128
g138
sg121
I11
sg130
F6.7066300037073594
sg131
g135
sbag1
(g117
g3
NtRp155
(dp156
g127
F-1.1291336128298599
sg128
g138
sg121
I12
sg130
F6.5244108937565617
sg131
g135
sbag1
(g117
g3
NtRp157
(dp158
g127
F-1.2831754039496954
sg128
g138
sg121
I13
sg130
F4.6221415961689933
sg131
g135
sbasb.