ccopy_reg
_reconstructor
p1
(cneat.chromosome
Chromosome
p2
c__builtin__
object
p3
NtRp4
(dp5
S'species_id'
p6
I37
sS'_connection_genes'
p7
(dp8
(I1
I2
tp9
g1
(cneat.genome
ConnectionGene
p10
g3
NtRp11
(dp12
S'_ConnectionGene__weight'
p13
F-8.9964874455408452
sS'_ConnectionGene__in'
p14
I1
sS'_ConnectionGene__enabled'
p15
I01
sS'_ConnectionGene__out'
p16
I2
sS'_ConnectionGene__innov_number'
p17
I1
sbs(I3
I2
tp18
g1
(g10
g3
NtRp19
(dp20
g13
F8.8015646965195113
sg14
I3
sg15
I01
sg16
I2
sg17
I4
sbs(I1
I3
tp21
g1
(g10
g3
NtRp22
(dp23
g13
F25.594900449897818
sg14
I1
sg15
I00
sg16
I3
sg17
I3
sbs(I6
I7
tp24
g1
(g10
g3
NtRp25
(dp26
g13
F-0.13665004467200736
sg14
I6
sg15
I01
sg16
I7
sg17
I34
sbs(I3
I3
tp27
g1
(g10
g3
NtRp28
(dp29
g13
F27.590015578068968
sg14
I3
sg15
I01
sg16
I3
sg17
I8
sbs(I5
I6
tp30
g1
(g10
g3
NtRp31
(dp32
g13
F-0.42138053484538185
sg14
I5
sg15
I01
sg16
I6
sg17
I25
sbs(I1
I4
tp33
g1
(g10
g3
NtRp34
(dp35
g13
F8.0848193007278244
sg14
I1
sg15
I01
sg16
I4
sg17
I6
sbs(I8
I9
tp36
g1
(g10
g3
NtRp37
(dp38
g13
F0.13320096805764914
sg14
I8
sg15
I01
sg16
I9
sg17
I61
sbs(I9
I2
tp39
g1
(g10
g3
NtRp40
(dp41
g13
F-23.694543570938308
sg14
I9
sg15
I01
sg16
I2
sg17
I48
sbs(I6
I2
tp42
g1
(g10
g3
NtRp43
(dp44
g13
F11.965032554003864
sg14
I6
sg15
I00
sg16
I2
sg17
I18
sbs(I5
I3
tp45
g1
(g10
g3
NtRp46
(dp47
g13
F-0.78907143222914378
sg14
I5
sg15
I01
sg16
I3
sg17
I15
sbs(I7
I2
tp48
g1
(g10
g3
NtRp49
(dp50
g13
F5.0663835654475111
sg14
I7
sg15
I01
sg16
I2
sg17
I31
sbs(I4
I3
tp51
g1
(g10
g3
NtRp52
(dp53
g13
F15.553986160555631
sg14
I4
sg15
I01
sg16
I3
sg17
I10
sbs(I3
I5
tp54
g1
(g10
g3
NtRp55
(dp56
g13
F17.985080864030181
sg14
I3
sg15
I01
sg16
I5
sg17
I12
sbs(I5
I2
tp57
g1
(g10
g3
NtRp58
(dp59
g13
F-25.013249305959878
sg14
I5
sg15
I00
sg16
I2
sg17
I21
sbs(I2
I4
tp60
g1
(g10
g3
NtRp61
(dp62
g13
F1.2585164998361589
sg14
I2
sg15
I01
sg16
I4
sg17
I16
sbs(I5
I8
tp63
g1
(g10
g3
NtRp64
(dp65
g13
F0.69301015052839832
sg14
I5
sg15
I01
sg16
I8
sg17
I45
sbs(I8
I2
tp66
g1
(g10
g3
NtRp67
(dp68
g13
F-26.054902997824108
sg14
I8
sg15
I00
sg16
I2
sg17
I46
sbssS'_input_nodes'
p69
I1
sS'_output_nodes'
p70
I1
sS'_node_gene_type'
p71
cneat.genome
NodeGene
p72
sS'_conn_gene_type'
p73
g10
sS'fitness'
p74
F0.97981664382390954
sS'parent2_id'
p75
I5132
sS'_id'
p76
I5218
sS'parent1_id'
p77
I5132
sS'_node_genes'
p78
(lp79
g1
(g72
g3
NtRp80
(dp81
S'_bias'
p82
I0
sS'_type'
p83
S'INPUT'
p84
sg76
I1
sS'_response'
p85
F4.9242730000000003
sS'_activation_type'
p86
Nsbag1
(g72
g3
NtRp87
(dp88
g82
F-4.2824226199381759
sg83
S'OUTPUT'
p89
sg76
I2
sg85
F5.0732613581351904
sg86
S'tanh'
p90
sbag1
(g72
g3
NtRp91
(dp92
g82
F2.2275864960865457
sg83
S'HIDDEN'
p93
sg76
I3
sg85
F3.6445689746273291
sg86
g90
sbag1
(g72
g3
NtRp94
(dp95
g82
F1.8178092595666318
sg83
g93
sg76
I4
sg85
F9.1737419849559849
sg86
g90
sbag1
(g72
g3
NtRp96
(dp97
g82
F1.2289619578652144
sg83
g93
sg76
I5
sg85
F5.3346943470630457
sg86
g90
sbag1
(g72
g3
NtRp98
(dp99
g82
F0.30932335372368736
sg83
g93
sg76
I6
sg85
F3.830784010256953
sg86
g90
sbag1
(g72
g3
NtRp100
(dp101
g82
F0.73950108930329383
sg83
g93
sg76
I7
sg85
F4.9425302562842575
sg86
g90
sbag1
(g72
g3
NtRp102
(dp103
g82
F-0.30538435067367797
sg83
g93
sg76
I8
sg85
F5.0631138380702261
sg86
g90
sbag1
(g72
g3
NtRp104
(dp105
g82
F-0.13233007532829155
sg83
g93
sg76
I9
sg85
F5.4130152829341256
sg86
g90
sbasb.