ccopy_reg
_reconstructor
p1
(cneat.chromosome
Chromosome
p2
c__builtin__
object
p3
NtRp4
(dp5
S'species_id'
p6
I84
sS'_connection_genes'
p7
(dp8
(I7
I3
tp9
g1
(cneat.genome
ConnectionGene
p10
g3
NtRp11
(dp12
S'_ConnectionGene__weight'
p13
F21.786988981707267
sS'_ConnectionGene__in'
p14
I7
sS'_ConnectionGene__enabled'
p15
I01
sS'_ConnectionGene__out'
p16
I3
sS'_ConnectionGene__innov_number'
p17
I36
sbs(I6
I9
tp18
g1
(g10
g3
NtRp19
(dp20
g13
F-14.678531499627246
sg14
I6
sg15
I01
sg16
I9
sg17
I81
sbs(I1
I3
tp21
g1
(g10
g3
NtRp22
(dp23
g13
F3.454266736441344
sg14
I1
sg15
I01
sg16
I3
sg17
I3
sbs(I8
I13
tp24
g1
(g10
g3
NtRp25
(dp26
g13
F-7.9805065822800927
sg14
I8
sg15
I01
sg16
I13
sg17
I197
sbs(I5
I9
tp27
g1
(g10
g3
NtRp28
(dp29
g13
F5.2848474709984545
sg14
I5
sg15
I01
sg16
I9
sg17
I100
sbs(I13
I4
tp30
g1
(g10
g3
NtRp31
(dp32
g13
F0.38581869195624685
sg14
I13
sg15
I01
sg16
I4
sg17
I163
sbs(I5
I4
tp33
g1
(g10
g3
NtRp34
(dp35
g13
F5.2442037042740406
sg14
I5
sg15
I01
sg16
I4
sg17
I13
sbs(I3
I7
tp36
g1
(g10
g3
NtRp37
(dp38
g13
F5.8635543675353317
sg14
I3
sg15
I01
sg16
I7
sg17
I49
sbs(I12
I9
tp39
g1
(g10
g3
NtRp40
(dp41
g13
F6.6099097265101543
sg14
I12
sg15
I01
sg16
I9
sg17
I109
sbs(I1
I2
tp42
g1
(g10
g3
NtRp43
(dp44
g13
F-11.184795336322257
sg14
I1
sg15
I01
sg16
I2
sg17
I1
sbs(I4
I9
tp45
g1
(g10
g3
NtRp46
(dp47
g13
F25.029931369921798
sg14
I4
sg15
I01
sg16
I9
sg17
I57
sbs(I3
I3
tp48
g1
(g10
g3
NtRp49
(dp50
g13
F-19.801141110155466
sg14
I3
sg15
I01
sg16
I3
sg17
I8
sbs(I9
I15
tp51
g1
(g10
g3
NtRp52
(dp53
g13
F3.1968477163589881
sg14
I9
sg15
I01
sg16
I15
sg17
I219
sbs(I3
I10
tp54
g1
(g10
g3
NtRp55
(dp56
g13
F18.918569163122921
sg14
I3
sg15
I01
sg16
I10
sg17
I76
sbs(I6
I6
tp57
g1
(g10
g3
NtRp58
(dp59
g13
F-3.6550373649515993
sg14
I6
sg15
I01
sg16
I6
sg17
I37
sbs(I4
I4
tp60
g1
(g10
g3
NtRp61
(dp62
g13
F3.8228292214117623
sg14
I4
sg15
I01
sg16
I4
sg17
I11
sbs(I4
I8
tp63
g1
(g10
g3
NtRp64
(dp65
g13
F10.655260184299486
sg14
I4
sg15
I01
sg16
I8
sg17
I38
sbs(I6
I5
tp66
g1
(g10
g3
NtRp67
(dp68
g13
F-10.422183415283705
sg14
I6
sg15
I01
sg16
I5
sg17
I28
sbs(I3
I6
tp69
g1
(g10
g3
NtRp70
(dp71
g13
F-12.884041771419101
sg14
I3
sg15
I01
sg16
I6
sg17
I22
sbs(I15
I12
tp72
g1
(g10
g3
NtRp73
(dp74
g13
F3.1192329469086637
sg14
I15
sg15
I01
sg16
I12
sg17
I159
sbs(I3
I2
tp75
g1
(g10
g3
NtRp76
(dp77
g13
F28.431710451700535
sg14
I3
sg15
I00
sg16
I2
sg17
I4
sbs(I9
I3
tp78
g1
(g10
g3
NtRp79
(dp80
g13
F-2.9968976374419567
sg14
I9
sg15
I01
sg16
I3
sg17
I60
sbs(I2
I3
tp81
g1
(g10
g3
NtRp82
(dp83
g13
F-5.6332539554876799
sg14
I2
sg15
I01
sg16
I3
sg17
I5
sbs(I1
I9
tp84
g1
(g10
g3
NtRp85
(dp86
g13
F9.7372486120837642
sg14
I1
sg15
I01
sg16
I9
sg17
I47
sbs(I14
I2
tp87
g1
(g10
g3
NtRp88
(dp89
g13
F28.814289006442127
sg14
I14
sg15
I01
sg16
I2
sg17
I125
sbs(I4
I11
tp90
g1
(g10
g3
NtRp91
(dp92
g13
F2.0302100379493853
sg14
I4
sg15
I01
sg16
I11
sg17
I86
sbs(I3
I5
tp93
g1
(g10
g3
NtRp94
(dp95
g13
F15.79109374749153
sg14
I3
sg15
I01
sg16
I5
sg17
I12
sbs(I10
I5
tp96
g1
(g10
g3
NtRp97
(dp98
g13
F3.4989917404432105
sg14
I10
sg15
I01
sg16
I5
sg17
I79
sbs(I9
I2
tp99
g1
(g10
g3
NtRp100
(dp101
g13
F-3.0253798903819451
sg14
I9
sg15
I01
sg16
I2
sg17
I48
sbs(I9
I9
tp102
g1
(g10
g3
NtRp103
(dp104
g13
F-5.6607999361371668
sg14
I9
sg15
I00
sg16
I9
sg17
I73
sbs(I11
I8
tp105
g1
(g10
g3
NtRp106
(dp107
g13
F7.2202917078588928
sg14
I11
sg15
I01
sg16
I8
sg17
I91
sbs(I10
I14
tp108
g1
(g10
g3
NtRp109
(dp110
g13
F7.7149348948904084
sg14
I10
sg15
I01
sg16
I14
sg17
I145
sbs(I4
I3
tp111
g1
(g10
g3
NtRp112
(dp113
g13
F-0.41504042873126701
sg14
I4
sg15
I01
sg16
I3
sg17
I10
sbs(I10
I2
tp114
g1
(g10
g3
NtRp115
(dp116
g13
F25.924375771717081
sg14
I10
sg15
I00
sg16
I2
sg17
I66
sbs(I5
I2
tp117
g1
(g10
g3
NtRp118
(dp119
g13
F-7.0060022438660035
sg14
I5
sg15
I01
sg16
I2
sg17
I21
sbs(I2
I4
tp120
g1
(g10
g3
NtRp121
(dp122
g13
F30
sg14
I2
sg15
I01
sg16
I4
sg17
I16
sbs(I9
I12
tp123
g1
(g10
g3
NtRp124
(dp125
g13
F6.9360902690389299
sg14
I9
sg15
I00
sg16
I12
sg17
I127
sbs(I8
I4
tp126
g1
(g10
g3
NtRp127
(dp128
g13
F2.3572435518730313
sg14
I8
sg15
I00
sg16
I4
sg17
I41
sbssS'_input_nodes'
p129
I1
sS'_output_nodes'
p130
I1
sS'_node_gene_type'
p131
cneat.genome
NodeGene
p132
sS'_conn_gene_type'
p133
g10
sS'fitness'
p134
F0.97613631959379243
sS'parent2_id'
p135
I11791
sS'_id'
p136
I11837
sS'parent1_id'
p137
I11791
sS'_node_genes'
p138
(lp139
g1
(g132
g3
NtRp140
(dp141
S'_bias'
p142
I0
sS'_type'
p143
S'INPUT'
p144
sg136
I1
sS'_response'
p145
F4.9242730000000003
sS'_activation_type'
p146
Nsbag1
(g132
g3
NtRp147
(dp148
g142
F-0.65595704453101422
sg143
S'OUTPUT'
p149
sg136
I2
sg145
F5.8911625857151293
sg146
S'tanh'
p150
sbag1
(g132
g3
NtRp151
(dp152
g142
F-2.5843443231015213
sg143
S'HIDDEN'
p153
sg136
I3
sg145
F5.3172115113110658
sg146
g150
sbag1
(g132
g3
NtRp154
(dp155
g142
F4.4527026931442073
sg143
g153
sg136
I4
sg145
F0.68363561307541143
sg146
g150
sbag1
(g132
g3
NtRp156
(dp157
g142
F-0.66367176481709755
sg143
g153
sg136
I5
sg145
F7.6399778796748627
sg146
g150
sbag1
(g132
g3
NtRp158
(dp159
g142
F0.12731335023728962
sg143
g153
sg136
I6
sg145
F11.425663984195701
sg146
g150
sbag1
(g132
g3
NtRp160
(dp161
g142
F-2.0900035221742872
sg143
g153
sg136
I7
sg145
F9.8156031903774323
sg146
g150
sbag1
(g132
g3
NtRp162
(dp163
g142
F-1.2478167155798456
sg143
g153
sg136
I8
sg145
F2.7552148175963818
sg146
g150
sbag1
(g132
g3
NtRp164
(dp165
g142
F0.93900311429636063
sg143
g153
sg136
I9
sg145
F2.9860612382090461
sg146
g150
sbag1
(g132
g3
NtRp166
(dp167
g142
F4.2001602822374577
sg143
g153
sg136
I10
sg145
F2.6716338076104225
sg146
g150
sbag1
(g132
g3
NtRp168
(dp169
g142
F0.30381430900416728
sg143
g153
sg136
I11
sg145
F6.3494833578026757
sg146
g150
sbag1
(g132
g3
NtRp170
(dp171
g142
F-2.185755234057206
sg143
g153
sg136
I12
sg145
F3.9010496864566422
sg146
g150
sbag1
(g132
g3
NtRp172
(dp173
g142
F-0.7704827800271753
sg143
g153
sg136
I13
sg145
F5.1514562356409801
sg146
g150
sbag1
(g132
g3
NtRp174
(dp175
g142
F-0.3073486265904698
sg143
g153
sg136
I14
sg145
F4.9242730000000003
sg146
g150
sbag1
(g132
g3
NtRp176
(dp177
g142
I0
sg143
g153
sg136
I15
sg145
F4.9242730000000003
sg146
g150
sbasb.