ccopy_reg
_reconstructor
p1
(cneat.chromosome
Chromosome
p2
c__builtin__
object
p3
NtRp4
(dp5
S'species_id'
p6
I44
sS'_connection_genes'
p7
(dp8
(I1
I2
tp9
g1
(cneat.genome
ConnectionGene
p10
g3
NtRp11
(dp12
S'_ConnectionGene__weight'
p13
F-16.777529719720377
sS'_ConnectionGene__in'
p14
I1
sS'_ConnectionGene__enabled'
p15
I01
sS'_ConnectionGene__out'
p16
I2
sS'_ConnectionGene__innov_number'
p17
I1
sbs(I3
I2
tp18
g1
(g10
g3
NtRp19
(dp20
g13
F9.7207778997034016
sg14
I3
sg15
I01
sg16
I2
sg17
I4
sbs(I1
I3
tp21
g1
(g10
g3
NtRp22
(dp23
g13
F7.8010190907042363
sg14
I1
sg15
I01
sg16
I3
sg17
I3
sbs(I3
I3
tp24
g1
(g10
g3
NtRp25
(dp26
g13
F17.708366018236116
sg14
I3
sg15
I01
sg16
I3
sg17
I8
sbs(I5
I6
tp27
g1
(g10
g3
NtRp28
(dp29
g13
F-1.1088764449087134
sg14
I5
sg15
I01
sg16
I6
sg17
I25
sbs(I9
I3
tp30
g1
(g10
g3
NtRp31
(dp32
g13
F2.9974818809690023
sg14
I9
sg15
I01
sg16
I3
sg17
I60
sbs(I8
I3
tp33
g1
(g10
g3
NtRp34
(dp35
g13
F-10.419600347255022
sg14
I8
sg15
I00
sg16
I3
sg17
I39
sbs(I1
I4
tp36
g1
(g10
g3
NtRp37
(dp38
g13
F9.7299152072794541
sg14
I1
sg15
I01
sg16
I4
sg17
I6
sbs(I8
I9
tp39
g1
(g10
g3
NtRp40
(dp41
g13
F0.26817549259632711
sg14
I8
sg15
I01
sg16
I9
sg17
I61
sbs(I4
I5
tp42
g1
(g10
g3
NtRp43
(dp44
g13
F0.75685966134244254
sg14
I4
sg15
I01
sg16
I5
sg17
I20
sbs(I7
I5
tp45
g1
(g10
g3
NtRp46
(dp47
g13
F6.4059134313420785
sg14
I7
sg15
I01
sg16
I5
sg17
I50
sbs(I5
I3
tp48
g1
(g10
g3
NtRp49
(dp50
g13
F10.46749254852546
sg14
I5
sg15
I01
sg16
I3
sg17
I15
sbs(I7
I2
tp51
g1
(g10
g3
NtRp52
(dp53
g13
F-7.4253476493789545
sg14
I7
sg15
I01
sg16
I2
sg17
I31
sbs(I4
I3
tp54
g1
(g10
g3
NtRp55
(dp56
g13
F30
sg14
I4
sg15
I01
sg16
I3
sg17
I10
sbs(I6
I2
tp57
g1
(g10
g3
NtRp58
(dp59
g13
F5.6676361539677238
sg14
I6
sg15
I01
sg16
I2
sg17
I18
sbs(I3
I7
tp60
g1
(g10
g3
NtRp61
(dp62
g13
F-4.9328245100823054
sg14
I3
sg15
I01
sg16
I7
sg17
I49
sbs(I3
I5
tp63
g1
(g10
g3
NtRp64
(dp65
g13
F17.318792052203474
sg14
I3
sg15
I00
sg16
I5
sg17
I12
sbs(I5
I2
tp66
g1
(g10
g3
NtRp67
(dp68
g13
F-24.118978618338485
sg14
I5
sg15
I01
sg16
I2
sg17
I21
sbs(I2
I4
tp69
g1
(g10
g3
NtRp70
(dp71
g13
F-2.3322844392732298
sg14
I2
sg15
I01
sg16
I4
sg17
I16
sbs(I5
I8
tp72
g1
(g10
g3
NtRp73
(dp74
g13
F-2.6648940264664169
sg14
I5
sg15
I01
sg16
I8
sg17
I45
sbs(I8
I2
tp75
g1
(g10
g3
NtRp76
(dp77
g13
F-23.114649477596167
sg14
I8
sg15
I01
sg16
I2
sg17
I46
sbssS'_input_nodes'
p78
I1
sS'_output_nodes'
p79
I1
sS'_node_gene_type'
p80
cneat.genome
NodeGene
p81
sS'_conn_gene_type'
p82
g10
sS'fitness'
p83
F0.97477494436035161
sS'parent2_id'
p84
I6059
sS'_id'
p85
I6096
sS'parent1_id'
p86
I6059
sS'_node_genes'
p87
(lp88
g1
(g81
g3
NtRp89
(dp90
S'_bias'
p91
I0
sS'_type'
p92
S'INPUT'
p93
sg85
I1
sS'_response'
p94
F4.9242730000000003
sS'_activation_type'
p95
Nsbag1
(g81
g3
NtRp96
(dp97
g91
F-2.5160977850572248
sg92
S'OUTPUT'
p98
sg85
I2
sg94
F6.0414360951391659
sg95
S'tanh'
p99
sbag1
(g81
g3
NtRp100
(dp101
g91
F1.8685941814696445
sg92
S'HIDDEN'
p102
sg85
I3
sg94
F1.1586480335756626
sg95
g99
sbag1
(g81
g3
NtRp103
(dp104
g91
F-1.4972765366609861
sg92
g102
sg85
I4
sg94
F6.902805288612277
sg95
g99
sbag1
(g81
g3
NtRp105
(dp106
g91
F2.3154047782823772
sg92
g102
sg85
I5
sg94
F5.0541260081547907
sg95
g99
sbag1
(g81
g3
NtRp107
(dp108
g91
F0.30932335372368736
sg92
g102
sg85
I6
sg94
F4.3561672392356252
sg95
g99
sbag1
(g81
g3
NtRp109
(dp110
g91
F0.54884679692337057
sg92
g102
sg85
I7
sg94
F5.0437338833470253
sg95
g99
sbag1
(g81
g3
NtRp111
(dp112
g91
F2.458285504322876
sg92
g102
sg85
I8
sg94
F7.2096696957280226
sg95
g99
sbag1
(g81
g3
NtRp113
(dp114
g91
F0.66547257213322264
sg92
g102
sg85
I9
sg94
F3.8382552502748051
sg95
g99
sbasb.