ccopy_reg
_reconstructor
p1
(cneat.chromosome
Chromosome
p2
c__builtin__
object
p3
NtRp4
(dp5
S'species_id'
p6
I98
sS'_connection_genes'
p7
(dp8
(I1
I3
tp9
g1
(cneat.genome
ConnectionGene
p10
g3
NtRp11
(dp12
S'_ConnectionGene__weight'
p13
F20.070093385356863
sS'_ConnectionGene__in'
p14
I1
sS'_ConnectionGene__enabled'
p15
I01
sS'_ConnectionGene__out'
p16
I3
sS'_ConnectionGene__innov_number'
p17
I3
sbs(I5
I6
tp18
g1
(g10
g3
NtRp19
(dp20
g13
F1.5392188292911873
sg14
I5
sg15
I01
sg16
I6
sg17
I25
sbs(I11
I2
tp21
g1
(g10
g3
NtRp22
(dp23
g13
F-8.6846715028392421
sg14
I11
sg15
I01
sg16
I2
sg17
I89
sbs(I8
I9
tp24
g1
(g10
g3
NtRp25
(dp26
g13
F-23.166222147099223
sg14
I8
sg15
I01
sg16
I9
sg17
I61
sbs(I6
I2
tp27
g1
(g10
g3
NtRp28
(dp29
g13
F-8.6309914387111366
sg14
I6
sg15
I01
sg16
I2
sg17
I18
sbs(I16
I14
tp30
g1
(g10
g3
NtRp31
(dp32
g13
F-1.0485013469948354
sg14
I16
sg15
I01
sg16
I14
sg17
I194
sbs(I3
I7
tp33
g1
(g10
g3
NtRp34
(dp35
g13
F-21.352676706781317
sg14
I3
sg15
I01
sg16
I7
sg17
I49
sbs(I3
I14
tp36
g1
(g10
g3
NtRp37
(dp38
g13
F2.3330405925556907
sg14
I3
sg15
I01
sg16
I14
sg17
I133
sbs(I1
I2
tp39
g1
(g10
g3
NtRp40
(dp41
g13
F-30
sg14
I1
sg15
I01
sg16
I2
sg17
I1
sbs(I14
I2
tp42
g1
(g10
g3
NtRp43
(dp44
g13
F-8.8391585632175005
sg14
I14
sg15
I01
sg16
I2
sg17
I125
sbs(I6
I7
tp45
g1
(g10
g3
NtRp46
(dp47
g13
F8.6308691831968503
sg14
I6
sg15
I01
sg16
I7
sg17
I34
sbs(I3
I3
tp48
g1
(g10
g3
NtRp49
(dp50
g13
F-8.4758614890566779
sg14
I3
sg15
I01
sg16
I3
sg17
I8
sbs(I8
I10
tp51
g1
(g10
g3
NtRp52
(dp53
g13
F2.4004043119774621
sg14
I8
sg15
I01
sg16
I10
sg17
I65
sbs(I13
I7
tp54
g1
(g10
g3
NtRp55
(dp56
g13
F-26.512369383282
sg14
I13
sg15
I01
sg16
I7
sg17
I108
sbs(I7
I2
tp57
g1
(g10
g3
NtRp58
(dp59
g13
F-28.950648658119579
sg14
I7
sg15
I01
sg16
I2
sg17
I31
sbs(I3
I16
tp60
g1
(g10
g3
NtRp61
(dp62
g13
F9.7699564806651544
sg14
I3
sg15
I01
sg16
I16
sg17
I193
sbs(I3
I5
tp63
g1
(g10
g3
NtRp64
(dp65
g13
F20.111429812684975
sg14
I3
sg15
I01
sg16
I5
sg17
I12
sbs(I12
I3
tp66
g1
(g10
g3
NtRp67
(dp68
g13
F30
sg14
I12
sg15
I01
sg16
I3
sg17
I106
sbs(I3
I2
tp69
g1
(g10
g3
NtRp70
(dp71
g13
F-26.080657178026161
sg14
I3
sg15
I01
sg16
I2
sg17
I4
sbs(I8
I2
tp72
g1
(g10
g3
NtRp73
(dp74
g13
F-10.233802300882337
sg14
I8
sg15
I01
sg16
I2
sg17
I46
sbs(I3
I13
tp75
g1
(g10
g3
NtRp76
(dp77
g13
F0.73360371662230495
sg14
I3
sg15
I01
sg16
I13
sg17
I107
sbs(I15
I3
tp78
g1
(g10
g3
NtRp79
(dp80
g13
F10.729858399603245
sg14
I15
sg15
I01
sg16
I3
sg17
I182
sbs(I8
I11
tp81
g1
(g10
g3
NtRp82
(dp83
g13
F-2.743637282132426
sg14
I8
sg15
I01
sg16
I11
sg17
I98
sbs(I9
I3
tp84
g1
(g10
g3
NtRp85
(dp86
g13
F-17.147174690461149
sg14
I9
sg15
I01
sg16
I3
sg17
I60
sbs(I8
I3
tp87
g1
(g10
g3
NtRp88
(dp89
g13
F19.440146268960259
sg14
I8
sg15
I01
sg16
I3
sg17
I39
sbs(I1
I4
tp90
g1
(g10
g3
NtRp91
(dp92
g13
F26.488387085636337
sg14
I1
sg15
I01
sg16
I4
sg17
I6
sbs(I2
I10
tp93
g1
(g10
g3
NtRp94
(dp95
g13
F-22.461971104229342
sg14
I2
sg15
I01
sg16
I10
sg17
I69
sbs(I7
I5
tp96
g1
(g10
g3
NtRp97
(dp98
g13
F5.7765107560056146
sg14
I7
sg15
I01
sg16
I5
sg17
I50
sbs(I5
I10
tp99
g1
(g10
g3
NtRp100
(dp101
g13
F8.6729044864036844
sg14
I5
sg15
I01
sg16
I10
sg17
I67
sbs(I5
I8
tp102
g1
(g10
g3
NtRp103
(dp104
g13
F-18.979139948520547
sg14
I5
sg15
I01
sg16
I8
sg17
I45
sbs(I4
I16
tp105
g1
(g10
g3
NtRp106
(dp107
g13
F-5.2980106313059636
sg14
I4
sg15
I01
sg16
I16
sg17
I209
sbs(I5
I3
tp108
g1
(g10
g3
NtRp109
(dp110
g13
F20.578282450869665
sg14
I5
sg15
I01
sg16
I3
sg17
I15
sbs(I12
I15
tp111
g1
(g10
g3
NtRp112
(dp113
g13
F10.254286188704718
sg14
I12
sg15
I01
sg16
I15
sg17
I185
sbs(I3
I12
tp114
g1
(g10
g3
NtRp115
(dp116
g13
F19.937909254556491
sg14
I3
sg15
I01
sg16
I12
sg17
I105
sbs(I13
I14
tp117
g1
(g10
g3
NtRp118
(dp119
g13
F-26.932302730759336
sg14
I13
sg15
I01
sg16
I14
sg17
I189
sbs(I4
I3
tp120
g1
(g10
g3
NtRp121
(dp122
g13
F18.720667168429976
sg14
I4
sg15
I01
sg16
I3
sg17
I10
sbs(I5
I2
tp123
g1
(g10
g3
NtRp124
(dp125
g13
F-16.443863545970142
sg14
I5
sg15
I01
sg16
I2
sg17
I21
sbs(I2
I4
tp126
g1
(g10
g3
NtRp127
(dp128
g13
F-7.8124768902604176
sg14
I2
sg15
I01
sg16
I4
sg17
I16
sbs(I10
I2
tp129
g1
(g10
g3
NtRp130
(dp131
g13
F-20.750397668015051
sg14
I10
sg15
I01
sg16
I2
sg17
I66
sbssS'_input_nodes'
p132
I1
sS'_output_nodes'
p133
I1
sS'_node_gene_type'
p134
cneat.genome
NodeGene
p135
sS'_conn_gene_type'
p136
g10
sS'fitness'
p137
F0.95376649815820158
sS'parent2_id'
p138
I14288
sS'_id'
p139
I14333
sS'parent1_id'
p140
I14288
sS'_node_genes'
p141
(lp142
g1
(g135
g3
NtRp143
(dp144
S'_bias'
p145
I0
sS'_type'
p146
S'INPUT'
p147
sg139
I1
sS'_response'
p148
F4.9242730000000003
sS'_activation_type'
p149
Nsbag1
(g135
g3
NtRp150
(dp151
g145
F-3.1456935348122266
sg146
S'OUTPUT'
p152
sg139
I2
sg148
F2.0019789251961573
sg149
S'tanh'
p153
sbag1
(g135
g3
NtRp154
(dp155
g145
F1.6122132453132441
sg146
S'HIDDEN'
p156
sg139
I3
sg148
F-2.4332548325547081
sg149
g153
sbag1
(g135
g3
NtRp157
(dp158
g145
F-3.5904917555180753
sg146
g156
sg139
I4
sg148
F8.0040420867779893
sg149
g153
sbag1
(g135
g3
NtRp159
(dp160
g145
F2.2440765338203899
sg146
g156
sg139
I5
sg148
F6.33691036442558
sg149
g153
sbag1
(g135
g3
NtRp161
(dp162
g145
F-2.9656386009023166
sg146
g156
sg139
I6
sg148
F5.0888162147193698
sg149
g153
sbag1
(g135
g3
NtRp163
(dp164
g145
F-4.75039950292408
sg146
g156
sg139
I7
sg148
F4.2317596888596825
sg149
g153
sbag1
(g135
g3
NtRp165
(dp166
g145
F5.0946851222992571
sg146
g156
sg139
I8
sg148
F2.1587483576792348
sg149
g153
sbag1
(g135
g3
NtRp167
(dp168
g145
F2.8521094786812462
sg146
g156
sg139
I9
sg148
F6.2954530293992566
sg149
g153
sbag1
(g135
g3
NtRp169
(dp170
g145
F-1.2886808490367887
sg146
g156
sg139
I10
sg148
F-0.51095494427707799
sg149
g153
sbag1
(g135
g3
NtRp171
(dp172
g145
F-0.78879338546771338
sg146
g156
sg139
I11
sg148
F5.7358184639949101
sg149
g153
sbag1
(g135
g3
NtRp173
(dp174
g145
F-1.9177352692224556
sg146
g156
sg139
I12
sg148
F6.8976425496736962
sg149
g153
sbag1
(g135
g3
NtRp175
(dp176
g145
F1.4962912010393143
sg146
g156
sg139
I13
sg148
F5.5833767963950613
sg149
g153
sbag1
(g135
g3
NtRp177
(dp178
g145
F1.0855058583194332
sg146
g156
sg139
I14
sg148
F3.642792226121744
sg149
g153
sbag1
(g135
g3
NtRp179
(dp180
g145
F0.56590126529245832
sg146
g156
sg139
I15
sg148
F8.110383689253192
sg149
g153
sbag1
(g135
g3
NtRp181
(dp182
g145
F-2.2054727892468029
sg146
g156
sg139
I16
sg148
F3.9356716370177205
sg149
g153
sbasb.