ccopy_reg
_reconstructor
p1
(cneat.chromosome
Chromosome
p2
c__builtin__
object
p3
NtRp4
(dp5
S'species_id'
p6
I90
sS'_connection_genes'
p7
(dp8
(I7
I3
tp9
g1
(cneat.genome
ConnectionGene
p10
g3
NtRp11
(dp12
S'_ConnectionGene__weight'
p13
F29.458951501949112
sS'_ConnectionGene__in'
p14
I7
sS'_ConnectionGene__enabled'
p15
I01
sS'_ConnectionGene__out'
p16
I3
sS'_ConnectionGene__innov_number'
p17
I36
sbs(I1
I3
tp18
g1
(g10
g3
NtRp19
(dp20
g13
F-5.0498983641129982
sg14
I1
sg15
I01
sg16
I3
sg17
I3
sbs(I5
I9
tp21
g1
(g10
g3
NtRp22
(dp23
g13
F3.1631389099031417
sg14
I5
sg15
I01
sg16
I9
sg17
I100
sbs(I11
I2
tp24
g1
(g10
g3
NtRp25
(dp26
g13
F0.35853455654400679
sg14
I11
sg15
I01
sg16
I2
sg17
I89
sbs(I5
I4
tp27
g1
(g10
g3
NtRp28
(dp29
g13
F5.4412952163654129
sg14
I5
sg15
I01
sg16
I4
sg17
I13
sbs(I13
I14
tp30
g1
(g10
g3
NtRp31
(dp32
g13
F-1.3811702663278578
sg14
I13
sg15
I01
sg16
I14
sg17
I189
sbs(I13
I8
tp33
g1
(g10
g3
NtRp34
(dp35
g13
F-4.4633790448711119
sg14
I13
sg15
I01
sg16
I8
sg17
I177
sbs(I3
I7
tp36
g1
(g10
g3
NtRp37
(dp38
g13
F-9.3950786181561465
sg14
I3
sg15
I01
sg16
I7
sg17
I49
sbs(I1
I11
tp39
g1
(g10
g3
NtRp40
(dp41
g13
F-6.6861371352622143
sg14
I1
sg15
I01
sg16
I11
sg17
I88
sbs(I5
I8
tp42
g1
(g10
g3
NtRp43
(dp44
g13
F2.6614044164375281
sg14
I5
sg15
I01
sg16
I8
sg17
I45
sbs(I1
I2
tp45
g1
(g10
g3
NtRp46
(dp47
g13
F-17.154207880146046
sg14
I1
sg15
I01
sg16
I2
sg17
I1
sbs(I12
I2
tp48
g1
(g10
g3
NtRp49
(dp50
g13
F28.309471570265657
sg14
I12
sg15
I01
sg16
I2
sg17
I104
sbs(I4
I9
tp51
g1
(g10
g3
NtRp52
(dp53
g13
F-11.032224667124048
sg14
I4
sg15
I01
sg16
I9
sg17
I57
sbs(I3
I3
tp54
g1
(g10
g3
NtRp55
(dp56
g13
F0.085975480330588105
sg14
I3
sg15
I01
sg16
I3
sg17
I8
sbs(I2
I9
tp57
g1
(g10
g3
NtRp58
(dp59
g13
F-0.5662861337084224
sg14
I2
sg15
I01
sg16
I9
sg17
I144
sbs(I13
I3
tp60
g1
(g10
g3
NtRp61
(dp62
g13
F17.331147567976299
sg14
I13
sg15
I00
sg16
I3
sg17
I117
sbs(I3
I10
tp63
g1
(g10
g3
NtRp64
(dp65
g13
F-18.507949108089054
sg14
I3
sg15
I01
sg16
I10
sg17
I76
sbs(I4
I4
tp66
g1
(g10
g3
NtRp67
(dp68
g13
F0.50201869105719954
sg14
I4
sg15
I00
sg16
I4
sg17
I11
sbs(I10
I12
tp69
g1
(g10
g3
NtRp70
(dp71
g13
F-10.734176882609958
sg14
I10
sg15
I01
sg16
I12
sg17
I111
sbs(I4
I8
tp72
g1
(g10
g3
NtRp73
(dp74
g13
F11.441733172031055
sg14
I4
sg15
I01
sg16
I8
sg17
I38
sbs(I2
I13
tp75
g1
(g10
g3
NtRp76
(dp77
g13
F2.6101678799506609
sg14
I2
sg15
I01
sg16
I13
sg17
I176
sbs(I6
I5
tp78
g1
(g10
g3
NtRp79
(dp80
g13
F-27.241539777851067
sg14
I6
sg15
I01
sg16
I5
sg17
I28
sbs(I3
I6
tp81
g1
(g10
g3
NtRp82
(dp83
g13
F-7.8683528566377916
sg14
I3
sg15
I01
sg16
I6
sg17
I22
sbs(I2
I2
tp84
g1
(g10
g3
NtRp85
(dp86
g13
F2.1534714031909239
sg14
I2
sg15
I01
sg16
I2
sg17
I2
sbs(I5
I3
tp87
g1
(g10
g3
NtRp88
(dp89
g13
F-3.5158840793925195
sg14
I5
sg15
I01
sg16
I3
sg17
I15
sbs(I3
I2
tp90
g1
(g10
g3
NtRp91
(dp92
g13
F9.3871723682110915
sg14
I3
sg15
I01
sg16
I2
sg17
I4
sbs(I6
I6
tp93
g1
(g10
g3
NtRp94
(dp95
g13
F-14.996017296518827
sg14
I6
sg15
I01
sg16
I6
sg17
I37
sbs(I5
I11
tp96
g1
(g10
g3
NtRp97
(dp98
g13
F26.991626504370348
sg14
I5
sg15
I01
sg16
I11
sg17
I90
sbs(I9
I3
tp99
g1
(g10
g3
NtRp100
(dp101
g13
F-25.849150596781548
sg14
I9
sg15
I01
sg16
I3
sg17
I60
sbs(I2
I3
tp102
g1
(g10
g3
NtRp103
(dp104
g13
F13.136185037886356
sg14
I2
sg15
I01
sg16
I3
sg17
I5
sbs(I1
I9
tp105
g1
(g10
g3
NtRp106
(dp107
g13
F23.071388194246683
sg14
I1
sg15
I01
sg16
I9
sg17
I47
sbs(I4
I2
tp108
g1
(g10
g3
NtRp109
(dp110
g13
F-7.1420691743765525
sg14
I4
sg15
I01
sg16
I2
sg17
I7
sbs(I4
I11
tp111
g1
(g10
g3
NtRp112
(dp113
g13
F-2.3147486571406928
sg14
I4
sg15
I01
sg16
I11
sg17
I86
sbs(I3
I5
tp114
g1
(g10
g3
NtRp115
(dp116
g13
F27.447404885527245
sg14
I3
sg15
I01
sg16
I5
sg17
I12
sbs(I10
I5
tp117
g1
(g10
g3
NtRp118
(dp119
g13
F11.847821537413408
sg14
I10
sg15
I01
sg16
I5
sg17
I79
sbs(I9
I2
tp120
g1
(g10
g3
NtRp121
(dp122
g13
F-5.7822125374079203
sg14
I9
sg15
I01
sg16
I2
sg17
I48
sbs(I9
I9
tp123
g1
(g10
g3
NtRp124
(dp125
g13
F5.3992283555064819
sg14
I9
sg15
I01
sg16
I9
sg17
I73
sbs(I11
I8
tp126
g1
(g10
g3
NtRp127
(dp128
g13
F-13.526369978082187
sg14
I11
sg15
I01
sg16
I8
sg17
I91
sbs(I12
I4
tp129
g1
(g10
g3
NtRp130
(dp131
g13
F-5.0156344262747297
sg14
I12
sg15
I01
sg16
I4
sg17
I115
sbs(I4
I3
tp132
g1
(g10
g3
NtRp133
(dp134
g13
F-14.507583686252559
sg14
I4
sg15
I01
sg16
I3
sg17
I10
sbs(I14
I3
tp135
g1
(g10
g3
NtRp136
(dp137
g13
F11.146845814341191
sg14
I14
sg15
I01
sg16
I3
sg17
I132
sbs(I10
I2
tp138
g1
(g10
g3
NtRp139
(dp140
g13
F22.735030979190498
sg14
I10
sg15
I01
sg16
I2
sg17
I66
sbs(I5
I2
tp141
g1
(g10
g3
NtRp142
(dp143
g13
F-7.7770964110942717
sg14
I5
sg15
I01
sg16
I2
sg17
I21
sbs(I2
I4
tp144
g1
(g10
g3
NtRp145
(dp146
g13
F13.834036078054943
sg14
I2
sg15
I01
sg16
I4
sg17
I16
sbs(I8
I4
tp147
g1
(g10
g3
NtRp148
(dp149
g13
F8.664458886566079
sg14
I8
sg15
I01
sg16
I4
sg17
I41
sbssS'_input_nodes'
p150
I1
sS'_output_nodes'
p151
I1
sS'_node_gene_type'
p152
cneat.genome
NodeGene
p153
sS'_conn_gene_type'
p154
g10
sS'fitness'
p155
F0.99739492626284709
sS'parent2_id'
p156
I13152
sS'_id'
p157
I13189
sS'parent1_id'
p158
I13152
sS'_node_genes'
p159
(lp160
g1
(g153
g3
NtRp161
(dp162
S'_bias'
p163
I0
sS'_type'
p164
S'INPUT'
p165
sg157
I1
sS'_response'
p166
F4.9242730000000003
sS'_activation_type'
p167
Nsbag1
(g153
g3
NtRp168
(dp169
g163
F-0.25593356703691605
sg164
S'OUTPUT'
p170
sg157
I2
sg166
F5.9056891812016445
sg167
S'tanh'
p171
sbag1
(g153
g3
NtRp172
(dp173
g163
F-2.3290065036185856
sg164
S'HIDDEN'
p174
sg157
I3
sg166
F6.9440867654195566
sg167
g171
sbag1
(g153
g3
NtRp175
(dp176
g163
F2.3906758394224474
sg164
g174
sg157
I4
sg166
F1.2029728374959061
sg167
g171
sbag1
(g153
g3
NtRp177
(dp178
g163
F-2.7573259719557366
sg164
g174
sg157
I5
sg166
F6.3793790452486308
sg167
g171
sbag1
(g153
g3
NtRp179
(dp180
g163
F2.3645617840521913
sg164
g174
sg157
I6
sg166
F10.620100180468313
sg167
g171
sbag1
(g153
g3
NtRp181
(dp182
g163
F-1.9001391448860534
sg164
g174
sg157
I7
sg166
F11.489110621635145
sg167
g171
sbag1
(g153
g3
NtRp183
(dp184
g163
F-4.2613050555408476
sg164
g174
sg157
I8
sg166
F3.6561965340604612
sg167
g171
sbag1
(g153
g3
NtRp185
(dp186
g163
F3.6524919224412473
sg164
g174
sg157
I9
sg166
F3.5730199170433021
sg167
g171
sbag1
(g153
g3
NtRp187
(dp188
g163
F-1.5650066409367436
sg164
g174
sg157
I10
sg166
F4.1182148180283651
sg167
g171
sbag1
(g153
g3
NtRp189
(dp190
g163
F-2.6064609744473763
sg164
g174
sg157
I11
sg166
F5.5485405195914232
sg167
g171
sbag1
(g153
g3
NtRp191
(dp192
g163
F0.54359436131587013
sg164
g174
sg157
I12
sg166
F7.194579870477833
sg167
g171
sbag1
(g153
g3
NtRp193
(dp194
g163
F0.6630357292019442
sg164
g174
sg157
I13
sg166
F5.596574076041839
sg167
g171
sbag1
(g153
g3
NtRp195
(dp196
g163
I0
sg164
g174
sg157
I14
sg166
F4.8374118283501417
sg167
g171
sbasb.