ccopy_reg
_reconstructor
p1
(cneat.chromosome
Chromosome
p2
c__builtin__
object
p3
NtRp4
(dp5
S'species_id'
p6
I124
sS'_connection_genes'
p7
(dp8
(I7
I3
tp9
g1
(cneat.genome
ConnectionGene
p10
g3
NtRp11
(dp12
S'_ConnectionGene__weight'
p13
F24.517408228525891
sS'_ConnectionGene__in'
p14
I7
sS'_ConnectionGene__enabled'
p15
I01
sS'_ConnectionGene__out'
p16
I3
sS'_ConnectionGene__innov_number'
p17
I36
sbs(I1
I3
tp18
g1
(g10
g3
NtRp19
(dp20
g13
F-24.053252122467573
sg14
I1
sg15
I01
sg16
I3
sg17
I3
sbs(I5
I9
tp21
g1
(g10
g3
NtRp22
(dp23
g13
F6.4492089317942707
sg14
I5
sg15
I01
sg16
I9
sg17
I100
sbs(I16
I9
tp24
g1
(g10
g3
NtRp25
(dp26
g13
F23.227027596906382
sg14
I16
sg15
I01
sg16
I9
sg17
I236
sbs(I3
I13
tp27
g1
(g10
g3
NtRp28
(dp29
g13
F30
sg14
I3
sg15
I01
sg16
I13
sg17
I107
sbs(I5
I4
tp30
g1
(g10
g3
NtRp31
(dp32
g13
F5.0808108651496751
sg14
I5
sg15
I01
sg16
I4
sg17
I13
sbs(I2
I12
tp33
g1
(g10
g3
NtRp34
(dp35
g13
F0.98333604224485716
sg14
I2
sg15
I01
sg16
I12
sg17
I135
sbs(I7
I11
tp36
g1
(g10
g3
NtRp37
(dp38
g13
F-12.059919766189422
sg14
I7
sg15
I01
sg16
I11
sg17
I92
sbs(I3
I7
tp39
g1
(g10
g3
NtRp40
(dp41
g13
F10.43808439892735
sg14
I3
sg15
I00
sg16
I7
sg17
I49
sbs(I14
I9
tp42
g1
(g10
g3
NtRp43
(dp44
g13
F13.273744513383743
sg14
I14
sg15
I01
sg16
I9
sg17
I130
sbs(I5
I8
tp45
g1
(g10
g3
NtRp46
(dp47
g13
F22.936066311241536
sg14
I5
sg15
I01
sg16
I8
sg17
I45
sbs(I1
I2
tp48
g1
(g10
g3
NtRp49
(dp50
g13
F-24.037724127467104
sg14
I1
sg15
I01
sg16
I2
sg17
I1
sbs(I12
I2
tp51
g1
(g10
g3
NtRp52
(dp53
g13
F19.950065928302049
sg14
I12
sg15
I01
sg16
I2
sg17
I104
sbs(I4
I9
tp54
g1
(g10
g3
NtRp55
(dp56
g13
F2.786751530789966
sg14
I4
sg15
I01
sg16
I9
sg17
I57
sbs(I3
I3
tp57
g1
(g10
g3
NtRp58
(dp59
g13
F-7.1894313004974837
sg14
I3
sg15
I01
sg16
I3
sg17
I8
sbs(I2
I9
tp60
g1
(g10
g3
NtRp61
(dp62
g13
F25.982930670218604
sg14
I2
sg15
I01
sg16
I9
sg17
I144
sbs(I3
I10
tp63
g1
(g10
g3
NtRp64
(dp65
g13
F6.7172336677304898
sg14
I3
sg15
I01
sg16
I10
sg17
I76
sbs(I4
I4
tp66
g1
(g10
g3
NtRp67
(dp68
g13
F6.8972896785262252
sg14
I4
sg15
I01
sg16
I4
sg17
I11
sbs(I10
I12
tp69
g1
(g10
g3
NtRp70
(dp71
g13
F-27.826631112817935
sg14
I10
sg15
I01
sg16
I12
sg17
I111
sbs(I17
I2
tp72
g1
(g10
g3
NtRp73
(dp74
g13
F-10.219314946297526
sg14
I17
sg15
I01
sg16
I2
sg17
I202
sbs(I4
I8
tp75
g1
(g10
g3
NtRp76
(dp77
g13
F-3.7404163205925078
sg14
I4
sg15
I01
sg16
I8
sg17
I38
sbs(I13
I7
tp78
g1
(g10
g3
NtRp79
(dp80
g13
F-9.8789301206747719
sg14
I13
sg15
I01
sg16
I7
sg17
I108
sbs(I9
I17
tp81
g1
(g10
g3
NtRp82
(dp83
g13
F3.95575871788024
sg14
I9
sg15
I01
sg16
I17
sg17
I258
sbs(I18
I9
tp84
g1
(g10
g3
NtRp85
(dp86
g13
F-1.7930062417876942
sg14
I18
sg15
I01
sg16
I9
sg17
I268
sbs(I2
I2
tp87
g1
(g10
g3
NtRp88
(dp89
g13
F6.1538366864092433
sg14
I2
sg15
I01
sg16
I2
sg17
I2
sbs(I15
I4
tp90
g1
(g10
g3
NtRp91
(dp92
g13
F8.4122673608462133
sg14
I15
sg15
I01
sg16
I4
sg17
I173
sbs(I10
I2
tp93
g1
(g10
g3
NtRp94
(dp95
g13
F23.953265467210297
sg14
I10
sg15
I01
sg16
I2
sg17
I66
sbs(I15
I12
tp96
g1
(g10
g3
NtRp97
(dp98
g13
F-5.6922247999711653
sg14
I15
sg15
I01
sg16
I12
sg17
I159
sbs(I3
I2
tp99
g1
(g10
g3
NtRp100
(dp101
g13
F11.132454426863031
sg14
I3
sg15
I01
sg16
I2
sg17
I4
sbs(I6
I6
tp102
g1
(g10
g3
NtRp103
(dp104
g13
F10.050468426647408
sg14
I6
sg15
I01
sg16
I6
sg17
I37
sbs(I12
I14
tp105
g1
(g10
g3
NtRp106
(dp107
g13
F-2.5126576304548327
sg14
I12
sg15
I01
sg16
I14
sg17
I131
sbs(I5
I11
tp108
g1
(g10
g3
NtRp109
(dp110
g13
F-5.6629213800295295
sg14
I5
sg15
I01
sg16
I11
sg17
I90
sbs(I9
I3
tp111
g1
(g10
g3
NtRp112
(dp113
g13
F-29.825313726271752
sg14
I9
sg15
I01
sg16
I3
sg17
I60
sbs(I9
I16
tp114
g1
(g10
g3
NtRp115
(dp116
g13
F22.663318058153436
sg14
I9
sg15
I01
sg16
I16
sg17
I240
sbs(I2
I3
tp117
g1
(g10
g3
NtRp118
(dp119
g13
F6.632825237108146
sg14
I2
sg15
I01
sg16
I3
sg17
I5
sbs(I1
I9
tp120
g1
(g10
g3
NtRp121
(dp122
g13
F12.690648312207143
sg14
I1
sg15
I01
sg16
I9
sg17
I47
sbs(I4
I2
tp123
g1
(g10
g3
NtRp124
(dp125
g13
F-29.127363811450099
sg14
I4
sg15
I01
sg16
I2
sg17
I7
sbs(I14
I2
tp126
g1
(g10
g3
NtRp127
(dp128
g13
F11.346722002269273
sg14
I14
sg15
I01
sg16
I2
sg17
I125
sbs(I4
I11
tp129
g1
(g10
g3
NtRp130
(dp131
g13
F-29.352026612999218
sg14
I4
sg15
I01
sg16
I11
sg17
I86
sbs(I3
I5
tp132
g1
(g10
g3
NtRp133
(dp134
g13
F13.645830188314337
sg14
I3
sg15
I01
sg16
I5
sg17
I12
sbs(I10
I5
tp135
g1
(g10
g3
NtRp136
(dp137
g13
F17.269879338095979
sg14
I10
sg15
I01
sg16
I5
sg17
I79
sbs(I19
I9
tp138
g1
(g10
g3
NtRp139
(dp140
g13
F14.953513316541011
sg14
I19
sg15
I01
sg16
I9
sg17
I290
sbs(I6
I5
tp141
g1
(g10
g3
NtRp142
(dp143
g13
F-22.047373558284381
sg14
I6
sg15
I01
sg16
I5
sg17
I28
sbs(I9
I2
tp144
g1
(g10
g3
NtRp145
(dp146
g13
F-10.560869398628606
sg14
I9
sg15
I00
sg16
I2
sg17
I48
sbs(I7
I14
tp147
g1
(g10
g3
NtRp148
(dp149
g13
F-2.01353344361894
sg14
I7
sg15
I01
sg16
I14
sg17
I162
sbs(I9
I9
tp150
g1
(g10
g3
NtRp151
(dp152
g13
F18.379278143818041
sg14
I9
sg15
I00
sg16
I9
sg17
I73
sbs(I3
I6
tp153
g1
(g10
g3
NtRp154
(dp155
g13
F-24.438673242735561
sg14
I3
sg15
I01
sg16
I6
sg17
I22
sbs(I18
I7
tp156
g1
(g10
g3
NtRp157
(dp158
g13
F0.44333655149347839
sg14
I18
sg15
I01
sg16
I7
sg17
I272
sbs(I11
I8
tp159
g1
(g10
g3
NtRp160
(dp161
g13
F7.8362027502114762
sg14
I11
sg15
I01
sg16
I8
sg17
I91
sbs(I13
I18
tp162
g1
(g10
g3
NtRp163
(dp164
g13
F4.8885932758842987
sg14
I13
sg15
I01
sg16
I18
sg17
I271
sbs(I4
I3
tp165
g1
(g10
g3
NtRp166
(dp167
g13
F7.3908742312877429
sg14
I4
sg15
I01
sg16
I3
sg17
I10
sbs(I2
I15
tp168
g1
(g10
g3
NtRp169
(dp170
g13
F-1.7607520940461439
sg14
I2
sg15
I01
sg16
I15
sg17
I172
sbs(I9
I19
tp171
g1
(g10
g3
NtRp172
(dp173
g13
F1.8579010991615863
sg14
I9
sg15
I01
sg16
I19
sg17
I312
sbs(I5
I2
tp174
g1
(g10
g3
NtRp175
(dp176
g13
F-5.1341742505797292
sg14
I5
sg15
I01
sg16
I2
sg17
I21
sbs(I2
I4
tp177
g1
(g10
g3
NtRp178
(dp179
g13
F19.185159149593794
sg14
I2
sg15
I01
sg16
I4
sg17
I16
sbs(I11
I6
tp180
g1
(g10
g3
NtRp181
(dp182
g13
F6.0830994892226915
sg14
I11
sg15
I01
sg16
I6
sg17
I110
sbs(I8
I4
tp183
g1
(g10
g3
NtRp184
(dp185
g13
F15.931677364499388
sg14
I8
sg15
I01
sg16
I4
sg17
I41
sbssS'_input_nodes'
p186
I1
sS'_output_nodes'
p187
I1
sS'_node_gene_type'
p188
cneat.genome
NodeGene
p189
sS'_conn_gene_type'
p190
g10
sS'fitness'
p191
F0.97281975412044364
sS'parent2_id'
p192
I17592
sS'_id'
p193
I17636
sS'parent1_id'
p194
I17592
sS'_node_genes'
p195
(lp196
g1
(g189
g3
NtRp197
(dp198
S'_bias'
p199
I0
sS'_type'
p200
S'INPUT'
p201
sg193
I1
sS'_response'
p202
F4.9242730000000003
sS'_activation_type'
p203
Nsbag1
(g189
g3
NtRp204
(dp205
g199
F0.21429425582098571
sg200
S'OUTPUT'
p206
sg193
I2
sg202
F8.9580550912713299
sg203
S'tanh'
p207
sbag1
(g189
g3
NtRp208
(dp209
g199
F-3.5419025363179197
sg200
S'HIDDEN'
p210
sg193
I3
sg202
F6.1370404127613369
sg203
g207
sbag1
(g189
g3
NtRp211
(dp212
g199
F2.2067042873248526
sg200
g210
sg193
I4
sg202
F-2.3851712722415916
sg203
g207
sbag1
(g189
g3
NtRp213
(dp214
g199
F-3.7417974446981814
sg200
g210
sg193
I5
sg202
F6.924017484093496
sg203
g207
sbag1
(g189
g3
NtRp215
(dp216
g199
F0.38247746345225081
sg200
g210
sg193
I6
sg202
F10.56557803234635
sg203
g207
sbag1
(g189
g3
NtRp217
(dp218
g199
F0.42000584547182007
sg200
g210
sg193
I7
sg202
F12.113542736131214
sg203
g207
sbag1
(g189
g3
NtRp219
(dp220
g199
F-0.92301411163482094
sg200
g210
sg193
I8
sg202
F3.8743095746912317
sg203
g207
sbag1
(g189
g3
NtRp221
(dp222
g199
F3.1848713838750062
sg200
g210
sg193
I9
sg202
F-0.91056532044272098
sg203
g207
sbag1
(g189
g3
NtRp223
(dp224
g199
F4.5316778290251492
sg200
g210
sg193
I10
sg202
F2.6189343047878388
sg203
g207
sbag1
(g189
g3
NtRp225
(dp226
g199
F-3.8706244023980183
sg200
g210
sg193
I11
sg202
F8.9608458428183262
sg203
g207
sbag1
(g189
g3
NtRp227
(dp228
g199
F2.2266319130658867
sg200
g210
sg193
I12
sg202
F7.1402951723316503
sg203
g207
sbag1
(g189
g3
NtRp229
(dp230
g199
F1.6255194683739596
sg200
g210
sg193
I13
sg202
F4.7935773580350087
sg203
g207
sbag1
(g189
g3
NtRp231
(dp232
g199
F0.55206935962788528
sg200
g210
sg193
I14
sg202
F5.4281945448544144
sg203
g207
sbag1
(g189
g3
NtRp233
(dp234
g199
F-1.4801654117075369
sg200
g210
sg193
I15
sg202
F12.742029350703676
sg203
g207
sbag1
(g189
g3
NtRp235
(dp236
g199
F-2.7472914623486826
sg200
g210
sg193
I16
sg202
F7.5935151513680266
sg203
g207
sbag1
(g189
g3
NtRp237
(dp238
g199
F-1.2354071052732265
sg200
g210
sg193
I17
sg202
F2.8321372861349228
sg203
g207
sbag1
(g189
g3
NtRp239
(dp240
g199
F1.493471463259765
sg200
g210
sg193
I18
sg202
F4.7878373089643
sg203
g207
sbag1
(g189
g3
NtRp241
(dp242
g199
F-0.45820955193584606
sg200
g210
sg193
I19
sg202
F4.7018967886196021
sg203
g207
sbasb.