ccopy_reg
_reconstructor
p1
(cneat.chromosome
Chromosome
p2
c__builtin__
object
p3
NtRp4
(dp5
S'species_id'
p6
I128
sS'_connection_genes'
p7
(dp8
(I7
I3
tp9
g1
(cneat.genome
ConnectionGene
p10
g3
NtRp11
(dp12
S'_ConnectionGene__weight'
p13
F20.50765726151241
sS'_ConnectionGene__in'
p14
I7
sS'_ConnectionGene__enabled'
p15
I01
sS'_ConnectionGene__out'
p16
I3
sS'_ConnectionGene__innov_number'
p17
I36
sbs(I1
I3
tp18
g1
(g10
g3
NtRp19
(dp20
g13
F-27.573102260033647
sg14
I1
sg15
I01
sg16
I3
sg17
I3
sbs(I5
I9
tp21
g1
(g10
g3
NtRp22
(dp23
g13
F3.6091249691982616
sg14
I5
sg15
I01
sg16
I9
sg17
I100
sbs(I16
I9
tp24
g1
(g10
g3
NtRp25
(dp26
g13
F22.840788122188506
sg14
I16
sg15
I01
sg16
I9
sg17
I236
sbs(I9
I19
tp27
g1
(g10
g3
NtRp28
(dp29
g13
F-0.32619294447440284
sg14
I9
sg15
I01
sg16
I19
sg17
I312
sbs(I21
I2
tp30
g1
(g10
g3
NtRp31
(dp32
g13
F-26.694179537668042
sg14
I21
sg15
I01
sg16
I2
sg17
I330
sbs(I3
I2
tp33
g1
(g10
g3
NtRp34
(dp35
g13
F18.964097303647122
sg14
I3
sg15
I01
sg16
I2
sg17
I4
sbs(I8
I4
tp36
g1
(g10
g3
NtRp37
(dp38
g13
F17.266697766359162
sg14
I8
sg15
I01
sg16
I4
sg17
I41
sbs(I2
I12
tp39
g1
(g10
g3
NtRp40
(dp41
g13
F0.5983061328718704
sg14
I2
sg15
I01
sg16
I12
sg17
I135
sbs(I7
I11
tp42
g1
(g10
g3
NtRp43
(dp44
g13
F-3.8509619923083909
sg14
I7
sg15
I01
sg16
I11
sg17
I92
sbs(I3
I7
tp45
g1
(g10
g3
NtRp46
(dp47
g13
F8.795108214256409
sg14
I3
sg15
I00
sg16
I7
sg17
I49
sbs(I14
I9
tp48
g1
(g10
g3
NtRp49
(dp50
g13
F9.6752129112765299
sg14
I14
sg15
I01
sg16
I9
sg17
I130
sbs(I5
I8
tp51
g1
(g10
g3
NtRp52
(dp53
g13
F12.415990490792151
sg14
I5
sg15
I01
sg16
I8
sg17
I45
sbs(I1
I2
tp54
g1
(g10
g3
NtRp55
(dp56
g13
F-30
sg14
I1
sg15
I01
sg16
I2
sg17
I1
sbs(I12
I2
tp57
g1
(g10
g3
NtRp58
(dp59
g13
F20.834097234348373
sg14
I12
sg15
I01
sg16
I2
sg17
I104
sbs(I20
I12
tp60
g1
(g10
g3
NtRp61
(dp62
g13
F-27.626813326408957
sg14
I20
sg15
I01
sg16
I12
sg17
I328
sbs(I4
I9
tp63
g1
(g10
g3
NtRp64
(dp65
g13
F1.4420831443769395
sg14
I4
sg15
I01
sg16
I9
sg17
I57
sbs(I3
I3
tp66
g1
(g10
g3
NtRp67
(dp68
g13
F-15.44597913238343
sg14
I3
sg15
I01
sg16
I3
sg17
I8
sbs(I2
I9
tp69
g1
(g10
g3
NtRp70
(dp71
g13
F26.242744335086556
sg14
I2
sg15
I01
sg16
I9
sg17
I144
sbs(I9
I21
tp72
g1
(g10
g3
NtRp73
(dp74
g13
F-4.2790413276761861
sg14
I9
sg15
I01
sg16
I21
sg17
I329
sbs(I3
I10
tp75
g1
(g10
g3
NtRp76
(dp77
g13
F6.2387377839856395
sg14
I3
sg15
I01
sg16
I10
sg17
I76
sbs(I4
I4
tp78
g1
(g10
g3
NtRp79
(dp80
g13
F3.3333298142726551
sg14
I4
sg15
I01
sg16
I4
sg17
I11
sbs(I10
I12
tp81
g1
(g10
g3
NtRp82
(dp83
g13
F-29.84532019153545
sg14
I10
sg15
I00
sg16
I12
sg17
I111
sbs(I17
I2
tp84
g1
(g10
g3
NtRp85
(dp86
g13
F-0.62784930526218596
sg14
I17
sg15
I01
sg16
I2
sg17
I202
sbs(I13
I7
tp87
g1
(g10
g3
NtRp88
(dp89
g13
F-4.312312443459442
sg14
I13
sg15
I01
sg16
I7
sg17
I108
sbs(I9
I17
tp90
g1
(g10
g3
NtRp91
(dp92
g13
F1.4182609851002901
sg14
I9
sg15
I01
sg16
I17
sg17
I258
sbs(I18
I9
tp93
g1
(g10
g3
NtRp94
(dp95
g13
F-1.0193914567098981
sg14
I18
sg15
I01
sg16
I9
sg17
I268
sbs(I2
I2
tp96
g1
(g10
g3
NtRp97
(dp98
g13
F8.4995602081262991
sg14
I2
sg15
I01
sg16
I2
sg17
I2
sbs(I15
I4
tp99
g1
(g10
g3
NtRp100
(dp101
g13
F10.473370663667083
sg14
I15
sg15
I01
sg16
I4
sg17
I173
sbs(I5
I11
tp102
g1
(g10
g3
NtRp103
(dp104
g13
F-6.2007858851922126
sg14
I5
sg15
I01
sg16
I11
sg17
I90
sbs(I15
I12
tp105
g1
(g10
g3
NtRp106
(dp107
g13
F-1.1732880772321432
sg14
I15
sg15
I01
sg16
I12
sg17
I159
sbs(I5
I4
tp108
g1
(g10
g3
NtRp109
(dp110
g13
F0.9333827439235165
sg14
I5
sg15
I01
sg16
I4
sg17
I13
sbs(I6
I6
tp111
g1
(g10
g3
NtRp112
(dp113
g13
F4.7032617023769898
sg14
I6
sg15
I01
sg16
I6
sg17
I37
sbs(I12
I14
tp114
g1
(g10
g3
NtRp115
(dp116
g13
F-22.435780891044747
sg14
I12
sg15
I01
sg16
I14
sg17
I131
sbs(I3
I13
tp117
g1
(g10
g3
NtRp118
(dp119
g13
F20.727818825461696
sg14
I3
sg15
I01
sg16
I13
sg17
I107
sbs(I9
I3
tp120
g1
(g10
g3
NtRp121
(dp122
g13
F-24.435676840426694
sg14
I9
sg15
I01
sg16
I3
sg17
I60
sbs(I9
I16
tp123
g1
(g10
g3
NtRp124
(dp125
g13
F26.6042829458775
sg14
I9
sg15
I01
sg16
I16
sg17
I240
sbs(I2
I3
tp126
g1
(g10
g3
NtRp127
(dp128
g13
F10.921799547986629
sg14
I2
sg15
I01
sg16
I3
sg17
I5
sbs(I1
I9
tp129
g1
(g10
g3
NtRp130
(dp131
g13
F13.729925460610602
sg14
I1
sg15
I01
sg16
I9
sg17
I47
sbs(I4
I2
tp132
g1
(g10
g3
NtRp133
(dp134
g13
F-27.958214320710468
sg14
I4
sg15
I01
sg16
I2
sg17
I7
sbs(I14
I2
tp135
g1
(g10
g3
NtRp136
(dp137
g13
F17.634835702808616
sg14
I14
sg15
I01
sg16
I2
sg17
I125
sbs(I4
I11
tp138
g1
(g10
g3
NtRp139
(dp140
g13
F-28.562269783084304
sg14
I4
sg15
I01
sg16
I11
sg17
I86
sbs(I3
I5
tp141
g1
(g10
g3
NtRp142
(dp143
g13
F9.2251878101695191
sg14
I3
sg15
I01
sg16
I5
sg17
I12
sbs(I10
I5
tp144
g1
(g10
g3
NtRp145
(dp146
g13
F29.443354563839925
sg14
I10
sg15
I01
sg16
I5
sg17
I79
sbs(I19
I9
tp147
g1
(g10
g3
NtRp148
(dp149
g13
F11.700809742810716
sg14
I19
sg15
I01
sg16
I9
sg17
I290
sbs(I6
I5
tp150
g1
(g10
g3
NtRp151
(dp152
g13
F-18.043434142191128
sg14
I6
sg15
I01
sg16
I5
sg17
I28
sbs(I9
I2
tp153
g1
(g10
g3
NtRp154
(dp155
g13
F-18.00052493203016
sg14
I9
sg15
I00
sg16
I2
sg17
I48
sbs(I7
I14
tp156
g1
(g10
g3
NtRp157
(dp158
g13
F0.23119688964665075
sg14
I7
sg15
I01
sg16
I14
sg17
I162
sbs(I9
I9
tp159
g1
(g10
g3
NtRp160
(dp161
g13
F19.615570528087243
sg14
I9
sg15
I00
sg16
I9
sg17
I73
sbs(I3
I6
tp162
g1
(g10
g3
NtRp163
(dp164
g13
F-25.734225383981492
sg14
I3
sg15
I01
sg16
I6
sg17
I22
sbs(I18
I7
tp165
g1
(g10
g3
NtRp166
(dp167
g13
F-3.0669822364537489
sg14
I18
sg15
I01
sg16
I7
sg17
I272
sbs(I11
I8
tp168
g1
(g10
g3
NtRp169
(dp170
g13
F13.884598032832162
sg14
I11
sg15
I01
sg16
I8
sg17
I91
sbs(I13
I18
tp171
g1
(g10
g3
NtRp172
(dp173
g13
F2.74540317116944
sg14
I13
sg15
I01
sg16
I18
sg17
I271
sbs(I10
I20
tp174
g1
(g10
g3
NtRp175
(dp176
g13
F9.7888909033142788
sg14
I10
sg15
I01
sg16
I20
sg17
I327
sbs(I4
I3
tp177
g1
(g10
g3
NtRp178
(dp179
g13
F8.3759754787881295
sg14
I4
sg15
I01
sg16
I3
sg17
I10
sbs(I2
I15
tp180
g1
(g10
g3
NtRp181
(dp182
g13
F-8.7155840006419982
sg14
I2
sg15
I01
sg16
I15
sg17
I172
sbs(I4
I8
tp183
g1
(g10
g3
NtRp184
(dp185
g13
F-12.031669331191251
sg14
I4
sg15
I01
sg16
I8
sg17
I38
sbs(I5
I2
tp186
g1
(g10
g3
NtRp187
(dp188
g13
F-5.4401592175141396
sg14
I5
sg15
I01
sg16
I2
sg17
I21
sbs(I2
I4
tp189
g1
(g10
g3
NtRp190
(dp191
g13
F27.60111975919737
sg14
I2
sg15
I01
sg16
I4
sg17
I16
sbs(I11
I6
tp192
g1
(g10
g3
NtRp193
(dp194
g13
F4.0454935457851979
sg14
I11
sg15
I01
sg16
I6
sg17
I110
sbs(I10
I2
tp195
g1
(g10
g3
NtRp196
(dp197
g13
F26.416164592463932
sg14
I10
sg15
I01
sg16
I2
sg17
I66
sbssS'_input_nodes'
p198
I1
sS'_output_nodes'
p199
I1
sS'_node_gene_type'
p200
cneat.genome
NodeGene
p201
sS'_conn_gene_type'
p202
g10
sS'fitness'
p203
F0.99872596910559219
sS'parent2_id'
p204
I18355
sS'_id'
p205
I18446
sS'parent1_id'
p206
I18355
sS'_node_genes'
p207
(lp208
g1
(g201
g3
NtRp209
(dp210
S'_bias'
p211
I0
sS'_type'
p212
S'INPUT'
p213
sg205
I1
sS'_response'
p214
F4.9242730000000003
sS'_activation_type'
p215
Nsbag1
(g201
g3
NtRp216
(dp217
g211
F0.67938939644134577
sg212
S'OUTPUT'
p218
sg205
I2
sg214
F8.9580550912713299
sg215
S'tanh'
p219
sbag1
(g201
g3
NtRp220
(dp221
g211
F-3.757034292679752
sg212
S'HIDDEN'
p222
sg205
I3
sg214
F5.2272687509733142
sg215
g219
sbag1
(g201
g3
NtRp223
(dp224
g211
F2.0451823044016892
sg212
g222
sg205
I4
sg214
F-1.7229688930019949
sg215
g219
sbag1
(g201
g3
NtRp225
(dp226
g211
F-6.1233813385953262
sg212
g222
sg205
I5
sg214
F6.6984079195966393
sg215
g219
sbag1
(g201
g3
NtRp227
(dp228
g211
F-0.88054899261172936
sg212
g222
sg205
I6
sg214
F10.674397719612521
sg215
g219
sbag1
(g201
g3
NtRp229
(dp230
g211
F1.7287077279432863
sg212
g222
sg205
I7
sg214
F10.740239376247061
sg215
g219
sbag1
(g201
g3
NtRp231
(dp232
g211
F-1.240264281923074
sg212
g222
sg205
I8
sg214
F4.7015514148842561
sg215
g219
sbag1
(g201
g3
NtRp233
(dp234
g211
F2.8839614078416087
sg212
g222
sg205
I9
sg214
F-0.69671062698872244
sg215
g219
sbag1
(g201
g3
NtRp235
(dp236
g211
F5.3828684030995335
sg212
g222
sg205
I10
sg214
F2.6189343047878388
sg215
g219
sbag1
(g201
g3
NtRp237
(dp238
g211
F-4.5274907383330172
sg212
g222
sg205
I11
sg214
F9.2957987823930264
sg215
g219
sbag1
(g201
g3
NtRp239
(dp240
g211
F2.2487324420469932
sg212
g222
sg205
I12
sg214
F7.1097028054820344
sg215
g219
sbag1
(g201
g3
NtRp241
(dp242
g211
F2.6518787634416987
sg212
g222
sg205
I13
sg214
F3.8229346456506219
sg215
g219
sbag1
(g201
g3
NtRp243
(dp244
g211
F0.75427639155199833
sg212
g222
sg205
I14
sg214
F7.3076940130089865
sg215
g219
sbag1
(g201
g3
NtRp245
(dp246
g211
F-1.0841301673910548
sg212
g222
sg205
I15
sg214
F12.742029350703676
sg215
g219
sbag1
(g201
g3
NtRp247
(dp248
g211
F-3.0144828674750834
sg212
g222
sg205
I16
sg214
F6.9487310025338065
sg215
g219
sbag1
(g201
g3
NtRp249
(dp250
g211
F-0.65061626108697257
sg212
g222
sg205
I17
sg214
F3.4892591173830176
sg215
g219
sbag1
(g201
g3
NtRp251
(dp252
g211
F0.1873507261145867
sg212
g222
sg205
I18
sg214
F5.3012510911422686
sg215
g219
sbag1
(g201
g3
NtRp253
(dp254
g211
F-1.0286459235359928
sg212
g222
sg205
I19
sg214
F5.0020524875749492
sg215
g219
sbag1
(g201
g3
NtRp255
(dp256
g211
F-0.8662629722155063
sg212
g222
sg205
I20
sg214
F6.1439355714942554
sg215
g219
sbag1
(g201
g3
NtRp257
(dp258
g211
I0
sg212
g222
sg205
I21
sg214
F4.6239639154370167
sg215
g219
sbasb.