ccopy_reg
_reconstructor
p1
(cneat.chromosome
Chromosome
p2
c__builtin__
object
p3
NtRp4
(dp5
S'species_id'
p6
I23
sS'_connection_genes'
p7
(dp8
(I1
I2
tp9
g1
(cneat.genome
ConnectionGene
p10
g3
NtRp11
(dp12
S'_ConnectionGene__weight'
p13
F-16.275561618625591
sS'_ConnectionGene__in'
p14
I1
sS'_ConnectionGene__enabled'
p15
I01
sS'_ConnectionGene__out'
p16
I2
sS'_ConnectionGene__innov_number'
p17
I1
sbs(I7
I3
tp18
g1
(g10
g3
NtRp19
(dp20
g13
F17.370852821268567
sg14
I7
sg15
I01
sg16
I3
sg17
I36
sbs(I3
I2
tp21
g1
(g10
g3
NtRp22
(dp23
g13
F-3.5473287153515192
sg14
I3
sg15
I00
sg16
I2
sg17
I4
sbs(I1
I3
tp24
g1
(g10
g3
NtRp25
(dp26
g13
F9.4643847741407594
sg14
I1
sg15
I00
sg16
I3
sg17
I3
sbs(I3
I3
tp27
g1
(g10
g3
NtRp28
(dp29
g13
F11.8004152868658
sg14
I3
sg15
I01
sg16
I3
sg17
I8
sbs(I4
I7
tp30
g1
(g10
g3
NtRp31
(dp32
g13
F2.8131430216161224
sg14
I4
sg15
I01
sg16
I7
sg17
I35
sbs(I1
I4
tp33
g1
(g10
g3
NtRp34
(dp35
g13
F13.095254460673475
sg14
I1
sg15
I01
sg16
I4
sg17
I6
sbs(I6
I3
tp36
g1
(g10
g3
NtRp37
(dp38
g13
F10.762741368368369
sg14
I6
sg15
I01
sg16
I3
sg17
I23
sbs(I1
I6
tp39
g1
(g10
g3
NtRp40
(dp41
g13
F4.4689925969643749
sg14
I1
sg15
I01
sg16
I6
sg17
I27
sbs(I4
I3
tp42
g1
(g10
g3
NtRp43
(dp44
g13
F20.049809853118603
sg14
I4
sg15
I00
sg16
I3
sg17
I10
sbs(I5
I2
tp45
g1
(g10
g3
NtRp46
(dp47
g13
F1.3808623019340345
sg14
I5
sg15
I01
sg16
I2
sg17
I21
sbs(I2
I4
tp48
g1
(g10
g3
NtRp49
(dp50
g13
F-2.3960855730767334
sg14
I2
sg15
I01
sg16
I4
sg17
I16
sbs(I3
I5
tp51
g1
(g10
g3
NtRp52
(dp53
g13
F13.223224167824926
sg14
I3
sg15
I01
sg16
I5
sg17
I12
sbssS'_input_nodes'
p54
I1
sS'_output_nodes'
p55
I1
sS'_node_gene_type'
p56
cneat.genome
NodeGene
p57
sS'_conn_gene_type'
p58
g10
sS'fitness'
p59
F0.99963048965641998
sS'parent2_id'
p60
I2975
sS'_id'
p61
I3057
sS'parent1_id'
p62
I2975
sS'_node_genes'
p63
(lp64
g1
(g57
g3
NtRp65
(dp66
S'_bias'
p67
I0
sS'_type'
p68
S'INPUT'
p69
sg61
I1
sS'_response'
p70
F4.9242730000000003
sS'_activation_type'
p71
Nsbag1
(g57
g3
NtRp72
(dp73
g67
F-0.24750772883266881
sg68
S'OUTPUT'
p74
sg61
I2
sg70
F5.1568706495160956
sg71
S'tanh'
p75
sbag1
(g57
g3
NtRp76
(dp77
g67
F-1.3054071648510077
sg68
S'HIDDEN'
p78
sg61
I3
sg70
F2.6009196174704723
sg71
g75
sbag1
(g57
g3
NtRp79
(dp80
g67
F-0.61780318048497285
sg68
g78
sg61
I4
sg70
F10.112772583959757
sg71
g75
sbag1
(g57
g3
NtRp81
(dp82
g67
F0.28670243092425701
sg68
g78
sg61
I5
sg70
F3.9786168259364265
sg71
g75
sbag1
(g57
g3
NtRp83
(dp84
g67
F-1.1783071954221329
sg68
g78
sg61
I6
sg70
F5.7194810193331502
sg71
g75
sbag1
(g57
g3
NtRp85
(dp86
g67
F0.38345275748711521
sg68
g78
sg61
I7
sg70
F5.1500667653806955
sg71
g75
sbasb.