ccopy_reg
_reconstructor
p1
(cneat.chromosome
Chromosome
p2
c__builtin__
object
p3
NtRp4
(dp5
S'species_id'
p6
I77
sS'_connection_genes'
p7
(dp8
(I7
I3
tp9
g1
(cneat.genome
ConnectionGene
p10
g3
NtRp11
(dp12
S'_ConnectionGene__weight'
p13
F27.751790455730021
sS'_ConnectionGene__in'
p14
I7
sS'_ConnectionGene__enabled'
p15
I01
sS'_ConnectionGene__out'
p16
I3
sS'_ConnectionGene__innov_number'
p17
I36
sbs(I1
I3
tp18
g1
(g10
g3
NtRp19
(dp20
g13
F-14.744221691179137
sg14
I1
sg15
I01
sg16
I3
sg17
I3
sbs(I5
I9
tp21
g1
(g10
g3
NtRp22
(dp23
g13
F-2.1060557543770004
sg14
I5
sg15
I01
sg16
I9
sg17
I100
sbs(I5
I4
tp24
g1
(g10
g3
NtRp25
(dp26
g13
F0.42191815015605272
sg14
I5
sg15
I01
sg16
I4
sg17
I13
sbs(I3
I7
tp27
g1
(g10
g3
NtRp28
(dp29
g13
F-7.9051875736291919
sg14
I3
sg15
I01
sg16
I7
sg17
I49
sbs(I5
I8
tp30
g1
(g10
g3
NtRp31
(dp32
g13
F0.088571643886351414
sg14
I5
sg15
I01
sg16
I8
sg17
I45
sbs(I1
I2
tp33
g1
(g10
g3
NtRp34
(dp35
g13
F-26.42588060275925
sg14
I1
sg15
I01
sg16
I2
sg17
I1
sbs(I12
I2
tp36
g1
(g10
g3
NtRp37
(dp38
g13
F25.28774661021512
sg14
I12
sg15
I01
sg16
I2
sg17
I104
sbs(I4
I9
tp39
g1
(g10
g3
NtRp40
(dp41
g13
F9.4778804536947909
sg14
I4
sg15
I01
sg16
I9
sg17
I57
sbs(I3
I3
tp42
g1
(g10
g3
NtRp43
(dp44
g13
F-0.53060025190031967
sg14
I3
sg15
I01
sg16
I3
sg17
I8
sbs(I2
I9
tp45
g1
(g10
g3
NtRp46
(dp47
g13
F0.68401691309463342
sg14
I2
sg15
I01
sg16
I9
sg17
I144
sbs(I3
I10
tp48
g1
(g10
g3
NtRp49
(dp50
g13
F-12.355716415720178
sg14
I3
sg15
I01
sg16
I10
sg17
I76
sbs(I4
I4
tp51
g1
(g10
g3
NtRp52
(dp53
g13
F-8.1119219230993256
sg14
I4
sg15
I00
sg16
I4
sg17
I11
sbs(I10
I12
tp54
g1
(g10
g3
NtRp55
(dp56
g13
F-4.1105254606139017
sg14
I10
sg15
I01
sg16
I12
sg17
I111
sbs(I4
I8
tp57
g1
(g10
g3
NtRp58
(dp59
g13
F4.3661505096346653
sg14
I4
sg15
I01
sg16
I8
sg17
I38
sbs(I6
I5
tp60
g1
(g10
g3
NtRp61
(dp62
g13
F-19.504645772325123
sg14
I6
sg15
I01
sg16
I5
sg17
I28
sbs(I3
I6
tp63
g1
(g10
g3
NtRp64
(dp65
g13
F-13.90783839248277
sg14
I3
sg15
I01
sg16
I6
sg17
I22
sbs(I2
I2
tp66
g1
(g10
g3
NtRp67
(dp68
g13
F-2.2806154116662101
sg14
I2
sg15
I01
sg16
I2
sg17
I2
sbs(I3
I2
tp69
g1
(g10
g3
NtRp70
(dp71
g13
F14.585900237965578
sg14
I3
sg15
I01
sg16
I2
sg17
I4
sbs(I6
I6
tp72
g1
(g10
g3
NtRp73
(dp74
g13
F-1.3544182962907487
sg14
I6
sg15
I01
sg16
I6
sg17
I37
sbs(I5
I11
tp75
g1
(g10
g3
NtRp76
(dp77
g13
F9.9119949197057338
sg14
I5
sg15
I01
sg16
I11
sg17
I90
sbs(I9
I3
tp78
g1
(g10
g3
NtRp79
(dp80
g13
F-23.786719872196631
sg14
I9
sg15
I01
sg16
I3
sg17
I60
sbs(I2
I3
tp81
g1
(g10
g3
NtRp82
(dp83
g13
F9.3571863266999422
sg14
I2
sg15
I01
sg16
I3
sg17
I5
sbs(I1
I9
tp84
g1
(g10
g3
NtRp85
(dp86
g13
F9.6233533129940838
sg14
I1
sg15
I01
sg16
I9
sg17
I47
sbs(I4
I2
tp87
g1
(g10
g3
NtRp88
(dp89
g13
F-3.2868922317104703
sg14
I4
sg15
I01
sg16
I2
sg17
I7
sbs(I4
I11
tp90
g1
(g10
g3
NtRp91
(dp92
g13
F0.67854795698963366
sg14
I4
sg15
I01
sg16
I11
sg17
I86
sbs(I3
I5
tp93
g1
(g10
g3
NtRp94
(dp95
g13
F26.742884093688112
sg14
I3
sg15
I01
sg16
I5
sg17
I12
sbs(I10
I5
tp96
g1
(g10
g3
NtRp97
(dp98
g13
F2.9044810187436334
sg14
I10
sg15
I01
sg16
I5
sg17
I79
sbs(I9
I2
tp99
g1
(g10
g3
NtRp100
(dp101
g13
F-4.3894148556687078
sg14
I9
sg15
I01
sg16
I2
sg17
I48
sbs(I9
I9
tp102
g1
(g10
g3
NtRp103
(dp104
g13
F8.2891106417215319
sg14
I9
sg15
I01
sg16
I9
sg17
I73
sbs(I11
I8
tp105
g1
(g10
g3
NtRp106
(dp107
g13
F-5.6335309910900486
sg14
I11
sg15
I01
sg16
I8
sg17
I91
sbs(I4
I3
tp108
g1
(g10
g3
NtRp109
(dp110
g13
F-4.6246992336792481
sg14
I4
sg15
I01
sg16
I3
sg17
I10
sbs(I10
I2
tp111
g1
(g10
g3
NtRp112
(dp113
g13
F25.579486902281264
sg14
I10
sg15
I01
sg16
I2
sg17
I66
sbs(I5
I2
tp114
g1
(g10
g3
NtRp115
(dp116
g13
F-17.858258085120482
sg14
I5
sg15
I01
sg16
I2
sg17
I21
sbs(I2
I4
tp117
g1
(g10
g3
NtRp118
(dp119
g13
F20.719542619746516
sg14
I2
sg15
I01
sg16
I4
sg17
I16
sbs(I8
I4
tp120
g1
(g10
g3
NtRp121
(dp122
g13
F18.374392393571476
sg14
I8
sg15
I01
sg16
I4
sg17
I41
sbssS'_input_nodes'
p123
I1
sS'_output_nodes'
p124
I1
sS'_node_gene_type'
p125
cneat.genome
NodeGene
p126
sS'_conn_gene_type'
p127
g10
sS'fitness'
p128
F0.98490241005637458
sS'parent2_id'
p129
I11313
sS'_id'
p130
I11354
sS'parent1_id'
p131
I11313
sS'_node_genes'
p132
(lp133
g1
(g126
g3
NtRp134
(dp135
S'_bias'
p136
I0
sS'_type'
p137
S'INPUT'
p138
sg130
I1
sS'_response'
p139
F4.9242730000000003
sS'_activation_type'
p140
Nsbag1
(g126
g3
NtRp141
(dp142
g136
F-0.3320892657792931
sg137
S'OUTPUT'
p143
sg130
I2
sg139
F4.9086831559575321
sg140
S'tanh'
p144
sbag1
(g126
g3
NtRp145
(dp146
g136
F-2.2161703869864979
sg137
S'HIDDEN'
p147
sg130
I3
sg139
F4.668627707519823
sg140
g144
sbag1
(g126
g3
NtRp148
(dp149
g136
F2.5495883388575651
sg137
g147
sg130
I4
sg139
F1.0958811235866943
sg140
g144
sbag1
(g126
g3
NtRp150
(dp151
g136
F-1.976564376039549
sg137
g147
sg130
I5
sg139
F5.4365306734050458
sg140
g144
sbag1
(g126
g3
NtRp152
(dp153
g136
F2.6273848932600625
sg137
g147
sg130
I6
sg139
F10.260208527646444
sg140
g144
sbag1
(g126
g3
NtRp154
(dp155
g136
F-1.255051903772967
sg137
g147
sg130
I7
sg139
F11.387117584838315
sg140
g144
sbag1
(g126
g3
NtRp156
(dp157
g136
F-3.7176077832758709
sg137
g147
sg130
I8
sg139
F4.5390264618501455
sg140
g144
sbag1
(g126
g3
NtRp158
(dp159
g136
F3.2238503075311149
sg137
g147
sg130
I9
sg139
F3.2604439389682565
sg140
g144
sbag1
(g126
g3
NtRp160
(dp161
g136
F0.83834263257628172
sg137
g147
sg130
I10
sg139
F3.6561693767109844
sg140
g144
sbag1
(g126
g3
NtRp162
(dp163
g136
F-2.2196831660036755
sg137
g147
sg130
I11
sg139
F5.4546023322844324
sg140
g144
sbag1
(g126
g3
NtRp164
(dp165
g136
F0.54478952853952556
sg137
g147
sg130
I12
sg139
F4.7730743079428972
sg140
g144
sbasb.