ccopy_reg
_reconstructor
p1
(cneat.chromosome
Chromosome
p2
c__builtin__
object
p3
NtRp4
(dp5
S'species_id'
p6
I72
sS'_connection_genes'
p7
(dp8
(I7
I3
tp9
g1
(cneat.genome
ConnectionGene
p10
g3
NtRp11
(dp12
S'_ConnectionGene__weight'
p13
F23.245540355751118
sS'_ConnectionGene__in'
p14
I7
sS'_ConnectionGene__enabled'
p15
I01
sS'_ConnectionGene__out'
p16
I3
sS'_ConnectionGene__innov_number'
p17
I36
sbs(I6
I9
tp18
g1
(g10
g3
NtRp19
(dp20
g13
F-8.6702545291062911
sg14
I6
sg15
I01
sg16
I9
sg17
I81
sbs(I1
I3
tp21
g1
(g10
g3
NtRp22
(dp23
g13
F-4.9737936945568162
sg14
I1
sg15
I01
sg16
I3
sg17
I3
sbs(I8
I13
tp24
g1
(g10
g3
NtRp25
(dp26
g13
F-1.5598932008673896
sg14
I8
sg15
I01
sg16
I13
sg17
I197
sbs(I5
I9
tp27
g1
(g10
g3
NtRp28
(dp29
g13
F1.4691647986466956
sg14
I5
sg15
I01
sg16
I9
sg17
I100
sbs(I13
I4
tp30
g1
(g10
g3
NtRp31
(dp32
g13
F-1.5403569164369899
sg14
I13
sg15
I01
sg16
I4
sg17
I163
sbs(I3
I2
tp33
g1
(g10
g3
NtRp34
(dp35
g13
F30
sg14
I3
sg15
I00
sg16
I2
sg17
I4
sbs(I3
I7
tp36
g1
(g10
g3
NtRp37
(dp38
g13
F-0.5974453963786146
sg14
I3
sg15
I01
sg16
I7
sg17
I49
sbs(I12
I9
tp39
g1
(g10
g3
NtRp40
(dp41
g13
F4.7032430290524303
sg14
I12
sg15
I01
sg16
I9
sg17
I109
sbs(I1
I2
tp42
g1
(g10
g3
NtRp43
(dp44
g13
F-13.190590522756153
sg14
I1
sg15
I01
sg16
I2
sg17
I1
sbs(I4
I9
tp45
g1
(g10
g3
NtRp46
(dp47
g13
F27.2807971012022
sg14
I4
sg15
I01
sg16
I9
sg17
I57
sbs(I3
I3
tp48
g1
(g10
g3
NtRp49
(dp50
g13
F-16.479468405452678
sg14
I3
sg15
I01
sg16
I3
sg17
I8
sbs(I3
I10
tp51
g1
(g10
g3
NtRp52
(dp53
g13
F18.818907278112324
sg14
I3
sg15
I01
sg16
I10
sg17
I76
sbs(I6
I6
tp54
g1
(g10
g3
NtRp55
(dp56
g13
F-6.6222921390384037
sg14
I6
sg15
I01
sg16
I6
sg17
I37
sbs(I4
I4
tp57
g1
(g10
g3
NtRp58
(dp59
g13
F5.0233395233417006
sg14
I4
sg15
I01
sg16
I4
sg17
I11
sbs(I4
I8
tp60
g1
(g10
g3
NtRp61
(dp62
g13
F3.7245987822330955
sg14
I4
sg15
I01
sg16
I8
sg17
I38
sbs(I4
I11
tp63
g1
(g10
g3
NtRp64
(dp65
g13
F7.0282534151796696
sg14
I4
sg15
I01
sg16
I11
sg17
I86
sbs(I3
I6
tp66
g1
(g10
g3
NtRp67
(dp68
g13
F-11.424210659380115
sg14
I3
sg15
I01
sg16
I6
sg17
I22
sbs(I5
I4
tp69
g1
(g10
g3
NtRp70
(dp71
g13
F9.4441744180336435
sg14
I5
sg15
I01
sg16
I4
sg17
I13
sbs(I9
I3
tp72
g1
(g10
g3
NtRp73
(dp74
g13
F-6.0885811314751663
sg14
I9
sg15
I01
sg16
I3
sg17
I60
sbs(I2
I3
tp75
g1
(g10
g3
NtRp76
(dp77
g13
F-1.3511136676077955
sg14
I2
sg15
I01
sg16
I3
sg17
I5
sbs(I1
I9
tp78
g1
(g10
g3
NtRp79
(dp80
g13
F14.099540068489031
sg14
I1
sg15
I01
sg16
I9
sg17
I47
sbs(I6
I5
tp81
g1
(g10
g3
NtRp82
(dp83
g13
F-6.0596138270316633
sg14
I6
sg15
I01
sg16
I5
sg17
I28
sbs(I3
I5
tp84
g1
(g10
g3
NtRp85
(dp86
g13
F21.063001610815807
sg14
I3
sg15
I01
sg16
I5
sg17
I12
sbs(I10
I5
tp87
g1
(g10
g3
NtRp88
(dp89
g13
F1.7070767763547732
sg14
I10
sg15
I01
sg16
I5
sg17
I79
sbs(I9
I2
tp90
g1
(g10
g3
NtRp91
(dp92
g13
F1.01471396519936
sg14
I9
sg15
I01
sg16
I2
sg17
I48
sbs(I9
I9
tp93
g1
(g10
g3
NtRp94
(dp95
g13
F-3.2973615939660093
sg14
I9
sg15
I00
sg16
I9
sg17
I73
sbs(I11
I8
tp96
g1
(g10
g3
NtRp97
(dp98
g13
F6.2518304327453853
sg14
I11
sg15
I01
sg16
I8
sg17
I91
sbs(I4
I3
tp99
g1
(g10
g3
NtRp100
(dp101
g13
F-1.5982719686182971
sg14
I4
sg15
I01
sg16
I3
sg17
I10
sbs(I8
I4
tp102
g1
(g10
g3
NtRp103
(dp104
g13
F-2.3777750515163341
sg14
I8
sg15
I00
sg16
I4
sg17
I41
sbs(I5
I2
tp105
g1
(g10
g3
NtRp106
(dp107
g13
F-5.8201464930927829
sg14
I5
sg15
I01
sg16
I2
sg17
I21
sbs(I2
I4
tp108
g1
(g10
g3
NtRp109
(dp110
g13
F29.408602327767351
sg14
I2
sg15
I01
sg16
I4
sg17
I16
sbs(I9
I12
tp111
g1
(g10
g3
NtRp112
(dp113
g13
F5.8361988188865705
sg14
I9
sg15
I01
sg16
I12
sg17
I127
sbs(I10
I2
tp114
g1
(g10
g3
NtRp115
(dp116
g13
F29.030126520755307
sg14
I10
sg15
I01
sg16
I2
sg17
I66
sbssS'_input_nodes'
p117
I1
sS'_output_nodes'
p118
I1
sS'_node_gene_type'
p119
cneat.genome
NodeGene
p120
sS'_conn_gene_type'
p121
g10
sS'fitness'
p122
F0.96725947269537949
sS'parent2_id'
p123
I11157
sS'_id'
p124
I11235
sS'parent1_id'
p125
I11157
sS'_node_genes'
p126
(lp127
g1
(g120
g3
NtRp128
(dp129
S'_bias'
p130
I0
sS'_type'
p131
S'INPUT'
p132
sg124
I1
sS'_response'
p133
F4.9242730000000003
sS'_activation_type'
p134
Nsbag1
(g120
g3
NtRp135
(dp136
g130
F-0.65595704453101422
sg131
S'OUTPUT'
p137
sg124
I2
sg133
F3.9452324337780129
sg134
S'tanh'
p138
sbag1
(g120
g3
NtRp139
(dp140
g130
F-2.3649606670026513
sg131
S'HIDDEN'
p141
sg124
I3
sg133
F6.9486838272223528
sg134
g138
sbag1
(g120
g3
NtRp142
(dp143
g130
F4.3101602689960412
sg131
g141
sg124
I4
sg133
F0.54531114800964553
sg134
g138
sbag1
(g120
g3
NtRp144
(dp145
g130
F-1.3063943224435992
sg131
g141
sg124
I5
sg133
F6.984129108820845
sg134
g138
sbag1
(g120
g3
NtRp146
(dp147
g130
F0.14551900624159053
sg131
g141
sg124
I6
sg133
F11.495324175956405
sg134
g138
sbag1
(g120
g3
NtRp148
(dp149
g130
F-1.680341056992106
sg131
g141
sg124
I7
sg133
F10.172535036574184
sg134
g138
sbag1
(g120
g3
NtRp150
(dp151
g130
F-1.709801592604947
sg131
g141
sg124
I8
sg133
F2.7904310684440614
sg134
g138
sbag1
(g120
g3
NtRp152
(dp153
g130
F0.95843168016586933
sg131
g141
sg124
I9
sg133
F2.4837567289163305
sg134
g138
sbag1
(g120
g3
NtRp154
(dp155
g130
F3.7545369613125454
sg131
g141
sg124
I10
sg133
F2.5436559684615601
sg134
g138
sbag1
(g120
g3
NtRp156
(dp157
g130
F0.66013624056876108
sg131
g141
sg124
I11
sg133
F7.2159471025506221
sg134
g138
sbag1
(g120
g3
NtRp158
(dp159
g130
F-0.69530633732875136
sg131
g141
sg124
I12
sg133
F3.059429541948874
sg134
g138
sbag1
(g120
g3
NtRp160
(dp161
g130
F-0.87555767182822986
sg131
g141
sg124
I13
sg133
F4.9242730000000003
sg134
g138
sbasb.