ccopy_reg
_reconstructor
p1
(cneat.chromosome
Chromosome
p2
c__builtin__
object
p3
NtRp4
(dp5
S'species_id'
p6
I88
sS'_connection_genes'
p7
(dp8
(I7
I3
tp9
g1
(cneat.genome
ConnectionGene
p10
g3
NtRp11
(dp12
S'_ConnectionGene__weight'
p13
F22.190229134865533
sS'_ConnectionGene__in'
p14
I7
sS'_ConnectionGene__enabled'
p15
I01
sS'_ConnectionGene__out'
p16
I3
sS'_ConnectionGene__innov_number'
p17
I36
sbs(I6
I9
tp18
g1
(g10
g3
NtRp19
(dp20
g13
F-16.858396341172426
sg14
I6
sg15
I01
sg16
I9
sg17
I81
sbs(I1
I3
tp21
g1
(g10
g3
NtRp22
(dp23
g13
F7.8405601891206462
sg14
I1
sg15
I01
sg16
I3
sg17
I3
sbs(I8
I13
tp24
g1
(g10
g3
NtRp25
(dp26
g13
F-8.914817573456526
sg14
I8
sg15
I01
sg16
I13
sg17
I197
sbs(I5
I9
tp27
g1
(g10
g3
NtRp28
(dp29
g13
F4.8589691307622198
sg14
I5
sg15
I01
sg16
I9
sg17
I100
sbs(I13
I4
tp30
g1
(g10
g3
NtRp31
(dp32
g13
F-6.9870070705580094
sg14
I13
sg15
I01
sg16
I4
sg17
I163
sbs(I3
I2
tp33
g1
(g10
g3
NtRp34
(dp35
g13
F28.606425125451185
sg14
I3
sg15
I00
sg16
I2
sg17
I4
sbs(I3
I7
tp36
g1
(g10
g3
NtRp37
(dp38
g13
F8.4092825794815695
sg14
I3
sg15
I01
sg16
I7
sg17
I49
sbs(I12
I9
tp39
g1
(g10
g3
NtRp40
(dp41
g13
F4.0352311814537156
sg14
I12
sg15
I01
sg16
I9
sg17
I109
sbs(I1
I2
tp42
g1
(g10
g3
NtRp43
(dp44
g13
F-15.793712641803841
sg14
I1
sg15
I01
sg16
I2
sg17
I1
sbs(I4
I9
tp45
g1
(g10
g3
NtRp46
(dp47
g13
F28.570598531122979
sg14
I4
sg15
I01
sg16
I9
sg17
I57
sbs(I3
I3
tp48
g1
(g10
g3
NtRp49
(dp50
g13
F-17.809539355351166
sg14
I3
sg15
I01
sg16
I3
sg17
I8
sbs(I9
I15
tp51
g1
(g10
g3
NtRp52
(dp53
g13
F7.8617948086397575
sg14
I9
sg15
I01
sg16
I15
sg17
I219
sbs(I3
I10
tp54
g1
(g10
g3
NtRp55
(dp56
g13
F27.080357036423379
sg14
I3
sg15
I01
sg16
I10
sg17
I76
sbs(I6
I6
tp57
g1
(g10
g3
NtRp58
(dp59
g13
F-1.9474380302765399
sg14
I6
sg15
I01
sg16
I6
sg17
I37
sbs(I4
I4
tp60
g1
(g10
g3
NtRp61
(dp62
g13
F6.5079776979186938
sg14
I4
sg15
I01
sg16
I4
sg17
I11
sbs(I4
I8
tp63
g1
(g10
g3
NtRp64
(dp65
g13
F10.64873149142905
sg14
I4
sg15
I01
sg16
I8
sg17
I38
sbs(I4
I11
tp66
g1
(g10
g3
NtRp67
(dp68
g13
F-5.6596333195107951
sg14
I4
sg15
I01
sg16
I11
sg17
I86
sbs(I3
I6
tp69
g1
(g10
g3
NtRp70
(dp71
g13
F-13.50309768393608
sg14
I3
sg15
I01
sg16
I6
sg17
I22
sbs(I14
I14
tp72
g1
(g10
g3
NtRp73
(dp74
g13
F3.9560359501418798
sg14
I14
sg15
I01
sg16
I14
sg17
I184
sbs(I5
I4
tp75
g1
(g10
g3
NtRp76
(dp77
g13
F3.2684765174059693
sg14
I5
sg15
I01
sg16
I4
sg17
I13
sbs(I15
I3
tp78
g1
(g10
g3
NtRp79
(dp80
g13
F5.5005662839001266
sg14
I15
sg15
I01
sg16
I3
sg17
I182
sbs(I9
I3
tp81
g1
(g10
g3
NtRp82
(dp83
g13
F-1.0452100651363958
sg14
I9
sg15
I00
sg16
I3
sg17
I60
sbs(I2
I3
tp84
g1
(g10
g3
NtRp85
(dp86
g13
F-5.4788929048824695
sg14
I2
sg15
I01
sg16
I3
sg17
I5
sbs(I1
I9
tp87
g1
(g10
g3
NtRp88
(dp89
g13
F19.322410796995026
sg14
I1
sg15
I01
sg16
I9
sg17
I47
sbs(I14
I2
tp90
g1
(g10
g3
NtRp91
(dp92
g13
F23.824119621489544
sg14
I14
sg15
I01
sg16
I2
sg17
I125
sbs(I6
I5
tp93
g1
(g10
g3
NtRp94
(dp95
g13
F-8.9859757673553879
sg14
I6
sg15
I01
sg16
I5
sg17
I28
sbs(I3
I5
tp96
g1
(g10
g3
NtRp97
(dp98
g13
F16.381808253065856
sg14
I3
sg15
I01
sg16
I5
sg17
I12
sbs(I10
I5
tp99
g1
(g10
g3
NtRp100
(dp101
g13
F2.7509881775013625
sg14
I10
sg15
I01
sg16
I5
sg17
I79
sbs(I6
I8
tp102
g1
(g10
g3
NtRp103
(dp104
g13
F6.6236739786686591
sg14
I6
sg15
I01
sg16
I8
sg17
I51
sbs(I9
I2
tp105
g1
(g10
g3
NtRp106
(dp107
g13
F-7.5562152165562244
sg14
I9
sg15
I01
sg16
I2
sg17
I48
sbs(I9
I9
tp108
g1
(g10
g3
NtRp109
(dp110
g13
F-1.2346296849524292
sg14
I9
sg15
I00
sg16
I9
sg17
I73
sbs(I11
I8
tp111
g1
(g10
g3
NtRp112
(dp113
g13
F13.6988853132573
sg14
I11
sg15
I01
sg16
I8
sg17
I91
sbs(I10
I14
tp114
g1
(g10
g3
NtRp115
(dp116
g13
F9.7370543141234709
sg14
I10
sg15
I01
sg16
I14
sg17
I145
sbs(I4
I3
tp117
g1
(g10
g3
NtRp118
(dp119
g13
F-0.28003071004999747
sg14
I4
sg15
I01
sg16
I3
sg17
I10
sbs(I8
I4
tp120
g1
(g10
g3
NtRp121
(dp122
g13
F3.0866568970141959
sg14
I8
sg15
I00
sg16
I4
sg17
I41
sbs(I5
I2
tp123
g1
(g10
g3
NtRp124
(dp125
g13
F-9.4267771807443683
sg14
I5
sg15
I01
sg16
I2
sg17
I21
sbs(I2
I4
tp126
g1
(g10
g3
NtRp127
(dp128
g13
F29.309429163838871
sg14
I2
sg15
I01
sg16
I4
sg17
I16
sbs(I9
I12
tp129
g1
(g10
g3
NtRp130
(dp131
g13
F8.4579487404576383
sg14
I9
sg15
I01
sg16
I12
sg17
I127
sbs(I10
I2
tp132
g1
(g10
g3
NtRp133
(dp134
g13
F29.719891289980843
sg14
I10
sg15
I00
sg16
I2
sg17
I66
sbssS'_input_nodes'
p135
I1
sS'_output_nodes'
p136
I1
sS'_node_gene_type'
p137
cneat.genome
NodeGene
p138
sS'_conn_gene_type'
p139
g10
sS'fitness'
p140
F0.97823406200061069
sS'parent2_id'
p141
I12232
sS'_id'
p142
I12277
sS'parent1_id'
p143
I12232
sS'_node_genes'
p144
(lp145
g1
(g138
g3
NtRp146
(dp147
S'_bias'
p148
I0
sS'_type'
p149
S'INPUT'
p150
sg142
I1
sS'_response'
p151
F4.9242730000000003
sS'_activation_type'
p152
Nsbag1
(g138
g3
NtRp153
(dp154
g148
F-0.16218164928120482
sg149
S'OUTPUT'
p155
sg142
I2
sg151
F5.3111372291336911
sg152
S'tanh'
p156
sbag1
(g138
g3
NtRp157
(dp158
g148
F-4.5250870592584507
sg149
S'HIDDEN'
p159
sg142
I3
sg151
F5.8997261903505942
sg152
g156
sbag1
(g138
g3
NtRp160
(dp161
g148
F3.8969222917869391
sg149
g159
sg142
I4
sg151
F0.68363561307541143
sg152
g156
sbag1
(g138
g3
NtRp162
(dp163
g148
F-1.6553832012151575
sg149
g159
sg142
I5
sg151
F7.735692409825849
sg152
g156
sbag1
(g138
g3
NtRp164
(dp165
g148
F0.57177580118400084
sg149
g159
sg142
I6
sg151
F9.9469966373339531
sg152
g156
sbag1
(g138
g3
NtRp166
(dp167
g148
F-3.467174122895583
sg149
g159
sg142
I7
sg151
F9.9959736548490614
sg152
g156
sbag1
(g138
g3
NtRp168
(dp169
g148
F-0.70468528117099127
sg149
g159
sg142
I8
sg151
F2.997897463304644
sg152
g156
sbag1
(g138
g3
NtRp170
(dp171
g148
F0.36639013502603035
sg149
g159
sg142
I9
sg151
F2.4837567289163305
sg152
g156
sbag1
(g138
g3
NtRp172
(dp173
g148
F4.2090476723666752
sg149
g159
sg142
I10
sg151
F2.6716338076104225
sg152
g156
sbag1
(g138
g3
NtRp174
(dp175
g148
F-0.1918057812883831
sg149
g159
sg142
I11
sg151
F7.0687287790634628
sg152
g156
sbag1
(g138
g3
NtRp176
(dp177
g148
F-1.4598900624060165
sg149
g159
sg142
I12
sg151
F4.3820421771861344
sg152
g156
sbag1
(g138
g3
NtRp178
(dp179
g148
F-1.5112440886030361
sg149
g159
sg142
I13
sg151
F4.9323553662367132
sg152
g156
sbag1
(g138
g3
NtRp180
(dp181
g148
F-0.76860787792591068
sg149
g159
sg142
I14
sg151
F4.6505293875220799
sg152
g156
sbag1
(g138
g3
NtRp182
(dp183
g148
F0.56320568698430651
sg149
g159
sg142
I15
sg151
F4.8579092241735928
sg152
g156
sbasb.