ccopy_reg
_reconstructor
p1
(cneat.chromosome
Chromosome
p2
c__builtin__
object
p3
NtRp4
(dp5
S'species_id'
p6
I49
sS'_connection_genes'
p7
(dp8
(I1
I3
tp9
g1
(cneat.genome
ConnectionGene
p10
g3
NtRp11
(dp12
S'_ConnectionGene__weight'
p13
F9.8919058613163617
sS'_ConnectionGene__in'
p14
I1
sS'_ConnectionGene__enabled'
p15
I01
sS'_ConnectionGene__out'
p16
I3
sS'_ConnectionGene__innov_number'
p17
I3
sbs(I5
I6
tp18
g1
(g10
g3
NtRp19
(dp20
g13
F-0.31750902034900275
sg14
I5
sg15
I01
sg16
I6
sg17
I25
sbs(I8
I9
tp21
g1
(g10
g3
NtRp22
(dp23
g13
F1.1087115734816033
sg14
I8
sg15
I01
sg16
I9
sg17
I61
sbs(I6
I2
tp24
g1
(g10
g3
NtRp25
(dp26
g13
F6.2758674007563808
sg14
I6
sg15
I01
sg16
I2
sg17
I18
sbs(I3
I7
tp27
g1
(g10
g3
NtRp28
(dp29
g13
F1.8139656900805363
sg14
I3
sg15
I01
sg16
I7
sg17
I49
sbs(I10
I3
tp30
g1
(g10
g3
NtRp31
(dp32
g13
F-10.840253514503937
sg14
I10
sg15
I01
sg16
I3
sg17
I71
sbs(I7
I2
tp33
g1
(g10
g3
NtRp34
(dp35
g13
F-4.900505829233488
sg14
I7
sg15
I01
sg16
I2
sg17
I31
sbs(I1
I2
tp36
g1
(g10
g3
NtRp37
(dp38
g13
F-14.367361259767947
sg14
I1
sg15
I01
sg16
I2
sg17
I1
sbs(I3
I3
tp39
g1
(g10
g3
NtRp40
(dp41
g13
F20.488122253084196
sg14
I3
sg15
I01
sg16
I3
sg17
I8
sbs(I8
I10
tp42
g1
(g10
g3
NtRp43
(dp44
g13
F4.2809413184866978
sg14
I8
sg15
I01
sg16
I10
sg17
I65
sbs(I5
I8
tp45
g1
(g10
g3
NtRp46
(dp47
g13
F2.8746370013621863
sg14
I5
sg15
I01
sg16
I8
sg17
I45
sbs(I5
I3
tp48
g1
(g10
g3
NtRp49
(dp50
g13
F7.9700272585440279
sg14
I5
sg15
I01
sg16
I3
sg17
I15
sbs(I3
I2
tp51
g1
(g10
g3
NtRp52
(dp53
g13
F9.0472084796668018
sg14
I3
sg15
I01
sg16
I2
sg17
I4
sbs(I8
I2
tp54
g1
(g10
g3
NtRp55
(dp56
g13
F-22.206616120504378
sg14
I8
sg15
I01
sg16
I2
sg17
I46
sbs(I4
I5
tp57
g1
(g10
g3
NtRp58
(dp59
g13
F0.51509931468052184
sg14
I4
sg15
I01
sg16
I5
sg17
I20
sbs(I9
I3
tp60
g1
(g10
g3
NtRp61
(dp62
g13
F0.64654101262581198
sg14
I9
sg15
I01
sg16
I3
sg17
I60
sbs(I1
I4
tp63
g1
(g10
g3
NtRp64
(dp65
g13
F8.5872854438396278
sg14
I1
sg15
I01
sg16
I4
sg17
I6
sbs(I7
I5
tp66
g1
(g10
g3
NtRp67
(dp68
g13
F6.3331223280906039
sg14
I7
sg15
I01
sg16
I5
sg17
I50
sbs(I3
I5
tp69
g1
(g10
g3
NtRp70
(dp71
g13
F23.892340942705967
sg14
I3
sg15
I00
sg16
I5
sg17
I12
sbs(I8
I3
tp72
g1
(g10
g3
NtRp73
(dp74
g13
F-10.274541190198061
sg14
I8
sg15
I00
sg16
I3
sg17
I39
sbs(I4
I3
tp75
g1
(g10
g3
NtRp76
(dp77
g13
F30
sg14
I4
sg15
I01
sg16
I3
sg17
I10
sbs(I5
I2
tp78
g1
(g10
g3
NtRp79
(dp80
g13
F-23.240801341028977
sg14
I5
sg15
I01
sg16
I2
sg17
I21
sbs(I2
I4
tp81
g1
(g10
g3
NtRp82
(dp83
g13
F-1.8975131291955127
sg14
I2
sg15
I01
sg16
I4
sg17
I16
sbssS'_input_nodes'
p84
I1
sS'_output_nodes'
p85
I1
sS'_node_gene_type'
p86
cneat.genome
NodeGene
p87
sS'_conn_gene_type'
p88
g10
sS'fitness'
p89
F0.97794429104227987
sS'parent2_id'
p90
I6531
sS'_id'
p91
I6614
sS'parent1_id'
p92
I6531
sS'_node_genes'
p93
(lp94
g1
(g87
g3
NtRp95
(dp96
S'_bias'
p97
I0
sS'_type'
p98
S'INPUT'
p99
sg91
I1
sS'_response'
p100
F4.9242730000000003
sS'_activation_type'
p101
Nsbag1
(g87
g3
NtRp102
(dp103
g97
F-2.0143806693724011
sg98
S'OUTPUT'
p104
sg91
I2
sg100
F5.5770600616701493
sg101
S'tanh'
p105
sbag1
(g87
g3
NtRp106
(dp107
g97
F1.610016889950042
sg98
S'HIDDEN'
p108
sg91
I3
sg100
F1.4599806218999449
sg101
g105
sbag1
(g87
g3
NtRp109
(dp110
g97
F-1.8429510890006435
sg98
g108
sg91
I4
sg100
F6.902805288612277
sg101
g105
sbag1
(g87
g3
NtRp111
(dp112
g97
F2.3154047782823772
sg98
g108
sg91
I5
sg100
F5.0541260081547907
sg101
g105
sbag1
(g87
g3
NtRp113
(dp114
g97
F0.57813687332237307
sg98
g108
sg91
I6
sg100
F5.4751843933721887
sg101
g105
sbag1
(g87
g3
NtRp115
(dp116
g97
F-0.96546255693229821
sg98
g108
sg91
I7
sg100
F5.6417798390825409
sg101
g105
sbag1
(g87
g3
NtRp117
(dp118
g97
F3.2764957752812229
sg98
g108
sg91
I8
sg100
F8.1293339724578004
sg101
g105
sbag1
(g87
g3
NtRp119
(dp120
g97
F0.66547257213322264
sg98
g108
sg91
I9
sg100
F3.1884762096946591
sg101
g105
sbag1
(g87
g3
NtRp121
(dp122
g97
F0.34027326907370442
sg98
g108
sg91
I10
sg100
F4.4347714216418375
sg101
g105
sbasb.