ccopy_reg
_reconstructor
p1
(cneat.chromosome
Chromosome
p2
c__builtin__
object
p3
NtRp4
(dp5
S'species_id'
p6
I59
sS'_connection_genes'
p7
(dp8
(I1
I3
tp9
g1
(cneat.genome
ConnectionGene
p10
g3
NtRp11
(dp12
S'_ConnectionGene__weight'
p13
F17.653207460088492
sS'_ConnectionGene__in'
p14
I1
sS'_ConnectionGene__enabled'
p15
I01
sS'_ConnectionGene__out'
p16
I3
sS'_ConnectionGene__innov_number'
p17
I3
sbs(I5
I6
tp18
g1
(g10
g3
NtRp19
(dp20
g13
F6.9543420121502493
sg14
I5
sg15
I01
sg16
I6
sg17
I25
sbs(I8
I9
tp21
g1
(g10
g3
NtRp22
(dp23
g13
F0.60029532030831922
sg14
I8
sg15
I00
sg16
I9
sg17
I61
sbs(I6
I2
tp24
g1
(g10
g3
NtRp25
(dp26
g13
F13.88552558559349
sg14
I6
sg15
I01
sg16
I2
sg17
I18
sbs(I3
I7
tp27
g1
(g10
g3
NtRp28
(dp29
g13
F-3.1792342155116584
sg14
I3
sg15
I01
sg16
I7
sg17
I49
sbs(I5
I8
tp30
g1
(g10
g3
NtRp31
(dp32
g13
F1.6870450556554331
sg14
I5
sg15
I01
sg16
I8
sg17
I45
sbs(I1
I2
tp33
g1
(g10
g3
NtRp34
(dp35
g13
F-2.4726730058085864
sg14
I1
sg15
I01
sg16
I2
sg17
I1
sbs(I12
I2
tp36
g1
(g10
g3
NtRp37
(dp38
g13
F-13.382138866626716
sg14
I12
sg15
I01
sg16
I2
sg17
I104
sbs(I6
I7
tp39
g1
(g10
g3
NtRp40
(dp41
g13
F9.0013185650853345
sg14
I6
sg15
I01
sg16
I7
sg17
I34
sbs(I3
I3
tp42
g1
(g10
g3
NtRp43
(dp44
g13
F16.948360237938669
sg14
I3
sg15
I01
sg16
I3
sg17
I8
sbs(I7
I12
tp45
g1
(g10
g3
NtRp46
(dp47
g13
F2.9690572881765376
sg14
I7
sg15
I01
sg16
I12
sg17
I103
sbs(I7
I2
tp48
g1
(g10
g3
NtRp49
(dp50
g13
F-16.075459227615724
sg14
I7
sg15
I00
sg16
I2
sg17
I31
sbs(I5
I3
tp51
g1
(g10
g3
NtRp52
(dp53
g13
F22.191053798942001
sg14
I5
sg15
I01
sg16
I3
sg17
I15
sbs(I10
I13
tp54
g1
(g10
g3
NtRp55
(dp56
g13
F-3.1858675493627162
sg14
I10
sg15
I01
sg16
I13
sg17
I143
sbs(I3
I2
tp57
g1
(g10
g3
NtRp58
(dp59
g13
F8.1562089108294096
sg14
I3
sg15
I01
sg16
I2
sg17
I4
sbs(I11
I9
tp60
g1
(g10
g3
NtRp61
(dp62
g13
F-3.0442881313509389
sg14
I11
sg15
I01
sg16
I9
sg17
I102
sbs(I13
I2
tp63
g1
(g10
g3
NtRp64
(dp65
g13
F-27.191518590364684
sg14
I13
sg15
I01
sg16
I2
sg17
I121
sbs(I8
I2
tp66
g1
(g10
g3
NtRp67
(dp68
g13
F-19.333371492415193
sg14
I8
sg15
I01
sg16
I2
sg17
I46
sbs(I4
I5
tp69
g1
(g10
g3
NtRp70
(dp71
g13
F0.16672214080851244
sg14
I4
sg15
I01
sg16
I5
sg17
I20
sbs(I8
I11
tp72
g1
(g10
g3
NtRp73
(dp74
g13
F11.66511364939425
sg14
I8
sg15
I01
sg16
I11
sg17
I98
sbs(I9
I3
tp75
g1
(g10
g3
NtRp76
(dp77
g13
F-0.00031620275511112794
sg14
I9
sg15
I01
sg16
I3
sg17
I60
sbs(I1
I4
tp78
g1
(g10
g3
NtRp79
(dp80
g13
F-2.1074445799241248
sg14
I1
sg15
I01
sg16
I4
sg17
I6
sbs(I2
I10
tp81
g1
(g10
g3
NtRp82
(dp83
g13
F2.9550853021485688
sg14
I2
sg15
I01
sg16
I10
sg17
I69
sbs(I7
I5
tp84
g1
(g10
g3
NtRp85
(dp86
g13
F3.9891833567940829
sg14
I7
sg15
I01
sg16
I5
sg17
I50
sbs(I3
I5
tp87
g1
(g10
g3
NtRp88
(dp89
g13
F3.1565633463534897
sg14
I3
sg15
I01
sg16
I5
sg17
I12
sbs(I8
I3
tp90
g1
(g10
g3
NtRp91
(dp92
g13
F-5.2259019835682512
sg14
I8
sg15
I01
sg16
I3
sg17
I39
sbs(I5
I10
tp93
g1
(g10
g3
NtRp94
(dp95
g13
F6.7738788940863497
sg14
I5
sg15
I01
sg16
I10
sg17
I67
sbs(I4
I3
tp96
g1
(g10
g3
NtRp97
(dp98
g13
F15.52385594717329
sg14
I4
sg15
I01
sg16
I3
sg17
I10
sbs(I5
I2
tp99
g1
(g10
g3
NtRp100
(dp101
g13
F-27.302038718572792
sg14
I5
sg15
I01
sg16
I2
sg17
I21
sbs(I2
I4
tp102
g1
(g10
g3
NtRp103
(dp104
g13
F-15.893530748627919
sg14
I2
sg15
I01
sg16
I4
sg17
I16
sbs(I10
I2
tp105
g1
(g10
g3
NtRp106
(dp107
g13
F-18.278080832981818
sg14
I10
sg15
I00
sg16
I2
sg17
I66
sbssS'_input_nodes'
p108
I1
sS'_output_nodes'
p109
I1
sS'_node_gene_type'
p110
cneat.genome
NodeGene
p111
sS'_conn_gene_type'
p112
g10
sS'fitness'
p113
F0.98905066561790078
sS'parent2_id'
p114
I9567
sS'_id'
p115
I9729
sS'parent1_id'
p116
I9567
sS'_node_genes'
p117
(lp118
g1
(g111
g3
NtRp119
(dp120
S'_bias'
p121
I0
sS'_type'
p122
S'INPUT'
p123
sg115
I1
sS'_response'
p124
F4.9242730000000003
sS'_activation_type'
p125
Nsbag1
(g111
g3
NtRp126
(dp127
g121
F-3.2274498674776431
sg122
S'OUTPUT'
p128
sg115
I2
sg124
F3.5699682797562522
sg125
S'tanh'
p129
sbag1
(g111
g3
NtRp130
(dp131
g121
F1.4810879275583142
sg122
S'HIDDEN'
p132
sg115
I3
sg124
F-3.2725532072713479
sg125
g129
sbag1
(g111
g3
NtRp133
(dp134
g121
F-2.1158677644457722
sg122
g132
sg115
I4
sg124
F9.4842718779400279
sg125
g129
sbag1
(g111
g3
NtRp135
(dp136
g121
F1.8808431011539464
sg122
g132
sg115
I5
sg124
F5.2172720538903352
sg125
g129
sbag1
(g111
g3
NtRp137
(dp138
g121
F1.8373033732706754
sg122
g132
sg115
I6
sg124
F4.8021306139287825
sg125
g129
sbag1
(g111
g3
NtRp139
(dp140
g121
F-3.2031731573491427
sg122
g132
sg115
I7
sg124
F1.6840230155863671
sg125
g129
sbag1
(g111
g3
NtRp141
(dp142
g121
F2.8046682937280947
sg122
g132
sg115
I8
sg124
F5.2921318087823952
sg125
g129
sbag1
(g111
g3
NtRp143
(dp144
g121
F-0.71247850315911043
sg122
g132
sg115
I9
sg124
F4.3376124004250265
sg125
g129
sbag1
(g111
g3
NtRp145
(dp146
g121
F-2.5798637405935945
sg122
g132
sg115
I10
sg124
F4.5972725077192003
sg125
g129
sbag1
(g111
g3
NtRp147
(dp148
g121
F-0.077124617711483184
sg122
g132
sg115
I11
sg124
F4.925275420689001
sg125
g129
sbag1
(g111
g3
NtRp149
(dp150
g121
F2.0069958756733444
sg122
g132
sg115
I12
sg124
F2.0391909068820544
sg125
g129
sbag1
(g111
g3
NtRp151
(dp152
g121
F0.96822812256932789
sg122
g132
sg115
I13
sg124
F4.3096240055090291
sg125
g129
sbasb.