ccopy_reg
_reconstructor
p1
(cneat.chromosome
Chromosome
p2
c__builtin__
object
p3
NtRp4
(dp5
S'species_id'
p6
I55
sS'_connection_genes'
p7
(dp8
(I1
I3
tp9
g1
(cneat.genome
ConnectionGene
p10
g3
NtRp11
(dp12
S'_ConnectionGene__weight'
p13
F4.0753218226044243
sS'_ConnectionGene__in'
p14
I1
sS'_ConnectionGene__enabled'
p15
I01
sS'_ConnectionGene__out'
p16
I3
sS'_ConnectionGene__innov_number'
p17
I3
sbs(I5
I6
tp18
g1
(g10
g3
NtRp19
(dp20
g13
F-7.6234573401196464
sg14
I5
sg15
I01
sg16
I6
sg17
I25
sbs(I11
I2
tp21
g1
(g10
g3
NtRp22
(dp23
g13
F-17.023407204392537
sg14
I11
sg15
I01
sg16
I2
sg17
I89
sbs(I8
I9
tp24
g1
(g10
g3
NtRp25
(dp26
g13
F2.8344965246815561
sg14
I8
sg15
I01
sg16
I9
sg17
I61
sbs(I6
I2
tp27
g1
(g10
g3
NtRp28
(dp29
g13
F1.7062238263393459
sg14
I6
sg15
I01
sg16
I2
sg17
I18
sbs(I3
I7
tp30
g1
(g10
g3
NtRp31
(dp32
g13
F-4.2265334077334069
sg14
I3
sg15
I01
sg16
I7
sg17
I49
sbs(I5
I8
tp33
g1
(g10
g3
NtRp34
(dp35
g13
F2.7432385947071318
sg14
I5
sg15
I01
sg16
I8
sg17
I45
sbs(I1
I2
tp36
g1
(g10
g3
NtRp37
(dp38
g13
F-14.027617970734912
sg14
I1
sg15
I01
sg16
I2
sg17
I1
sbs(I3
I3
tp39
g1
(g10
g3
NtRp40
(dp41
g13
F18.208416193587652
sg14
I3
sg15
I00
sg16
I3
sg17
I8
sbs(I7
I2
tp42
g1
(g10
g3
NtRp43
(dp44
g13
F0.099481155797208398
sg14
I7
sg15
I01
sg16
I2
sg17
I31
sbs(I3
I5
tp45
g1
(g10
g3
NtRp46
(dp47
g13
F19.329910915786513
sg14
I3
sg15
I01
sg16
I5
sg17
I12
sbs(I12
I3
tp48
g1
(g10
g3
NtRp49
(dp50
g13
F16.412767945476102
sg14
I12
sg15
I01
sg16
I3
sg17
I106
sbs(I3
I2
tp51
g1
(g10
g3
NtRp52
(dp53
g13
F-2.1826672341016651
sg14
I3
sg15
I01
sg16
I2
sg17
I4
sbs(I8
I2
tp54
g1
(g10
g3
NtRp55
(dp56
g13
F-17.339993124492974
sg14
I8
sg15
I00
sg16
I2
sg17
I46
sbs(I8
I11
tp57
g1
(g10
g3
NtRp58
(dp59
g13
F-0.13781831565339875
sg14
I8
sg15
I01
sg16
I11
sg17
I98
sbs(I9
I3
tp60
g1
(g10
g3
NtRp61
(dp62
g13
F0.10805968269282884
sg14
I9
sg15
I01
sg16
I3
sg17
I60
sbs(I1
I4
tp63
g1
(g10
g3
NtRp64
(dp65
g13
F0.46753903249331996
sg14
I1
sg15
I01
sg16
I4
sg17
I6
sbs(I2
I10
tp66
g1
(g10
g3
NtRp67
(dp68
g13
F-0.14322175622201783
sg14
I2
sg15
I01
sg16
I10
sg17
I69
sbs(I7
I5
tp69
g1
(g10
g3
NtRp70
(dp71
g13
F2.6775539507551493
sg14
I7
sg15
I01
sg16
I5
sg17
I50
sbs(I3
I12
tp72
g1
(g10
g3
NtRp73
(dp74
g13
F3.0838507479818427
sg14
I3
sg15
I01
sg16
I12
sg17
I105
sbs(I5
I3
tp75
g1
(g10
g3
NtRp76
(dp77
g13
F10.102989953476529
sg14
I5
sg15
I01
sg16
I3
sg17
I15
sbs(I8
I3
tp78
g1
(g10
g3
NtRp79
(dp80
g13
F-3.8001067615064041
sg14
I8
sg15
I01
sg16
I3
sg17
I39
sbs(I5
I10
tp81
g1
(g10
g3
NtRp82
(dp83
g13
F-2.0637566477060236
sg14
I5
sg15
I01
sg16
I10
sg17
I67
sbs(I4
I3
tp84
g1
(g10
g3
NtRp85
(dp86
g13
F17.717558490708182
sg14
I4
sg15
I01
sg16
I3
sg17
I10
sbs(I5
I2
tp87
g1
(g10
g3
NtRp88
(dp89
g13
F-19.065301245682583
sg14
I5
sg15
I01
sg16
I2
sg17
I21
sbs(I2
I4
tp90
g1
(g10
g3
NtRp91
(dp92
g13
F-11.65609073426279
sg14
I2
sg15
I01
sg16
I4
sg17
I16
sbs(I10
I2
tp93
g1
(g10
g3
NtRp94
(dp95
g13
F-20.52605515712176
sg14
I10
sg15
I01
sg16
I2
sg17
I66
sbssS'_input_nodes'
p96
I1
sS'_output_nodes'
p97
I1
sS'_node_gene_type'
p98
cneat.genome
NodeGene
p99
sS'_conn_gene_type'
p100
g10
sS'fitness'
p101
F0.98575604880421819
sS'parent2_id'
p102
I7875
sS'_id'
p103
I7955
sS'parent1_id'
p104
I7916
sS'_node_genes'
p105
(lp106
g1
(g99
g3
NtRp107
(dp108
S'_bias'
p109
I0
sS'_type'
p110
S'INPUT'
p111
sg103
I1
sS'_response'
p112
F4.9242730000000003
sS'_activation_type'
p113
Nsbag1
(g99
g3
NtRp114
(dp115
g109
F-1.8519921155387995
sg110
S'OUTPUT'
p116
sg103
I2
sg112
F4.4146828843367958
sg113
S'tanh'
p117
sbag1
(g99
g3
NtRp118
(dp119
g109
F1.7162171981611165
sg110
S'HIDDEN'
p120
sg103
I3
sg112
F-1.896525087401657
sg113
g117
sbag1
(g99
g3
NtRp121
(dp122
g109
F-2.6022418185183871
sg110
g120
sg103
I4
sg112
F7.1046146925728602
sg113
g117
sbag1
(g99
g3
NtRp123
(dp124
g109
F0.12938195367254224
sg110
g120
sg103
I5
sg112
F5.7649117067372373
sg113
g117
sbag1
(g99
g3
NtRp125
(dp126
g109
F1.3033255975855063
sg110
g120
sg103
I6
sg112
F2.1578451964383474
sg113
g117
sbag1
(g99
g3
NtRp127
(dp128
g109
F-2.3049607146907669
sg110
g120
sg103
I7
sg112
F5.9642543114857016
sg113
g117
sbag1
(g99
g3
NtRp129
(dp130
g109
F1.3887112104237711
sg110
g120
sg103
I8
sg112
F5.3163344883956123
sg113
g117
sbag1
(g99
g3
NtRp131
(dp132
g109
F-0.71084288316369459
sg110
g120
sg103
I9
sg112
F5.5045248303118974
sg113
g117
sbag1
(g99
g3
NtRp133
(dp134
g109
F-1.2400657960341861
sg110
g120
sg103
I10
sg112
F4.8436562192956831
sg113
g117
sbag1
(g99
g3
NtRp135
(dp136
g109
F0.84869826907993262
sg110
g120
sg103
I11
sg112
F4.9242730000000003
sg113
g117
sbag1
(g99
g3
NtRp137
(dp138
g109
F0.43271263343915106
sg110
g120
sg103
I12
sg112
F4.7135819852556704
sg113
g117
sbasb.