ccopy_reg
_reconstructor
p1
(cneat.chromosome
Chromosome
p2
c__builtin__
object
p3
NtRp4
(dp5
S'species_id'
p6
I134
sS'_connection_genes'
p7
(dp8
(I7
I3
tp9
g1
(cneat.genome
ConnectionGene
p10
g3
NtRp11
(dp12
S'_ConnectionGene__weight'
p13
F21.249505679044475
sS'_ConnectionGene__in'
p14
I7
sS'_ConnectionGene__enabled'
p15
I01
sS'_ConnectionGene__out'
p16
I3
sS'_ConnectionGene__innov_number'
p17
I36
sbs(I1
I3
tp18
g1
(g10
g3
NtRp19
(dp20
g13
F-22.498257940611907
sg14
I1
sg15
I01
sg16
I3
sg17
I3
sbs(I5
I9
tp21
g1
(g10
g3
NtRp22
(dp23
g13
F6.493372769097653
sg14
I5
sg15
I01
sg16
I9
sg17
I100
sbs(I16
I9
tp24
g1
(g10
g3
NtRp25
(dp26
g13
F19.976587449897956
sg14
I16
sg15
I01
sg16
I9
sg17
I236
sbs(I4
I21
tp27
g1
(g10
g3
NtRp28
(dp29
g13
F8.3459406795335553
sg14
I4
sg15
I01
sg16
I21
sg17
I332
sbs(I3
I13
tp30
g1
(g10
g3
NtRp31
(dp32
g13
F26.293855096564336
sg14
I3
sg15
I01
sg16
I13
sg17
I107
sbs(I5
I4
tp33
g1
(g10
g3
NtRp34
(dp35
g13
F5.7974886891135231
sg14
I5
sg15
I01
sg16
I4
sg17
I13
sbs(I4
I22
tp36
g1
(g10
g3
NtRp37
(dp38
g13
F2.9677728612378278
sg14
I4
sg15
I01
sg16
I22
sg17
I371
sbs(I2
I12
tp39
g1
(g10
g3
NtRp40
(dp41
g13
F1.8243253709883871
sg14
I2
sg15
I01
sg16
I12
sg17
I135
sbs(I7
I11
tp42
g1
(g10
g3
NtRp43
(dp44
g13
F0.51858655843396284
sg14
I7
sg15
I01
sg16
I11
sg17
I92
sbs(I3
I7
tp45
g1
(g10
g3
NtRp46
(dp47
g13
F13.391556811367082
sg14
I3
sg15
I00
sg16
I7
sg17
I49
sbs(I14
I9
tp48
g1
(g10
g3
NtRp49
(dp50
g13
F18.68884374472486
sg14
I14
sg15
I01
sg16
I9
sg17
I130
sbs(I5
I8
tp51
g1
(g10
g3
NtRp52
(dp53
g13
F19.1608619943968
sg14
I5
sg15
I01
sg16
I8
sg17
I45
sbs(I6
I14
tp54
g1
(g10
g3
NtRp55
(dp56
g13
F-13.139852283637584
sg14
I6
sg15
I01
sg16
I14
sg17
I165
sbs(I1
I2
tp57
g1
(g10
g3
NtRp58
(dp59
g13
F-27.491062852106136
sg14
I1
sg15
I01
sg16
I2
sg17
I1
sbs(I12
I2
tp60
g1
(g10
g3
NtRp61
(dp62
g13
F23.572393089336988
sg14
I12
sg15
I01
sg16
I2
sg17
I104
sbs(I20
I12
tp63
g1
(g10
g3
NtRp64
(dp65
g13
F-28.99075593343645
sg14
I20
sg15
I01
sg16
I12
sg17
I328
sbs(I4
I9
tp66
g1
(g10
g3
NtRp67
(dp68
g13
F-3.1770515840294027
sg14
I4
sg15
I01
sg16
I9
sg17
I57
sbs(I3
I3
tp69
g1
(g10
g3
NtRp70
(dp71
g13
F-6.6902603590211012
sg14
I3
sg15
I01
sg16
I3
sg17
I8
sbs(I2
I9
tp72
g1
(g10
g3
NtRp73
(dp74
g13
F25.212021611089558
sg14
I2
sg15
I01
sg16
I9
sg17
I144
sbs(I3
I10
tp75
g1
(g10
g3
NtRp76
(dp77
g13
F17.329390226897033
sg14
I3
sg15
I01
sg16
I10
sg17
I76
sbs(I4
I4
tp78
g1
(g10
g3
NtRp79
(dp80
g13
F-4.7335544540490861
sg14
I4
sg15
I00
sg16
I4
sg17
I11
sbs(I10
I12
tp81
g1
(g10
g3
NtRp82
(dp83
g13
F-21.6905564419692
sg14
I10
sg15
I01
sg16
I12
sg17
I111
sbs(I21
I8
tp84
g1
(g10
g3
NtRp85
(dp86
g13
F-16.362778081131403
sg14
I21
sg15
I01
sg16
I8
sg17
I333
sbs(I10
I18
tp87
g1
(g10
g3
NtRp88
(dp89
g13
F12.211362356259292
sg14
I10
sg15
I01
sg16
I18
sg17
I226
sbs(I17
I2
tp90
g1
(g10
g3
NtRp91
(dp92
g13
F-9.3653067945038764
sg14
I17
sg15
I01
sg16
I2
sg17
I202
sbs(I4
I8
tp93
g1
(g10
g3
NtRp94
(dp95
g13
F-14.442991407329789
sg14
I4
sg15
I00
sg16
I8
sg17
I38
sbs(I13
I7
tp96
g1
(g10
g3
NtRp97
(dp98
g13
F-15.955251453452693
sg14
I13
sg15
I01
sg16
I7
sg17
I108
sbs(I9
I17
tp99
g1
(g10
g3
NtRp100
(dp101
g13
F9.4436679939147581
sg14
I9
sg15
I01
sg16
I17
sg17
I258
sbs(I18
I9
tp102
g1
(g10
g3
NtRp103
(dp104
g13
F-11.944344828812476
sg14
I18
sg15
I01
sg16
I9
sg17
I268
sbs(I2
I2
tp105
g1
(g10
g3
NtRp106
(dp107
g13
F9.9440229361766619
sg14
I2
sg15
I01
sg16
I2
sg17
I2
sbs(I15
I4
tp108
g1
(g10
g3
NtRp109
(dp110
g13
F2.0446916588367952
sg14
I15
sg15
I01
sg16
I4
sg17
I173
sbs(I10
I2
tp111
g1
(g10
g3
NtRp112
(dp113
g13
F16.238538878797247
sg14
I10
sg15
I01
sg16
I2
sg17
I66
sbs(I15
I12
tp114
g1
(g10
g3
NtRp115
(dp116
g13
F6.0190146929360813
sg14
I15
sg15
I01
sg16
I12
sg17
I159
sbs(I3
I2
tp117
g1
(g10
g3
NtRp118
(dp119
g13
F16.371323846932306
sg14
I3
sg15
I01
sg16
I2
sg17
I4
sbs(I6
I6
tp120
g1
(g10
g3
NtRp121
(dp122
g13
F12.557353103535284
sg14
I6
sg15
I01
sg16
I6
sg17
I37
sbs(I12
I14
tp123
g1
(g10
g3
NtRp124
(dp125
g13
F-18.466706849353592
sg14
I12
sg15
I01
sg16
I14
sg17
I131
sbs(I5
I11
tp126
g1
(g10
g3
NtRp127
(dp128
g13
F-2.5786478258331913
sg14
I5
sg15
I01
sg16
I11
sg17
I90
sbs(I9
I3
tp129
g1
(g10
g3
NtRp130
(dp131
g13
F-23.160396037632992
sg14
I9
sg15
I01
sg16
I3
sg17
I60
sbs(I22
I4
tp132
g1
(g10
g3
NtRp133
(dp134
g13
F0.35981649287519368
sg14
I22
sg15
I01
sg16
I4
sg17
I356
sbs(I9
I16
tp135
g1
(g10
g3
NtRp136
(dp137
g13
F25.412606795988694
sg14
I9
sg15
I01
sg16
I16
sg17
I240
sbs(I1
I19
tp138
g1
(g10
g3
NtRp139
(dp140
g13
F2.5448387149283689
sg14
I1
sg15
I01
sg16
I19
sg17
I304
sbs(I2
I3
tp141
g1
(g10
g3
NtRp142
(dp143
g13
F6.9875673675800405
sg14
I2
sg15
I01
sg16
I3
sg17
I5
sbs(I1
I9
tp144
g1
(g10
g3
NtRp145
(dp146
g13
F12.502019977794195
sg14
I1
sg15
I01
sg16
I9
sg17
I47
sbs(I4
I2
tp147
g1
(g10
g3
NtRp148
(dp149
g13
F-25.838761562079036
sg14
I4
sg15
I01
sg16
I2
sg17
I7
sbs(I14
I2
tp150
g1
(g10
g3
NtRp151
(dp152
g13
F22.605800632393414
sg14
I14
sg15
I01
sg16
I2
sg17
I125
sbs(I4
I11
tp153
g1
(g10
g3
NtRp154
(dp155
g13
F-17.402292038606706
sg14
I4
sg15
I01
sg16
I11
sg17
I86
sbs(I3
I5
tp156
g1
(g10
g3
NtRp157
(dp158
g13
F-4.740535051222432
sg14
I3
sg15
I01
sg16
I5
sg17
I12
sbs(I10
I5
tp159
g1
(g10
g3
NtRp160
(dp161
g13
F28.04293129556126
sg14
I10
sg15
I01
sg16
I5
sg17
I79
sbs(I19
I9
tp162
g1
(g10
g3
NtRp163
(dp164
g13
F26.646232188338381
sg14
I19
sg15
I01
sg16
I9
sg17
I290
sbs(I6
I5
tp165
g1
(g10
g3
NtRp166
(dp167
g13
F-12.45345539606819
sg14
I6
sg15
I01
sg16
I5
sg17
I28
sbs(I9
I2
tp168
g1
(g10
g3
NtRp169
(dp170
g13
F-20.839210025824425
sg14
I9
sg15
I00
sg16
I2
sg17
I48
sbs(I7
I14
tp171
g1
(g10
g3
NtRp172
(dp173
g13
F-3.2773497580212685
sg14
I7
sg15
I01
sg16
I14
sg17
I162
sbs(I9
I9
tp174
g1
(g10
g3
NtRp175
(dp176
g13
F15.656169309075908
sg14
I9
sg15
I00
sg16
I9
sg17
I73
sbs(I3
I6
tp177
g1
(g10
g3
NtRp178
(dp179
g13
F-29.483611132919844
sg14
I3
sg15
I01
sg16
I6
sg17
I22
sbs(I18
I7
tp180
g1
(g10
g3
NtRp181
(dp182
g13
F1.0206631822796077
sg14
I18
sg15
I01
sg16
I7
sg17
I272
sbs(I11
I8
tp183
g1
(g10
g3
NtRp184
(dp185
g13
F0.77993713671267972
sg14
I11
sg15
I01
sg16
I8
sg17
I91
sbs(I13
I18
tp186
g1
(g10
g3
NtRp187
(dp188
g13
F5.3960915558590594
sg14
I13
sg15
I01
sg16
I18
sg17
I271
sbs(I10
I20
tp189
g1
(g10
g3
NtRp190
(dp191
g13
F6.9190301124531306
sg14
I10
sg15
I01
sg16
I20
sg17
I327
sbs(I4
I3
tp192
g1
(g10
g3
NtRp193
(dp194
g13
F11.790421426577291
sg14
I4
sg15
I01
sg16
I3
sg17
I10
sbs(I2
I15
tp195
g1
(g10
g3
NtRp196
(dp197
g13
F-2.1929835739876178
sg14
I2
sg15
I01
sg16
I15
sg17
I172
sbs(I9
I19
tp198
g1
(g10
g3
NtRp199
(dp200
g13
F3.6280241196690777
sg14
I9
sg15
I01
sg16
I19
sg17
I312
sbs(I5
I2
tp201
g1
(g10
g3
NtRp202
(dp203
g13
F-13.404026793712955
sg14
I5
sg15
I01
sg16
I2
sg17
I21
sbs(I2
I4
tp204
g1
(g10
g3
NtRp205
(dp206
g13
F18.631001600771189
sg14
I2
sg15
I01
sg16
I4
sg17
I16
sbs(I11
I6
tp207
g1
(g10
g3
NtRp208
(dp209
g13
F8.5322115168555221
sg14
I11
sg15
I01
sg16
I6
sg17
I110
sbs(I8
I4
tp210
g1
(g10
g3
NtRp211
(dp212
g13
F9.4084053069398301
sg14
I8
sg15
I01
sg16
I4
sg17
I41
sbssS'_input_nodes'
p213
I1
sS'_output_nodes'
p214
I1
sS'_node_gene_type'
p215
cneat.genome
NodeGene
p216
sS'_conn_gene_type'
p217
g10
sS'fitness'
p218
F0.99174962685620738
sS'parent2_id'
p219
I19495
sS'_id'
p220
I19619
sS'parent1_id'
p221
I19495
sS'_node_genes'
p222
(lp223
g1
(g216
g3
NtRp224
(dp225
S'_bias'
p226
I0
sS'_type'
p227
S'INPUT'
p228
sg220
I1
sS'_response'
p229
F4.9242730000000003
sS'_activation_type'
p230
Nsbag1
(g216
g3
NtRp231
(dp232
g226
F0.84726671369680007
sg227
S'OUTPUT'
p233
sg220
I2
sg229
F9.0551284250042325
sg230
S'tanh'
p234
sbag1
(g216
g3
NtRp235
(dp236
g226
F-3.1633346257638473
sg227
S'HIDDEN'
p237
sg220
I3
sg229
F5.1396289820684773
sg230
g234
sbag1
(g216
g3
NtRp238
(dp239
g226
F2.1203111975036086
sg227
g237
sg220
I4
sg229
F-1.9340074012736146
sg230
g234
sbag1
(g216
g3
NtRp240
(dp241
g226
F-3.6952957810553726
sg227
g237
sg220
I5
sg229
F9.1302605559359797
sg230
g234
sbag1
(g216
g3
NtRp242
(dp243
g226
F0.986684275032923
sg227
g237
sg220
I6
sg229
F11.861261721635323
sg230
g234
sbag1
(g216
g3
NtRp244
(dp245
g226
F1.3526254306251824
sg227
g237
sg220
I7
sg229
F11.141596946318041
sg230
g234
sbag1
(g216
g3
NtRp246
(dp247
g226
F0.17991184822071649
sg227
g237
sg220
I8
sg229
F5.0912863833011244
sg230
g234
sbag1
(g216
g3
NtRp248
(dp249
g226
F3.6436174972279116
sg227
g237
sg220
I9
sg229
F0.85618800262058403
sg230
g234
sbag1
(g216
g3
NtRp250
(dp251
g226
F4.7910647811260745
sg227
g237
sg220
I10
sg229
F3.0075460522713335
sg230
g234
sbag1
(g216
g3
NtRp252
(dp253
g226
F-2.120769567071688
sg227
g237
sg220
I11
sg229
F7.4914195935686951
sg230
g234
sbag1
(g216
g3
NtRp254
(dp255
g226
F2.0563120039759237
sg227
g237
sg220
I12
sg229
F7.6101593154438358
sg230
g234
sbag1
(g216
g3
NtRp256
(dp257
g226
F2.6074569583830205
sg227
g237
sg220
I13
sg229
F4.4471128787152301
sg230
g234
sbag1
(g216
g3
NtRp258
(dp259
g226
F0.2370626823535755
sg227
g237
sg220
I14
sg229
F11.211189154994567
sg230
g234
sbag1
(g216
g3
NtRp260
(dp261
g226
F0.78609351169309571
sg227
g237
sg220
I15
sg229
F13.620818731863858
sg230
g234
sbag1
(g216
g3
NtRp262
(dp263
g226
F-3.0010139709985988
sg227
g237
sg220
I16
sg229
F7.3503358121617506
sg230
g234
sbag1
(g216
g3
NtRp264
(dp265
g226
F-4.8549308625647836
sg227
g237
sg220
I17
sg229
F3.7686172657540675
sg230
g234
sbag1
(g216
g3
NtRp266
(dp267
g226
F1.7153058091611417
sg227
g237
sg220
I18
sg229
F4.4518073042280655
sg230
g234
sbag1
(g216
g3
NtRp268
(dp269
g226
F-2.1195826708478291
sg227
g237
sg220
I19
sg229
F5.9442294239519233
sg230
g234
sbag1
(g216
g3
NtRp270
(dp271
g226
F-0.58624994692505761
sg227
g237
sg220
I20
sg229
F5.4312261958170405
sg230
g234
sbag1
(g216
g3
NtRp272
(dp273
g226
F0.35013726800960832
sg227
g237
sg220
I21
sg229
F3.1018134765921515
sg230
g234
sbag1
(g216
g3
NtRp274
(dp275
g226
F-0.24738157700196362
sg227
g237
sg220
I22
sg229
F4.9174608574401129
sg230
g234
sbasb.