ccopy_reg
_reconstructor
p1
(cneat.chromosome
Chromosome
p2
c__builtin__
object
p3
NtRp4
(dp5
S'species_id'
p6
I52
sS'_connection_genes'
p7
(dp8
(I7
I3
tp9
g1
(cneat.genome
ConnectionGene
p10
g3
NtRp11
(dp12
S'_ConnectionGene__weight'
p13
F4.9145197520897623
sS'_ConnectionGene__in'
p14
I7
sS'_ConnectionGene__enabled'
p15
I01
sS'_ConnectionGene__out'
p16
I3
sS'_ConnectionGene__innov_number'
p17
I36
sbs(I1
I3
tp18
g1
(g10
g3
NtRp19
(dp20
g13
F-3.8875398614006835
sg14
I1
sg15
I01
sg16
I3
sg17
I3
sbs(I5
I9
tp21
g1
(g10
g3
NtRp22
(dp23
g13
F1.0024415240505211
sg14
I5
sg15
I01
sg16
I9
sg17
I100
sbs(I5
I4
tp24
g1
(g10
g3
NtRp25
(dp26
g13
F10.096817163166682
sg14
I5
sg15
I01
sg16
I4
sg17
I13
sbs(I3
I7
tp27
g1
(g10
g3
NtRp28
(dp29
g13
F2.1354724275196566
sg14
I3
sg15
I01
sg16
I7
sg17
I49
sbs(I1
I2
tp30
g1
(g10
g3
NtRp31
(dp32
g13
F-24.403931491977943
sg14
I1
sg15
I01
sg16
I2
sg17
I1
sbs(I4
I9
tp33
g1
(g10
g3
NtRp34
(dp35
g13
F7.3215101387094395
sg14
I4
sg15
I01
sg16
I9
sg17
I57
sbs(I3
I3
tp36
g1
(g10
g3
NtRp37
(dp38
g13
F-9.0733666462889051
sg14
I3
sg15
I01
sg16
I3
sg17
I8
sbs(I3
I10
tp39
g1
(g10
g3
NtRp40
(dp41
g13
F0.71983590368323913
sg14
I3
sg15
I01
sg16
I10
sg17
I76
sbs(I6
I6
tp42
g1
(g10
g3
NtRp43
(dp44
g13
F3.7834989670094834
sg14
I6
sg15
I01
sg16
I6
sg17
I37
sbs(I4
I4
tp45
g1
(g10
g3
NtRp46
(dp47
g13
F0.68093580494377104
sg14
I4
sg15
I00
sg16
I4
sg17
I11
sbs(I4
I8
tp48
g1
(g10
g3
NtRp49
(dp50
g13
F-6.2664507830994767
sg14
I4
sg15
I01
sg16
I8
sg17
I38
sbs(I3
I6
tp51
g1
(g10
g3
NtRp52
(dp53
g13
F-3.1226466382081552
sg14
I3
sg15
I01
sg16
I6
sg17
I22
sbs(I3
I2
tp54
g1
(g10
g3
NtRp55
(dp56
g13
F13.784602195098811
sg14
I3
sg15
I00
sg16
I2
sg17
I4
sbs(I9
I3
tp57
g1
(g10
g3
NtRp58
(dp59
g13
F-9.6046830410331534
sg14
I9
sg15
I01
sg16
I3
sg17
I60
sbs(I2
I3
tp60
g1
(g10
g3
NtRp61
(dp62
g13
F1.4762670492019074
sg14
I2
sg15
I01
sg16
I3
sg17
I5
sbs(I6
I5
tp63
g1
(g10
g3
NtRp64
(dp65
g13
F1.6868835150945642
sg14
I6
sg15
I01
sg16
I5
sg17
I28
sbs(I3
I5
tp66
g1
(g10
g3
NtRp67
(dp68
g13
F-7.6121863232065161
sg14
I3
sg15
I01
sg16
I5
sg17
I12
sbs(I9
I2
tp69
g1
(g10
g3
NtRp70
(dp71
g13
F0.8158507879084872
sg14
I9
sg15
I01
sg16
I2
sg17
I48
sbs(I9
I9
tp72
g1
(g10
g3
NtRp73
(dp74
g13
F3.1485264107414697
sg14
I9
sg15
I01
sg16
I9
sg17
I73
sbs(I4
I3
tp75
g1
(g10
g3
NtRp76
(dp77
g13
F6.4083650530490601
sg14
I4
sg15
I00
sg16
I3
sg17
I10
sbs(I10
I2
tp78
g1
(g10
g3
NtRp79
(dp80
g13
F14.391679040341758
sg14
I10
sg15
I01
sg16
I2
sg17
I66
sbs(I5
I2
tp81
g1
(g10
g3
NtRp82
(dp83
g13
F2.855561002791775
sg14
I5
sg15
I01
sg16
I2
sg17
I21
sbs(I2
I4
tp84
g1
(g10
g3
NtRp85
(dp86
g13
F19.096884624449633
sg14
I2
sg15
I01
sg16
I4
sg17
I16
sbs(I8
I4
tp87
g1
(g10
g3
NtRp88
(dp89
g13
F0.7743759696656034
sg14
I8
sg15
I01
sg16
I4
sg17
I41
sbssS'_input_nodes'
p90
I1
sS'_output_nodes'
p91
I1
sS'_node_gene_type'
p92
cneat.genome
NodeGene
p93
sS'_conn_gene_type'
p94
g10
sS'fitness'
p95
F0.96387916757239334
sS'parent2_id'
p96
I7136
sS'_id'
p97
I7177
sS'parent1_id'
p98
I7136
sS'_node_genes'
p99
(lp100
g1
(g93
g3
NtRp101
(dp102
S'_bias'
p103
I0
sS'_type'
p104
S'INPUT'
p105
sg97
I1
sS'_response'
p106
F4.9242730000000003
sS'_activation_type'
p107
Nsbag1
(g93
g3
NtRp108
(dp109
g103
F2.4188446512480888
sg104
S'OUTPUT'
p110
sg97
I2
sg106
F5.1415831876413245
sg107
S'tanh'
p111
sbag1
(g93
g3
NtRp112
(dp113
g103
F-2.1839321890414394
sg104
S'HIDDEN'
p114
sg97
I3
sg106
F3.6508297233951179
sg107
g111
sbag1
(g93
g3
NtRp115
(dp116
g103
F2.1859501579001921
sg104
g114
sg97
I4
sg106
F2.4854162683068983
sg107
g111
sbag1
(g93
g3
NtRp117
(dp118
g103
F-2.6051827872291775
sg104
g114
sg97
I5
sg106
F5.7694324178153344
sg107
g111
sbag1
(g93
g3
NtRp119
(dp120
g103
F1.679873151119144
sg104
g114
sg97
I6
sg106
F7.3333958992654953
sg107
g111
sbag1
(g93
g3
NtRp121
(dp122
g103
F-2.6091174693336558
sg104
g114
sg97
I7
sg106
F8.8147012624264462
sg107
g111
sbag1
(g93
g3
NtRp123
(dp124
g103
F-3.0548012106987743
sg104
g114
sg97
I8
sg106
F4.2962163817515933
sg107
g111
sbag1
(g93
g3
NtRp125
(dp126
g103
F1.9803976149486207
sg104
g114
sg97
I9
sg106
F4.8021611069473211
sg107
g111
sbag1
(g93
g3
NtRp127
(dp128
g103
I0
sg104
g114
sg97
I10
sg106
F5.390941984900171
sg107
g111
sbasb.