ccopy_reg
_reconstructor
p1
(cneat.chromosome
Chromosome
p2
c__builtin__
object
p3
NtRp4
(dp5
S'species_id'
p6
I133
sS'_connection_genes'
p7
(dp8
(I7
I3
tp9
g1
(cneat.genome
ConnectionGene
p10
g3
NtRp11
(dp12
S'_ConnectionGene__weight'
p13
F26.685217350432012
sS'_ConnectionGene__in'
p14
I7
sS'_ConnectionGene__enabled'
p15
I01
sS'_ConnectionGene__out'
p16
I3
sS'_ConnectionGene__innov_number'
p17
I36
sbs(I1
I3
tp18
g1
(g10
g3
NtRp19
(dp20
g13
F-27.103253533724917
sg14
I1
sg15
I01
sg16
I3
sg17
I3
sbs(I22
I13
tp21
g1
(g10
g3
NtRp22
(dp23
g13
F3.1572411098217321
sg14
I22
sg15
I01
sg16
I13
sg17
I389
sbs(I5
I9
tp24
g1
(g10
g3
NtRp25
(dp26
g13
F15.421659191717277
sg14
I5
sg15
I01
sg16
I9
sg17
I100
sbs(I16
I9
tp27
g1
(g10
g3
NtRp28
(dp29
g13
F26.776191245021067
sg14
I16
sg15
I01
sg16
I9
sg17
I236
sbs(I9
I19
tp30
g1
(g10
g3
NtRp31
(dp32
g13
F-5.5293096337382917
sg14
I9
sg15
I01
sg16
I19
sg17
I312
sbs(I21
I2
tp33
g1
(g10
g3
NtRp34
(dp35
g13
F-23.156561596027899
sg14
I21
sg15
I01
sg16
I2
sg17
I330
sbs(I3
I2
tp36
g1
(g10
g3
NtRp37
(dp38
g13
F19.182775078014757
sg14
I3
sg15
I01
sg16
I2
sg17
I4
sbs(I22
I9
tp39
g1
(g10
g3
NtRp40
(dp41
g13
F-5.4008528805067151
sg14
I22
sg15
I01
sg16
I9
sg17
I358
sbs(I18
I22
tp42
g1
(g10
g3
NtRp43
(dp44
g13
F7.7571035539920326
sg14
I18
sg15
I01
sg16
I22
sg17
I357
sbs(I2
I12
tp45
g1
(g10
g3
NtRp46
(dp47
g13
F-8.892485317236698
sg14
I2
sg15
I01
sg16
I12
sg17
I135
sbs(I7
I11
tp48
g1
(g10
g3
NtRp49
(dp50
g13
F-7.2488097273835468
sg14
I7
sg15
I01
sg16
I11
sg17
I92
sbs(I3
I7
tp51
g1
(g10
g3
NtRp52
(dp53
g13
F15.505862294735266
sg14
I3
sg15
I01
sg16
I7
sg17
I49
sbs(I14
I9
tp54
g1
(g10
g3
NtRp55
(dp56
g13
F11.422049268670214
sg14
I14
sg15
I01
sg16
I9
sg17
I130
sbs(I5
I8
tp57
g1
(g10
g3
NtRp58
(dp59
g13
F14.793289991905143
sg14
I5
sg15
I01
sg16
I8
sg17
I45
sbs(I20
I16
tp60
g1
(g10
g3
NtRp61
(dp62
g13
F0.16472605360644965
sg14
I20
sg15
I01
sg16
I16
sg17
I320
sbs(I1
I2
tp63
g1
(g10
g3
NtRp64
(dp65
g13
F-28.870483154845783
sg14
I1
sg15
I01
sg16
I2
sg17
I1
sbs(I12
I2
tp66
g1
(g10
g3
NtRp67
(dp68
g13
F24.63065335966057
sg14
I12
sg15
I01
sg16
I2
sg17
I104
sbs(I20
I12
tp69
g1
(g10
g3
NtRp70
(dp71
g13
F-23.475675174699724
sg14
I20
sg15
I01
sg16
I12
sg17
I328
sbs(I4
I9
tp72
g1
(g10
g3
NtRp73
(dp74
g13
F-0.85063398505201793
sg14
I4
sg15
I01
sg16
I9
sg17
I57
sbs(I3
I3
tp75
g1
(g10
g3
NtRp76
(dp77
g13
F-8.5154100984574157
sg14
I3
sg15
I01
sg16
I3
sg17
I8
sbs(I2
I9
tp78
g1
(g10
g3
NtRp79
(dp80
g13
F15.984556366504993
sg14
I2
sg15
I01
sg16
I9
sg17
I144
sbs(I9
I21
tp81
g1
(g10
g3
NtRp82
(dp83
g13
F-4.467718439179432
sg14
I9
sg15
I01
sg16
I21
sg17
I329
sbs(I3
I10
tp84
g1
(g10
g3
NtRp85
(dp86
g13
F17.584033058456633
sg14
I3
sg15
I01
sg16
I10
sg17
I76
sbs(I4
I4
tp87
g1
(g10
g3
NtRp88
(dp89
g13
F5.377670592029415
sg14
I4
sg15
I01
sg16
I4
sg17
I11
sbs(I10
I12
tp90
g1
(g10
g3
NtRp91
(dp92
g13
F-24.940340562715473
sg14
I10
sg15
I00
sg16
I12
sg17
I111
sbs(I17
I2
tp93
g1
(g10
g3
NtRp94
(dp95
g13
F13.006673347145915
sg14
I17
sg15
I01
sg16
I2
sg17
I202
sbs(I13
I7
tp96
g1
(g10
g3
NtRp97
(dp98
g13
F6.8778990116124463
sg14
I13
sg15
I01
sg16
I7
sg17
I108
sbs(I9
I17
tp99
g1
(g10
g3
NtRp100
(dp101
g13
F2.8339245652400464
sg14
I9
sg15
I01
sg16
I17
sg17
I258
sbs(I18
I9
tp102
g1
(g10
g3
NtRp103
(dp104
g13
F6.4767694282746362
sg14
I18
sg15
I00
sg16
I9
sg17
I268
sbs(I2
I2
tp105
g1
(g10
g3
NtRp106
(dp107
g13
F4.2078109202171854
sg14
I2
sg15
I01
sg16
I2
sg17
I2
sbs(I15
I4
tp108
g1
(g10
g3
NtRp109
(dp110
g13
F3.6825514724034756
sg14
I15
sg15
I01
sg16
I4
sg17
I173
sbs(I5
I11
tp111
g1
(g10
g3
NtRp112
(dp113
g13
F-19.967975456855839
sg14
I5
sg15
I01
sg16
I11
sg17
I90
sbs(I10
I2
tp114
g1
(g10
g3
NtRp115
(dp116
g13
F23.877237989996509
sg14
I10
sg15
I01
sg16
I2
sg17
I66
sbs(I15
I12
tp117
g1
(g10
g3
NtRp118
(dp119
g13
F-2.2527941083648013
sg14
I15
sg15
I01
sg16
I12
sg17
I159
sbs(I5
I4
tp120
g1
(g10
g3
NtRp121
(dp122
g13
F7.1467843518349197
sg14
I5
sg15
I01
sg16
I4
sg17
I13
sbs(I6
I6
tp123
g1
(g10
g3
NtRp124
(dp125
g13
F-9.6962449453987567
sg14
I6
sg15
I01
sg16
I6
sg17
I37
sbs(I12
I14
tp126
g1
(g10
g3
NtRp127
(dp128
g13
F-24.281544450394104
sg14
I12
sg15
I01
sg16
I14
sg17
I131
sbs(I3
I13
tp129
g1
(g10
g3
NtRp130
(dp131
g13
F20.463520196673361
sg14
I3
sg15
I01
sg16
I13
sg17
I107
sbs(I9
I3
tp132
g1
(g10
g3
NtRp133
(dp134
g13
F-11.682781866149691
sg14
I9
sg15
I01
sg16
I3
sg17
I60
sbs(I9
I16
tp135
g1
(g10
g3
NtRp136
(dp137
g13
F29.606975923437858
sg14
I9
sg15
I01
sg16
I16
sg17
I240
sbs(I2
I3
tp138
g1
(g10
g3
NtRp139
(dp140
g13
F27.761891980685924
sg14
I2
sg15
I01
sg16
I3
sg17
I5
sbs(I1
I9
tp141
g1
(g10
g3
NtRp142
(dp143
g13
F12.65561522266557
sg14
I1
sg15
I01
sg16
I9
sg17
I47
sbs(I4
I2
tp144
g1
(g10
g3
NtRp145
(dp146
g13
F-29.061917893449063
sg14
I4
sg15
I01
sg16
I2
sg17
I7
sbs(I14
I2
tp147
g1
(g10
g3
NtRp148
(dp149
g13
F17.187570405240105
sg14
I14
sg15
I01
sg16
I2
sg17
I125
sbs(I4
I11
tp150
g1
(g10
g3
NtRp151
(dp152
g13
F-13.196868851269199
sg14
I4
sg15
I01
sg16
I11
sg17
I86
sbs(I3
I5
tp153
g1
(g10
g3
NtRp154
(dp155
g13
F13.460210113751414
sg14
I3
sg15
I01
sg16
I5
sg17
I12
sbs(I10
I5
tp156
g1
(g10
g3
NtRp157
(dp158
g13
F9.5648410736157832
sg14
I10
sg15
I01
sg16
I5
sg17
I79
sbs(I19
I9
tp159
g1
(g10
g3
NtRp160
(dp161
g13
F3.5557082900228183
sg14
I19
sg15
I01
sg16
I9
sg17
I290
sbs(I6
I5
tp162
g1
(g10
g3
NtRp163
(dp164
g13
F-25.569092931253675
sg14
I6
sg15
I01
sg16
I5
sg17
I28
sbs(I9
I2
tp165
g1
(g10
g3
NtRp166
(dp167
g13
F-17.010468524858545
sg14
I9
sg15
I00
sg16
I2
sg17
I48
sbs(I7
I14
tp168
g1
(g10
g3
NtRp169
(dp170
g13
F-0.3827515685435765
sg14
I7
sg15
I01
sg16
I14
sg17
I162
sbs(I9
I9
tp171
g1
(g10
g3
NtRp172
(dp173
g13
F9.9100208246334596
sg14
I9
sg15
I00
sg16
I9
sg17
I73
sbs(I3
I6
tp174
g1
(g10
g3
NtRp175
(dp176
g13
F-24.909817341816847
sg14
I3
sg15
I01
sg16
I6
sg17
I22
sbs(I18
I7
tp177
g1
(g10
g3
NtRp178
(dp179
g13
F0.75579975087510132
sg14
I18
sg15
I01
sg16
I7
sg17
I272
sbs(I11
I8
tp180
g1
(g10
g3
NtRp181
(dp182
g13
F7.2196537330314303
sg14
I11
sg15
I01
sg16
I8
sg17
I91
sbs(I13
I18
tp183
g1
(g10
g3
NtRp184
(dp185
g13
F-0.55413761192874245
sg14
I13
sg15
I01
sg16
I18
sg17
I271
sbs(I10
I20
tp186
g1
(g10
g3
NtRp187
(dp188
g13
F11.562855721559583
sg14
I10
sg15
I01
sg16
I20
sg17
I327
sbs(I4
I3
tp189
g1
(g10
g3
NtRp190
(dp191
g13
F8.3092717195631955
sg14
I4
sg15
I01
sg16
I3
sg17
I10
sbs(I2
I15
tp192
g1
(g10
g3
NtRp193
(dp194
g13
F-4.5149026526882201
sg14
I2
sg15
I01
sg16
I15
sg17
I172
sbs(I4
I8
tp195
g1
(g10
g3
NtRp196
(dp197
g13
F-7.8402548143756032
sg14
I4
sg15
I01
sg16
I8
sg17
I38
sbs(I5
I2
tp198
g1
(g10
g3
NtRp199
(dp200
g13
F-9.9809758932810784
sg14
I5
sg15
I01
sg16
I2
sg17
I21
sbs(I2
I4
tp201
g1
(g10
g3
NtRp202
(dp203
g13
F26.23039519138888
sg14
I2
sg15
I01
sg16
I4
sg17
I16
sbs(I11
I6
tp204
g1
(g10
g3
NtRp205
(dp206
g13
F-3.5492544560864965
sg14
I11
sg15
I01
sg16
I6
sg17
I110
sbs(I8
I4
tp207
g1
(g10
g3
NtRp208
(dp209
g13
F2.5711210047280755
sg14
I8
sg15
I01
sg16
I4
sg17
I41
sbssS'_input_nodes'
p210
I1
sS'_output_nodes'
p211
I1
sS'_node_gene_type'
p212
cneat.genome
NodeGene
p213
sS'_conn_gene_type'
p214
g10
sS'fitness'
p215
F0.99349631121648541
sS'parent2_id'
p216
I20047
sS'_id'
p217
I20096
sS'parent1_id'
p218
I20047
sS'_node_genes'
p219
(lp220
g1
(g213
g3
NtRp221
(dp222
S'_bias'
p223
I0
sS'_type'
p224
S'INPUT'
p225
sg217
I1
sS'_response'
p226
F4.9242730000000003
sS'_activation_type'
p227
Nsbag1
(g213
g3
NtRp228
(dp229
g223
F-1.2579216387666168
sg224
S'OUTPUT'
p230
sg217
I2
sg226
F9.9597628288064186
sg227
S'tanh'
p231
sbag1
(g213
g3
NtRp232
(dp233
g223
F-3.4947805227116882
sg224
S'HIDDEN'
p234
sg217
I3
sg226
F4.4311009994606732
sg227
g231
sbag1
(g213
g3
NtRp235
(dp236
g223
F1.2991185182733496
sg224
g234
sg217
I4
sg226
F-2.8962743682820999
sg227
g231
sbag1
(g213
g3
NtRp237
(dp238
g223
F-7.6184009009857592
sg224
g234
sg217
I5
sg226
F6.733872695224699
sg227
g231
sbag1
(g213
g3
NtRp239
(dp240
g223
F0.73360737774966212
sg224
g234
sg217
I6
sg226
F9.4196866569505158
sg227
g231
sbag1
(g213
g3
NtRp241
(dp242
g223
F1.2265349789297531
sg224
g234
sg217
I7
sg226
F11.147355049614641
sg227
g231
sbag1
(g213
g3
NtRp243
(dp244
g223
F-0.83461319161029046
sg224
g234
sg217
I8
sg226
F6.1145267386146473
sg227
g231
sbag1
(g213
g3
NtRp245
(dp246
g223
F1.4010476579974367
sg224
g234
sg217
I9
sg226
F-1.4092444910361934
sg227
g231
sbag1
(g213
g3
NtRp247
(dp248
g223
F4.5078325458918149
sg224
g234
sg217
I10
sg226
F3.7084897513185253
sg227
g231
sbag1
(g213
g3
NtRp249
(dp250
g223
F-5.7649446617653428
sg224
g234
sg217
I11
sg226
F9.8189047074960509
sg227
g231
sbag1
(g213
g3
NtRp251
(dp252
g223
F2.0637667349084712
sg224
g234
sg217
I12
sg226
F10.318216531709268
sg227
g231
sbag1
(g213
g3
NtRp253
(dp254
g223
F3.6144100156194456
sg224
g234
sg217
I13
sg226
F2.3505325015659713
sg227
g231
sbag1
(g213
g3
NtRp255
(dp256
g223
F2.613483020438824
sg224
g234
sg217
I14
sg226
F7.1401231191132917
sg227
g231
sbag1
(g213
g3
NtRp257
(dp258
g223
F-1.4663384400416497
sg224
g234
sg217
I15
sg226
F12.825165286768902
sg227
g231
sbag1
(g213
g3
NtRp259
(dp260
g223
F-2.7235713324596995
sg224
g234
sg217
I16
sg226
F7.8158099720774556
sg227
g231
sbag1
(g213
g3
NtRp261
(dp262
g223
F-2.3005077774711591
sg224
g234
sg217
I17
sg226
F2.1210732904001826
sg227
g231
sbag1
(g213
g3
NtRp263
(dp264
g223
F-2.1697289536165365
sg224
g234
sg217
I18
sg226
F5.6058127084021923
sg227
g231
sbag1
(g213
g3
NtRp265
(dp266
g223
F-1.1661358892186877
sg224
g234
sg217
I19
sg226
F2.7266433321327819
sg227
g231
sbag1
(g213
g3
NtRp267
(dp268
g223
F-3.6513254167713485
sg224
g234
sg217
I20
sg226
F7.5005899157372626
sg227
g231
sbag1
(g213
g3
NtRp269
(dp270
g223
F1.3184163915269904
sg224
g234
sg217
I21
sg226
F3.5991956963748417
sg227
g231
sbag1
(g213
g3
NtRp271
(dp272
g223
F-1.3525307899014094
sg224
g234
sg217
I22
sg226
F5.9480313133798282
sg227
g231
sbasb.