ccopy_reg
_reconstructor
p1
(cneat.chromosome
Chromosome
p2
c__builtin__
object
p3
NtRp4
(dp5
S'species_id'
p6
I52
sS'_connection_genes'
p7
(dp8
(I7
I3
tp9
g1
(cneat.genome
ConnectionGene
p10
g3
NtRp11
(dp12
S'_ConnectionGene__weight'
p13
F12.449960008942277
sS'_ConnectionGene__in'
p14
I7
sS'_ConnectionGene__enabled'
p15
I01
sS'_ConnectionGene__out'
p16
I3
sS'_ConnectionGene__innov_number'
p17
I36
sbs(I1
I3
tp18
g1
(g10
g3
NtRp19
(dp20
g13
F-10.422595911556613
sg14
I1
sg15
I01
sg16
I3
sg17
I3
sbs(I5
I9
tp21
g1
(g10
g3
NtRp22
(dp23
g13
F2.1668822315172123
sg14
I5
sg15
I01
sg16
I9
sg17
I100
sbs(I5
I4
tp24
g1
(g10
g3
NtRp25
(dp26
g13
F9.2202946804082249
sg14
I5
sg15
I01
sg16
I4
sg17
I13
sbs(I3
I7
tp27
g1
(g10
g3
NtRp28
(dp29
g13
F-4.0107660369939779
sg14
I3
sg15
I01
sg16
I7
sg17
I49
sbs(I1
I2
tp30
g1
(g10
g3
NtRp31
(dp32
g13
F-25.000727908588743
sg14
I1
sg15
I01
sg16
I2
sg17
I1
sbs(I4
I9
tp33
g1
(g10
g3
NtRp34
(dp35
g13
F9.5246293782588616
sg14
I4
sg15
I01
sg16
I9
sg17
I57
sbs(I3
I3
tp36
g1
(g10
g3
NtRp37
(dp38
g13
F-9.5458373516548143
sg14
I3
sg15
I01
sg16
I3
sg17
I8
sbs(I3
I10
tp39
g1
(g10
g3
NtRp40
(dp41
g13
F2.2261560702660241
sg14
I3
sg15
I01
sg16
I10
sg17
I76
sbs(I6
I6
tp42
g1
(g10
g3
NtRp43
(dp44
g13
F0.99228838584194645
sg14
I6
sg15
I01
sg16
I6
sg17
I37
sbs(I4
I4
tp45
g1
(g10
g3
NtRp46
(dp47
g13
F-2.0425531310260738
sg14
I4
sg15
I00
sg16
I4
sg17
I11
sbs(I4
I8
tp48
g1
(g10
g3
NtRp49
(dp50
g13
F0.44529639665993215
sg14
I4
sg15
I01
sg16
I8
sg17
I38
sbs(I3
I6
tp51
g1
(g10
g3
NtRp52
(dp53
g13
F-3.3603171754935546
sg14
I3
sg15
I01
sg16
I6
sg17
I22
sbs(I3
I2
tp54
g1
(g10
g3
NtRp55
(dp56
g13
F14.700077212511408
sg14
I3
sg15
I00
sg16
I2
sg17
I4
sbs(I9
I3
tp57
g1
(g10
g3
NtRp58
(dp59
g13
F-17.713434237953159
sg14
I9
sg15
I01
sg16
I3
sg17
I60
sbs(I2
I3
tp60
g1
(g10
g3
NtRp61
(dp62
g13
F3.5160421999990707
sg14
I2
sg15
I01
sg16
I3
sg17
I5
sbs(I1
I9
tp63
g1
(g10
g3
NtRp64
(dp65
g13
F-0.23050240258998697
sg14
I1
sg15
I01
sg16
I9
sg17
I47
sbs(I6
I5
tp66
g1
(g10
g3
NtRp67
(dp68
g13
F-8.0917641955932886
sg14
I6
sg15
I01
sg16
I5
sg17
I28
sbs(I3
I5
tp69
g1
(g10
g3
NtRp70
(dp71
g13
F-0.65914993744285166
sg14
I3
sg15
I01
sg16
I5
sg17
I12
sbs(I10
I5
tp72
g1
(g10
g3
NtRp73
(dp74
g13
F2.2154380630259753
sg14
I10
sg15
I01
sg16
I5
sg17
I79
sbs(I9
I2
tp75
g1
(g10
g3
NtRp76
(dp77
g13
F5.368386050040411
sg14
I9
sg15
I01
sg16
I2
sg17
I48
sbs(I9
I9
tp78
g1
(g10
g3
NtRp79
(dp80
g13
F1.5629084418286272
sg14
I9
sg15
I01
sg16
I9
sg17
I73
sbs(I4
I3
tp81
g1
(g10
g3
NtRp82
(dp83
g13
F5.8938632372980697
sg14
I4
sg15
I01
sg16
I3
sg17
I10
sbs(I10
I2
tp84
g1
(g10
g3
NtRp85
(dp86
g13
F20.514516063637895
sg14
I10
sg15
I01
sg16
I2
sg17
I66
sbs(I5
I2
tp87
g1
(g10
g3
NtRp88
(dp89
g13
F-3.2797615597728971
sg14
I5
sg15
I01
sg16
I2
sg17
I21
sbs(I2
I4
tp90
g1
(g10
g3
NtRp91
(dp92
g13
F24.401349792739133
sg14
I2
sg15
I01
sg16
I4
sg17
I16
sbs(I8
I4
tp93
g1
(g10
g3
NtRp94
(dp95
g13
F0.31260752983918416
sg14
I8
sg15
I01
sg16
I4
sg17
I41
sbssS'_input_nodes'
p96
I1
sS'_output_nodes'
p97
I1
sS'_node_gene_type'
p98
cneat.genome
NodeGene
p99
sS'_conn_gene_type'
p100
g10
sS'fitness'
p101
F0.96224856503799872
sS'parent2_id'
p102
I7818
sS'_id'
p103
I7854
sS'parent1_id'
p104
I7818
sS'_node_genes'
p105
(lp106
g1
(g99
g3
NtRp107
(dp108
S'_bias'
p109
I0
sS'_type'
p110
S'INPUT'
p111
sg103
I1
sS'_response'
p112
F4.9242730000000003
sS'_activation_type'
p113
Nsbag1
(g99
g3
NtRp114
(dp115
g109
F1.6525075451698668
sg110
S'OUTPUT'
p116
sg103
I2
sg112
F4.0219231330199525
sg113
S'tanh'
p117
sbag1
(g99
g3
NtRp118
(dp119
g109
F-1.708395173406057
sg110
S'HIDDEN'
p120
sg103
I3
sg112
F3.8128611358067905
sg113
g117
sbag1
(g99
g3
NtRp121
(dp122
g109
F2.3536992617253234
sg110
g120
sg103
I4
sg112
F1.2644077782216052
sg113
g117
sbag1
(g99
g3
NtRp123
(dp124
g109
F-3.1007400207054561
sg110
g120
sg103
I5
sg112
F6.0384344653914255
sg113
g117
sbag1
(g99
g3
NtRp125
(dp126
g109
F-0.21011768804376296
sg110
g120
sg103
I6
sg112
F7.6984143905604938
sg113
g117
sbag1
(g99
g3
NtRp127
(dp128
g109
F-2.6091174693336558
sg110
g120
sg103
I7
sg112
F9.9163533736054212
sg113
g117
sbag1
(g99
g3
NtRp129
(dp130
g109
F-3.3692076737450551
sg110
g120
sg103
I8
sg112
F3.3797429234081595
sg113
g117
sbag1
(g99
g3
NtRp131
(dp132
g109
F3.2323189200684124
sg110
g120
sg103
I9
sg112
F3.1368233666260981
sg113
g117
sbag1
(g99
g3
NtRp133
(dp134
g109
F1.2452894285381004
sg110
g120
sg103
I10
sg112
F3.2305662099649188
sg113
g117
sbasb.