ccopy_reg
_reconstructor
p1
(cneat.chromosome
Chromosome
p2
c__builtin__
object
p3
NtRp4
(dp5
S'species_id'
p6
I89
sS'_connection_genes'
p7
(dp8
(I1
I3
tp9
g1
(cneat.genome
ConnectionGene
p10
g3
NtRp11
(dp12
S'_ConnectionGene__weight'
p13
F19.56558331240474
sS'_ConnectionGene__in'
p14
I1
sS'_ConnectionGene__enabled'
p15
I01
sS'_ConnectionGene__out'
p16
I3
sS'_ConnectionGene__innov_number'
p17
I3
sbs(I5
I6
tp18
g1
(g10
g3
NtRp19
(dp20
g13
F-3.5976311733729078
sg14
I5
sg15
I01
sg16
I6
sg17
I25
sbs(I11
I2
tp21
g1
(g10
g3
NtRp22
(dp23
g13
F-11.424800384957802
sg14
I11
sg15
I01
sg16
I2
sg17
I89
sbs(I8
I9
tp24
g1
(g10
g3
NtRp25
(dp26
g13
F-16.98636524475172
sg14
I8
sg15
I01
sg16
I9
sg17
I61
sbs(I6
I2
tp27
g1
(g10
g3
NtRp28
(dp29
g13
F-13.925892342962266
sg14
I6
sg15
I01
sg16
I2
sg17
I18
sbs(I16
I14
tp30
g1
(g10
g3
NtRp31
(dp32
g13
F4.3681416229704189
sg14
I16
sg15
I01
sg16
I14
sg17
I194
sbs(I3
I7
tp33
g1
(g10
g3
NtRp34
(dp35
g13
F-13.634969906266006
sg14
I3
sg15
I01
sg16
I7
sg17
I49
sbs(I3
I14
tp36
g1
(g10
g3
NtRp37
(dp38
g13
F-6.0788304346232147
sg14
I3
sg15
I00
sg16
I14
sg17
I133
sbs(I1
I2
tp39
g1
(g10
g3
NtRp40
(dp41
g13
F-30
sg14
I1
sg15
I01
sg16
I2
sg17
I1
sbs(I14
I2
tp42
g1
(g10
g3
NtRp43
(dp44
g13
F-9.7999381834394956
sg14
I14
sg15
I01
sg16
I2
sg17
I125
sbs(I6
I7
tp45
g1
(g10
g3
NtRp46
(dp47
g13
F5.5801400626585123
sg14
I6
sg15
I01
sg16
I7
sg17
I34
sbs(I3
I3
tp48
g1
(g10
g3
NtRp49
(dp50
g13
F8.4323323185830752
sg14
I3
sg15
I01
sg16
I3
sg17
I8
sbs(I8
I10
tp51
g1
(g10
g3
NtRp52
(dp53
g13
F-5.7095319219517942
sg14
I8
sg15
I01
sg16
I10
sg17
I65
sbs(I13
I7
tp54
g1
(g10
g3
NtRp55
(dp56
g13
F-26.864756779153723
sg14
I13
sg15
I01
sg16
I7
sg17
I108
sbs(I7
I2
tp57
g1
(g10
g3
NtRp58
(dp59
g13
F-19.811949327851156
sg14
I7
sg15
I01
sg16
I2
sg17
I31
sbs(I3
I16
tp60
g1
(g10
g3
NtRp61
(dp62
g13
F13.54563551993142
sg14
I3
sg15
I01
sg16
I16
sg17
I193
sbs(I3
I5
tp63
g1
(g10
g3
NtRp64
(dp65
g13
F15.884054313304153
sg14
I3
sg15
I01
sg16
I5
sg17
I12
sbs(I12
I3
tp66
g1
(g10
g3
NtRp67
(dp68
g13
F26.726682412703699
sg14
I12
sg15
I01
sg16
I3
sg17
I106
sbs(I3
I2
tp69
g1
(g10
g3
NtRp70
(dp71
g13
F-15.883280023650833
sg14
I3
sg15
I00
sg16
I2
sg17
I4
sbs(I8
I2
tp72
g1
(g10
g3
NtRp73
(dp74
g13
F-14.621360836119504
sg14
I8
sg15
I01
sg16
I2
sg17
I46
sbs(I3
I13
tp75
g1
(g10
g3
NtRp76
(dp77
g13
F6.3994285945082323
sg14
I3
sg15
I01
sg16
I13
sg17
I107
sbs(I15
I3
tp78
g1
(g10
g3
NtRp79
(dp80
g13
F9.3484600635318955
sg14
I15
sg15
I01
sg16
I3
sg17
I182
sbs(I8
I11
tp81
g1
(g10
g3
NtRp82
(dp83
g13
F6.4674855993662739
sg14
I8
sg15
I01
sg16
I11
sg17
I98
sbs(I9
I3
tp84
g1
(g10
g3
NtRp85
(dp86
g13
F-12.506960186679299
sg14
I9
sg15
I01
sg16
I3
sg17
I60
sbs(I8
I3
tp87
g1
(g10
g3
NtRp88
(dp89
g13
F17.980106087484732
sg14
I8
sg15
I01
sg16
I3
sg17
I39
sbs(I1
I4
tp90
g1
(g10
g3
NtRp91
(dp92
g13
F9.6378128576685516
sg14
I1
sg15
I01
sg16
I4
sg17
I6
sbs(I2
I10
tp93
g1
(g10
g3
NtRp94
(dp95
g13
F-11.190527815113189
sg14
I2
sg15
I01
sg16
I10
sg17
I69
sbs(I7
I5
tp96
g1
(g10
g3
NtRp97
(dp98
g13
F5.1744679850505353
sg14
I7
sg15
I01
sg16
I5
sg17
I50
sbs(I5
I10
tp99
g1
(g10
g3
NtRp100
(dp101
g13
F3.3710103845359698
sg14
I5
sg15
I01
sg16
I10
sg17
I67
sbs(I5
I8
tp102
g1
(g10
g3
NtRp103
(dp104
g13
F-13.016545916966553
sg14
I5
sg15
I01
sg16
I8
sg17
I45
sbs(I4
I16
tp105
g1
(g10
g3
NtRp106
(dp107
g13
F-5.849218930877468
sg14
I4
sg15
I01
sg16
I16
sg17
I209
sbs(I5
I3
tp108
g1
(g10
g3
NtRp109
(dp110
g13
F30
sg14
I5
sg15
I01
sg16
I3
sg17
I15
sbs(I12
I15
tp111
g1
(g10
g3
NtRp112
(dp113
g13
F6.2807670355672149
sg14
I12
sg15
I01
sg16
I15
sg17
I185
sbs(I3
I12
tp114
g1
(g10
g3
NtRp115
(dp116
g13
F15.797074359894898
sg14
I3
sg15
I01
sg16
I12
sg17
I105
sbs(I13
I14
tp117
g1
(g10
g3
NtRp118
(dp119
g13
F-24.684346105262026
sg14
I13
sg15
I01
sg16
I14
sg17
I189
sbs(I4
I3
tp120
g1
(g10
g3
NtRp121
(dp122
g13
F10.589548889550159
sg14
I4
sg15
I01
sg16
I3
sg17
I10
sbs(I5
I2
tp123
g1
(g10
g3
NtRp124
(dp125
g13
F-21.559840241124199
sg14
I5
sg15
I01
sg16
I2
sg17
I21
sbs(I2
I4
tp126
g1
(g10
g3
NtRp127
(dp128
g13
F-13.013057648319695
sg14
I2
sg15
I01
sg16
I4
sg17
I16
sbs(I10
I2
tp129
g1
(g10
g3
NtRp130
(dp131
g13
F-21.229641892823683
sg14
I10
sg15
I01
sg16
I2
sg17
I66
sbssS'_input_nodes'
p132
I1
sS'_output_nodes'
p133
I1
sS'_node_gene_type'
p134
cneat.genome
NodeGene
p135
sS'_conn_gene_type'
p136
g10
sS'fitness'
p137
F0.98455179719344532
sS'parent2_id'
p138
I12447
sS'_id'
p139
I12492
sS'parent1_id'
p140
I12447
sS'_node_genes'
p141
(lp142
g1
(g135
g3
NtRp143
(dp144
S'_bias'
p145
I0
sS'_type'
p146
S'INPUT'
p147
sg139
I1
sS'_response'
p148
F4.9242730000000003
sS'_activation_type'
p149
Nsbag1
(g135
g3
NtRp150
(dp151
g145
F-2.5601438122343714
sg146
S'OUTPUT'
p152
sg139
I2
sg148
F2.6817234334328441
sg149
S'tanh'
p153
sbag1
(g135
g3
NtRp154
(dp155
g145
F1.3343932978019559
sg146
S'HIDDEN'
p156
sg139
I3
sg148
F-2.1371239232189039
sg149
g153
sbag1
(g135
g3
NtRp157
(dp158
g145
F-4.1678386221164958
sg146
g156
sg139
I4
sg148
F8.1745500651202789
sg149
g153
sbag1
(g135
g3
NtRp159
(dp160
g145
F2.383564900858941
sg146
g156
sg139
I5
sg148
F5.6967567287407599
sg149
g153
sbag1
(g135
g3
NtRp161
(dp162
g145
F-3.6221904010721833
sg146
g156
sg139
I6
sg148
F5.8159493699740192
sg149
g153
sbag1
(g135
g3
NtRp163
(dp164
g145
F-2.9185904284025463
sg146
g156
sg139
I7
sg148
F4.8346288127459713
sg149
g153
sbag1
(g135
g3
NtRp165
(dp166
g145
F3.7736591107520354
sg146
g156
sg139
I8
sg148
F2.296779369406726
sg149
g153
sbag1
(g135
g3
NtRp167
(dp168
g145
F1.908760926762916
sg146
g156
sg139
I9
sg148
F3.8641678616878412
sg149
g153
sbag1
(g135
g3
NtRp169
(dp170
g145
F-0.59181542557524303
sg146
g156
sg139
I10
sg148
F-0.53449512306459313
sg149
g153
sbag1
(g135
g3
NtRp171
(dp172
g145
F1.9264888836614076
sg146
g156
sg139
I11
sg148
F7.4903215702860155
sg149
g153
sbag1
(g135
g3
NtRp173
(dp174
g145
F-1.4390961341271047
sg146
g156
sg139
I12
sg148
F7.4696555945722816
sg149
g153
sbag1
(g135
g3
NtRp175
(dp176
g145
F0.039271288348279976
sg146
g156
sg139
I13
sg148
F3.6570993625921604
sg149
g153
sbag1
(g135
g3
NtRp177
(dp178
g145
F1.7498570642599707
sg146
g156
sg139
I14
sg148
F4.8613366577087787
sg149
g153
sbag1
(g135
g3
NtRp179
(dp180
g145
F2.1768921367478917
sg146
g156
sg139
I15
sg148
F7.0227749341048238
sg149
g153
sbag1
(g135
g3
NtRp181
(dp182
g145
F-0.075880863055106898
sg146
g156
sg139
I16
sg148
F4.037713022731908
sg149
g153
sbasb.