ccopy_reg
_reconstructor
p1
(cneat.chromosome
Chromosome
p2
c__builtin__
object
p3
NtRp4
(dp5
S'species_id'
p6
I98
sS'_connection_genes'
p7
(dp8
(I1
I3
tp9
g1
(cneat.genome
ConnectionGene
p10
g3
NtRp11
(dp12
S'_ConnectionGene__weight'
p13
F18.669212994131509
sS'_ConnectionGene__in'
p14
I1
sS'_ConnectionGene__enabled'
p15
I01
sS'_ConnectionGene__out'
p16
I3
sS'_ConnectionGene__innov_number'
p17
I3
sbs(I5
I6
tp18
g1
(g10
g3
NtRp19
(dp20
g13
F3.6326678090308913
sg14
I5
sg15
I01
sg16
I6
sg17
I25
sbs(I11
I2
tp21
g1
(g10
g3
NtRp22
(dp23
g13
F-12.092430741192965
sg14
I11
sg15
I01
sg16
I2
sg17
I89
sbs(I8
I9
tp24
g1
(g10
g3
NtRp25
(dp26
g13
F-16.803052750298232
sg14
I8
sg15
I01
sg16
I9
sg17
I61
sbs(I6
I2
tp27
g1
(g10
g3
NtRp28
(dp29
g13
F-14.536208870378021
sg14
I6
sg15
I01
sg16
I2
sg17
I18
sbs(I16
I14
tp30
g1
(g10
g3
NtRp31
(dp32
g13
F-4.1032184190493552
sg14
I16
sg15
I01
sg16
I14
sg17
I194
sbs(I3
I7
tp33
g1
(g10
g3
NtRp34
(dp35
g13
F-19.153049079996517
sg14
I3
sg15
I01
sg16
I7
sg17
I49
sbs(I7
I2
tp36
g1
(g10
g3
NtRp37
(dp38
g13
F-26.444811760832589
sg14
I7
sg15
I01
sg16
I2
sg17
I31
sbs(I1
I2
tp39
g1
(g10
g3
NtRp40
(dp41
g13
F-27.189477953438669
sg14
I1
sg15
I01
sg16
I2
sg17
I1
sbs(I6
I7
tp42
g1
(g10
g3
NtRp43
(dp44
g13
F9.9130172564228527
sg14
I6
sg15
I01
sg16
I7
sg17
I34
sbs(I3
I3
tp45
g1
(g10
g3
NtRp46
(dp47
g13
F-11.520666069332105
sg14
I3
sg15
I01
sg16
I3
sg17
I8
sbs(I4
I16
tp48
g1
(g10
g3
NtRp49
(dp50
g13
F0.023930089231022356
sg14
I4
sg15
I01
sg16
I16
sg17
I209
sbs(I8
I10
tp51
g1
(g10
g3
NtRp52
(dp53
g13
F8.458513927034609
sg14
I8
sg15
I01
sg16
I10
sg17
I65
sbs(I13
I7
tp54
g1
(g10
g3
NtRp55
(dp56
g13
F-23.539261422177081
sg14
I13
sg15
I01
sg16
I7
sg17
I108
sbs(I3
I14
tp57
g1
(g10
g3
NtRp58
(dp59
g13
F0.52069001156663197
sg14
I3
sg15
I01
sg16
I14
sg17
I133
sbs(I3
I16
tp60
g1
(g10
g3
NtRp61
(dp62
g13
F0.47025396457389756
sg14
I3
sg15
I01
sg16
I16
sg17
I193
sbs(I5
I3
tp63
g1
(g10
g3
NtRp64
(dp65
g13
F9.6357793418723716
sg14
I5
sg15
I01
sg16
I3
sg17
I15
sbs(I12
I3
tp66
g1
(g10
g3
NtRp67
(dp68
g13
F28.871838039887241
sg14
I12
sg15
I01
sg16
I3
sg17
I106
sbs(I3
I2
tp69
g1
(g10
g3
NtRp70
(dp71
g13
F-30
sg14
I3
sg15
I01
sg16
I2
sg17
I4
sbs(I8
I2
tp72
g1
(g10
g3
NtRp73
(dp74
g13
F-10.225454289998865
sg14
I8
sg15
I01
sg16
I2
sg17
I46
sbs(I3
I13
tp75
g1
(g10
g3
NtRp76
(dp77
g13
F8.8750153607405711
sg14
I3
sg15
I01
sg16
I13
sg17
I107
sbs(I15
I3
tp78
g1
(g10
g3
NtRp79
(dp80
g13
F8.3926594103764955
sg14
I15
sg15
I01
sg16
I3
sg17
I182
sbs(I8
I11
tp81
g1
(g10
g3
NtRp82
(dp83
g13
F4.7734805609106647
sg14
I8
sg15
I01
sg16
I11
sg17
I98
sbs(I9
I3
tp84
g1
(g10
g3
NtRp85
(dp86
g13
F-25.57890544992442
sg14
I9
sg15
I01
sg16
I3
sg17
I60
sbs(I12
I15
tp87
g1
(g10
g3
NtRp88
(dp89
g13
F14.576705432255251
sg14
I12
sg15
I01
sg16
I15
sg17
I185
sbs(I1
I4
tp90
g1
(g10
g3
NtRp91
(dp92
g13
F28.77167513009746
sg14
I1
sg15
I01
sg16
I4
sg17
I6
sbs(I2
I10
tp93
g1
(g10
g3
NtRp94
(dp95
g13
F-24.178890662949879
sg14
I2
sg15
I01
sg16
I10
sg17
I69
sbs(I7
I5
tp96
g1
(g10
g3
NtRp97
(dp98
g13
F5.2167328030828601
sg14
I7
sg15
I01
sg16
I5
sg17
I50
sbs(I3
I12
tp99
g1
(g10
g3
NtRp100
(dp101
g13
F18.560963882236077
sg14
I3
sg15
I01
sg16
I12
sg17
I105
sbs(I5
I8
tp102
g1
(g10
g3
NtRp103
(dp104
g13
F-8.0275478713462327
sg14
I5
sg15
I01
sg16
I8
sg17
I45
sbs(I14
I2
tp105
g1
(g10
g3
NtRp106
(dp107
g13
F-7.6667116955389112
sg14
I14
sg15
I01
sg16
I2
sg17
I125
sbs(I3
I5
tp108
g1
(g10
g3
NtRp109
(dp110
g13
F12.274904226643811
sg14
I3
sg15
I01
sg16
I5
sg17
I12
sbs(I8
I3
tp111
g1
(g10
g3
NtRp112
(dp113
g13
F6.397092701487483
sg14
I8
sg15
I01
sg16
I3
sg17
I39
sbs(I5
I10
tp114
g1
(g10
g3
NtRp115
(dp116
g13
F2.8005746505345703
sg14
I5
sg15
I01
sg16
I10
sg17
I67
sbs(I13
I14
tp117
g1
(g10
g3
NtRp118
(dp119
g13
F-29.864139498700467
sg14
I13
sg15
I01
sg16
I14
sg17
I189
sbs(I4
I3
tp120
g1
(g10
g3
NtRp121
(dp122
g13
F4.4358182252998102
sg14
I4
sg15
I01
sg16
I3
sg17
I10
sbs(I5
I2
tp123
g1
(g10
g3
NtRp124
(dp125
g13
F-19.14205715280881
sg14
I5
sg15
I01
sg16
I2
sg17
I21
sbs(I2
I4
tp126
g1
(g10
g3
NtRp127
(dp128
g13
F-15.263495315211239
sg14
I2
sg15
I01
sg16
I4
sg17
I16
sbs(I10
I2
tp129
g1
(g10
g3
NtRp130
(dp131
g13
F-17.369071674164331
sg14
I10
sg15
I01
sg16
I2
sg17
I66
sbssS'_input_nodes'
p132
I1
sS'_output_nodes'
p133
I1
sS'_node_gene_type'
p134
cneat.genome
NodeGene
p135
sS'_conn_gene_type'
p136
g10
sS'fitness'
p137
F0.99568395445979241
sS'parent2_id'
p138
I14865
sS'_id'
p139
I14917
sS'parent1_id'
p140
I14865
sS'_node_genes'
p141
(lp142
g1
(g135
g3
NtRp143
(dp144
S'_bias'
p145
I0
sS'_type'
p146
S'INPUT'
p147
sg139
I1
sS'_response'
p148
F4.9242730000000003
sS'_activation_type'
p149
Nsbag1
(g135
g3
NtRp150
(dp151
g145
F-3.1456935348122266
sg146
S'OUTPUT'
p152
sg139
I2
sg148
F2.2792596434348318
sg149
S'tanh'
p153
sbag1
(g135
g3
NtRp154
(dp155
g145
F0.41727859097450659
sg146
S'HIDDEN'
p156
sg139
I3
sg148
F-2.0435089836036808
sg149
g153
sbag1
(g135
g3
NtRp157
(dp158
g145
F-3.5706977863555864
sg146
g156
sg139
I4
sg148
F9.1125705697573327
sg149
g153
sbag1
(g135
g3
NtRp159
(dp160
g145
F2.1864703125265721
sg146
g156
sg139
I5
sg148
F6.33691036442558
sg149
g153
sbag1
(g135
g3
NtRp161
(dp162
g145
F-2.096735227095833
sg146
g156
sg139
I6
sg148
F4.9806139294885723
sg149
g153
sbag1
(g135
g3
NtRp163
(dp164
g145
F-5.8974191138183532
sg146
g156
sg139
I7
sg148
F4.3164998223671072
sg149
g153
sbag1
(g135
g3
NtRp165
(dp166
g145
F5.5034194887028312
sg146
g156
sg139
I8
sg148
F2.0769826688639057
sg149
g153
sbag1
(g135
g3
NtRp167
(dp168
g145
F3.9236495171090922
sg146
g156
sg139
I9
sg148
F6.8747516550583141
sg149
g153
sbag1
(g135
g3
NtRp169
(dp170
g145
F-1.5135084055096539
sg146
g156
sg139
I10
sg148
F-0.97140809158325692
sg149
g153
sbag1
(g135
g3
NtRp171
(dp172
g145
F-1.6920299458831431
sg146
g156
sg139
I11
sg148
F4.3005340335540128
sg149
g153
sbag1
(g135
g3
NtRp173
(dp174
g145
F-2.2217380481478584
sg146
g156
sg139
I12
sg148
F7.0267872614913109
sg149
g153
sbag1
(g135
g3
NtRp175
(dp176
g145
F1.36079037559906
sg146
g156
sg139
I13
sg148
F6.3630070925096049
sg149
g153
sbag1
(g135
g3
NtRp177
(dp178
g145
F-0.57748675537410865
sg146
g156
sg139
I14
sg148
F4.2244609673897857
sg149
g153
sbag1
(g135
g3
NtRp179
(dp180
g145
F0.48660172607076363
sg146
g156
sg139
I15
sg148
F6.3661456608862332
sg149
g153
sbag1
(g135
g3
NtRp181
(dp182
g145
F-3.2290000663623664
sg146
g156
sg139
I16
sg148
F3.6874965149199372
sg149
g153
sbasb.