ccopy_reg
_reconstructor
p1
(cneat.chromosome
Chromosome
p2
c__builtin__
object
p3
NtRp4
(dp5
S'species_id'
p6
I39
sS'_connection_genes'
p7
(dp8
(I1
I2
tp9
g1
(cneat.genome
ConnectionGene
p10
g3
NtRp11
(dp12
S'_ConnectionGene__weight'
p13
F-19.519910831409824
sS'_ConnectionGene__in'
p14
I1
sS'_ConnectionGene__enabled'
p15
I01
sS'_ConnectionGene__out'
p16
I2
sS'_ConnectionGene__innov_number'
p17
I1
sbs(I5
I4
tp18
g1
(g10
g3
NtRp19
(dp20
g13
F-6.5790773392080544
sg14
I5
sg15
I01
sg16
I4
sg17
I13
sbs(I1
I3
tp21
g1
(g10
g3
NtRp22
(dp23
g13
F1.8931678883095371
sg14
I1
sg15
I01
sg16
I3
sg17
I3
sbs(I3
I3
tp24
g1
(g10
g3
NtRp25
(dp26
g13
F8.813426110441787
sg14
I3
sg15
I01
sg16
I3
sg17
I8
sbs(I4
I5
tp27
g1
(g10
g3
NtRp28
(dp29
g13
F-2.4035902984381012
sg14
I4
sg15
I01
sg16
I5
sg17
I20
sbs(I4
I4
tp30
g1
(g10
g3
NtRp31
(dp32
g13
F-2.9075939098562023
sg14
I4
sg15
I01
sg16
I4
sg17
I11
sbs(I3
I2
tp33
g1
(g10
g3
NtRp34
(dp35
g13
F10.607061251932977
sg14
I3
sg15
I00
sg16
I2
sg17
I4
sbs(I1
I4
tp36
g1
(g10
g3
NtRp37
(dp38
g13
F3.5125291791785038
sg14
I1
sg15
I01
sg16
I4
sg17
I6
sbs(I4
I6
tp39
g1
(g10
g3
NtRp40
(dp41
g13
F0.12196741560321304
sg14
I4
sg15
I01
sg16
I6
sg17
I29
sbs(I2
I3
tp42
g1
(g10
g3
NtRp43
(dp44
g13
F-6.3609539367878751
sg14
I2
sg15
I00
sg16
I3
sg17
I5
sbs(I3
I6
tp45
g1
(g10
g3
NtRp46
(dp47
g13
F-13.867944402349343
sg14
I3
sg15
I01
sg16
I6
sg17
I22
sbs(I2
I2
tp48
g1
(g10
g3
NtRp49
(dp50
g13
F0.94903420235426705
sg14
I2
sg15
I01
sg16
I2
sg17
I2
sbs(I4
I3
tp51
g1
(g10
g3
NtRp52
(dp53
g13
F4.9940990826014175
sg14
I4
sg15
I01
sg16
I3
sg17
I10
sbs(I3
I5
tp54
g1
(g10
g3
NtRp55
(dp56
g13
F-9.0574462021182409
sg14
I3
sg15
I00
sg16
I5
sg17
I12
sbs(I5
I2
tp57
g1
(g10
g3
NtRp58
(dp59
g13
F-12.185744801515536
sg14
I5
sg15
I01
sg16
I2
sg17
I21
sbs(I2
I4
tp60
g1
(g10
g3
NtRp61
(dp62
g13
F-9.6052807050060682
sg14
I2
sg15
I01
sg16
I4
sg17
I16
sbs(I6
I5
tp63
g1
(g10
g3
NtRp64
(dp65
g13
F5.3730267828241907
sg14
I6
sg15
I01
sg16
I5
sg17
I28
sbs(I5
I3
tp66
g1
(g10
g3
NtRp67
(dp68
g13
F8.8838785458397247
sg14
I5
sg15
I01
sg16
I3
sg17
I15
sbssS'_input_nodes'
p69
I1
sS'_output_nodes'
p70
I1
sS'_node_gene_type'
p71
cneat.genome
NodeGene
p72
sS'_conn_gene_type'
p73
g10
sS'fitness'
p74
F0.98285842903655252
sS'parent2_id'
p75
I5528
sS'_id'
p76
I5570
sS'parent1_id'
p77
I5528
sS'_node_genes'
p78
(lp79
g1
(g72
g3
NtRp80
(dp81
S'_bias'
p82
I0
sS'_type'
p83
S'INPUT'
p84
sg76
I1
sS'_response'
p85
F4.9242730000000003
sS'_activation_type'
p86
Nsbag1
(g72
g3
NtRp87
(dp88
g82
F2.1580405196055108
sg83
S'OUTPUT'
p89
sg76
I2
sg85
F2.3177873875280124
sg86
S'tanh'
p90
sbag1
(g72
g3
NtRp91
(dp92
g82
F-0.88588017119375095
sg83
S'HIDDEN'
p93
sg76
I3
sg85
F4.4855180403309634
sg86
g90
sbag1
(g72
g3
NtRp94
(dp95
g82
F2.023223367771589
sg83
g93
sg76
I4
sg85
F3.9530714073815165
sg86
g90
sbag1
(g72
g3
NtRp96
(dp97
g82
F1.4320117481941546
sg83
g93
sg76
I5
sg85
F4.6519278520723359
sg86
g90
sbag1
(g72
g3
NtRp98
(dp99
g82
F-1.4939721114712308
sg83
g93
sg76
I6
sg85
F4.2495811988933712
sg86
g90
sbasb.