ccopy_reg
_reconstructor
p1
(cneat.chromosome
Chromosome
p2
c__builtin__
object
p3
NtRp4
(dp5
S'species_id'
p6
I117
sS'_connection_genes'
p7
(dp8
(I7
I3
tp9
g1
(cneat.genome
ConnectionGene
p10
g3
NtRp11
(dp12
S'_ConnectionGene__weight'
p13
F23.127220307753248
sS'_ConnectionGene__in'
p14
I7
sS'_ConnectionGene__enabled'
p15
I01
sS'_ConnectionGene__out'
p16
I3
sS'_ConnectionGene__innov_number'
p17
I36
sbs(I1
I3
tp18
g1
(g10
g3
NtRp19
(dp20
g13
F-17.261441424010922
sg14
I1
sg15
I01
sg16
I3
sg17
I3
sbs(I5
I9
tp21
g1
(g10
g3
NtRp22
(dp23
g13
F4.2820896175047363
sg14
I5
sg15
I01
sg16
I9
sg17
I100
sbs(I16
I9
tp24
g1
(g10
g3
NtRp25
(dp26
g13
F26.618726767827361
sg14
I16
sg15
I01
sg16
I9
sg17
I236
sbs(I3
I2
tp27
g1
(g10
g3
NtRp28
(dp29
g13
F17.049864818764519
sg14
I3
sg15
I01
sg16
I2
sg17
I4
sbs(I8
I4
tp30
g1
(g10
g3
NtRp31
(dp32
g13
F12.163020418488184
sg14
I8
sg15
I01
sg16
I4
sg17
I41
sbs(I2
I12
tp33
g1
(g10
g3
NtRp34
(dp35
g13
F-1.5635878027034544
sg14
I2
sg15
I01
sg16
I12
sg17
I135
sbs(I7
I11
tp36
g1
(g10
g3
NtRp37
(dp38
g13
F-9.2507611095122702
sg14
I7
sg15
I01
sg16
I11
sg17
I92
sbs(I3
I7
tp39
g1
(g10
g3
NtRp40
(dp41
g13
F21.447349986635196
sg14
I3
sg15
I00
sg16
I7
sg17
I49
sbs(I14
I9
tp42
g1
(g10
g3
NtRp43
(dp44
g13
F9.6444418240432803
sg14
I14
sg15
I01
sg16
I9
sg17
I130
sbs(I5
I8
tp45
g1
(g10
g3
NtRp46
(dp47
g13
F20.44294299105535
sg14
I5
sg15
I01
sg16
I8
sg17
I45
sbs(I1
I2
tp48
g1
(g10
g3
NtRp49
(dp50
g13
F-22.181954491959907
sg14
I1
sg15
I01
sg16
I2
sg17
I1
sbs(I12
I2
tp51
g1
(g10
g3
NtRp52
(dp53
g13
F17.662412710195557
sg14
I12
sg15
I01
sg16
I2
sg17
I104
sbs(I4
I9
tp54
g1
(g10
g3
NtRp55
(dp56
g13
F0.023801728342214279
sg14
I4
sg15
I01
sg16
I9
sg17
I57
sbs(I3
I3
tp57
g1
(g10
g3
NtRp58
(dp59
g13
F-1.7471447595528478
sg14
I3
sg15
I01
sg16
I3
sg17
I8
sbs(I2
I9
tp60
g1
(g10
g3
NtRp61
(dp62
g13
F16.784158936315027
sg14
I2
sg15
I01
sg16
I9
sg17
I144
sbs(I3
I10
tp63
g1
(g10
g3
NtRp64
(dp65
g13
F6.0116170381062961
sg14
I3
sg15
I01
sg16
I10
sg17
I76
sbs(I4
I4
tp66
g1
(g10
g3
NtRp67
(dp68
g13
F3.8239101740444497
sg14
I4
sg15
I00
sg16
I4
sg17
I11
sbs(I10
I12
tp69
g1
(g10
g3
NtRp70
(dp71
g13
F-29.151617570264392
sg14
I10
sg15
I01
sg16
I12
sg17
I111
sbs(I17
I2
tp72
g1
(g10
g3
NtRp73
(dp74
g13
F-6.5302262496306884
sg14
I17
sg15
I01
sg16
I2
sg17
I202
sbs(I13
I7
tp75
g1
(g10
g3
NtRp76
(dp77
g13
F-10.393345216102482
sg14
I13
sg15
I01
sg16
I7
sg17
I108
sbs(I9
I17
tp78
g1
(g10
g3
NtRp79
(dp80
g13
F5.1659606981594521
sg14
I9
sg15
I01
sg16
I17
sg17
I258
sbs(I18
I9
tp81
g1
(g10
g3
NtRp82
(dp83
g13
F-2.1091425764785785
sg14
I18
sg15
I01
sg16
I9
sg17
I268
sbs(I2
I2
tp84
g1
(g10
g3
NtRp85
(dp86
g13
F10.323081107067848
sg14
I2
sg15
I01
sg16
I2
sg17
I2
sbs(I15
I4
tp87
g1
(g10
g3
NtRp88
(dp89
g13
F9.4989807168564155
sg14
I15
sg15
I01
sg16
I4
sg17
I173
sbs(I5
I11
tp90
g1
(g10
g3
NtRp91
(dp92
g13
F-0.021711438916616865
sg14
I5
sg15
I01
sg16
I11
sg17
I90
sbs(I15
I12
tp93
g1
(g10
g3
NtRp94
(dp95
g13
F-0.37712869922150682
sg14
I15
sg15
I01
sg16
I12
sg17
I159
sbs(I5
I4
tp96
g1
(g10
g3
NtRp97
(dp98
g13
F3.2994847490440162
sg14
I5
sg15
I01
sg16
I4
sg17
I13
sbs(I6
I6
tp99
g1
(g10
g3
NtRp100
(dp101
g13
F3.4964564641526117
sg14
I6
sg15
I01
sg16
I6
sg17
I37
sbs(I12
I14
tp102
g1
(g10
g3
NtRp103
(dp104
g13
F-3.4541989188818452
sg14
I12
sg15
I01
sg16
I14
sg17
I131
sbs(I3
I13
tp105
g1
(g10
g3
NtRp106
(dp107
g13
F26.796269773909252
sg14
I3
sg15
I01
sg16
I13
sg17
I107
sbs(I9
I3
tp108
g1
(g10
g3
NtRp109
(dp110
g13
F-20.781040638277837
sg14
I9
sg15
I01
sg16
I3
sg17
I60
sbs(I9
I16
tp111
g1
(g10
g3
NtRp112
(dp113
g13
F26.832059642608435
sg14
I9
sg15
I01
sg16
I16
sg17
I240
sbs(I2
I3
tp114
g1
(g10
g3
NtRp115
(dp116
g13
F14.475509625310949
sg14
I2
sg15
I01
sg16
I3
sg17
I5
sbs(I1
I9
tp117
g1
(g10
g3
NtRp118
(dp119
g13
F12.900478808791966
sg14
I1
sg15
I01
sg16
I9
sg17
I47
sbs(I4
I2
tp120
g1
(g10
g3
NtRp121
(dp122
g13
F-30
sg14
I4
sg15
I01
sg16
I2
sg17
I7
sbs(I14
I2
tp123
g1
(g10
g3
NtRp124
(dp125
g13
F15.063784609474109
sg14
I14
sg15
I01
sg16
I2
sg17
I125
sbs(I4
I11
tp126
g1
(g10
g3
NtRp127
(dp128
g13
F-28.190007461922484
sg14
I4
sg15
I01
sg16
I11
sg17
I86
sbs(I3
I5
tp129
g1
(g10
g3
NtRp130
(dp131
g13
F16.368311623011419
sg14
I3
sg15
I01
sg16
I5
sg17
I12
sbs(I10
I5
tp132
g1
(g10
g3
NtRp133
(dp134
g13
F16.432078095822646
sg14
I10
sg15
I01
sg16
I5
sg17
I79
sbs(I6
I5
tp135
g1
(g10
g3
NtRp136
(dp137
g13
F-10.936568366493095
sg14
I6
sg15
I01
sg16
I5
sg17
I28
sbs(I9
I2
tp138
g1
(g10
g3
NtRp139
(dp140
g13
F-6.4976111983582001
sg14
I9
sg15
I00
sg16
I2
sg17
I48
sbs(I7
I14
tp141
g1
(g10
g3
NtRp142
(dp143
g13
F-9.3532859032213231
sg14
I7
sg15
I01
sg16
I14
sg17
I162
sbs(I9
I9
tp144
g1
(g10
g3
NtRp145
(dp146
g13
F18.415880357990591
sg14
I9
sg15
I01
sg16
I9
sg17
I73
sbs(I3
I6
tp147
g1
(g10
g3
NtRp148
(dp149
g13
F-16.47742206503807
sg14
I3
sg15
I01
sg16
I6
sg17
I22
sbs(I18
I7
tp150
g1
(g10
g3
NtRp151
(dp152
g13
F-2.6818555376161486
sg14
I18
sg15
I01
sg16
I7
sg17
I272
sbs(I11
I8
tp153
g1
(g10
g3
NtRp154
(dp155
g13
F7.2639694333517406
sg14
I11
sg15
I01
sg16
I8
sg17
I91
sbs(I13
I18
tp156
g1
(g10
g3
NtRp157
(dp158
g13
F5.3550280149123441
sg14
I13
sg15
I01
sg16
I18
sg17
I271
sbs(I4
I3
tp159
g1
(g10
g3
NtRp160
(dp161
g13
F0.48937155704387336
sg14
I4
sg15
I01
sg16
I3
sg17
I10
sbs(I2
I15
tp162
g1
(g10
g3
NtRp163
(dp164
g13
F-1.3811061457963592
sg14
I2
sg15
I01
sg16
I15
sg17
I172
sbs(I4
I8
tp165
g1
(g10
g3
NtRp166
(dp167
g13
F1.2861247170424304
sg14
I4
sg15
I01
sg16
I8
sg17
I38
sbs(I5
I2
tp168
g1
(g10
g3
NtRp169
(dp170
g13
F-5.6477997598745819
sg14
I5
sg15
I01
sg16
I2
sg17
I21
sbs(I2
I4
tp171
g1
(g10
g3
NtRp172
(dp173
g13
F23.240510545996688
sg14
I2
sg15
I01
sg16
I4
sg17
I16
sbs(I11
I6
tp174
g1
(g10
g3
NtRp175
(dp176
g13
F-0.23747814365713626
sg14
I11
sg15
I01
sg16
I6
sg17
I110
sbs(I10
I2
tp177
g1
(g10
g3
NtRp178
(dp179
g13
F27.833026095840246
sg14
I10
sg15
I01
sg16
I2
sg17
I66
sbssS'_input_nodes'
p180
I1
sS'_output_nodes'
p181
I1
sS'_node_gene_type'
p182
cneat.genome
NodeGene
p183
sS'_conn_gene_type'
p184
g10
sS'fitness'
p185
F0.96859088997894072
sS'parent2_id'
p186
I16693
sS'_id'
p187
I16733
sS'parent1_id'
p188
I16693
sS'_node_genes'
p189
(lp190
g1
(g183
g3
NtRp191
(dp192
S'_bias'
p193
I0
sS'_type'
p194
S'INPUT'
p195
sg187
I1
sS'_response'
p196
F4.9242730000000003
sS'_activation_type'
p197
Nsbag1
(g183
g3
NtRp198
(dp199
g193
F0.16762158082948947
sg194
S'OUTPUT'
p200
sg187
I2
sg196
F7.2804185853860863
sg197
S'tanh'
p201
sbag1
(g183
g3
NtRp202
(dp203
g193
F-4.1558068508285579
sg194
S'HIDDEN'
p204
sg187
I3
sg196
F5.3695529031727123
sg197
g201
sbag1
(g183
g3
NtRp205
(dp206
g193
F3.0663099251956631
sg194
g204
sg187
I4
sg196
F-2.5646696686365478
sg197
g201
sbag1
(g183
g3
NtRp207
(dp208
g193
F-2.9494861542570225
sg194
g204
sg187
I5
sg196
F6.0856364353239476
sg197
g201
sbag1
(g183
g3
NtRp209
(dp210
g193
F1.682549321653156
sg194
g204
sg187
I6
sg196
F10.986681550104841
sg197
g201
sbag1
(g183
g3
NtRp211
(dp212
g193
F0.48148978855278157
sg194
g204
sg187
I7
sg196
F12.68512590073478
sg197
g201
sbag1
(g183
g3
NtRp213
(dp214
g193
F-1.0170606147754886
sg194
g204
sg187
I8
sg196
F3.4587965036992303
sg197
g201
sbag1
(g183
g3
NtRp215
(dp216
g193
F3.6693778963649213
sg194
g204
sg187
I9
sg196
F-0.15639349936983737
sg197
g201
sbag1
(g183
g3
NtRp217
(dp218
g193
F5.06320289715564
sg194
g204
sg187
I10
sg196
F2.9176259349227713
sg197
g201
sbag1
(g183
g3
NtRp219
(dp220
g193
F-3.9057801609432956
sg194
g204
sg187
I11
sg196
F8.4789027694671102
sg197
g201
sbag1
(g183
g3
NtRp221
(dp222
g193
F1.6937331692207462
sg194
g204
sg187
I12
sg196
F7.3968006225175928
sg197
g201
sbag1
(g183
g3
NtRp223
(dp224
g193
F0.796077506374951
sg194
g204
sg187
I13
sg196
F4.385533113881138
sg197
g201
sbag1
(g183
g3
NtRp225
(dp226
g193
F1.1174822437419945
sg194
g204
sg187
I14
sg196
F5.0247131291781679
sg197
g201
sbag1
(g183
g3
NtRp227
(dp228
g193
F-1.1599040323555976
sg194
g204
sg187
I15
sg196
F9.3568873748485597
sg197
g201
sbag1
(g183
g3
NtRp229
(dp230
g193
F-2.3509582644198437
sg194
g204
sg187
I16
sg196
F7.5633331032255544
sg197
g201
sbag1
(g183
g3
NtRp231
(dp232
g193
F-1.8140724824448184
sg194
g204
sg187
I17
sg196
F2.5407114686731731
sg197
g201
sbag1
(g183
g3
NtRp233
(dp234
g193
F1.5295976117661134
sg194
g204
sg187
I18
sg196
F5.8017457826825876
sg197
g201
sbasb.