ccopy_reg
_reconstructor
p1
(cneat.chromosome
Chromosome
p2
c__builtin__
object
p3
NtRp4
(dp5
S'species_id'
p6
I26
sS'_connection_genes'
p7
(dp8
(I1
I2
tp9
g1
(cneat.genome
ConnectionGene
p10
g3
NtRp11
(dp12
S'_ConnectionGene__weight'
p13
F-13.237777256821738
sS'_ConnectionGene__in'
p14
I1
sS'_ConnectionGene__enabled'
p15
I01
sS'_ConnectionGene__out'
p16
I2
sS'_ConnectionGene__innov_number'
p17
I1
sbs(I5
I4
tp18
g1
(g10
g3
NtRp19
(dp20
g13
F0.21717996463898326
sg14
I5
sg15
I01
sg16
I4
sg17
I13
sbs(I1
I3
tp21
g1
(g10
g3
NtRp22
(dp23
g13
F-4.0297360450609272
sg14
I1
sg15
I01
sg16
I3
sg17
I3
sbs(I3
I3
tp24
g1
(g10
g3
NtRp25
(dp26
g13
F7.5714681719304702
sg14
I3
sg15
I01
sg16
I3
sg17
I8
sbs(I4
I4
tp27
g1
(g10
g3
NtRp28
(dp29
g13
F-4.9948387924411604
sg14
I4
sg15
I01
sg16
I4
sg17
I11
sbs(I3
I2
tp30
g1
(g10
g3
NtRp31
(dp32
g13
F11.123018340687226
sg14
I3
sg15
I00
sg16
I2
sg17
I4
sbs(I2
I3
tp33
g1
(g10
g3
NtRp34
(dp35
g13
F3.4832577077781766
sg14
I2
sg15
I00
sg16
I3
sg17
I5
sbs(I3
I6
tp36
g1
(g10
g3
NtRp37
(dp38
g13
F-4.6532998678655169
sg14
I3
sg15
I01
sg16
I6
sg17
I22
sbs(I4
I3
tp39
g1
(g10
g3
NtRp40
(dp41
g13
F5.8315890836486624
sg14
I4
sg15
I01
sg16
I3
sg17
I10
sbs(I5
I2
tp42
g1
(g10
g3
NtRp43
(dp44
g13
F-5.1568818588453116
sg14
I5
sg15
I01
sg16
I2
sg17
I21
sbs(I2
I4
tp45
g1
(g10
g3
NtRp46
(dp47
g13
F5.3128044293012815
sg14
I2
sg15
I01
sg16
I4
sg17
I16
sbs(I6
I5
tp48
g1
(g10
g3
NtRp49
(dp50
g13
F-6.2184399716925505
sg14
I6
sg15
I01
sg16
I5
sg17
I28
sbs(I3
I5
tp51
g1
(g10
g3
NtRp52
(dp53
g13
F1.3984380953836424
sg14
I3
sg15
I00
sg16
I5
sg17
I12
sbssS'_input_nodes'
p54
I1
sS'_output_nodes'
p55
I1
sS'_node_gene_type'
p56
cneat.genome
NodeGene
p57
sS'_conn_gene_type'
p58
g10
sS'fitness'
p59
F0.99701302344690312
sS'parent2_id'
p60
I3994
sS'_id'
p61
I4033
sS'parent1_id'
p62
I3994
sS'_node_genes'
p63
(lp64
g1
(g57
g3
NtRp65
(dp66
S'_bias'
p67
I0
sS'_type'
p68
S'INPUT'
p69
sg61
I1
sS'_response'
p70
F4.9242730000000003
sS'_activation_type'
p71
Nsbag1
(g57
g3
NtRp72
(dp73
g67
F3.4684620756633291
sg68
S'OUTPUT'
p74
sg61
I2
sg70
F3.1134410987461814
sg71
S'tanh'
p75
sbag1
(g57
g3
NtRp76
(dp77
g67
F-1.0010944301902629
sg68
S'HIDDEN'
p78
sg61
I3
sg70
F4.1485246834133616
sg71
g75
sbag1
(g57
g3
NtRp79
(dp80
g67
F0.83313673454656234
sg68
g78
sg61
I4
sg70
F3.6311493064544829
sg71
g75
sbag1
(g57
g3
NtRp81
(dp82
g67
F0.95642418442724675
sg68
g78
sg61
I5
sg70
F4.5576470254354149
sg71
g75
sbag1
(g57
g3
NtRp83
(dp84
g67
F-1.1968087813889423
sg68
g78
sg61
I6
sg70
F4.2512222745814654
sg71
g75
sbasb.