ccopy_reg
_reconstructor
p1
(cneat.chromosome
Chromosome
p2
c__builtin__
object
p3
NtRp4
(dp5
S'species_id'
p6
I56
sS'_connection_genes'
p7
(dp8
(I1
I3
tp9
g1
(cneat.genome
ConnectionGene
p10
g3
NtRp11
(dp12
S'_ConnectionGene__weight'
p13
F6.1010096488283434
sS'_ConnectionGene__in'
p14
I1
sS'_ConnectionGene__enabled'
p15
I01
sS'_ConnectionGene__out'
p16
I3
sS'_ConnectionGene__innov_number'
p17
I3
sbs(I5
I6
tp18
g1
(g10
g3
NtRp19
(dp20
g13
F-7.0453781831273892
sg14
I5
sg15
I01
sg16
I6
sg17
I25
sbs(I11
I2
tp21
g1
(g10
g3
NtRp22
(dp23
g13
F-19.254676450660419
sg14
I11
sg15
I01
sg16
I2
sg17
I89
sbs(I8
I9
tp24
g1
(g10
g3
NtRp25
(dp26
g13
F1.7346888782197571
sg14
I8
sg15
I01
sg16
I9
sg17
I61
sbs(I6
I2
tp27
g1
(g10
g3
NtRp28
(dp29
g13
F3.4002271293406574
sg14
I6
sg15
I01
sg16
I2
sg17
I18
sbs(I3
I7
tp30
g1
(g10
g3
NtRp31
(dp32
g13
F-7.2059744592670461
sg14
I3
sg15
I00
sg16
I7
sg17
I49
sbs(I5
I8
tp33
g1
(g10
g3
NtRp34
(dp35
g13
F4.1770507047266943
sg14
I5
sg15
I01
sg16
I8
sg17
I45
sbs(I1
I2
tp36
g1
(g10
g3
NtRp37
(dp38
g13
F-10.322444124060819
sg14
I1
sg15
I01
sg16
I2
sg17
I1
sbs(I3
I3
tp39
g1
(g10
g3
NtRp40
(dp41
g13
F23.503914775789386
sg14
I3
sg15
I00
sg16
I3
sg17
I8
sbs(I13
I7
tp42
g1
(g10
g3
NtRp43
(dp44
g13
F-6.0525893224488607
sg14
I13
sg15
I01
sg16
I7
sg17
I108
sbs(I7
I2
tp45
g1
(g10
g3
NtRp46
(dp47
g13
F-7.285317825160611
sg14
I7
sg15
I01
sg16
I2
sg17
I31
sbs(I5
I3
tp48
g1
(g10
g3
NtRp49
(dp50
g13
F11.86920520581287
sg14
I5
sg15
I01
sg16
I3
sg17
I15
sbs(I12
I3
tp51
g1
(g10
g3
NtRp52
(dp53
g13
F20.270531658007958
sg14
I12
sg15
I01
sg16
I3
sg17
I106
sbs(I3
I2
tp54
g1
(g10
g3
NtRp55
(dp56
g13
F-5.5097859586022393
sg14
I3
sg15
I01
sg16
I2
sg17
I4
sbs(I8
I2
tp57
g1
(g10
g3
NtRp58
(dp59
g13
F-15.108805873109658
sg14
I8
sg15
I01
sg16
I2
sg17
I46
sbs(I3
I13
tp60
g1
(g10
g3
NtRp61
(dp62
g13
F2.2180562829397399
sg14
I3
sg15
I01
sg16
I13
sg17
I107
sbs(I8
I11
tp63
g1
(g10
g3
NtRp64
(dp65
g13
F3.3720809493406287
sg14
I8
sg15
I01
sg16
I11
sg17
I98
sbs(I9
I3
tp66
g1
(g10
g3
NtRp67
(dp68
g13
F-4.8123588692560499
sg14
I9
sg15
I01
sg16
I3
sg17
I60
sbs(I1
I4
tp69
g1
(g10
g3
NtRp70
(dp71
g13
F-0.49904678709853434
sg14
I1
sg15
I01
sg16
I4
sg17
I6
sbs(I2
I10
tp72
g1
(g10
g3
NtRp73
(dp74
g13
F0.71627360573125465
sg14
I2
sg15
I01
sg16
I10
sg17
I69
sbs(I7
I5
tp75
g1
(g10
g3
NtRp76
(dp77
g13
F1.0289862460188868
sg14
I7
sg15
I01
sg16
I5
sg17
I50
sbs(I3
I12
tp78
g1
(g10
g3
NtRp79
(dp80
g13
F0.762458163981516
sg14
I3
sg15
I01
sg16
I12
sg17
I105
sbs(I3
I5
tp81
g1
(g10
g3
NtRp82
(dp83
g13
F20.012554805909279
sg14
I3
sg15
I01
sg16
I5
sg17
I12
sbs(I8
I3
tp84
g1
(g10
g3
NtRp85
(dp86
g13
F-3.1679342936898927
sg14
I8
sg15
I01
sg16
I3
sg17
I39
sbs(I5
I10
tp87
g1
(g10
g3
NtRp88
(dp89
g13
F-4.7552280406080873
sg14
I5
sg15
I01
sg16
I10
sg17
I67
sbs(I4
I3
tp90
g1
(g10
g3
NtRp91
(dp92
g13
F17.763544733560487
sg14
I4
sg15
I01
sg16
I3
sg17
I10
sbs(I5
I2
tp93
g1
(g10
g3
NtRp94
(dp95
g13
F-19.837142492899488
sg14
I5
sg15
I01
sg16
I2
sg17
I21
sbs(I2
I4
tp96
g1
(g10
g3
NtRp97
(dp98
g13
F-13.094528473524299
sg14
I2
sg15
I01
sg16
I4
sg17
I16
sbs(I10
I2
tp99
g1
(g10
g3
NtRp100
(dp101
g13
F-24.940881695176259
sg14
I10
sg15
I01
sg16
I2
sg17
I66
sbssS'_input_nodes'
p102
I1
sS'_output_nodes'
p103
I1
sS'_node_gene_type'
p104
cneat.genome
NodeGene
p105
sS'_conn_gene_type'
p106
g10
sS'fitness'
p107
F0.99341677049512234
sS'parent2_id'
p108
I8000
sS'_id'
p109
I8051
sS'parent1_id'
p110
I8000
sS'_node_genes'
p111
(lp112
g1
(g105
g3
NtRp113
(dp114
S'_bias'
p115
I0
sS'_type'
p116
S'INPUT'
p117
sg109
I1
sS'_response'
p118
F4.9242730000000003
sS'_activation_type'
p119
Nsbag1
(g105
g3
NtRp120
(dp121
g115
F-2.848348381862722
sg116
S'OUTPUT'
p122
sg109
I2
sg118
F4.4146828843367958
sg119
S'tanh'
p123
sbag1
(g105
g3
NtRp124
(dp125
g115
F1.7162171981611165
sg116
S'HIDDEN'
p126
sg109
I3
sg118
F-2.7744981059469738
sg119
g123
sbag1
(g105
g3
NtRp127
(dp128
g115
F-1.748269249185658
sg116
g126
sg109
I4
sg118
F8.9209842381824842
sg119
g123
sbag1
(g105
g3
NtRp129
(dp130
g115
F0.12938195367254224
sg116
g126
sg109
I5
sg118
F4.7018211504056415
sg119
g123
sbag1
(g105
g3
NtRp131
(dp132
g115
F1.3033255975855063
sg116
g126
sg109
I6
sg118
F1.6181258480888705
sg119
g123
sbag1
(g105
g3
NtRp133
(dp134
g115
F-2.3049607146907669
sg116
g126
sg109
I7
sg118
F3.6412452310074706
sg119
g123
sbag1
(g105
g3
NtRp135
(dp136
g115
F2.2249749531453622
sg116
g126
sg109
I8
sg118
F4.5167263177885451
sg119
g123
sbag1
(g105
g3
NtRp137
(dp138
g115
F-0.25735857590462691
sg116
g126
sg109
I9
sg118
F5.5045248303118974
sg119
g123
sbag1
(g105
g3
NtRp139
(dp140
g115
F-1.2400657960341861
sg116
g126
sg109
I10
sg118
F4.8436562192956831
sg119
g123
sbag1
(g105
g3
NtRp141
(dp142
g115
F1.2972424674243956
sg116
g126
sg109
I11
sg118
F4.9242730000000003
sg119
g123
sbag1
(g105
g3
NtRp143
(dp144
g115
I0
sg116
g126
sg109
I12
sg118
F5.7912308224811575
sg119
g123
sbag1
(g105
g3
NtRp145
(dp146
g115
I0
sg116
g126
sg109
I13
sg118
F4.9242730000000003
sg119
g123
sbasb.