ccopy_reg
_reconstructor
p1
(cneat.chromosome
Chromosome
p2
c__builtin__
object
p3
NtRp4
(dp5
S'species_id'
p6
I38
sS'_connection_genes'
p7
(dp8
(I1
I3
tp9
g1
(cneat.genome
ConnectionGene
p10
g3
NtRp11
(dp12
S'_ConnectionGene__weight'
p13
F11.167118664654291
sS'_ConnectionGene__in'
p14
I1
sS'_ConnectionGene__enabled'
p15
I01
sS'_ConnectionGene__out'
p16
I3
sS'_ConnectionGene__innov_number'
p17
I3
sbs(I5
I6
tp18
g1
(g10
g3
NtRp19
(dp20
g13
F-0.77042679917391155
sg14
I5
sg15
I01
sg16
I6
sg17
I25
sbs(I8
I9
tp21
g1
(g10
g3
NtRp22
(dp23
g13
F-2.404796121745072
sg14
I8
sg15
I01
sg16
I9
sg17
I61
sbs(I6
I2
tp24
g1
(g10
g3
NtRp25
(dp26
g13
F4.9546482970008867
sg14
I6
sg15
I01
sg16
I2
sg17
I18
sbs(I3
I7
tp27
g1
(g10
g3
NtRp28
(dp29
g13
F-7.1377273473678171
sg14
I3
sg15
I01
sg16
I7
sg17
I49
sbs(I7
I2
tp30
g1
(g10
g3
NtRp31
(dp32
g13
F-10.199468497495651
sg14
I7
sg15
I01
sg16
I2
sg17
I31
sbs(I1
I2
tp33
g1
(g10
g3
NtRp34
(dp35
g13
F-15.514853012223011
sg14
I1
sg15
I01
sg16
I2
sg17
I1
sbs(I3
I3
tp36
g1
(g10
g3
NtRp37
(dp38
g13
F19.909571588564656
sg14
I3
sg15
I01
sg16
I3
sg17
I8
sbs(I5
I8
tp39
g1
(g10
g3
NtRp40
(dp41
g13
F-7.0116462486745998
sg14
I5
sg15
I01
sg16
I8
sg17
I45
sbs(I3
I5
tp42
g1
(g10
g3
NtRp43
(dp44
g13
F15.501818437152563
sg14
I3
sg15
I00
sg16
I5
sg17
I12
sbs(I3
I2
tp45
g1
(g10
g3
NtRp46
(dp47
g13
F10.604568837442383
sg14
I3
sg15
I01
sg16
I2
sg17
I4
sbs(I8
I2
tp48
g1
(g10
g3
NtRp49
(dp50
g13
F-20.579196833475173
sg14
I8
sg15
I01
sg16
I2
sg17
I46
sbs(I9
I3
tp51
g1
(g10
g3
NtRp52
(dp53
g13
F2.2374510815564794
sg14
I9
sg15
I01
sg16
I3
sg17
I60
sbs(I1
I4
tp54
g1
(g10
g3
NtRp55
(dp56
g13
F9.8202679526777494
sg14
I1
sg15
I01
sg16
I4
sg17
I6
sbs(I7
I5
tp57
g1
(g10
g3
NtRp58
(dp59
g13
F6.2178254134797921
sg14
I7
sg15
I01
sg16
I5
sg17
I50
sbs(I5
I3
tp60
g1
(g10
g3
NtRp61
(dp62
g13
F8.6519797837702814
sg14
I5
sg15
I01
sg16
I3
sg17
I15
sbs(I8
I3
tp63
g1
(g10
g3
NtRp64
(dp65
g13
F-3.6147263553580649
sg14
I8
sg15
I00
sg16
I3
sg17
I39
sbs(I5
I10
tp66
g1
(g10
g3
NtRp67
(dp68
g13
F1
sg14
I5
sg15
I01
sg16
I10
sg17
I67
sbs(I4
I3
tp69
g1
(g10
g3
NtRp70
(dp71
g13
F28.708946130190025
sg14
I4
sg15
I01
sg16
I3
sg17
I10
sbs(I5
I2
tp72
g1
(g10
g3
NtRp73
(dp74
g13
F-25.702552327749856
sg14
I5
sg15
I00
sg16
I2
sg17
I21
sbs(I2
I4
tp75
g1
(g10
g3
NtRp76
(dp77
g13
F-2.5177617265393977
sg14
I2
sg15
I01
sg16
I4
sg17
I16
sbs(I10
I2
tp78
g1
(g10
g3
NtRp79
(dp80
g13
F-25.702552327749856
sg14
I10
sg15
I01
sg16
I2
sg17
I66
sbssS'_input_nodes'
p81
I1
sS'_output_nodes'
p82
I1
sS'_node_gene_type'
p83
cneat.genome
NodeGene
p84
sS'_conn_gene_type'
p85
g10
sS'fitness'
p86
F0.9975827707202749
sS'parent2_id'
p87
I5683
sS'_id'
p88
I5724
sS'parent1_id'
p89
I5683
sS'_node_genes'
p90
(lp91
g1
(g84
g3
NtRp92
(dp93
S'_bias'
p94
I0
sS'_type'
p95
S'INPUT'
p96
sg88
I1
sS'_response'
p97
F4.9242730000000003
sS'_activation_type'
p98
Nsbag1
(g84
g3
NtRp99
(dp100
g94
F-2.1169135317645522
sg95
S'OUTPUT'
p101
sg88
I2
sg97
F5.6564624914001707
sg98
S'tanh'
p102
sbag1
(g84
g3
NtRp103
(dp104
g94
F2.27522552603283
sg95
S'HIDDEN'
p105
sg88
I3
sg97
F1.1586480335756626
sg98
g102
sbag1
(g84
g3
NtRp106
(dp107
g94
F-1.6668191331031286
sg95
g105
sg88
I4
sg97
F7.7409353559466396
sg98
g102
sbag1
(g84
g3
NtRp108
(dp109
g94
F0.86645024477989119
sg95
g105
sg88
I5
sg97
F5.8376653041007023
sg98
g102
sbag1
(g84
g3
NtRp110
(dp111
g94
F0.30932335372368736
sg95
g105
sg88
I6
sg97
F4.3561672392356252
sg98
g102
sbag1
(g84
g3
NtRp112
(dp113
g94
F-0.019654250370035653
sg95
g105
sg88
I7
sg97
F5.0437338833470253
sg98
g102
sbag1
(g84
g3
NtRp114
(dp115
g94
F2.458285504322876
sg95
g105
sg88
I8
sg97
F7.0220986857645569
sg98
g102
sbag1
(g84
g3
NtRp116
(dp117
g94
F0.45398518373006502
sg95
g105
sg88
I9
sg97
F4.9242730000000003
sg98
g102
sbag1
(g84
g3
NtRp118
(dp119
g94
I0
sg95
g105
sg88
I10
sg97
F4.9242730000000003
sg98
g102
sbasb.