ccopy_reg
_reconstructor
p1
(cneat.chromosome
Chromosome
p2
c__builtin__
object
p3
NtRp4
(dp5
S'species_id'
p6
I67
sS'_connection_genes'
p7
(dp8
(I7
I3
tp9
g1
(cneat.genome
ConnectionGene
p10
g3
NtRp11
(dp12
S'_ConnectionGene__weight'
p13
F20.620660546090768
sS'_ConnectionGene__in'
p14
I7
sS'_ConnectionGene__enabled'
p15
I01
sS'_ConnectionGene__out'
p16
I3
sS'_ConnectionGene__innov_number'
p17
I36
sbs(I1
I3
tp18
g1
(g10
g3
NtRp19
(dp20
g13
F-8.5147858292950804
sg14
I1
sg15
I01
sg16
I3
sg17
I3
sbs(I5
I9
tp21
g1
(g10
g3
NtRp22
(dp23
g13
F-3.2513951983196216
sg14
I5
sg15
I01
sg16
I9
sg17
I100
sbs(I5
I4
tp24
g1
(g10
g3
NtRp25
(dp26
g13
F-1.890551280736338
sg14
I5
sg15
I01
sg16
I4
sg17
I13
sbs(I3
I7
tp27
g1
(g10
g3
NtRp28
(dp29
g13
F-9.657507429796663
sg14
I3
sg15
I01
sg16
I7
sg17
I49
sbs(I5
I8
tp30
g1
(g10
g3
NtRp31
(dp32
g13
F-1.4714475251281369
sg14
I5
sg15
I01
sg16
I8
sg17
I45
sbs(I1
I2
tp33
g1
(g10
g3
NtRp34
(dp35
g13
F-26.37518214146861
sg14
I1
sg15
I01
sg16
I2
sg17
I1
sbs(I12
I2
tp36
g1
(g10
g3
NtRp37
(dp38
g13
F25.79163973340204
sg14
I12
sg15
I01
sg16
I2
sg17
I104
sbs(I4
I9
tp39
g1
(g10
g3
NtRp40
(dp41
g13
F11.188134947993706
sg14
I4
sg15
I01
sg16
I9
sg17
I57
sbs(I3
I3
tp42
g1
(g10
g3
NtRp43
(dp44
g13
F-2.2383938742846383
sg14
I3
sg15
I01
sg16
I3
sg17
I8
sbs(I2
I9
tp45
g1
(g10
g3
NtRp46
(dp47
g13
F-0.55907843349318531
sg14
I2
sg15
I01
sg16
I9
sg17
I144
sbs(I3
I10
tp48
g1
(g10
g3
NtRp49
(dp50
g13
F-10.396228242842227
sg14
I3
sg15
I01
sg16
I10
sg17
I76
sbs(I4
I4
tp51
g1
(g10
g3
NtRp52
(dp53
g13
F-3.4577191571408532
sg14
I4
sg15
I00
sg16
I4
sg17
I11
sbs(I10
I12
tp54
g1
(g10
g3
NtRp55
(dp56
g13
F-1.919425148725793
sg14
I10
sg15
I01
sg16
I12
sg17
I111
sbs(I4
I8
tp57
g1
(g10
g3
NtRp58
(dp59
g13
F-6.7983508905427028
sg14
I4
sg15
I01
sg16
I8
sg17
I38
sbs(I6
I5
tp60
g1
(g10
g3
NtRp61
(dp62
g13
F-19.482603416062744
sg14
I6
sg15
I01
sg16
I5
sg17
I28
sbs(I3
I6
tp63
g1
(g10
g3
NtRp64
(dp65
g13
F-11.715268331220138
sg14
I3
sg15
I01
sg16
I6
sg17
I22
sbs(I2
I2
tp66
g1
(g10
g3
NtRp67
(dp68
g13
F-1.4412980134761986
sg14
I2
sg15
I01
sg16
I2
sg17
I2
sbs(I3
I2
tp69
g1
(g10
g3
NtRp70
(dp71
g13
F12.636011935854709
sg14
I3
sg15
I01
sg16
I2
sg17
I4
sbs(I6
I6
tp72
g1
(g10
g3
NtRp73
(dp74
g13
F-6.1986335036370352
sg14
I6
sg15
I01
sg16
I6
sg17
I37
sbs(I5
I11
tp75
g1
(g10
g3
NtRp76
(dp77
g13
F8.0305710727218464
sg14
I5
sg15
I01
sg16
I11
sg17
I90
sbs(I9
I3
tp78
g1
(g10
g3
NtRp79
(dp80
g13
F-19.407392217865041
sg14
I9
sg15
I01
sg16
I3
sg17
I60
sbs(I2
I3
tp81
g1
(g10
g3
NtRp82
(dp83
g13
F6.0361885272036595
sg14
I2
sg15
I01
sg16
I3
sg17
I5
sbs(I1
I9
tp84
g1
(g10
g3
NtRp85
(dp86
g13
F6.7153839971487237
sg14
I1
sg15
I01
sg16
I9
sg17
I47
sbs(I4
I2
tp87
g1
(g10
g3
NtRp88
(dp89
g13
F1.021056075660858
sg14
I4
sg15
I01
sg16
I2
sg17
I7
sbs(I4
I11
tp90
g1
(g10
g3
NtRp91
(dp92
g13
F1.4728059193250338
sg14
I4
sg15
I01
sg16
I11
sg17
I86
sbs(I3
I5
tp93
g1
(g10
g3
NtRp94
(dp95
g13
F29.268849176685318
sg14
I3
sg15
I01
sg16
I5
sg17
I12
sbs(I10
I5
tp96
g1
(g10
g3
NtRp97
(dp98
g13
F-0.99016252299560747
sg14
I10
sg15
I01
sg16
I5
sg17
I79
sbs(I9
I2
tp99
g1
(g10
g3
NtRp100
(dp101
g13
F-1.6241237813940945
sg14
I9
sg15
I01
sg16
I2
sg17
I48
sbs(I9
I9
tp102
g1
(g10
g3
NtRp103
(dp104
g13
F17.05049303458259
sg14
I9
sg15
I01
sg16
I9
sg17
I73
sbs(I11
I8
tp105
g1
(g10
g3
NtRp106
(dp107
g13
F-3.8866423938607149
sg14
I11
sg15
I01
sg16
I8
sg17
I91
sbs(I4
I3
tp108
g1
(g10
g3
NtRp109
(dp110
g13
F1.304644878456098
sg14
I4
sg15
I01
sg16
I3
sg17
I10
sbs(I10
I2
tp111
g1
(g10
g3
NtRp112
(dp113
g13
F26.190651891346576
sg14
I10
sg15
I01
sg16
I2
sg17
I66
sbs(I5
I2
tp114
g1
(g10
g3
NtRp115
(dp116
g13
F-20.178537811205963
sg14
I5
sg15
I01
sg16
I2
sg17
I21
sbs(I2
I4
tp117
g1
(g10
g3
NtRp118
(dp119
g13
F20.184691753493041
sg14
I2
sg15
I01
sg16
I4
sg17
I16
sbs(I8
I4
tp120
g1
(g10
g3
NtRp121
(dp122
g13
F6.9845023978699574
sg14
I8
sg15
I01
sg16
I4
sg17
I41
sbssS'_input_nodes'
p123
I1
sS'_output_nodes'
p124
I1
sS'_node_gene_type'
p125
cneat.genome
NodeGene
p126
sS'_conn_gene_type'
p127
g10
sS'fitness'
p128
F0.99793275942455006
sS'parent2_id'
p129
I10694
sS'_id'
p130
I10736
sS'parent1_id'
p131
I10694
sS'_node_genes'
p132
(lp133
g1
(g126
g3
NtRp134
(dp135
S'_bias'
p136
I0
sS'_type'
p137
S'INPUT'
p138
sg130
I1
sS'_response'
p139
F4.9242730000000003
sS'_activation_type'
p140
Nsbag1
(g126
g3
NtRp141
(dp142
g136
F0.92208900805023597
sg137
S'OUTPUT'
p143
sg130
I2
sg139
F5.0066203591288057
sg140
S'tanh'
p144
sbag1
(g126
g3
NtRp145
(dp146
g136
F-2.0759086356991387
sg137
S'HIDDEN'
p147
sg130
I3
sg139
F5.6628364978576124
sg140
g144
sbag1
(g126
g3
NtRp148
(dp149
g136
F1.7434417819346497
sg137
g147
sg130
I4
sg139
F0.58891381162545697
sg140
g144
sbag1
(g126
g3
NtRp150
(dp151
g136
F-1.7196804041214762
sg137
g147
sg130
I5
sg139
F5.2281586332190981
sg140
g144
sbag1
(g126
g3
NtRp152
(dp153
g136
F1.2126994554570374
sg137
g147
sg130
I6
sg139
F10.751141436281793
sg140
g144
sbag1
(g126
g3
NtRp154
(dp155
g136
F-0.32854428906916255
sg137
g147
sg130
I7
sg139
F11.368286344984648
sg140
g144
sbag1
(g126
g3
NtRp156
(dp157
g136
F-4.339188385048371
sg137
g147
sg130
I8
sg139
F3.515861376853433
sg140
g144
sbag1
(g126
g3
NtRp158
(dp159
g136
F2.3959284025991217
sg137
g147
sg130
I9
sg139
F2.5844694199393099
sg140
g144
sbag1
(g126
g3
NtRp160
(dp161
g136
F1.0338073172605569
sg137
g147
sg130
I10
sg139
F3.7523863643897371
sg140
g144
sbag1
(g126
g3
NtRp162
(dp163
g136
F-0.81280894168513296
sg137
g147
sg130
I11
sg139
F5.2878280078296118
sg140
g144
sbag1
(g126
g3
NtRp164
(dp165
g136
F0.49516896223551349
sg137
g147
sg130
I12
sg139
F5.0216970628740549
sg140
g144
sbasb.