ccopy_reg
_reconstructor
p1
(cneat.chromosome
Chromosome
p2
c__builtin__
object
p3
NtRp4
(dp5
S'species_id'
p6
I137
sS'_connection_genes'
p7
(dp8
(I7
I3
tp9
g1
(cneat.genome
ConnectionGene
p10
g3
NtRp11
(dp12
S'_ConnectionGene__weight'
p13
F26.537698973619243
sS'_ConnectionGene__in'
p14
I7
sS'_ConnectionGene__enabled'
p15
I01
sS'_ConnectionGene__out'
p16
I3
sS'_ConnectionGene__innov_number'
p17
I36
sbs(I1
I3
tp18
g1
(g10
g3
NtRp19
(dp20
g13
F-19.683504368510366
sg14
I1
sg15
I01
sg16
I3
sg17
I3
sbs(I5
I9
tp21
g1
(g10
g3
NtRp22
(dp23
g13
F6.1028010219151358
sg14
I5
sg15
I01
sg16
I9
sg17
I100
sbs(I16
I9
tp24
g1
(g10
g3
NtRp25
(dp26
g13
F17.023892696119866
sg14
I16
sg15
I01
sg16
I9
sg17
I236
sbs(I9
I19
tp27
g1
(g10
g3
NtRp28
(dp29
g13
F-1.8982787811322284
sg14
I9
sg15
I01
sg16
I19
sg17
I312
sbs(I3
I2
tp30
g1
(g10
g3
NtRp31
(dp32
g13
F22.526367027009009
sg14
I3
sg15
I01
sg16
I2
sg17
I4
sbs(I8
I4
tp33
g1
(g10
g3
NtRp34
(dp35
g13
F18.301759013800833
sg14
I8
sg15
I01
sg16
I4
sg17
I41
sbs(I2
I12
tp36
g1
(g10
g3
NtRp37
(dp38
g13
F-5.8104429061589515
sg14
I2
sg15
I01
sg16
I12
sg17
I135
sbs(I7
I11
tp39
g1
(g10
g3
NtRp40
(dp41
g13
F-15.060011507044456
sg14
I7
sg15
I01
sg16
I11
sg17
I92
sbs(I3
I7
tp42
g1
(g10
g3
NtRp43
(dp44
g13
F6.0078711592372187
sg14
I3
sg15
I00
sg16
I7
sg17
I49
sbs(I14
I9
tp45
g1
(g10
g3
NtRp46
(dp47
g13
F15.732669627636007
sg14
I14
sg15
I01
sg16
I9
sg17
I130
sbs(I5
I8
tp48
g1
(g10
g3
NtRp49
(dp50
g13
F20.340876742199093
sg14
I5
sg15
I01
sg16
I8
sg17
I45
sbs(I1
I2
tp51
g1
(g10
g3
NtRp52
(dp53
g13
F-23.177719030651048
sg14
I1
sg15
I01
sg16
I2
sg17
I1
sbs(I12
I2
tp54
g1
(g10
g3
NtRp55
(dp56
g13
F21.967251961865667
sg14
I12
sg15
I01
sg16
I2
sg17
I104
sbs(I4
I9
tp57
g1
(g10
g3
NtRp58
(dp59
g13
F-13.188005482667098
sg14
I4
sg15
I01
sg16
I9
sg17
I57
sbs(I3
I3
tp60
g1
(g10
g3
NtRp61
(dp62
g13
F-7.9143689030644966
sg14
I3
sg15
I01
sg16
I3
sg17
I8
sbs(I2
I9
tp63
g1
(g10
g3
NtRp64
(dp65
g13
F23.261772972155306
sg14
I2
sg15
I01
sg16
I9
sg17
I144
sbs(I3
I10
tp66
g1
(g10
g3
NtRp67
(dp68
g13
F18.059029830418069
sg14
I3
sg15
I01
sg16
I10
sg17
I76
sbs(I4
I4
tp69
g1
(g10
g3
NtRp70
(dp71
g13
F5.1613161905369838
sg14
I4
sg15
I01
sg16
I4
sg17
I11
sbs(I10
I12
tp72
g1
(g10
g3
NtRp73
(dp74
g13
F-14.691729543394816
sg14
I10
sg15
I01
sg16
I12
sg17
I111
sbs(I17
I2
tp75
g1
(g10
g3
NtRp76
(dp77
g13
F-3.7985684044193335
sg14
I17
sg15
I01
sg16
I2
sg17
I202
sbs(I13
I7
tp78
g1
(g10
g3
NtRp79
(dp80
g13
F-11.201688704681098
sg14
I13
sg15
I01
sg16
I7
sg17
I108
sbs(I9
I17
tp81
g1
(g10
g3
NtRp82
(dp83
g13
F7.700992288978564
sg14
I9
sg15
I01
sg16
I17
sg17
I258
sbs(I18
I9
tp84
g1
(g10
g3
NtRp85
(dp86
g13
F-3.7941008230112661
sg14
I18
sg15
I01
sg16
I9
sg17
I268
sbs(I2
I2
tp87
g1
(g10
g3
NtRp88
(dp89
g13
F8.0437529533529037
sg14
I2
sg15
I01
sg16
I2
sg17
I2
sbs(I15
I4
tp90
g1
(g10
g3
NtRp91
(dp92
g13
F0.062216348376628039
sg14
I15
sg15
I01
sg16
I4
sg17
I173
sbs(I5
I11
tp93
g1
(g10
g3
NtRp94
(dp95
g13
F-7.2705660839368873
sg14
I5
sg15
I01
sg16
I11
sg17
I90
sbs(I15
I12
tp96
g1
(g10
g3
NtRp97
(dp98
g13
F5.1473788477636608
sg14
I15
sg15
I01
sg16
I12
sg17
I159
sbs(I5
I4
tp99
g1
(g10
g3
NtRp100
(dp101
g13
F12.107877372245254
sg14
I5
sg15
I01
sg16
I4
sg17
I13
sbs(I6
I6
tp102
g1
(g10
g3
NtRp103
(dp104
g13
F7.0810239239008821
sg14
I6
sg15
I01
sg16
I6
sg17
I37
sbs(I12
I14
tp105
g1
(g10
g3
NtRp106
(dp107
g13
F-15.791714766724068
sg14
I12
sg15
I01
sg16
I14
sg17
I131
sbs(I3
I13
tp108
g1
(g10
g3
NtRp109
(dp110
g13
F28.62172093035478
sg14
I3
sg15
I01
sg16
I13
sg17
I107
sbs(I9
I3
tp111
g1
(g10
g3
NtRp112
(dp113
g13
F-25.023934294630479
sg14
I9
sg15
I01
sg16
I3
sg17
I60
sbs(I9
I16
tp114
g1
(g10
g3
NtRp115
(dp116
g13
F24.764535493012488
sg14
I9
sg15
I01
sg16
I16
sg17
I240
sbs(I2
I3
tp117
g1
(g10
g3
NtRp118
(dp119
g13
F6.7539672260026888
sg14
I2
sg15
I01
sg16
I3
sg17
I5
sbs(I1
I9
tp120
g1
(g10
g3
NtRp121
(dp122
g13
F12.317460393701648
sg14
I1
sg15
I01
sg16
I9
sg17
I47
sbs(I4
I2
tp123
g1
(g10
g3
NtRp124
(dp125
g13
F-23.271697715541865
sg14
I4
sg15
I01
sg16
I2
sg17
I7
sbs(I14
I2
tp126
g1
(g10
g3
NtRp127
(dp128
g13
F0.010473885373960323
sg14
I14
sg15
I01
sg16
I2
sg17
I125
sbs(I4
I11
tp129
g1
(g10
g3
NtRp130
(dp131
g13
F-27.455396480534791
sg14
I4
sg15
I01
sg16
I11
sg17
I86
sbs(I3
I5
tp132
g1
(g10
g3
NtRp133
(dp134
g13
F23.124155928165916
sg14
I3
sg15
I01
sg16
I5
sg17
I12
sbs(I10
I5
tp135
g1
(g10
g3
NtRp136
(dp137
g13
F19.012456308301548
sg14
I10
sg15
I01
sg16
I5
sg17
I79
sbs(I19
I9
tp138
g1
(g10
g3
NtRp139
(dp140
g13
F9.5010410498380669
sg14
I19
sg15
I01
sg16
I9
sg17
I290
sbs(I6
I5
tp141
g1
(g10
g3
NtRp142
(dp143
g13
F-14.461878097846848
sg14
I6
sg15
I01
sg16
I5
sg17
I28
sbs(I9
I2
tp144
g1
(g10
g3
NtRp145
(dp146
g13
F-13.095985846810732
sg14
I9
sg15
I00
sg16
I2
sg17
I48
sbs(I7
I14
tp147
g1
(g10
g3
NtRp148
(dp149
g13
F-2.8927698176299992
sg14
I7
sg15
I01
sg16
I14
sg17
I162
sbs(I9
I9
tp150
g1
(g10
g3
NtRp151
(dp152
g13
F23.576823775145158
sg14
I9
sg15
I00
sg16
I9
sg17
I73
sbs(I3
I6
tp153
g1
(g10
g3
NtRp154
(dp155
g13
F-22.174124377367349
sg14
I3
sg15
I01
sg16
I6
sg17
I22
sbs(I18
I7
tp156
g1
(g10
g3
NtRp157
(dp158
g13
F9.6101969107117817
sg14
I18
sg15
I01
sg16
I7
sg17
I272
sbs(I11
I8
tp159
g1
(g10
g3
NtRp160
(dp161
g13
F9.0449711319475252
sg14
I11
sg15
I01
sg16
I8
sg17
I91
sbs(I13
I18
tp162
g1
(g10
g3
NtRp163
(dp164
g13
F4.0281382224686864
sg14
I13
sg15
I01
sg16
I18
sg17
I271
sbs(I4
I3
tp165
g1
(g10
g3
NtRp166
(dp167
g13
F6.3687708820903737
sg14
I4
sg15
I01
sg16
I3
sg17
I10
sbs(I2
I15
tp168
g1
(g10
g3
NtRp169
(dp170
g13
F6.7538271180100535
sg14
I2
sg15
I01
sg16
I15
sg17
I172
sbs(I4
I8
tp171
g1
(g10
g3
NtRp172
(dp173
g13
F-19.74581036016367
sg14
I4
sg15
I01
sg16
I8
sg17
I38
sbs(I5
I2
tp174
g1
(g10
g3
NtRp175
(dp176
g13
F-20.113213416029787
sg14
I5
sg15
I01
sg16
I2
sg17
I21
sbs(I2
I4
tp177
g1
(g10
g3
NtRp178
(dp179
g13
F27.93605693944847
sg14
I2
sg15
I01
sg16
I4
sg17
I16
sbs(I11
I6
tp180
g1
(g10
g3
NtRp181
(dp182
g13
F-9.7816251393675735
sg14
I11
sg15
I01
sg16
I6
sg17
I110
sbs(I10
I2
tp183
g1
(g10
g3
NtRp184
(dp185
g13
F26.394315254312101
sg14
I10
sg15
I01
sg16
I2
sg17
I66
sbssS'_input_nodes'
p186
I1
sS'_output_nodes'
p187
I1
sS'_node_gene_type'
p188
cneat.genome
NodeGene
p189
sS'_conn_gene_type'
p190
g10
sS'fitness'
p191
F0.95750096394496931
sS'parent2_id'
p192
I19429
sS'_id'
p193
I19481
sS'parent1_id'
p194
I19429
sS'_node_genes'
p195
(lp196
g1
(g189
g3
NtRp197
(dp198
S'_bias'
p199
I0
sS'_type'
p200
S'INPUT'
p201
sg193
I1
sS'_response'
p202
F4.9242730000000003
sS'_activation_type'
p203
Nsbag1
(g189
g3
NtRp204
(dp205
g199
F2.0046258091075408
sg200
S'OUTPUT'
p206
sg193
I2
sg202
F9.1650106924331265
sg203
S'tanh'
p207
sbag1
(g189
g3
NtRp208
(dp209
g199
F-3.5647797285082192
sg200
S'HIDDEN'
p210
sg193
I3
sg202
F4.297057458849336
sg203
g207
sbag1
(g189
g3
NtRp211
(dp212
g199
F1.851733037293751
sg200
g210
sg193
I4
sg202
F-3.1059759419857125
sg203
g207
sbag1
(g189
g3
NtRp213
(dp214
g199
F-3.6248704791515931
sg200
g210
sg193
I5
sg202
F7.1751828126877983
sg203
g207
sbag1
(g189
g3
NtRp215
(dp216
g199
F1.9203128097703919
sg200
g210
sg193
I6
sg202
F10.16177587551929
sg203
g207
sbag1
(g189
g3
NtRp217
(dp218
g199
F-1.2791359913944542
sg200
g210
sg193
I7
sg202
F13.564679914487538
sg203
g207
sbag1
(g189
g3
NtRp219
(dp220
g199
F-1.1001644647845934
sg200
g210
sg193
I8
sg202
F5.9487717238288758
sg203
g207
sbag1
(g189
g3
NtRp221
(dp222
g199
F2.5964498238466911
sg200
g210
sg193
I9
sg202
F-1.835758571367009
sg203
g207
sbag1
(g189
g3
NtRp223
(dp224
g199
F6.8671367503123175
sg200
g210
sg193
I10
sg202
F1.6705735682558962
sg203
g207
sbag1
(g189
g3
NtRp225
(dp226
g199
F-6.1317180567244067
sg200
g210
sg193
I11
sg202
F8.8772046567985985
sg203
g207
sbag1
(g189
g3
NtRp227
(dp228
g199
F1.0818320877940486
sg200
g210
sg193
I12
sg202
F7.1844704456676469
sg203
g207
sbag1
(g189
g3
NtRp229
(dp230
g199
F5.1542253017764335
sg200
g210
sg193
I13
sg202
F4.5705145035318084
sg203
g207
sbag1
(g189
g3
NtRp231
(dp232
g199
F1.6309524671866382
sg200
g210
sg193
I14
sg202
F4.3403090059985665
sg203
g207
sbag1
(g189
g3
NtRp233
(dp234
g199
F-2.6956704764621056
sg200
g210
sg193
I15
sg202
F12.732770568484447
sg203
g207
sbag1
(g189
g3
NtRp235
(dp236
g199
F-0.57684069483900235
sg200
g210
sg193
I16
sg202
F9.2263719323635538
sg203
g207
sbag1
(g189
g3
NtRp237
(dp238
g199
F0.40666520779129495
sg200
g210
sg193
I17
sg202
F3.129716807586961
sg203
g207
sbag1
(g189
g3
NtRp239
(dp240
g199
F3.130096664252167
sg200
g210
sg193
I18
sg202
F4.1839291545333293
sg203
g207
sbag1
(g189
g3
NtRp241
(dp242
g199
F-2.1481915217562944
sg200
g210
sg193
I19
sg202
F7.5822002913284523
sg203
g207
sbasb.