ccopy_reg
_reconstructor
p1
(cneat.chromosome
Chromosome
p2
c__builtin__
object
p3
NtRp4
(dp5
S'species_id'
p6
I108
sS'_connection_genes'
p7
(dp8
(I7
I3
tp9
g1
(cneat.genome
ConnectionGene
p10
g3
NtRp11
(dp12
S'_ConnectionGene__weight'
p13
F30
sS'_ConnectionGene__in'
p14
I7
sS'_ConnectionGene__enabled'
p15
I01
sS'_ConnectionGene__out'
p16
I3
sS'_ConnectionGene__innov_number'
p17
I36
sbs(I1
I3
tp18
g1
(g10
g3
NtRp19
(dp20
g13
F-14.543995527677728
sg14
I1
sg15
I01
sg16
I3
sg17
I3
sbs(I5
I9
tp21
g1
(g10
g3
NtRp22
(dp23
g13
F12.404514193576277
sg14
I5
sg15
I01
sg16
I9
sg17
I100
sbs(I16
I9
tp24
g1
(g10
g3
NtRp25
(dp26
g13
F21.167060847382455
sg14
I16
sg15
I01
sg16
I9
sg17
I236
sbs(I3
I13
tp27
g1
(g10
g3
NtRp28
(dp29
g13
F20.424453869997084
sg14
I3
sg15
I01
sg16
I13
sg17
I107
sbs(I5
I4
tp30
g1
(g10
g3
NtRp31
(dp32
g13
F2.4353227836753906
sg14
I5
sg15
I01
sg16
I4
sg17
I13
sbs(I7
I11
tp33
g1
(g10
g3
NtRp34
(dp35
g13
F-4.7014375767856169
sg14
I7
sg15
I01
sg16
I11
sg17
I92
sbs(I3
I7
tp36
g1
(g10
g3
NtRp37
(dp38
g13
F17.420667545306166
sg14
I3
sg15
I00
sg16
I7
sg17
I49
sbs(I14
I9
tp39
g1
(g10
g3
NtRp40
(dp41
g13
F10.451559949741995
sg14
I14
sg15
I01
sg16
I9
sg17
I130
sbs(I5
I8
tp42
g1
(g10
g3
NtRp43
(dp44
g13
F21.02659766923243
sg14
I5
sg15
I01
sg16
I8
sg17
I45
sbs(I1
I2
tp45
g1
(g10
g3
NtRp46
(dp47
g13
F-14.758318404457935
sg14
I1
sg15
I01
sg16
I2
sg17
I1
sbs(I12
I2
tp48
g1
(g10
g3
NtRp49
(dp50
g13
F18.217532601903724
sg14
I12
sg15
I01
sg16
I2
sg17
I104
sbs(I4
I9
tp51
g1
(g10
g3
NtRp52
(dp53
g13
F5.602587029148915
sg14
I4
sg15
I01
sg16
I9
sg17
I57
sbs(I3
I3
tp54
g1
(g10
g3
NtRp55
(dp56
g13
F-4.9689338987282454
sg14
I3
sg15
I01
sg16
I3
sg17
I8
sbs(I2
I9
tp57
g1
(g10
g3
NtRp58
(dp59
g13
F15.923079742863479
sg14
I2
sg15
I01
sg16
I9
sg17
I144
sbs(I3
I10
tp60
g1
(g10
g3
NtRp61
(dp62
g13
F6.6946694722884335
sg14
I3
sg15
I01
sg16
I10
sg17
I76
sbs(I4
I4
tp63
g1
(g10
g3
NtRp64
(dp65
g13
F0.51825651468809997
sg14
I4
sg15
I00
sg16
I4
sg17
I11
sbs(I10
I12
tp66
g1
(g10
g3
NtRp67
(dp68
g13
F-24.885387293529178
sg14
I10
sg15
I01
sg16
I12
sg17
I111
sbs(I17
I2
tp69
g1
(g10
g3
NtRp70
(dp71
g13
F-7.6273545636171898
sg14
I17
sg15
I01
sg16
I2
sg17
I202
sbs(I13
I7
tp72
g1
(g10
g3
NtRp73
(dp74
g13
F-8.7434532610364197
sg14
I13
sg15
I01
sg16
I7
sg17
I108
sbs(I9
I17
tp75
g1
(g10
g3
NtRp76
(dp77
g13
F1.8988672231735242
sg14
I9
sg15
I01
sg16
I17
sg17
I258
sbs(I3
I6
tp78
g1
(g10
g3
NtRp79
(dp80
g13
F-19.270117855605193
sg14
I3
sg15
I01
sg16
I6
sg17
I22
sbs(I2
I2
tp81
g1
(g10
g3
NtRp82
(dp83
g13
F15.874667607114761
sg14
I2
sg15
I01
sg16
I2
sg17
I2
sbs(I15
I4
tp84
g1
(g10
g3
NtRp85
(dp86
g13
F9.8782479197843944
sg14
I15
sg15
I01
sg16
I4
sg17
I173
sbs(I10
I2
tp87
g1
(g10
g3
NtRp88
(dp89
g13
F29.291730339404527
sg14
I10
sg15
I01
sg16
I2
sg17
I66
sbs(I3
I2
tp90
g1
(g10
g3
NtRp91
(dp92
g13
F10.527038164782573
sg14
I3
sg15
I01
sg16
I2
sg17
I4
sbs(I6
I6
tp93
g1
(g10
g3
NtRp94
(dp95
g13
F9.193720524574891
sg14
I6
sg15
I01
sg16
I6
sg17
I37
sbs(I12
I14
tp96
g1
(g10
g3
NtRp97
(dp98
g13
F0.68524987060859543
sg14
I12
sg15
I01
sg16
I14
sg17
I131
sbs(I5
I11
tp99
g1
(g10
g3
NtRp100
(dp101
g13
F2.2155576218448663
sg14
I5
sg15
I01
sg16
I11
sg17
I90
sbs(I9
I3
tp102
g1
(g10
g3
NtRp103
(dp104
g13
F-28.032662251522442
sg14
I9
sg15
I01
sg16
I3
sg17
I60
sbs(I9
I16
tp105
g1
(g10
g3
NtRp106
(dp107
g13
F20.021095923560072
sg14
I9
sg15
I01
sg16
I16
sg17
I240
sbs(I2
I3
tp108
g1
(g10
g3
NtRp109
(dp110
g13
F5.6048959134150769
sg14
I2
sg15
I01
sg16
I3
sg17
I5
sbs(I1
I9
tp111
g1
(g10
g3
NtRp112
(dp113
g13
F11.208243240006977
sg14
I1
sg15
I01
sg16
I9
sg17
I47
sbs(I4
I2
tp114
g1
(g10
g3
NtRp115
(dp116
g13
F-21.930423048281597
sg14
I4
sg15
I01
sg16
I2
sg17
I7
sbs(I14
I2
tp117
g1
(g10
g3
NtRp118
(dp119
g13
F25.812661357086565
sg14
I14
sg15
I01
sg16
I2
sg17
I125
sbs(I4
I11
tp120
g1
(g10
g3
NtRp121
(dp122
g13
F-18.046756757786781
sg14
I4
sg15
I01
sg16
I11
sg17
I86
sbs(I3
I5
tp123
g1
(g10
g3
NtRp124
(dp125
g13
F23.790358105749075
sg14
I3
sg15
I01
sg16
I5
sg17
I12
sbs(I10
I5
tp126
g1
(g10
g3
NtRp127
(dp128
g13
F5.8959385345591464
sg14
I10
sg15
I01
sg16
I5
sg17
I79
sbs(I6
I5
tp129
g1
(g10
g3
NtRp130
(dp131
g13
F-8.396761885526498
sg14
I6
sg15
I01
sg16
I5
sg17
I28
sbs(I9
I2
tp132
g1
(g10
g3
NtRp133
(dp134
g13
F-12.394761391666917
sg14
I9
sg15
I00
sg16
I2
sg17
I48
sbs(I7
I14
tp135
g1
(g10
g3
NtRp136
(dp137
g13
F-19.974393616412776
sg14
I7
sg15
I01
sg16
I14
sg17
I162
sbs(I9
I9
tp138
g1
(g10
g3
NtRp139
(dp140
g13
F13.609066005737784
sg14
I9
sg15
I01
sg16
I9
sg17
I73
sbs(I18
I7
tp141
g1
(g10
g3
NtRp142
(dp143
g13
F-11.506116708990866
sg14
I18
sg15
I01
sg16
I7
sg17
I272
sbs(I11
I8
tp144
g1
(g10
g3
NtRp145
(dp146
g13
F10.429669226319039
sg14
I11
sg15
I01
sg16
I8
sg17
I91
sbs(I13
I18
tp147
g1
(g10
g3
NtRp148
(dp149
g13
F7.5844078593407538
sg14
I13
sg15
I01
sg16
I18
sg17
I271
sbs(I4
I3
tp150
g1
(g10
g3
NtRp151
(dp152
g13
F-12.283089606279141
sg14
I4
sg15
I01
sg16
I3
sg17
I10
sbs(I2
I15
tp153
g1
(g10
g3
NtRp154
(dp155
g13
F-0.52622342692284896
sg14
I2
sg15
I01
sg16
I15
sg17
I172
sbs(I4
I8
tp156
g1
(g10
g3
NtRp157
(dp158
g13
F-2.0113645508477251
sg14
I4
sg15
I01
sg16
I8
sg17
I38
sbs(I5
I2
tp159
g1
(g10
g3
NtRp160
(dp161
g13
F-10.443952207642312
sg14
I5
sg15
I01
sg16
I2
sg17
I21
sbs(I2
I4
tp162
g1
(g10
g3
NtRp163
(dp164
g13
F27.395100521758078
sg14
I2
sg15
I01
sg16
I4
sg17
I16
sbs(I11
I6
tp165
g1
(g10
g3
NtRp166
(dp167
g13
F9.8667767345211619
sg14
I11
sg15
I01
sg16
I6
sg17
I110
sbs(I8
I4
tp168
g1
(g10
g3
NtRp169
(dp170
g13
F8.9459450825684144
sg14
I8
sg15
I01
sg16
I4
sg17
I41
sbssS'_input_nodes'
p171
I1
sS'_output_nodes'
p172
I1
sS'_node_gene_type'
p173
cneat.genome
NodeGene
p174
sS'_conn_gene_type'
p175
g10
sS'fitness'
p176
F0.99535128723316912
sS'parent2_id'
p177
I15636
sS'_id'
p178
I15671
sS'parent1_id'
p179
I15636
sS'_node_genes'
p180
(lp181
g1
(g174
g3
NtRp182
(dp183
S'_bias'
p184
I0
sS'_type'
p185
S'INPUT'
p186
sg178
I1
sS'_response'
p187
F4.9242730000000003
sS'_activation_type'
p188
Nsbag1
(g174
g3
NtRp189
(dp190
g184
F0.34411636061456952
sg185
S'OUTPUT'
p191
sg178
I2
sg187
F6.4452656025032704
sg188
S'tanh'
p192
sbag1
(g174
g3
NtRp193
(dp194
g184
F-2.8094375751543383
sg185
S'HIDDEN'
p195
sg178
I3
sg187
F4.5873371659549349
sg188
g192
sbag1
(g174
g3
NtRp196
(dp197
g184
F2.7141470878687617
sg185
g195
sg178
I4
sg187
F-3.3995241335319237
sg188
g192
sbag1
(g174
g3
NtRp198
(dp199
g184
F-0.83433462303205386
sg185
g195
sg178
I5
sg187
F6.0856364353239476
sg188
g192
sbag1
(g174
g3
NtRp200
(dp201
g184
F2.6827352381255776
sg185
g195
sg178
I6
sg187
F11.384022445374475
sg188
g192
sbag1
(g174
g3
NtRp202
(dp203
g184
F1.6874273188613231
sg185
g195
sg178
I7
sg187
F13.19491569800863
sg188
g192
sbag1
(g174
g3
NtRp204
(dp205
g184
F-2.3963484993068684
sg185
g195
sg178
I8
sg187
F2.7439677672864793
sg188
g192
sbag1
(g174
g3
NtRp206
(dp207
g184
F3.414466888627794
sg185
g195
sg178
I9
sg187
F1.1402691708646508
sg188
g192
sbag1
(g174
g3
NtRp208
(dp209
g184
F3.6451349469067953
sg185
g195
sg178
I10
sg187
F2.9761319518258285
sg188
g192
sbag1
(g174
g3
NtRp210
(dp211
g184
F-3.7330777741986929
sg185
g195
sg178
I11
sg187
F8.4921672597322377
sg188
g192
sbag1
(g174
g3
NtRp212
(dp213
g184
F1.0815429962172576
sg185
g195
sg178
I12
sg187
F6.6222799157701688
sg188
g192
sbag1
(g174
g3
NtRp214
(dp215
g184
F0.72391255293738344
sg185
g195
sg178
I13
sg187
F3.2272242933553223
sg188
g192
sbag1
(g174
g3
NtRp216
(dp217
g184
F0.63456051726067886
sg185
g195
sg178
I14
sg187
F6.1033862812807325
sg188
g192
sbag1
(g174
g3
NtRp218
(dp219
g184
F0.92435290791984204
sg185
g195
sg178
I15
sg187
F7.2919944024569796
sg188
g192
sbag1
(g174
g3
NtRp220
(dp221
g184
F-2.2090885178602768
sg185
g195
sg178
I16
sg187
F7.0857125321311401
sg188
g192
sbag1
(g174
g3
NtRp222
(dp223
g184
F-1.3099109776817319
sg185
g195
sg178
I17
sg187
F3.7382187145298285
sg188
g192
sbag1
(g174
g3
NtRp224
(dp225
g184
F-0.25598491967328502
sg185
g195
sg178
I18
sg187
F4.9102754285631738
sg188
g192
sbasb.