ccopy_reg
_reconstructor
p1
(cneat.chromosome
Chromosome
p2
c__builtin__
object
p3
NtRp4
(dp5
S'species_id'
p6
I23
sS'_connection_genes'
p7
(dp8
(I1
I2
tp9
g1
(cneat.genome
ConnectionGene
p10
g3
NtRp11
(dp12
S'_ConnectionGene__weight'
p13
F-17.495460932702656
sS'_ConnectionGene__in'
p14
I1
sS'_ConnectionGene__enabled'
p15
I01
sS'_ConnectionGene__out'
p16
I2
sS'_ConnectionGene__innov_number'
p17
I1
sbs(I7
I3
tp18
g1
(g10
g3
NtRp19
(dp20
g13
F13.751508028507137
sg14
I7
sg15
I01
sg16
I3
sg17
I36
sbs(I3
I2
tp21
g1
(g10
g3
NtRp22
(dp23
g13
F-1.9242208814846045
sg14
I3
sg15
I00
sg16
I2
sg17
I4
sbs(I1
I3
tp24
g1
(g10
g3
NtRp25
(dp26
g13
F19.534842499125375
sg14
I1
sg15
I00
sg16
I3
sg17
I3
sbs(I3
I3
tp27
g1
(g10
g3
NtRp28
(dp29
g13
F14.56063925323399
sg14
I3
sg15
I01
sg16
I3
sg17
I8
sbs(I5
I2
tp30
g1
(g10
g3
NtRp31
(dp32
g13
F2.5353580088872403
sg14
I5
sg15
I00
sg16
I2
sg17
I21
sbs(I5
I3
tp33
g1
(g10
g3
NtRp34
(dp35
g13
F-3.1052071027159727
sg14
I5
sg15
I01
sg16
I3
sg17
I15
sbs(I4
I4
tp36
g1
(g10
g3
NtRp37
(dp38
g13
F0.055156129956745792
sg14
I4
sg15
I01
sg16
I4
sg17
I11
sbs(I4
I7
tp39
g1
(g10
g3
NtRp40
(dp41
g13
F-1.2052479516837171
sg14
I4
sg15
I01
sg16
I7
sg17
I35
sbs(I1
I4
tp42
g1
(g10
g3
NtRp43
(dp44
g13
F17.635371594156332
sg14
I1
sg15
I01
sg16
I4
sg17
I6
sbs(I6
I3
tp45
g1
(g10
g3
NtRp46
(dp47
g13
F12.604247313908282
sg14
I6
sg15
I01
sg16
I3
sg17
I23
sbs(I1
I6
tp48
g1
(g10
g3
NtRp49
(dp50
g13
F8.2156574750341065
sg14
I1
sg15
I01
sg16
I6
sg17
I27
sbs(I4
I3
tp51
g1
(g10
g3
NtRp52
(dp53
g13
F21.466529993199828
sg14
I4
sg15
I00
sg16
I3
sg17
I10
sbs(I3
I5
tp54
g1
(g10
g3
NtRp55
(dp56
g13
F13.601907304602667
sg14
I3
sg15
I01
sg16
I5
sg17
I12
sbs(I3
I4
tp57
g1
(g10
g3
NtRp58
(dp59
g13
F0.41422752433635024
sg14
I3
sg15
I01
sg16
I4
sg17
I9
sbs(I2
I4
tp60
g1
(g10
g3
NtRp61
(dp62
g13
F-3.2128123352831208
sg14
I2
sg15
I01
sg16
I4
sg17
I16
sbs(I5
I8
tp63
g1
(g10
g3
NtRp64
(dp65
g13
F3.4011475404918441
sg14
I5
sg15
I01
sg16
I8
sg17
I45
sbs(I8
I2
tp66
g1
(g10
g3
NtRp67
(dp68
g13
F0.77643856573643744
sg14
I8
sg15
I01
sg16
I2
sg17
I46
sbssS'_input_nodes'
p69
I1
sS'_output_nodes'
p70
I1
sS'_node_gene_type'
p71
cneat.genome
NodeGene
p72
sS'_conn_gene_type'
p73
g10
sS'fitness'
p74
F0.93948239998963479
sS'parent2_id'
p75
I3655
sS'_id'
p76
I3700
sS'parent1_id'
p77
I3655
sS'_node_genes'
p78
(lp79
g1
(g72
g3
NtRp80
(dp81
S'_bias'
p82
I0
sS'_type'
p83
S'INPUT'
p84
sg76
I1
sS'_response'
p85
F4.9242730000000003
sS'_activation_type'
p86
Nsbag1
(g72
g3
NtRp87
(dp88
g82
F0.28998718677811164
sg83
S'OUTPUT'
p89
sg76
I2
sg85
F4.6641573718558389
sg86
S'tanh'
p90
sbag1
(g72
g3
NtRp91
(dp92
g82
F-0.41376448835476665
sg83
S'HIDDEN'
p93
sg76
I3
sg85
F2.3750818837937691
sg86
g90
sbag1
(g72
g3
NtRp94
(dp95
g82
F-0.010082127987966039
sg83
g93
sg76
I4
sg85
F11.107143231009678
sg86
g90
sbag1
(g72
g3
NtRp96
(dp97
g82
F-0.47706329596039604
sg83
g93
sg76
I5
sg85
F3.9899654612826474
sg86
g90
sbag1
(g72
g3
NtRp98
(dp99
g82
F-0.66708243075632889
sg83
g93
sg76
I6
sg85
F5.1041016194061282
sg86
g90
sbag1
(g72
g3
NtRp100
(dp101
g82
F0.5710252213732645
sg83
g93
sg76
I7
sg85
F5.4234773869349056
sg86
g90
sbag1
(g72
g3
NtRp102
(dp103
g82
I0
sg83
g93
sg76
I8
sg85
F4.9242730000000003
sg86
g90
sbasb.