ccopy_reg
_reconstructor
p1
(cneat.chromosome
Chromosome
p2
c__builtin__
object
p3
NtRp4
(dp5
S'species_id'
p6
I60
sS'_connection_genes'
p7
(dp8
(I1
I3
tp9
g1
(cneat.genome
ConnectionGene
p10
g3
NtRp11
(dp12
S'_ConnectionGene__weight'
p13
F-0.91760940930135659
sS'_ConnectionGene__in'
p14
I1
sS'_ConnectionGene__enabled'
p15
I01
sS'_ConnectionGene__out'
p16
I3
sS'_ConnectionGene__innov_number'
p17
I3
sbs(I5
I6
tp18
g1
(g10
g3
NtRp19
(dp20
g13
F-7.2220279158237268
sg14
I5
sg15
I01
sg16
I6
sg17
I25
sbs(I11
I2
tp21
g1
(g10
g3
NtRp22
(dp23
g13
F-13.559216586763338
sg14
I11
sg15
I01
sg16
I2
sg17
I89
sbs(I8
I9
tp24
g1
(g10
g3
NtRp25
(dp26
g13
F18.715089130947799
sg14
I8
sg15
I01
sg16
I9
sg17
I61
sbs(I6
I2
tp27
g1
(g10
g3
NtRp28
(dp29
g13
F-11.756295384078776
sg14
I6
sg15
I01
sg16
I2
sg17
I18
sbs(I3
I7
tp30
g1
(g10
g3
NtRp31
(dp32
g13
F-2.6086508420616843
sg14
I3
sg15
I01
sg16
I7
sg17
I49
sbs(I5
I8
tp33
g1
(g10
g3
NtRp34
(dp35
g13
F4.3630812437067803
sg14
I5
sg15
I01
sg16
I8
sg17
I45
sbs(I1
I2
tp36
g1
(g10
g3
NtRp37
(dp38
g13
F-25.285552155013693
sg14
I1
sg15
I01
sg16
I2
sg17
I1
sbs(I12
I2
tp39
g1
(g10
g3
NtRp40
(dp41
g13
F0.95210551576553737
sg14
I12
sg15
I01
sg16
I2
sg17
I104
sbs(I3
I3
tp42
g1
(g10
g3
NtRp43
(dp44
g13
F22.299397531913762
sg14
I3
sg15
I00
sg16
I3
sg17
I8
sbs(I13
I3
tp45
g1
(g10
g3
NtRp46
(dp47
g13
F13.846583645293542
sg14
I13
sg15
I01
sg16
I3
sg17
I117
sbs(I4
I13
tp48
g1
(g10
g3
NtRp49
(dp50
g13
F1.5017794975057073
sg14
I4
sg15
I01
sg16
I13
sg17
I129
sbs(I7
I2
tp51
g1
(g10
g3
NtRp52
(dp53
g13
F2.1300634670971252
sg14
I7
sg15
I01
sg16
I2
sg17
I31
sbs(I5
I3
tp54
g1
(g10
g3
NtRp55
(dp56
g13
F14.696677229144351
sg14
I5
sg15
I01
sg16
I3
sg17
I15
sbs(I12
I3
tp57
g1
(g10
g3
NtRp58
(dp59
g13
F12.679562809341782
sg14
I12
sg15
I01
sg16
I3
sg17
I106
sbs(I3
I2
tp60
g1
(g10
g3
NtRp61
(dp62
g13
F-4.9861906517772683
sg14
I3
sg15
I01
sg16
I2
sg17
I4
sbs(I8
I2
tp63
g1
(g10
g3
NtRp64
(dp65
g13
F-24.980388901422479
sg14
I8
sg15
I01
sg16
I2
sg17
I46
sbs(I8
I11
tp66
g1
(g10
g3
NtRp67
(dp68
g13
F9.0829716049023403
sg14
I8
sg15
I01
sg16
I11
sg17
I98
sbs(I9
I3
tp69
g1
(g10
g3
NtRp70
(dp71
g13
F-2.330784863424948
sg14
I9
sg15
I01
sg16
I3
sg17
I60
sbs(I1
I4
tp72
g1
(g10
g3
NtRp73
(dp74
g13
F3.5820164672128678
sg14
I1
sg15
I01
sg16
I4
sg17
I6
sbs(I2
I10
tp75
g1
(g10
g3
NtRp76
(dp77
g13
F-5.0464782471599996
sg14
I2
sg15
I01
sg16
I10
sg17
I69
sbs(I7
I5
tp78
g1
(g10
g3
NtRp79
(dp80
g13
F-1.8663783780541159
sg14
I7
sg15
I01
sg16
I5
sg17
I50
sbs(I3
I12
tp81
g1
(g10
g3
NtRp82
(dp83
g13
F6.5048760324830281
sg14
I3
sg15
I01
sg16
I12
sg17
I105
sbs(I3
I5
tp84
g1
(g10
g3
NtRp85
(dp86
g13
F25.697780742389689
sg14
I3
sg15
I01
sg16
I5
sg17
I12
sbs(I8
I3
tp87
g1
(g10
g3
NtRp88
(dp89
g13
F-5.5110768037475033
sg14
I8
sg15
I01
sg16
I3
sg17
I39
sbs(I5
I10
tp90
g1
(g10
g3
NtRp91
(dp92
g13
F-0.78328419851792397
sg14
I5
sg15
I01
sg16
I10
sg17
I67
sbs(I4
I3
tp93
g1
(g10
g3
NtRp94
(dp95
g13
F13.478171883611214
sg14
I4
sg15
I00
sg16
I3
sg17
I10
sbs(I5
I2
tp96
g1
(g10
g3
NtRp97
(dp98
g13
F-8.4324628454376285
sg14
I5
sg15
I01
sg16
I2
sg17
I21
sbs(I2
I4
tp99
g1
(g10
g3
NtRp100
(dp101
g13
F-8.8795153973073688
sg14
I2
sg15
I01
sg16
I4
sg17
I16
sbs(I10
I2
tp102
g1
(g10
g3
NtRp103
(dp104
g13
F-19.703520471907407
sg14
I10
sg15
I01
sg16
I2
sg17
I66
sbssS'_input_nodes'
p105
I1
sS'_output_nodes'
p106
I1
sS'_node_gene_type'
p107
cneat.genome
NodeGene
p108
sS'_conn_gene_type'
p109
g10
sS'fitness'
p110
F0.98705451493069063
sS'parent2_id'
p111
I9170
sS'_id'
p112
I9214
sS'parent1_id'
p113
I9170
sS'_node_genes'
p114
(lp115
g1
(g108
g3
NtRp116
(dp117
S'_bias'
p118
I0
sS'_type'
p119
S'INPUT'
p120
sg112
I1
sS'_response'
p121
F4.9242730000000003
sS'_activation_type'
p122
Nsbag1
(g108
g3
NtRp123
(dp124
g118
F-1.6427261706501459
sg119
S'OUTPUT'
p125
sg112
I2
sg121
F2.8780415753328366
sg122
S'tanh'
p126
sbag1
(g108
g3
NtRp127
(dp128
g118
F1.8682767703757024
sg119
S'HIDDEN'
p129
sg112
I3
sg121
F-1.5686316721535327
sg122
g126
sbag1
(g108
g3
NtRp130
(dp131
g118
F-4.7756420411219453
sg119
g129
sg112
I4
sg121
F6.4816662543440771
sg122
g126
sbag1
(g108
g3
NtRp132
(dp133
g118
F0.017414689437021041
sg119
g129
sg112
I5
sg121
F2.5904915689630554
sg122
g126
sbag1
(g108
g3
NtRp134
(dp135
g118
F0.81963803749718889
sg119
g129
sg112
I6
sg121
F1.8766555578184465
sg122
g126
sbag1
(g108
g3
NtRp136
(dp137
g118
F-2.8904339635633045
sg119
g129
sg112
I7
sg121
F3.9025204697158622
sg122
g126
sbag1
(g108
g3
NtRp138
(dp139
g118
F2.8207812486758623
sg119
g129
sg112
I8
sg121
F5.1389091312534498
sg122
g126
sbag1
(g108
g3
NtRp140
(dp141
g118
F0.62849992919420727
sg119
g129
sg112
I9
sg121
F5.9463822219505653
sg122
g126
sbag1
(g108
g3
NtRp142
(dp143
g118
F-1.6536222955727609
sg119
g129
sg112
I10
sg121
F5.7923534546131847
sg122
g126
sbag1
(g108
g3
NtRp144
(dp145
g118
F0.35618971258939147
sg119
g129
sg112
I11
sg121
F4.8874362019904396
sg122
g126
sbag1
(g108
g3
NtRp146
(dp147
g118
F-0.11742179176629364
sg119
g129
sg112
I12
sg121
F5.7780580886136823
sg122
g126
sbag1
(g108
g3
NtRp148
(dp149
g118
F1.2110916761983845
sg119
g129
sg112
I13
sg121
F4.1725553590834847
sg122
g126
sbasb.