ccopy_reg
_reconstructor
p1
(cneat.chromosome
Chromosome
p2
c__builtin__
object
p3
NtRp4
(dp5
S'species_id'
p6
I63
sS'_connection_genes'
p7
(dp8
(I1
I3
tp9
g1
(cneat.genome
ConnectionGene
p10
g3
NtRp11
(dp12
S'_ConnectionGene__weight'
p13
F12.147254592783803
sS'_ConnectionGene__in'
p14
I1
sS'_ConnectionGene__enabled'
p15
I01
sS'_ConnectionGene__out'
p16
I3
sS'_ConnectionGene__innov_number'
p17
I3
sbs(I5
I6
tp18
g1
(g10
g3
NtRp19
(dp20
g13
F-6.2843249633547096
sg14
I5
sg15
I01
sg16
I6
sg17
I25
sbs(I11
I2
tp21
g1
(g10
g3
NtRp22
(dp23
g13
F-20.459079341090785
sg14
I11
sg15
I01
sg16
I2
sg17
I89
sbs(I8
I9
tp24
g1
(g10
g3
NtRp25
(dp26
g13
F2.5801079641856441
sg14
I8
sg15
I01
sg16
I9
sg17
I61
sbs(I6
I2
tp27
g1
(g10
g3
NtRp28
(dp29
g13
F-0.85168298317425939
sg14
I6
sg15
I01
sg16
I2
sg17
I18
sbs(I3
I7
tp30
g1
(g10
g3
NtRp31
(dp32
g13
F-13.167908445687861
sg14
I3
sg15
I01
sg16
I7
sg17
I49
sbs(I5
I8
tp33
g1
(g10
g3
NtRp34
(dp35
g13
F0.57950324831468603
sg14
I5
sg15
I01
sg16
I8
sg17
I45
sbs(I1
I2
tp36
g1
(g10
g3
NtRp37
(dp38
g13
F-12.78992530760144
sg14
I1
sg15
I01
sg16
I2
sg17
I1
sbs(I3
I3
tp39
g1
(g10
g3
NtRp40
(dp41
g13
F19.635463054568255
sg14
I3
sg15
I00
sg16
I3
sg17
I8
sbs(I13
I7
tp42
g1
(g10
g3
NtRp43
(dp44
g13
F-6.7265431152445139
sg14
I13
sg15
I01
sg16
I7
sg17
I108
sbs(I7
I2
tp45
g1
(g10
g3
NtRp46
(dp47
g13
F-12.395729436084217
sg14
I7
sg15
I01
sg16
I2
sg17
I31
sbs(I5
I3
tp48
g1
(g10
g3
NtRp49
(dp50
g13
F14.368424920804305
sg14
I5
sg15
I01
sg16
I3
sg17
I15
sbs(I12
I3
tp51
g1
(g10
g3
NtRp52
(dp53
g13
F14.914596586282125
sg14
I12
sg15
I01
sg16
I3
sg17
I106
sbs(I3
I2
tp54
g1
(g10
g3
NtRp55
(dp56
g13
F-8.9789791521711351
sg14
I3
sg15
I01
sg16
I2
sg17
I4
sbs(I8
I2
tp57
g1
(g10
g3
NtRp58
(dp59
g13
F-22.752286598236346
sg14
I8
sg15
I01
sg16
I2
sg17
I46
sbs(I3
I13
tp60
g1
(g10
g3
NtRp61
(dp62
g13
F-0.35672551494669369
sg14
I3
sg15
I01
sg16
I13
sg17
I107
sbs(I8
I11
tp63
g1
(g10
g3
NtRp64
(dp65
g13
F3.6819725137393595
sg14
I8
sg15
I01
sg16
I11
sg17
I98
sbs(I9
I3
tp66
g1
(g10
g3
NtRp67
(dp68
g13
F-9.6678630272957982
sg14
I9
sg15
I01
sg16
I3
sg17
I60
sbs(I1
I4
tp69
g1
(g10
g3
NtRp70
(dp71
g13
F-2.1971845408363295
sg14
I1
sg15
I01
sg16
I4
sg17
I6
sbs(I2
I10
tp72
g1
(g10
g3
NtRp73
(dp74
g13
F-8.31151421472644
sg14
I2
sg15
I01
sg16
I10
sg17
I69
sbs(I7
I5
tp75
g1
(g10
g3
NtRp76
(dp77
g13
F0.32547170601509312
sg14
I7
sg15
I01
sg16
I5
sg17
I50
sbs(I3
I12
tp78
g1
(g10
g3
NtRp79
(dp80
g13
F13.632026113319593
sg14
I3
sg15
I01
sg16
I12
sg17
I105
sbs(I3
I5
tp81
g1
(g10
g3
NtRp82
(dp83
g13
F22.535618644448618
sg14
I3
sg15
I01
sg16
I5
sg17
I12
sbs(I8
I3
tp84
g1
(g10
g3
NtRp85
(dp86
g13
F-2.2507508079306429
sg14
I8
sg15
I01
sg16
I3
sg17
I39
sbs(I5
I10
tp87
g1
(g10
g3
NtRp88
(dp89
g13
F-5.1865286662407293
sg14
I5
sg15
I01
sg16
I10
sg17
I67
sbs(I4
I3
tp90
g1
(g10
g3
NtRp91
(dp92
g13
F28.393279945939334
sg14
I4
sg15
I01
sg16
I3
sg17
I10
sbs(I5
I2
tp93
g1
(g10
g3
NtRp94
(dp95
g13
F-19.166351524506883
sg14
I5
sg15
I01
sg16
I2
sg17
I21
sbs(I2
I4
tp96
g1
(g10
g3
NtRp97
(dp98
g13
F-14.672815323302139
sg14
I2
sg15
I01
sg16
I4
sg17
I16
sbs(I10
I2
tp99
g1
(g10
g3
NtRp100
(dp101
g13
F-29.851966588125219
sg14
I10
sg15
I01
sg16
I2
sg17
I66
sbssS'_input_nodes'
p102
I1
sS'_output_nodes'
p103
I1
sS'_node_gene_type'
p104
cneat.genome
NodeGene
p105
sS'_conn_gene_type'
p106
g10
sS'fitness'
p107
F0.99279032926753841
sS'parent2_id'
p108
I8664
sS'_id'
p109
I8706
sS'parent1_id'
p110
I8664
sS'_node_genes'
p111
(lp112
g1
(g105
g3
NtRp113
(dp114
S'_bias'
p115
I0
sS'_type'
p116
S'INPUT'
p117
sg109
I1
sS'_response'
p118
F4.9242730000000003
sS'_activation_type'
p119
Nsbag1
(g105
g3
NtRp120
(dp121
g115
F-2.0584500257235976
sg116
S'OUTPUT'
p122
sg109
I2
sg118
F5.0727102103738462
sg119
S'tanh'
p123
sbag1
(g105
g3
NtRp124
(dp125
g115
F1.487074939195123
sg116
S'HIDDEN'
p126
sg109
I3
sg118
F-1.5317316535817747
sg119
g123
sbag1
(g105
g3
NtRp127
(dp128
g115
F-1.1994644193142678
sg116
g126
sg109
I4
sg118
F9.8449818280549728
sg119
g123
sbag1
(g105
g3
NtRp129
(dp130
g115
F0.070026921924857266
sg116
g126
sg109
I5
sg118
F6.1312336412040169
sg119
g123
sbag1
(g105
g3
NtRp131
(dp132
g115
F-0.24933315084213295
sg116
g126
sg109
I6
sg118
F1.4678944655844219
sg119
g123
sbag1
(g105
g3
NtRp133
(dp134
g115
F-3.3731590543779264
sg116
g126
sg109
I7
sg118
F2.9306226434350258
sg119
g123
sbag1
(g105
g3
NtRp135
(dp136
g115
F3.5081972553655683
sg116
g126
sg109
I8
sg118
F4.9110179316026006
sg119
g123
sbag1
(g105
g3
NtRp137
(dp138
g115
F-0.20485707003013418
sg116
g126
sg109
I9
sg118
F5.5045248303118974
sg119
g123
sbag1
(g105
g3
NtRp139
(dp140
g115
F-0.43506063331069544
sg116
g126
sg109
I10
sg118
F3.3357662663155798
sg119
g123
sbag1
(g105
g3
NtRp141
(dp142
g115
F0.98518311384191204
sg116
g126
sg109
I11
sg118
F6.0409298610396398
sg119
g123
sbag1
(g105
g3
NtRp143
(dp144
g115
F-0.86639305333989425
sg116
g126
sg109
I12
sg118
F6.3629685592033844
sg119
g123
sbag1
(g105
g3
NtRp145
(dp146
g115
I0
sg116
g126
sg109
I13
sg118
F4.6221415961689933
sg119
g123
sbasb.