ccopy_reg
_reconstructor
p1
(cneat.chromosome
Chromosome
p2
c__builtin__
object
p3
NtRp4
(dp5
S'species_id'
p6
I64
sS'_connection_genes'
p7
(dp8
(I1
I3
tp9
g1
(cneat.genome
ConnectionGene
p10
g3
NtRp11
(dp12
S'_ConnectionGene__weight'
p13
F14.378590780106231
sS'_ConnectionGene__in'
p14
I1
sS'_ConnectionGene__enabled'
p15
I01
sS'_ConnectionGene__out'
p16
I3
sS'_ConnectionGene__innov_number'
p17
I3
sbs(I5
I6
tp18
g1
(g10
g3
NtRp19
(dp20
g13
F-3.6930316531630711
sg14
I5
sg15
I01
sg16
I6
sg17
I25
sbs(I11
I2
tp21
g1
(g10
g3
NtRp22
(dp23
g13
F-14.854589294203928
sg14
I11
sg15
I01
sg16
I2
sg17
I89
sbs(I8
I9
tp24
g1
(g10
g3
NtRp25
(dp26
g13
F-4.4526920633737248
sg14
I8
sg15
I01
sg16
I9
sg17
I61
sbs(I6
I2
tp27
g1
(g10
g3
NtRp28
(dp29
g13
F1.8809781489929436
sg14
I6
sg15
I01
sg16
I2
sg17
I18
sbs(I3
I7
tp30
g1
(g10
g3
NtRp31
(dp32
g13
F-13.522752384979691
sg14
I3
sg15
I01
sg16
I7
sg17
I49
sbs(I7
I2
tp33
g1
(g10
g3
NtRp34
(dp35
g13
F-16.465139002660315
sg14
I7
sg15
I01
sg16
I2
sg17
I31
sbs(I1
I2
tp36
g1
(g10
g3
NtRp37
(dp38
g13
F-18.784460163352037
sg14
I1
sg15
I01
sg16
I2
sg17
I1
sbs(I3
I3
tp39
g1
(g10
g3
NtRp40
(dp41
g13
F14.250839230217657
sg14
I3
sg15
I00
sg16
I3
sg17
I8
sbs(I13
I7
tp42
g1
(g10
g3
NtRp43
(dp44
g13
F-16.78285744126584
sg14
I13
sg15
I01
sg16
I7
sg17
I108
sbs(I3
I14
tp45
g1
(g10
g3
NtRp46
(dp47
g13
F-4.192078381155806
sg14
I3
sg15
I01
sg16
I14
sg17
I133
sbs(I5
I3
tp48
g1
(g10
g3
NtRp49
(dp50
g13
F17.761839113102891
sg14
I5
sg15
I01
sg16
I3
sg17
I15
sbs(I12
I3
tp51
g1
(g10
g3
NtRp52
(dp53
g13
F11.730926557460311
sg14
I12
sg15
I01
sg16
I3
sg17
I106
sbs(I3
I2
tp54
g1
(g10
g3
NtRp55
(dp56
g13
F-11.104399485646878
sg14
I3
sg15
I00
sg16
I2
sg17
I4
sbs(I8
I2
tp57
g1
(g10
g3
NtRp58
(dp59
g13
F-18.701847366767293
sg14
I8
sg15
I01
sg16
I2
sg17
I46
sbs(I3
I13
tp60
g1
(g10
g3
NtRp61
(dp62
g13
F6.4790552938754766
sg14
I3
sg15
I01
sg16
I13
sg17
I107
sbs(I8
I11
tp63
g1
(g10
g3
NtRp64
(dp65
g13
F8.3338347824376697
sg14
I8
sg15
I01
sg16
I11
sg17
I98
sbs(I9
I3
tp66
g1
(g10
g3
NtRp67
(dp68
g13
F-2.1251796256486064
sg14
I9
sg15
I01
sg16
I3
sg17
I60
sbs(I1
I4
tp69
g1
(g10
g3
NtRp70
(dp71
g13
F-3.2126502960872125
sg14
I1
sg15
I01
sg16
I4
sg17
I6
sbs(I2
I10
tp72
g1
(g10
g3
NtRp73
(dp74
g13
F-12.840776784598329
sg14
I2
sg15
I01
sg16
I10
sg17
I69
sbs(I7
I5
tp75
g1
(g10
g3
NtRp76
(dp77
g13
F-5.1972709201525298
sg14
I7
sg15
I01
sg16
I5
sg17
I50
sbs(I3
I12
tp78
g1
(g10
g3
NtRp79
(dp80
g13
F14.96970244640557
sg14
I3
sg15
I01
sg16
I12
sg17
I105
sbs(I5
I8
tp81
g1
(g10
g3
NtRp82
(dp83
g13
F-1.2689402500569891
sg14
I5
sg15
I01
sg16
I8
sg17
I45
sbs(I14
I2
tp84
g1
(g10
g3
NtRp85
(dp86
g13
F-9.2334997190833317
sg14
I14
sg15
I01
sg16
I2
sg17
I125
sbs(I3
I5
tp87
g1
(g10
g3
NtRp88
(dp89
g13
F29.429110339292947
sg14
I3
sg15
I01
sg16
I5
sg17
I12
sbs(I8
I3
tp90
g1
(g10
g3
NtRp91
(dp92
g13
F1.3088222233117388
sg14
I8
sg15
I01
sg16
I3
sg17
I39
sbs(I5
I10
tp93
g1
(g10
g3
NtRp94
(dp95
g13
F-8.2356849409853954
sg14
I5
sg15
I01
sg16
I10
sg17
I67
sbs(I4
I3
tp96
g1
(g10
g3
NtRp97
(dp98
g13
F21.96733862753555
sg14
I4
sg15
I01
sg16
I3
sg17
I10
sbs(I5
I2
tp99
g1
(g10
g3
NtRp100
(dp101
g13
F-15.909482907577516
sg14
I5
sg15
I01
sg16
I2
sg17
I21
sbs(I2
I4
tp102
g1
(g10
g3
NtRp103
(dp104
g13
F-17.632837664428131
sg14
I2
sg15
I01
sg16
I4
sg17
I16
sbs(I10
I2
tp105
g1
(g10
g3
NtRp106
(dp107
g13
F-25.066730552361758
sg14
I10
sg15
I01
sg16
I2
sg17
I66
sbssS'_input_nodes'
p108
I1
sS'_output_nodes'
p109
I1
sS'_node_gene_type'
p110
cneat.genome
NodeGene
p111
sS'_conn_gene_type'
p112
g10
sS'fitness'
p113
F0.98808081908034218
sS'parent2_id'
p114
I9016
sS'_id'
p115
I9068
sS'parent1_id'
p116
I9016
sS'_node_genes'
p117
(lp118
g1
(g111
g3
NtRp119
(dp120
S'_bias'
p121
I0
sS'_type'
p122
S'INPUT'
p123
sg115
I1
sS'_response'
p124
F4.9242730000000003
sS'_activation_type'
p125
Nsbag1
(g111
g3
NtRp126
(dp127
g121
F-3.1851776061597392
sg122
S'OUTPUT'
p128
sg115
I2
sg124
F3.0555535913433509
sg125
S'tanh'
p129
sbag1
(g111
g3
NtRp130
(dp131
g121
F1.2370523465986283
sg122
S'HIDDEN'
p132
sg115
I3
sg124
F-1.1240234811316994
sg125
g129
sbag1
(g111
g3
NtRp133
(dp134
g121
F-1.5517049687426598
sg122
g132
sg115
I4
sg124
F9.7357789252789804
sg125
g129
sbag1
(g111
g3
NtRp135
(dp136
g121
F0.62446710238948833
sg122
g132
sg115
I5
sg124
F5.6734727566018215
sg125
g129
sbag1
(g111
g3
NtRp137
(dp138
g121
F-0.60586396965418521
sg122
g132
sg115
I6
sg124
F2.3784682061666569
sg125
g129
sbag1
(g111
g3
NtRp139
(dp140
g121
F-2.7733822550525762
sg122
g132
sg115
I7
sg124
F5.0566883200190844
sg125
g129
sbag1
(g111
g3
NtRp141
(dp142
g121
F4.0711319888181032
sg122
g132
sg115
I8
sg124
F3.6440226762785199
sg125
g129
sbag1
(g111
g3
NtRp143
(dp144
g121
F0.70356540827808967
sg122
g132
sg115
I9
sg124
F6.0322895431301138
sg125
g129
sbag1
(g111
g3
NtRp145
(dp146
g121
F-0.91581558370231519
sg122
g132
sg115
I10
sg124
F3.3250113581325071
sg125
g129
sbag1
(g111
g3
NtRp147
(dp148
g121
F0.77565672396920871
sg122
g132
sg115
I11
sg124
F5.6585918842684766
sg125
g129
sbag1
(g111
g3
NtRp149
(dp150
g121
F-2.068455003626358
sg122
g132
sg115
I12
sg124
F6.2304803158939741
sg125
g129
sbag1
(g111
g3
NtRp151
(dp152
g121
I0
sg122
g132
sg115
I13
sg124
F4.6099552705100875
sg125
g129
sbag1
(g111
g3
NtRp153
(dp154
g121
I0
sg122
g132
sg115
I14
sg124
F4.6801660267824241
sg125
g129
sbasb.