ccopy_reg
_reconstructor
p1
(cneat.chromosome
Chromosome
p2
c__builtin__
object
p3
NtRp4
(dp5
S'species_id'
p6
I33
sS'_connection_genes'
p7
(dp8
(I7
I3
tp9
g1
(cneat.genome
ConnectionGene
p10
g3
NtRp11
(dp12
S'_ConnectionGene__weight'
p13
F25.327970645177516
sS'_ConnectionGene__in'
p14
I7
sS'_ConnectionGene__enabled'
p15
I01
sS'_ConnectionGene__out'
p16
I3
sS'_ConnectionGene__innov_number'
p17
I36
sbs(I4
I7
tp18
g1
(g10
g3
NtRp19
(dp20
g13
F3.8062756144017778
sg14
I4
sg15
I01
sg16
I7
sg17
I35
sbs(I1
I3
tp21
g1
(g10
g3
NtRp22
(dp23
g13
F7.3553856182068849
sg14
I1
sg15
I01
sg16
I3
sg17
I3
sbs(I4
I8
tp24
g1
(g10
g3
NtRp25
(dp26
g13
F1.4118585404947632
sg14
I4
sg15
I01
sg16
I8
sg17
I38
sbs(I10
I6
tp27
g1
(g10
g3
NtRp28
(dp29
g13
F2.4235742533004325
sg14
I10
sg15
I01
sg16
I6
sg17
I68
sbs(I8
I9
tp30
g1
(g10
g3
NtRp31
(dp32
g13
F0.093919287867609835
sg14
I8
sg15
I01
sg16
I9
sg17
I61
sbs(I1
I6
tp33
g1
(g10
g3
NtRp34
(dp35
g13
F10.671937633999789
sg14
I1
sg15
I01
sg16
I6
sg17
I27
sbs(I1
I2
tp36
g1
(g10
g3
NtRp37
(dp38
g13
F-29.687118932619185
sg14
I1
sg15
I01
sg16
I2
sg17
I1
sbs(I3
I3
tp39
g1
(g10
g3
NtRp40
(dp41
g13
F5.9635012067380151
sg14
I3
sg15
I01
sg16
I3
sg17
I8
sbs(I4
I4
tp42
g1
(g10
g3
NtRp43
(dp44
g13
F1.572899478898945
sg14
I4
sg15
I01
sg16
I4
sg17
I11
sbs(I8
I10
tp45
g1
(g10
g3
NtRp46
(dp47
g13
F1
sg14
I8
sg15
I01
sg16
I10
sg17
I65
sbs(I6
I3
tp48
g1
(g10
g3
NtRp49
(dp50
g13
F22.089214930741189
sg14
I6
sg15
I01
sg16
I3
sg17
I23
sbs(I8
I6
tp51
g1
(g10
g3
NtRp52
(dp53
g13
F2.4235742533004325
sg14
I8
sg15
I00
sg16
I6
sg17
I54
sbs(I5
I3
tp54
g1
(g10
g3
NtRp55
(dp56
g13
F-7.6438817563012051
sg14
I5
sg15
I01
sg16
I3
sg17
I15
sbs(I3
I2
tp57
g1
(g10
g3
NtRp58
(dp59
g13
F7.5061353269942259
sg14
I3
sg15
I00
sg16
I2
sg17
I4
sbs(I1
I4
tp60
g1
(g10
g3
NtRp61
(dp62
g13
F1.6221628274059787
sg14
I1
sg15
I01
sg16
I4
sg17
I6
sbs(I9
I6
tp63
g1
(g10
g3
NtRp64
(dp65
g13
F-4.1486094187372773
sg14
I9
sg15
I01
sg16
I6
sg17
I63
sbs(I6
I5
tp66
g1
(g10
g3
NtRp67
(dp68
g13
F1.4613578294301355
sg14
I6
sg15
I01
sg16
I5
sg17
I28
sbs(I3
I5
tp69
g1
(g10
g3
NtRp70
(dp71
g13
F6.0799982974785269
sg14
I3
sg15
I01
sg16
I5
sg17
I12
sbs(I8
I3
tp72
g1
(g10
g3
NtRp73
(dp74
g13
F14.834555055905362
sg14
I8
sg15
I01
sg16
I3
sg17
I39
sbs(I4
I3
tp75
g1
(g10
g3
NtRp76
(dp77
g13
F15.724988266217192
sg14
I4
sg15
I01
sg16
I3
sg17
I10
sbs(I5
I2
tp78
g1
(g10
g3
NtRp79
(dp80
g13
F17.86323662926042
sg14
I5
sg15
I01
sg16
I2
sg17
I21
sbs(I2
I4
tp81
g1
(g10
g3
NtRp82
(dp83
g13
F4.6902642131297902
sg14
I2
sg15
I01
sg16
I4
sg17
I16
sbssS'_input_nodes'
p84
I1
sS'_output_nodes'
p85
I1
sS'_node_gene_type'
p86
cneat.genome
NodeGene
p87
sS'_conn_gene_type'
p88
g10
sS'fitness'
p89
F0.99219365411981486
sS'parent2_id'
p90
I5550
sS'_id'
p91
I5807
sS'parent1_id'
p92
I5550
sS'_node_genes'
p93
(lp94
g1
(g87
g3
NtRp95
(dp96
S'_bias'
p97
I0
sS'_type'
p98
S'INPUT'
p99
sg91
I1
sS'_response'
p100
F4.9242730000000003
sS'_activation_type'
p101
Nsbag1
(g87
g3
NtRp102
(dp103
g97
F-0.18957964534355271
sg98
S'OUTPUT'
p104
sg91
I2
sg100
F4.6316745728954851
sg101
S'tanh'
p105
sbag1
(g87
g3
NtRp106
(dp107
g97
F-0.47858281288445148
sg98
S'HIDDEN'
p108
sg91
I3
sg100
F1.1617533816958461
sg101
g105
sbag1
(g87
g3
NtRp109
(dp110
g97
F-2.4128810044969553
sg98
g108
sg91
I4
sg100
F9.3010990595989256
sg101
g105
sbag1
(g87
g3
NtRp111
(dp112
g97
F0.41701699293014249
sg98
g108
sg91
I5
sg100
F4.5014317939835342
sg101
g105
sbag1
(g87
g3
NtRp113
(dp114
g97
F0.11003542721101259
sg98
g108
sg91
I6
sg100
F6.4123702755237666
sg101
g105
sbag1
(g87
g3
NtRp115
(dp116
g97
F0.74478456003107851
sg98
g108
sg91
I7
sg100
F4.299988209632895
sg101
g105
sbag1
(g87
g3
NtRp117
(dp118
g97
F0.025626390774514618
sg98
g108
sg91
I8
sg100
F6.8659506702125057
sg101
g105
sbag1
(g87
g3
NtRp119
(dp120
g97
I0
sg98
g108
sg91
I9
sg100
F4.9242730000000003
sg101
g105
sbag1
(g87
g3
NtRp121
(dp122
g97
I0
sg98
g108
sg91
I10
sg100
F4.9242730000000003
sg101
g105
sbasb.