ccopy_reg
_reconstructor
p1
(cneat.chromosome
Chromosome
p2
c__builtin__
object
p3
NtRp4
(dp5
S'species_id'
p6
I53
sS'_connection_genes'
p7
(dp8
(I7
I3
tp9
g1
(cneat.genome
ConnectionGene
p10
g3
NtRp11
(dp12
S'_ConnectionGene__weight'
p13
F-2.5801918909438974
sS'_ConnectionGene__in'
p14
I7
sS'_ConnectionGene__enabled'
p15
I01
sS'_ConnectionGene__out'
p16
I3
sS'_ConnectionGene__innov_number'
p17
I36
sbs(I1
I3
tp18
g1
(g10
g3
NtRp19
(dp20
g13
F6.6897299498007197
sg14
I1
sg15
I01
sg16
I3
sg17
I3
sbs(I6
I6
tp21
g1
(g10
g3
NtRp22
(dp23
g13
F-1.7233923207568522
sg14
I6
sg15
I01
sg16
I6
sg17
I37
sbs(I5
I4
tp24
g1
(g10
g3
NtRp25
(dp26
g13
F-3.5721120386050469
sg14
I5
sg15
I01
sg16
I4
sg17
I13
sbs(I3
I7
tp27
g1
(g10
g3
NtRp28
(dp29
g13
F9.8653884080695438
sg14
I3
sg15
I01
sg16
I7
sg17
I49
sbs(I1
I2
tp30
g1
(g10
g3
NtRp31
(dp32
g13
F-11.780262483454038
sg14
I1
sg15
I01
sg16
I2
sg17
I1
sbs(I3
I3
tp33
g1
(g10
g3
NtRp34
(dp35
g13
F-9.4346075748141534
sg14
I3
sg15
I01
sg16
I3
sg17
I8
sbs(I4
I4
tp36
g1
(g10
g3
NtRp37
(dp38
g13
F3.8751436043383611
sg14
I4
sg15
I00
sg16
I4
sg17
I11
sbs(I4
I8
tp39
g1
(g10
g3
NtRp40
(dp41
g13
F-11.248341295024959
sg14
I4
sg15
I01
sg16
I8
sg17
I38
sbs(I3
I6
tp42
g1
(g10
g3
NtRp43
(dp44
g13
F-10.937269734580196
sg14
I3
sg15
I01
sg16
I6
sg17
I22
sbs(I3
I2
tp45
g1
(g10
g3
NtRp46
(dp47
g13
F23.028702875979757
sg14
I3
sg15
I00
sg16
I2
sg17
I4
sbs(I9
I10
tp48
g1
(g10
g3
NtRp49
(dp50
g13
F8.0838826919919384
sg14
I9
sg15
I01
sg16
I10
sg17
I84
sbs(I3
I9
tp51
g1
(g10
g3
NtRp52
(dp53
g13
F-0.53504035618497703
sg14
I3
sg15
I01
sg16
I9
sg17
I62
sbs(I2
I3
tp54
g1
(g10
g3
NtRp55
(dp56
g13
F14.072678234876784
sg14
I2
sg15
I00
sg16
I3
sg17
I5
sbs(I6
I5
tp57
g1
(g10
g3
NtRp58
(dp59
g13
F-8.3955550044506424
sg14
I6
sg15
I01
sg16
I5
sg17
I28
sbs(I3
I5
tp60
g1
(g10
g3
NtRp61
(dp62
g13
F-2.2810177550824471
sg14
I3
sg15
I01
sg16
I5
sg17
I12
sbs(I9
I2
tp63
g1
(g10
g3
NtRp64
(dp65
g13
F11.154506435281453
sg14
I9
sg15
I00
sg16
I2
sg17
I48
sbs(I4
I3
tp66
g1
(g10
g3
NtRp67
(dp68
g13
F15.935949188795725
sg14
I4
sg15
I01
sg16
I3
sg17
I10
sbs(I8
I4
tp69
g1
(g10
g3
NtRp70
(dp71
g13
F-4.6993396778053551
sg14
I8
sg15
I01
sg16
I4
sg17
I41
sbs(I5
I2
tp72
g1
(g10
g3
NtRp73
(dp74
g13
F10.780880779272735
sg14
I5
sg15
I01
sg16
I2
sg17
I21
sbs(I2
I4
tp75
g1
(g10
g3
NtRp76
(dp77
g13
F15.173742761510058
sg14
I2
sg15
I01
sg16
I4
sg17
I16
sbs(I10
I2
tp78
g1
(g10
g3
NtRp79
(dp80
g13
F10.401483081089847
sg14
I10
sg15
I01
sg16
I2
sg17
I66
sbssS'_input_nodes'
p81
I1
sS'_output_nodes'
p82
I1
sS'_node_gene_type'
p83
cneat.genome
NodeGene
p84
sS'_conn_gene_type'
p85
g10
sS'fitness'
p86
F0.97620943044104491
sS'parent2_id'
p87
I7371
sS'_id'
p88
I7411
sS'parent1_id'
p89
I7371
sS'_node_genes'
p90
(lp91
g1
(g84
g3
NtRp92
(dp93
S'_bias'
p94
I0
sS'_type'
p95
S'INPUT'
p96
sg88
I1
sS'_response'
p97
F4.9242730000000003
sS'_activation_type'
p98
Nsbag1
(g84
g3
NtRp99
(dp100
g94
F0.97807738973996239
sg95
S'OUTPUT'
p101
sg88
I2
sg97
F4.3419283378756628
sg98
S'tanh'
p102
sbag1
(g84
g3
NtRp103
(dp104
g94
F-1.2956967544513933
sg95
S'HIDDEN'
p105
sg88
I3
sg97
F2.400170742703823
sg98
g102
sbag1
(g84
g3
NtRp106
(dp107
g94
F-0.39246691736491873
sg95
g105
sg88
I4
sg97
F6.8548893688916497
sg98
g102
sbag1
(g84
g3
NtRp108
(dp109
g94
F-1.1634862155493391
sg95
g105
sg88
I5
sg97
F5.1216375268018695
sg98
g102
sbag1
(g84
g3
NtRp110
(dp111
g94
F0.9811494700411546
sg95
g105
sg88
I6
sg97
F6.3451785411381874
sg98
g102
sbag1
(g84
g3
NtRp112
(dp113
g94
F-2.0491368087401005
sg95
g105
sg88
I7
sg97
F6.618394356366327
sg98
g102
sbag1
(g84
g3
NtRp114
(dp115
g94
F-0.68765812825294403
sg95
g105
sg88
I8
sg97
F5.2194816754025197
sg98
g102
sbag1
(g84
g3
NtRp116
(dp117
g94
F-1.1436318276314175
sg95
g105
sg88
I9
sg97
F3.9697404102198401
sg98
g102
sbag1
(g84
g3
NtRp118
(dp119
g94
F0.6639314493152253
sg95
g105
sg88
I10
sg97
F6.2591106478409975
sg98
g102
sbasb.