ccopy_reg
_reconstructor
p1
(cneat.chromosome
Chromosome
p2
c__builtin__
object
p3
NtRp4
(dp5
S'species_id'
p6
I39
sS'_connection_genes'
p7
(dp8
(I1
I2
tp9
g1
(cneat.genome
ConnectionGene
p10
g3
NtRp11
(dp12
S'_ConnectionGene__weight'
p13
F-16.700288479353226
sS'_ConnectionGene__in'
p14
I1
sS'_ConnectionGene__enabled'
p15
I01
sS'_ConnectionGene__out'
p16
I2
sS'_ConnectionGene__innov_number'
p17
I1
sbs(I5
I4
tp18
g1
(g10
g3
NtRp19
(dp20
g13
F-4.3733462854180614
sg14
I5
sg15
I01
sg16
I4
sg17
I13
sbs(I1
I3
tp21
g1
(g10
g3
NtRp22
(dp23
g13
F0.052335609213915557
sg14
I1
sg15
I01
sg16
I3
sg17
I3
sbs(I3
I3
tp24
g1
(g10
g3
NtRp25
(dp26
g13
F12.489548097789273
sg14
I3
sg15
I01
sg16
I3
sg17
I8
sbs(I4
I5
tp27
g1
(g10
g3
NtRp28
(dp29
g13
F-1.8586999742775636
sg14
I4
sg15
I01
sg16
I5
sg17
I20
sbs(I4
I4
tp30
g1
(g10
g3
NtRp31
(dp32
g13
F-6.3557717697318683
sg14
I4
sg15
I01
sg16
I4
sg17
I11
sbs(I3
I2
tp33
g1
(g10
g3
NtRp34
(dp35
g13
F9.623533554843867
sg14
I3
sg15
I00
sg16
I2
sg17
I4
sbs(I1
I4
tp36
g1
(g10
g3
NtRp37
(dp38
g13
F0.20089851157730623
sg14
I1
sg15
I01
sg16
I4
sg17
I6
sbs(I2
I3
tp39
g1
(g10
g3
NtRp40
(dp41
g13
F-5.9643196730169912
sg14
I2
sg15
I00
sg16
I3
sg17
I5
sbs(I3
I6
tp42
g1
(g10
g3
NtRp43
(dp44
g13
F-8.6064588130674693
sg14
I3
sg15
I01
sg16
I6
sg17
I22
sbs(I2
I2
tp45
g1
(g10
g3
NtRp46
(dp47
g13
F-0.71516009893455523
sg14
I2
sg15
I01
sg16
I2
sg17
I2
sbs(I4
I3
tp48
g1
(g10
g3
NtRp49
(dp50
g13
F7.1457003629665783
sg14
I4
sg15
I01
sg16
I3
sg17
I10
sbs(I5
I3
tp51
g1
(g10
g3
NtRp52
(dp53
g13
F7.0060308799561621
sg14
I5
sg15
I01
sg16
I3
sg17
I15
sbs(I5
I2
tp54
g1
(g10
g3
NtRp55
(dp56
g13
F-13.138013148895816
sg14
I5
sg15
I01
sg16
I2
sg17
I21
sbs(I2
I4
tp57
g1
(g10
g3
NtRp58
(dp59
g13
F-2.9623328940163827
sg14
I2
sg15
I01
sg16
I4
sg17
I16
sbs(I6
I5
tp60
g1
(g10
g3
NtRp61
(dp62
g13
F0.6088419127322654
sg14
I6
sg15
I01
sg16
I5
sg17
I28
sbs(I3
I5
tp63
g1
(g10
g3
NtRp64
(dp65
g13
F-4.1505437286482589
sg14
I3
sg15
I00
sg16
I5
sg17
I12
sbssS'_input_nodes'
p66
I1
sS'_output_nodes'
p67
I1
sS'_node_gene_type'
p68
cneat.genome
NodeGene
p69
sS'_conn_gene_type'
p70
g10
sS'fitness'
p71
F0.99836824307877625
sS'parent2_id'
p72
I5232
sS'_id'
p73
I5272
sS'parent1_id'
p74
I5232
sS'_node_genes'
p75
(lp76
g1
(g69
g3
NtRp77
(dp78
S'_bias'
p79
I0
sS'_type'
p80
S'INPUT'
p81
sg73
I1
sS'_response'
p82
F4.9242730000000003
sS'_activation_type'
p83
Nsbag1
(g69
g3
NtRp84
(dp85
g79
F3.8843089827051229
sg80
S'OUTPUT'
p86
sg73
I2
sg82
F2.3177873875280124
sg83
S'tanh'
p87
sbag1
(g69
g3
NtRp88
(dp89
g79
F-0.88588017119375095
sg80
S'HIDDEN'
p90
sg73
I3
sg82
F4.0987155308107681
sg83
g87
sbag1
(g69
g3
NtRp91
(dp92
g79
F2.023223367771589
sg80
g90
sg73
I4
sg82
F4.4917045015954171
sg83
g87
sbag1
(g69
g3
NtRp93
(dp94
g79
F1.4320117481941546
sg80
g90
sg73
I5
sg82
F4.6859085929076905
sg83
g87
sbag1
(g69
g3
NtRp95
(dp96
g79
F-1.4939721114712308
sg80
g90
sg73
I6
sg82
F4.2495811988933712
sg83
g87
sbasb.