ccopy_reg
_reconstructor
p1
(cneat.chromosome
Chromosome
p2
c__builtin__
object
p3
NtRp4
(dp5
S'species_id'
p6
I130
sS'_connection_genes'
p7
(dp8
(I7
I3
tp9
g1
(cneat.genome
ConnectionGene
p10
g3
NtRp11
(dp12
S'_ConnectionGene__weight'
p13
F22.918460632841779
sS'_ConnectionGene__in'
p14
I7
sS'_ConnectionGene__enabled'
p15
I01
sS'_ConnectionGene__out'
p16
I3
sS'_ConnectionGene__innov_number'
p17
I36
sbs(I1
I3
tp18
g1
(g10
g3
NtRp19
(dp20
g13
F-29.173893813528089
sg14
I1
sg15
I01
sg16
I3
sg17
I3
sbs(I5
I9
tp21
g1
(g10
g3
NtRp22
(dp23
g13
F-6.2926212320175345
sg14
I5
sg15
I01
sg16
I9
sg17
I100
sbs(I16
I9
tp24
g1
(g10
g3
NtRp25
(dp26
g13
F17.312166332173803
sg14
I16
sg15
I01
sg16
I9
sg17
I236
sbs(I3
I2
tp27
g1
(g10
g3
NtRp28
(dp29
g13
F10.974733011730029
sg14
I3
sg15
I01
sg16
I2
sg17
I4
sbs(I8
I4
tp30
g1
(g10
g3
NtRp31
(dp32
g13
F15.088644091439793
sg14
I8
sg15
I01
sg16
I4
sg17
I41
sbs(I2
I12
tp33
g1
(g10
g3
NtRp34
(dp35
g13
F5.4590945150710368
sg14
I2
sg15
I01
sg16
I12
sg17
I135
sbs(I7
I11
tp36
g1
(g10
g3
NtRp37
(dp38
g13
F-11.041356681019842
sg14
I7
sg15
I01
sg16
I11
sg17
I92
sbs(I19
I2
tp39
g1
(g10
g3
NtRp40
(dp41
g13
F20.325547882671462
sg14
I19
sg15
I01
sg16
I2
sg17
I245
sbs(I3
I7
tp42
g1
(g10
g3
NtRp43
(dp44
g13
F21.192164175264828
sg14
I3
sg15
I00
sg16
I7
sg17
I49
sbs(I14
I9
tp45
g1
(g10
g3
NtRp46
(dp47
g13
F23.224692264630043
sg14
I14
sg15
I01
sg16
I9
sg17
I130
sbs(I5
I8
tp48
g1
(g10
g3
NtRp49
(dp50
g13
F15.00181797024594
sg14
I5
sg15
I01
sg16
I8
sg17
I45
sbs(I1
I2
tp51
g1
(g10
g3
NtRp52
(dp53
g13
F-16.200513198044305
sg14
I1
sg15
I01
sg16
I2
sg17
I1
sbs(I12
I2
tp54
g1
(g10
g3
NtRp55
(dp56
g13
F17.240781112872519
sg14
I12
sg15
I01
sg16
I2
sg17
I104
sbs(I4
I9
tp57
g1
(g10
g3
NtRp58
(dp59
g13
F-0.75927804857279169
sg14
I4
sg15
I01
sg16
I9
sg17
I57
sbs(I3
I3
tp60
g1
(g10
g3
NtRp61
(dp62
g13
F2.1610385266548846
sg14
I3
sg15
I01
sg16
I3
sg17
I8
sbs(I2
I9
tp63
g1
(g10
g3
NtRp64
(dp65
g13
F30
sg14
I2
sg15
I01
sg16
I9
sg17
I144
sbs(I3
I10
tp66
g1
(g10
g3
NtRp67
(dp68
g13
F4.752022194317461
sg14
I3
sg15
I01
sg16
I10
sg17
I76
sbs(I4
I4
tp69
g1
(g10
g3
NtRp70
(dp71
g13
F6.1026870582607238
sg14
I4
sg15
I00
sg16
I4
sg17
I11
sbs(I10
I12
tp72
g1
(g10
g3
NtRp73
(dp74
g13
F-20.588621822194455
sg14
I10
sg15
I01
sg16
I12
sg17
I111
sbs(I17
I2
tp75
g1
(g10
g3
NtRp76
(dp77
g13
F-21.540027895469009
sg14
I17
sg15
I01
sg16
I2
sg17
I202
sbs(I13
I7
tp78
g1
(g10
g3
NtRp79
(dp80
g13
F-5.8694347291523119
sg14
I13
sg15
I01
sg16
I7
sg17
I108
sbs(I20
I9
tp81
g1
(g10
g3
NtRp82
(dp83
g13
F-13.820582685409253
sg14
I20
sg15
I01
sg16
I9
sg17
I323
sbs(I9
I17
tp84
g1
(g10
g3
NtRp85
(dp86
g13
F-3.7103905861318669
sg14
I9
sg15
I01
sg16
I17
sg17
I258
sbs(I18
I9
tp87
g1
(g10
g3
NtRp88
(dp89
g13
F-13.820582685409253
sg14
I18
sg15
I00
sg16
I9
sg17
I268
sbs(I2
I2
tp90
g1
(g10
g3
NtRp91
(dp92
g13
F8.2168928555887693
sg14
I2
sg15
I01
sg16
I2
sg17
I2
sbs(I15
I4
tp93
g1
(g10
g3
NtRp94
(dp95
g13
F8.8485009536224464
sg14
I15
sg15
I01
sg16
I4
sg17
I173
sbs(I5
I11
tp96
g1
(g10
g3
NtRp97
(dp98
g13
F11.590281657073438
sg14
I5
sg15
I01
sg16
I11
sg17
I90
sbs(I18
I20
tp99
g1
(g10
g3
NtRp100
(dp101
g13
F1
sg14
I18
sg15
I01
sg16
I20
sg17
I370
sbs(I15
I12
tp102
g1
(g10
g3
NtRp103
(dp104
g13
F-8.1091471747433772
sg14
I15
sg15
I01
sg16
I12
sg17
I159
sbs(I5
I4
tp105
g1
(g10
g3
NtRp106
(dp107
g13
F-1.360465747533244
sg14
I5
sg15
I01
sg16
I4
sg17
I13
sbs(I6
I6
tp108
g1
(g10
g3
NtRp109
(dp110
g13
F2.6957772286093271
sg14
I6
sg15
I01
sg16
I6
sg17
I37
sbs(I12
I14
tp111
g1
(g10
g3
NtRp112
(dp113
g13
F-1.5327096458815883
sg14
I12
sg15
I01
sg16
I14
sg17
I131
sbs(I3
I13
tp114
g1
(g10
g3
NtRp115
(dp116
g13
F16.823633014023986
sg14
I3
sg15
I01
sg16
I13
sg17
I107
sbs(I9
I3
tp117
g1
(g10
g3
NtRp118
(dp119
g13
F-28.688466303106665
sg14
I9
sg15
I01
sg16
I3
sg17
I60
sbs(I9
I16
tp120
g1
(g10
g3
NtRp121
(dp122
g13
F16.553152447113312
sg14
I9
sg15
I01
sg16
I16
sg17
I240
sbs(I2
I3
tp123
g1
(g10
g3
NtRp124
(dp125
g13
F-10.509138862666321
sg14
I2
sg15
I01
sg16
I3
sg17
I5
sbs(I1
I9
tp126
g1
(g10
g3
NtRp127
(dp128
g13
F21.932926843526165
sg14
I1
sg15
I01
sg16
I9
sg17
I47
sbs(I4
I2
tp129
g1
(g10
g3
NtRp130
(dp131
g13
F-27.143712316746715
sg14
I4
sg15
I01
sg16
I2
sg17
I7
sbs(I14
I2
tp132
g1
(g10
g3
NtRp133
(dp134
g13
F13.889838763971204
sg14
I14
sg15
I01
sg16
I2
sg17
I125
sbs(I4
I11
tp135
g1
(g10
g3
NtRp136
(dp137
g13
F-12.930160614415255
sg14
I4
sg15
I01
sg16
I11
sg17
I86
sbs(I3
I5
tp138
g1
(g10
g3
NtRp139
(dp140
g13
F-4.7711760345176106
sg14
I3
sg15
I01
sg16
I5
sg17
I12
sbs(I10
I5
tp141
g1
(g10
g3
NtRp142
(dp143
g13
F21.876969379038542
sg14
I10
sg15
I01
sg16
I5
sg17
I79
sbs(I6
I5
tp144
g1
(g10
g3
NtRp145
(dp146
g13
F-19.879270071253867
sg14
I6
sg15
I01
sg16
I5
sg17
I28
sbs(I9
I2
tp147
g1
(g10
g3
NtRp148
(dp149
g13
F0.86470751390102785
sg14
I9
sg15
I00
sg16
I2
sg17
I48
sbs(I7
I14
tp150
g1
(g10
g3
NtRp151
(dp152
g13
F-13.233964371022156
sg14
I7
sg15
I01
sg16
I14
sg17
I162
sbs(I9
I9
tp153
g1
(g10
g3
NtRp154
(dp155
g13
F8.1596832543830082
sg14
I9
sg15
I01
sg16
I9
sg17
I73
sbs(I12
I19
tp156
g1
(g10
g3
NtRp157
(dp158
g13
F5.0768936952933004
sg14
I12
sg15
I01
sg16
I19
sg17
I284
sbs(I3
I6
tp159
g1
(g10
g3
NtRp160
(dp161
g13
F-20.063491475706055
sg14
I3
sg15
I01
sg16
I6
sg17
I22
sbs(I18
I7
tp162
g1
(g10
g3
NtRp163
(dp164
g13
F6.3334150761279409
sg14
I18
sg15
I01
sg16
I7
sg17
I272
sbs(I11
I8
tp165
g1
(g10
g3
NtRp166
(dp167
g13
F9.0588495040285189
sg14
I11
sg15
I01
sg16
I8
sg17
I91
sbs(I13
I18
tp168
g1
(g10
g3
NtRp169
(dp170
g13
F13.923488815452394
sg14
I13
sg15
I01
sg16
I18
sg17
I271
sbs(I4
I3
tp171
g1
(g10
g3
NtRp172
(dp173
g13
F-5.0632872913594014
sg14
I4
sg15
I01
sg16
I3
sg17
I10
sbs(I2
I15
tp174
g1
(g10
g3
NtRp175
(dp176
g13
F-7.5317646901818529
sg14
I2
sg15
I01
sg16
I15
sg17
I172
sbs(I13
I9
tp177
g1
(g10
g3
NtRp178
(dp179
g13
F-8.783509540009792
sg14
I13
sg15
I01
sg16
I9
sg17
I137
sbs(I4
I8
tp180
g1
(g10
g3
NtRp181
(dp182
g13
F0.76504817591030849
sg14
I4
sg15
I01
sg16
I8
sg17
I38
sbs(I5
I2
tp183
g1
(g10
g3
NtRp184
(dp185
g13
F-4.820568234853873
sg14
I5
sg15
I01
sg16
I2
sg17
I21
sbs(I2
I4
tp186
g1
(g10
g3
NtRp187
(dp188
g13
F25.799287803688173
sg14
I2
sg15
I01
sg16
I4
sg17
I16
sbs(I11
I6
tp189
g1
(g10
g3
NtRp190
(dp191
g13
F-2.3447800183684606
sg14
I11
sg15
I01
sg16
I6
sg17
I110
sbs(I10
I2
tp192
g1
(g10
g3
NtRp193
(dp194
g13
F28.719191760546444
sg14
I10
sg15
I01
sg16
I2
sg17
I66
sbssS'_input_nodes'
p195
I1
sS'_output_nodes'
p196
I1
sS'_node_gene_type'
p197
cneat.genome
NodeGene
p198
sS'_conn_gene_type'
p199
g10
sS'fitness'
p200
F0.96868459089272019
sS'parent2_id'
p201
I19305
sS'_id'
p202
I19354
sS'parent1_id'
p203
I19305
sS'_node_genes'
p204
(lp205
g1
(g198
g3
NtRp206
(dp207
S'_bias'
p208
I0
sS'_type'
p209
S'INPUT'
p210
sg202
I1
sS'_response'
p211
F4.9242730000000003
sS'_activation_type'
p212
Nsbag1
(g198
g3
NtRp213
(dp214
g208
F-0.043468727223424167
sg209
S'OUTPUT'
p215
sg202
I2
sg211
F10.638955045109704
sg212
S'tanh'
p216
sbag1
(g198
g3
NtRp217
(dp218
g208
F-4.9884863540557367
sg209
S'HIDDEN'
p219
sg202
I3
sg211
F7.3529949607052094
sg212
g216
sbag1
(g198
g3
NtRp220
(dp221
g208
F3.1475859054314679
sg209
g219
sg202
I4
sg211
F-4.7986187212501434
sg212
g216
sbag1
(g198
g3
NtRp222
(dp223
g208
F-2.9808175127566203
sg209
g219
sg202
I5
sg211
F6.4002331663060108
sg212
g216
sbag1
(g198
g3
NtRp224
(dp225
g208
F-0.19167677125621896
sg209
g219
sg202
I6
sg211
F10.599759284444184
sg212
g216
sbag1
(g198
g3
NtRp226
(dp227
g208
F0.88738498146260447
sg209
g219
sg202
I7
sg211
F12.244956683139776
sg212
g216
sbag1
(g198
g3
NtRp228
(dp229
g208
F0.15991769575764145
sg209
g219
sg202
I8
sg211
F3.0322249128672518
sg212
g216
sbag1
(g198
g3
NtRp230
(dp231
g208
F3.8462616451780622
sg209
g219
sg202
I9
sg211
F0.88307653421135579
sg212
g216
sbag1
(g198
g3
NtRp232
(dp233
g208
F3.7608306386247055
sg209
g219
sg202
I10
sg211
F3.4357361854934245
sg212
g216
sbag1
(g198
g3
NtRp234
(dp235
g208
F-3.9888847884120748
sg209
g219
sg202
I11
sg211
F10.664576305734556
sg212
g216
sbag1
(g198
g3
NtRp236
(dp237
g208
F3.0657783724983716
sg209
g219
sg202
I12
sg211
F8.2983553732560633
sg212
g216
sbag1
(g198
g3
NtRp238
(dp239
g208
F0.96079639982782572
sg209
g219
sg202
I13
sg211
F2.6427074140689215
sg212
g216
sbag1
(g198
g3
NtRp240
(dp241
g208
F1.7885626508369068
sg209
g219
sg202
I14
sg211
F5.7516068931224291
sg212
g216
sbag1
(g198
g3
NtRp242
(dp243
g208
F-0.41005861509010133
sg209
g219
sg202
I15
sg211
F11.289598120167298
sg212
g216
sbag1
(g198
g3
NtRp244
(dp245
g208
F-1.7202141498593149
sg209
g219
sg202
I16
sg211
F7.171785654450642
sg212
g216
sbag1
(g198
g3
NtRp246
(dp247
g208
F-2.1970961624745291
sg209
g219
sg202
I17
sg211
F0.76282235625965189
sg212
g216
sbag1
(g198
g3
NtRp248
(dp249
g208
F0.5093874142773982
sg209
g219
sg202
I18
sg211
F3.5562540196292187
sg212
g216
sbag1
(g198
g3
NtRp250
(dp251
g208
F2.1962605302986775
sg209
g219
sg202
I19
sg211
F5.2426753267392332
sg212
g216
sbag1
(g198
g3
NtRp252
(dp253
g208
I0
sg209
g219
sg202
I20
sg211
F4.9242730000000003
sg212
g216
sbasb.