ccopy_reg
_reconstructor
p1
(cneat.chromosome
Chromosome
p2
c__builtin__
object
p3
NtRp4
(dp5
S'species_id'
p6
I51
sS'_connection_genes'
p7
(dp8
(I1
I3
tp9
g1
(cneat.genome
ConnectionGene
p10
g3
NtRp11
(dp12
S'_ConnectionGene__weight'
p13
F26.835273217716797
sS'_ConnectionGene__in'
p14
I1
sS'_ConnectionGene__enabled'
p15
I00
sS'_ConnectionGene__out'
p16
I3
sS'_ConnectionGene__innov_number'
p17
I3
sbs(I5
I6
tp18
g1
(g10
g3
NtRp19
(dp20
g13
F0.22610938144627979
sg14
I5
sg15
I01
sg16
I6
sg17
I25
sbs(I8
I9
tp21
g1
(g10
g3
NtRp22
(dp23
g13
F-2.4239408909039541
sg14
I8
sg15
I01
sg16
I9
sg17
I61
sbs(I6
I2
tp24
g1
(g10
g3
NtRp25
(dp26
g13
F23.355145547738825
sg14
I6
sg15
I00
sg16
I2
sg17
I18
sbs(I5
I8
tp27
g1
(g10
g3
NtRp28
(dp29
g13
F-1.1412459822627585
sg14
I5
sg15
I01
sg16
I8
sg17
I45
sbs(I1
I2
tp30
g1
(g10
g3
NtRp31
(dp32
g13
F-16.9425212074717
sg14
I1
sg15
I01
sg16
I2
sg17
I1
sbs(I6
I7
tp33
g1
(g10
g3
NtRp34
(dp35
g13
F-3.4016787556350048
sg14
I6
sg15
I01
sg16
I7
sg17
I34
sbs(I3
I3
tp36
g1
(g10
g3
NtRp37
(dp38
g13
F28.572619714310402
sg14
I3
sg15
I01
sg16
I3
sg17
I8
sbs(I7
I2
tp39
g1
(g10
g3
NtRp40
(dp41
g13
F-5.6858592998247355
sg14
I7
sg15
I01
sg16
I2
sg17
I31
sbs(I3
I5
tp42
g1
(g10
g3
NtRp43
(dp44
g13
F9.0933987539910515
sg14
I3
sg15
I01
sg16
I5
sg17
I12
sbs(I3
I2
tp45
g1
(g10
g3
NtRp46
(dp47
g13
F9.0884472307719584
sg14
I3
sg15
I01
sg16
I2
sg17
I4
sbs(I8
I2
tp48
g1
(g10
g3
NtRp49
(dp50
g13
F-26.457232766955393
sg14
I8
sg15
I00
sg16
I2
sg17
I46
sbs(I1
I4
tp51
g1
(g10
g3
NtRp52
(dp53
g13
F12.840531106354334
sg14
I1
sg15
I01
sg16
I4
sg17
I6
sbs(I9
I10
tp54
g1
(g10
g3
NtRp55
(dp56
g13
F12.902685775790552
sg14
I9
sg15
I01
sg16
I10
sg17
I84
sbs(I3
I9
tp57
g1
(g10
g3
NtRp58
(dp59
g13
F-5.6328494484599458
sg14
I3
sg15
I01
sg16
I9
sg17
I62
sbs(I5
I3
tp60
g1
(g10
g3
NtRp61
(dp62
g13
F2.5683109969136741
sg14
I5
sg15
I01
sg16
I3
sg17
I15
sbs(I10
I5
tp63
g1
(g10
g3
NtRp64
(dp65
g13
F-3.9601515379575987
sg14
I10
sg15
I01
sg16
I5
sg17
I79
sbs(I9
I2
tp66
g1
(g10
g3
NtRp67
(dp68
g13
F-17.260831689081478
sg14
I9
sg15
I00
sg16
I2
sg17
I48
sbs(I4
I3
tp69
g1
(g10
g3
NtRp70
(dp71
g13
F15.162490764715088
sg14
I4
sg15
I01
sg16
I3
sg17
I10
sbs(I5
I2
tp72
g1
(g10
g3
NtRp73
(dp74
g13
F-30
sg14
I5
sg15
I00
sg16
I2
sg17
I21
sbs(I2
I4
tp75
g1
(g10
g3
NtRp76
(dp77
g13
F-3.6272743928406554
sg14
I2
sg15
I01
sg16
I4
sg17
I16
sbs(I10
I2
tp78
g1
(g10
g3
NtRp79
(dp80
g13
F-15.504902929107971
sg14
I10
sg15
I01
sg16
I2
sg17
I66
sbssS'_input_nodes'
p81
I1
sS'_output_nodes'
p82
I1
sS'_node_gene_type'
p83
cneat.genome
NodeGene
p84
sS'_conn_gene_type'
p85
g10
sS'fitness'
p86
F0.9948267099232263
sS'parent2_id'
p87
I7213
sS'_id'
p88
I7256
sS'parent1_id'
p89
I7213
sS'_node_genes'
p90
(lp91
g1
(g84
g3
NtRp92
(dp93
S'_bias'
p94
I0
sS'_type'
p95
S'INPUT'
p96
sg88
I1
sS'_response'
p97
F4.9242730000000003
sS'_activation_type'
p98
Nsbag1
(g84
g3
NtRp99
(dp100
g94
F-5.6622781287306454
sg95
S'OUTPUT'
p101
sg88
I2
sg97
F6.5443940614742111
sg98
S'tanh'
p102
sbag1
(g84
g3
NtRp103
(dp104
g94
F1.5712892109806655
sg95
S'HIDDEN'
p105
sg88
I3
sg97
F5.3474070295991876
sg98
g102
sbag1
(g84
g3
NtRp106
(dp107
g94
F-0.17205418488644567
sg95
g105
sg88
I4
sg97
F8.5276978355838953
sg98
g102
sbag1
(g84
g3
NtRp108
(dp109
g94
F1.5730218532005606
sg95
g105
sg88
I5
sg97
F5.5641040155968478
sg98
g102
sbag1
(g84
g3
NtRp110
(dp111
g94
F0.33394951969685827
sg95
g105
sg88
I6
sg97
F3.0506057619504454
sg98
g102
sbag1
(g84
g3
NtRp112
(dp113
g94
F1.3537305983798242
sg95
g105
sg88
I7
sg97
F5.2524407258464327
sg98
g102
sbag1
(g84
g3
NtRp114
(dp115
g94
F-0.45235718130413827
sg95
g105
sg88
I8
sg97
F5.3152000863524487
sg98
g102
sbag1
(g84
g3
NtRp116
(dp117
g94
F3.2431403387165498
sg95
g105
sg88
I9
sg97
F3.6253053684251446
sg98
g102
sbag1
(g84
g3
NtRp118
(dp119
g94
F-0.37428676494129076
sg95
g105
sg88
I10
sg97
F5.2836994168830911
sg98
g102
sbasb.