ccopy_reg
_reconstructor
p1
(cneat.chromosome
Chromosome
p2
c__builtin__
object
p3
NtRp4
(dp5
S'species_id'
p6
I39
sS'_connection_genes'
p7
(dp8
(I1
I2
tp9
g1
(cneat.genome
ConnectionGene
p10
g3
NtRp11
(dp12
S'_ConnectionGene__weight'
p13
F-24.307470951338445
sS'_ConnectionGene__in'
p14
I1
sS'_ConnectionGene__enabled'
p15
I01
sS'_ConnectionGene__out'
p16
I2
sS'_ConnectionGene__innov_number'
p17
I1
sbs(I5
I4
tp18
g1
(g10
g3
NtRp19
(dp20
g13
F-2.5591942913570538
sg14
I5
sg15
I01
sg16
I4
sg17
I13
sbs(I1
I3
tp21
g1
(g10
g3
NtRp22
(dp23
g13
F-5.2574082975775127
sg14
I1
sg15
I01
sg16
I3
sg17
I3
sbs(I3
I3
tp24
g1
(g10
g3
NtRp25
(dp26
g13
F12.617827408407818
sg14
I3
sg15
I01
sg16
I3
sg17
I8
sbs(I4
I5
tp27
g1
(g10
g3
NtRp28
(dp29
g13
F-2.3209383479736174
sg14
I4
sg15
I01
sg16
I5
sg17
I20
sbs(I5
I3
tp30
g1
(g10
g3
NtRp31
(dp32
g13
F10.431486303893951
sg14
I5
sg15
I01
sg16
I3
sg17
I15
sbs(I4
I4
tp33
g1
(g10
g3
NtRp34
(dp35
g13
F-4.2477728532831982
sg14
I4
sg15
I01
sg16
I4
sg17
I11
sbs(I3
I2
tp36
g1
(g10
g3
NtRp37
(dp38
g13
F10.163918511037796
sg14
I3
sg15
I00
sg16
I2
sg17
I4
sbs(I1
I4
tp39
g1
(g10
g3
NtRp40
(dp41
g13
F4.1782442910667204
sg14
I1
sg15
I01
sg16
I4
sg17
I6
sbs(I4
I6
tp42
g1
(g10
g3
NtRp43
(dp44
g13
F-0.94564799803589505
sg14
I4
sg15
I01
sg16
I6
sg17
I29
sbs(I2
I3
tp45
g1
(g10
g3
NtRp46
(dp47
g13
F-9.5795887207698875
sg14
I2
sg15
I00
sg16
I3
sg17
I5
sbs(I6
I5
tp48
g1
(g10
g3
NtRp49
(dp50
g13
F0.27492598866628609
sg14
I6
sg15
I01
sg16
I5
sg17
I28
sbs(I4
I3
tp51
g1
(g10
g3
NtRp52
(dp53
g13
F9.6412251095694703
sg14
I4
sg15
I01
sg16
I3
sg17
I10
sbs(I2
I2
tp54
g1
(g10
g3
NtRp55
(dp56
g13
F-3.6617594093499264
sg14
I2
sg15
I01
sg16
I2
sg17
I2
sbs(I4
I2
tp57
g1
(g10
g3
NtRp58
(dp59
g13
F5.8247553230609626
sg14
I4
sg15
I01
sg16
I2
sg17
I7
sbs(I3
I5
tp60
g1
(g10
g3
NtRp61
(dp62
g13
F-11.14366889532652
sg14
I3
sg15
I00
sg16
I5
sg17
I12
sbs(I5
I2
tp63
g1
(g10
g3
NtRp64
(dp65
g13
F-9.8321630762790804
sg14
I5
sg15
I01
sg16
I2
sg17
I21
sbs(I2
I4
tp66
g1
(g10
g3
NtRp67
(dp68
g13
F-10.730947121639883
sg14
I2
sg15
I01
sg16
I4
sg17
I16
sbs(I3
I6
tp69
g1
(g10
g3
NtRp70
(dp71
g13
F-9.4466918079952205
sg14
I3
sg15
I01
sg16
I6
sg17
I22
sbs(I5
I5
tp72
g1
(g10
g3
NtRp73
(dp74
g13
F-2.770119764003709
sg14
I5
sg15
I01
sg16
I5
sg17
I24
sbssS'_input_nodes'
p75
I1
sS'_output_nodes'
p76
I1
sS'_node_gene_type'
p77
cneat.genome
NodeGene
p78
sS'_conn_gene_type'
p79
g10
sS'fitness'
p80
F0.98907961167525416
sS'parent2_id'
p81
I6203
sS'_id'
p82
I6218
sS'parent1_id'
p83
I6203
sS'_node_genes'
p84
(lp85
g1
(g78
g3
NtRp86
(dp87
S'_bias'
p88
I0
sS'_type'
p89
S'INPUT'
p90
sg82
I1
sS'_response'
p91
F4.9242730000000003
sS'_activation_type'
p92
Nsbag1
(g78
g3
NtRp93
(dp94
g88
F3.1437806896657352
sg89
S'OUTPUT'
p95
sg82
I2
sg91
F2.8981986986213237
sg92
S'tanh'
p96
sbag1
(g78
g3
NtRp97
(dp98
g88
F-0.57085428704128727
sg89
S'HIDDEN'
p99
sg82
I3
sg91
F4.2657524497654382
sg92
g96
sbag1
(g78
g3
NtRp100
(dp101
g88
F1.8735724502176576
sg89
g99
sg82
I4
sg91
F4.5917952847817158
sg92
g96
sbag1
(g78
g3
NtRp102
(dp103
g88
F0.48848203365194232
sg89
g99
sg82
I5
sg91
F5.1985481012913306
sg92
g96
sbag1
(g78
g3
NtRp104
(dp105
g88
F-1.4939721114712308
sg89
g99
sg82
I6
sg91
F4.235799430059231
sg92
g96
sbasb.