ccopy_reg
_reconstructor
p1
(cneat.chromosome
Chromosome
p2
c__builtin__
object
p3
NtRp4
(dp5
S'species_id'
p6
I138
sS'_connection_genes'
p7
(dp8
(I7
I3
tp9
g1
(cneat.genome
ConnectionGene
p10
g3
NtRp11
(dp12
S'_ConnectionGene__weight'
p13
F25.211897353135985
sS'_ConnectionGene__in'
p14
I7
sS'_ConnectionGene__enabled'
p15
I01
sS'_ConnectionGene__out'
p16
I3
sS'_ConnectionGene__innov_number'
p17
I36
sbs(I1
I3
tp18
g1
(g10
g3
NtRp19
(dp20
g13
F-18.342856664831359
sg14
I1
sg15
I01
sg16
I3
sg17
I3
sbs(I5
I9
tp21
g1
(g10
g3
NtRp22
(dp23
g13
F5.5788861019790552
sg14
I5
sg15
I01
sg16
I9
sg17
I100
sbs(I16
I9
tp24
g1
(g10
g3
NtRp25
(dp26
g13
F20.030252907464817
sg14
I16
sg15
I01
sg16
I9
sg17
I236
sbs(I9
I19
tp27
g1
(g10
g3
NtRp28
(dp29
g13
F-1.4907544858008333
sg14
I9
sg15
I01
sg16
I19
sg17
I312
sbs(I3
I2
tp30
g1
(g10
g3
NtRp31
(dp32
g13
F21.904112148580989
sg14
I3
sg15
I01
sg16
I2
sg17
I4
sbs(I8
I4
tp33
g1
(g10
g3
NtRp34
(dp35
g13
F19.430677598888298
sg14
I8
sg15
I01
sg16
I4
sg17
I41
sbs(I2
I12
tp36
g1
(g10
g3
NtRp37
(dp38
g13
F-7.0828693455373477
sg14
I2
sg15
I01
sg16
I12
sg17
I135
sbs(I7
I11
tp39
g1
(g10
g3
NtRp40
(dp41
g13
F-17.368676045776954
sg14
I7
sg15
I01
sg16
I11
sg17
I92
sbs(I3
I7
tp42
g1
(g10
g3
NtRp43
(dp44
g13
F8.2980643837714894
sg14
I3
sg15
I00
sg16
I7
sg17
I49
sbs(I14
I9
tp45
g1
(g10
g3
NtRp46
(dp47
g13
F14.691097195539863
sg14
I14
sg15
I01
sg16
I9
sg17
I130
sbs(I5
I8
tp48
g1
(g10
g3
NtRp49
(dp50
g13
F20.036934833062311
sg14
I5
sg15
I01
sg16
I8
sg17
I45
sbs(I1
I2
tp51
g1
(g10
g3
NtRp52
(dp53
g13
F-19.62274601733743
sg14
I1
sg15
I01
sg16
I2
sg17
I1
sbs(I12
I2
tp54
g1
(g10
g3
NtRp55
(dp56
g13
F20.459555811073248
sg14
I12
sg15
I01
sg16
I2
sg17
I104
sbs(I4
I9
tp57
g1
(g10
g3
NtRp58
(dp59
g13
F-15.336907035886217
sg14
I4
sg15
I01
sg16
I9
sg17
I57
sbs(I3
I3
tp60
g1
(g10
g3
NtRp61
(dp62
g13
F-6.7569292172868209
sg14
I3
sg15
I01
sg16
I3
sg17
I8
sbs(I2
I9
tp63
g1
(g10
g3
NtRp64
(dp65
g13
F21.235083929763846
sg14
I2
sg15
I01
sg16
I9
sg17
I144
sbs(I6
I20
tp66
g1
(g10
g3
NtRp67
(dp68
g13
F0.38329809952516591
sg14
I6
sg15
I01
sg16
I20
sg17
I341
sbs(I3
I10
tp69
g1
(g10
g3
NtRp70
(dp71
g13
F15.741441170078939
sg14
I3
sg15
I01
sg16
I10
sg17
I76
sbs(I4
I4
tp72
g1
(g10
g3
NtRp73
(dp74
g13
F2.2864900725455088
sg14
I4
sg15
I01
sg16
I4
sg17
I11
sbs(I10
I12
tp75
g1
(g10
g3
NtRp76
(dp77
g13
F-17.311558571139088
sg14
I10
sg15
I01
sg16
I12
sg17
I111
sbs(I17
I2
tp78
g1
(g10
g3
NtRp79
(dp80
g13
F-1.6968133974858881
sg14
I17
sg15
I01
sg16
I2
sg17
I202
sbs(I13
I7
tp81
g1
(g10
g3
NtRp82
(dp83
g13
F-11.273637364709693
sg14
I13
sg15
I01
sg16
I7
sg17
I108
sbs(I9
I17
tp84
g1
(g10
g3
NtRp85
(dp86
g13
F6.5047872852008686
sg14
I9
sg15
I01
sg16
I17
sg17
I258
sbs(I18
I9
tp87
g1
(g10
g3
NtRp88
(dp89
g13
F-4.3439364180013165
sg14
I18
sg15
I01
sg16
I9
sg17
I268
sbs(I2
I2
tp90
g1
(g10
g3
NtRp91
(dp92
g13
F4.4481968207974365
sg14
I2
sg15
I01
sg16
I2
sg17
I2
sbs(I15
I4
tp93
g1
(g10
g3
NtRp94
(dp95
g13
F2.0711046827966046
sg14
I15
sg15
I01
sg16
I4
sg17
I173
sbs(I5
I11
tp96
g1
(g10
g3
NtRp97
(dp98
g13
F-7.1928437448554572
sg14
I5
sg15
I01
sg16
I11
sg17
I90
sbs(I15
I12
tp99
g1
(g10
g3
NtRp100
(dp101
g13
F10.640689824081621
sg14
I15
sg15
I01
sg16
I12
sg17
I159
sbs(I5
I4
tp102
g1
(g10
g3
NtRp103
(dp104
g13
F13.091028741563983
sg14
I5
sg15
I01
sg16
I4
sg17
I13
sbs(I6
I6
tp105
g1
(g10
g3
NtRp106
(dp107
g13
F5.1179194670641017
sg14
I6
sg15
I01
sg16
I6
sg17
I37
sbs(I12
I14
tp108
g1
(g10
g3
NtRp109
(dp110
g13
F-13.835194484213439
sg14
I12
sg15
I01
sg16
I14
sg17
I131
sbs(I3
I13
tp111
g1
(g10
g3
NtRp112
(dp113
g13
F26.190226036883406
sg14
I3
sg15
I01
sg16
I13
sg17
I107
sbs(I9
I3
tp114
g1
(g10
g3
NtRp115
(dp116
g13
F-26.290240109844916
sg14
I9
sg15
I01
sg16
I3
sg17
I60
sbs(I9
I16
tp117
g1
(g10
g3
NtRp118
(dp119
g13
F24.155163126363764
sg14
I9
sg15
I01
sg16
I16
sg17
I240
sbs(I2
I3
tp120
g1
(g10
g3
NtRp121
(dp122
g13
F6.3962227377962826
sg14
I2
sg15
I01
sg16
I3
sg17
I5
sbs(I1
I9
tp123
g1
(g10
g3
NtRp124
(dp125
g13
F14.366228195853685
sg14
I1
sg15
I01
sg16
I9
sg17
I47
sbs(I20
I5
tp126
g1
(g10
g3
NtRp127
(dp128
g13
F-13.221747004763534
sg14
I20
sg15
I01
sg16
I5
sg17
I342
sbs(I4
I2
tp129
g1
(g10
g3
NtRp130
(dp131
g13
F-23.924031913345168
sg14
I4
sg15
I01
sg16
I2
sg17
I7
sbs(I14
I2
tp132
g1
(g10
g3
NtRp133
(dp134
g13
F3.4056467552246059
sg14
I14
sg15
I01
sg16
I2
sg17
I125
sbs(I4
I11
tp135
g1
(g10
g3
NtRp136
(dp137
g13
F-26.88448481868009
sg14
I4
sg15
I01
sg16
I11
sg17
I86
sbs(I3
I5
tp138
g1
(g10
g3
NtRp139
(dp140
g13
F23.054595145731547
sg14
I3
sg15
I01
sg16
I5
sg17
I12
sbs(I10
I5
tp141
g1
(g10
g3
NtRp142
(dp143
g13
F17.869412328738107
sg14
I10
sg15
I01
sg16
I5
sg17
I79
sbs(I19
I9
tp144
g1
(g10
g3
NtRp145
(dp146
g13
F12.446496162983674
sg14
I19
sg15
I01
sg16
I9
sg17
I290
sbs(I6
I5
tp147
g1
(g10
g3
NtRp148
(dp149
g13
F-17.477820304045437
sg14
I6
sg15
I00
sg16
I5
sg17
I28
sbs(I11
I8
tp150
g1
(g10
g3
NtRp151
(dp152
g13
F11.391761362945282
sg14
I11
sg15
I01
sg16
I8
sg17
I91
sbs(I7
I14
tp153
g1
(g10
g3
NtRp154
(dp155
g13
F-3.5838375072591369
sg14
I7
sg15
I01
sg16
I14
sg17
I162
sbs(I9
I9
tp156
g1
(g10
g3
NtRp157
(dp158
g13
F26.569335507299481
sg14
I9
sg15
I00
sg16
I9
sg17
I73
sbs(I3
I6
tp159
g1
(g10
g3
NtRp160
(dp161
g13
F-23.264256082514006
sg14
I3
sg15
I01
sg16
I6
sg17
I22
sbs(I18
I7
tp162
g1
(g10
g3
NtRp163
(dp164
g13
F6.5396539247498984
sg14
I18
sg15
I01
sg16
I7
sg17
I272
sbs(I9
I2
tp165
g1
(g10
g3
NtRp166
(dp167
g13
F-16.18081776088178
sg14
I9
sg15
I00
sg16
I2
sg17
I48
sbs(I13
I18
tp168
g1
(g10
g3
NtRp169
(dp170
g13
F-0.39792683980537547
sg14
I13
sg15
I01
sg16
I18
sg17
I271
sbs(I4
I3
tp171
g1
(g10
g3
NtRp172
(dp173
g13
F5.391040111103842
sg14
I4
sg15
I01
sg16
I3
sg17
I10
sbs(I2
I15
tp174
g1
(g10
g3
NtRp175
(dp176
g13
F4.6941795758608214
sg14
I2
sg15
I01
sg16
I15
sg17
I172
sbs(I4
I8
tp177
g1
(g10
g3
NtRp178
(dp179
g13
F-19.139628798102041
sg14
I4
sg15
I01
sg16
I8
sg17
I38
sbs(I5
I2
tp180
g1
(g10
g3
NtRp181
(dp182
g13
F-18.970312635028161
sg14
I5
sg15
I01
sg16
I2
sg17
I21
sbs(I2
I4
tp183
g1
(g10
g3
NtRp184
(dp185
g13
F28.95054276966405
sg14
I2
sg15
I01
sg16
I4
sg17
I16
sbs(I11
I6
tp186
g1
(g10
g3
NtRp187
(dp188
g13
F-9.8426597125711428
sg14
I11
sg15
I01
sg16
I6
sg17
I110
sbs(I10
I2
tp189
g1
(g10
g3
NtRp190
(dp191
g13
F23.847754016741842
sg14
I10
sg15
I01
sg16
I2
sg17
I66
sbssS'_input_nodes'
p192
I1
sS'_output_nodes'
p193
I1
sS'_node_gene_type'
p194
cneat.genome
NodeGene
p195
sS'_conn_gene_type'
p196
g10
sS'fitness'
p197
F0.98681283598023695
sS'parent2_id'
p198
I19512
sS'_id'
p199
I19563
sS'parent1_id'
p200
I19512
sS'_node_genes'
p201
(lp202
g1
(g195
g3
NtRp203
(dp204
S'_bias'
p205
I0
sS'_type'
p206
S'INPUT'
p207
sg199
I1
sS'_response'
p208
F4.9242730000000003
sS'_activation_type'
p209
Nsbag1
(g195
g3
NtRp210
(dp211
g205
F2.0046258091075408
sg206
S'OUTPUT'
p212
sg199
I2
sg208
F9.0322599158346559
sg209
S'tanh'
p213
sbag1
(g195
g3
NtRp214
(dp215
g205
F-3.3777436527509699
sg206
S'HIDDEN'
p216
sg199
I3
sg208
F4.297057458849336
sg209
g213
sbag1
(g195
g3
NtRp217
(dp218
g205
F1.851733037293751
sg206
g216
sg199
I4
sg208
F-3.1059759419857125
sg209
g213
sbag1
(g195
g3
NtRp219
(dp220
g205
F-4.6820096694818458
sg206
g216
sg199
I5
sg208
F7.1751828126877983
sg209
g213
sbag1
(g195
g3
NtRp221
(dp222
g205
F1.9203128097703919
sg206
g216
sg199
I6
sg208
F10.16177587551929
sg209
g213
sbag1
(g195
g3
NtRp223
(dp224
g205
F-1.2791359913944542
sg206
g216
sg199
I7
sg208
F13.564679914487538
sg209
g213
sbag1
(g195
g3
NtRp225
(dp226
g205
F-1.1001644647845934
sg206
g216
sg199
I8
sg208
F5.9487717238288758
sg209
g213
sbag1
(g195
g3
NtRp227
(dp228
g205
F2.5964498238466911
sg206
g216
sg199
I9
sg208
F-0.54222382429737537
sg209
g213
sbag1
(g195
g3
NtRp229
(dp230
g205
F6.8671367503123175
sg206
g216
sg199
I10
sg208
F1.6705735682558962
sg209
g213
sbag1
(g195
g3
NtRp231
(dp232
g205
F-6.1317180567244067
sg206
g216
sg199
I11
sg208
F8.8772046567985985
sg209
g213
sbag1
(g195
g3
NtRp233
(dp234
g205
F1.6841626799244729
sg206
g216
sg199
I12
sg208
F7.1844704456676469
sg209
g213
sbag1
(g195
g3
NtRp235
(dp236
g205
F5.8096286793765799
sg206
g216
sg199
I13
sg208
F4.8062570525122164
sg209
g213
sbag1
(g195
g3
NtRp237
(dp238
g205
F0.38307440506658252
sg206
g216
sg199
I14
sg208
F4.3403090059985665
sg209
g213
sbag1
(g195
g3
NtRp239
(dp240
g205
F-2.6956704764621056
sg206
g216
sg199
I15
sg208
F12.732770568484447
sg209
g213
sbag1
(g195
g3
NtRp241
(dp242
g205
F-0.57684069483900235
sg206
g216
sg199
I16
sg208
F8.9143486136221952
sg209
g213
sbag1
(g195
g3
NtRp243
(dp244
g205
F-0.028874766977672717
sg206
g216
sg199
I17
sg208
F3.9494418698322047
sg209
g213
sbag1
(g195
g3
NtRp245
(dp246
g205
F3.130096664252167
sg206
g216
sg199
I18
sg208
F3.7315566618655645
sg209
g213
sbag1
(g195
g3
NtRp247
(dp248
g205
F-2.6243036058497387
sg206
g216
sg199
I19
sg208
F7.9983968746515011
sg209
g213
sbag1
(g195
g3
NtRp249
(dp250
g205
I0
sg206
g216
sg199
I20
sg208
F4.9242730000000003
sg209
g213
sbasb.