ccopy_reg
_reconstructor
p1
(cneat.chromosome
Chromosome
p2
c__builtin__
object
p3
NtRp4
(dp5
S'species_id'
p6
I130
sS'_connection_genes'
p7
(dp8
(I7
I3
tp9
g1
(cneat.genome
ConnectionGene
p10
g3
NtRp11
(dp12
S'_ConnectionGene__weight'
p13
F22.113786490514023
sS'_ConnectionGene__in'
p14
I7
sS'_ConnectionGene__enabled'
p15
I01
sS'_ConnectionGene__out'
p16
I3
sS'_ConnectionGene__innov_number'
p17
I36
sbs(I1
I3
tp18
g1
(g10
g3
NtRp19
(dp20
g13
F-24.723304208942071
sg14
I1
sg15
I01
sg16
I3
sg17
I3
sbs(I5
I9
tp21
g1
(g10
g3
NtRp22
(dp23
g13
F-7.4600105629317754
sg14
I5
sg15
I01
sg16
I9
sg17
I100
sbs(I16
I9
tp24
g1
(g10
g3
NtRp25
(dp26
g13
F20.978147107554342
sg14
I16
sg15
I01
sg16
I9
sg17
I236
sbs(I3
I2
tp27
g1
(g10
g3
NtRp28
(dp29
g13
F11.192561481423432
sg14
I3
sg15
I01
sg16
I2
sg17
I4
sbs(I9
I16
tp30
g1
(g10
g3
NtRp31
(dp32
g13
F15.356450014923624
sg14
I9
sg15
I01
sg16
I16
sg17
I240
sbs(I8
I4
tp33
g1
(g10
g3
NtRp34
(dp35
g13
F13.501320115890357
sg14
I8
sg15
I01
sg16
I4
sg17
I41
sbs(I2
I12
tp36
g1
(g10
g3
NtRp37
(dp38
g13
F6.1618581046366288
sg14
I2
sg15
I01
sg16
I12
sg17
I135
sbs(I7
I11
tp39
g1
(g10
g3
NtRp40
(dp41
g13
F-14.479378563090869
sg14
I7
sg15
I01
sg16
I11
sg17
I92
sbs(I3
I7
tp42
g1
(g10
g3
NtRp43
(dp44
g13
F19.575705055014122
sg14
I3
sg15
I00
sg16
I7
sg17
I49
sbs(I14
I9
tp45
g1
(g10
g3
NtRp46
(dp47
g13
F21.005920217236824
sg14
I14
sg15
I01
sg16
I9
sg17
I130
sbs(I5
I8
tp48
g1
(g10
g3
NtRp49
(dp50
g13
F17.419541140387771
sg14
I5
sg15
I01
sg16
I8
sg17
I45
sbs(I1
I2
tp51
g1
(g10
g3
NtRp52
(dp53
g13
F-15.702046760382984
sg14
I1
sg15
I01
sg16
I2
sg17
I1
sbs(I12
I2
tp54
g1
(g10
g3
NtRp55
(dp56
g13
F17.615550862073405
sg14
I12
sg15
I01
sg16
I2
sg17
I104
sbs(I4
I9
tp57
g1
(g10
g3
NtRp58
(dp59
g13
F-0.54630985317415437
sg14
I4
sg15
I01
sg16
I9
sg17
I57
sbs(I3
I3
tp60
g1
(g10
g3
NtRp61
(dp62
g13
F6.8059699778923184
sg14
I3
sg15
I01
sg16
I3
sg17
I8
sbs(I2
I9
tp63
g1
(g10
g3
NtRp64
(dp65
g13
F27.640634367035485
sg14
I2
sg15
I01
sg16
I9
sg17
I144
sbs(I3
I10
tp66
g1
(g10
g3
NtRp67
(dp68
g13
F7.0605290962099341
sg14
I3
sg15
I01
sg16
I10
sg17
I76
sbs(I4
I4
tp69
g1
(g10
g3
NtRp70
(dp71
g13
F6.4995344259822652
sg14
I4
sg15
I00
sg16
I4
sg17
I11
sbs(I10
I12
tp72
g1
(g10
g3
NtRp73
(dp74
g13
F-27.87134625860871
sg14
I10
sg15
I01
sg16
I12
sg17
I111
sbs(I17
I2
tp75
g1
(g10
g3
NtRp76
(dp77
g13
F-18.967414383468395
sg14
I17
sg15
I01
sg16
I2
sg17
I202
sbs(I13
I7
tp78
g1
(g10
g3
NtRp79
(dp80
g13
F0.36548565014451612
sg14
I13
sg15
I01
sg16
I7
sg17
I108
sbs(I9
I17
tp81
g1
(g10
g3
NtRp82
(dp83
g13
F-3.0021106095278909
sg14
I9
sg15
I01
sg16
I17
sg17
I258
sbs(I18
I9
tp84
g1
(g10
g3
NtRp85
(dp86
g13
F-7.6358637903597106
sg14
I18
sg15
I01
sg16
I9
sg17
I268
sbs(I2
I2
tp87
g1
(g10
g3
NtRp88
(dp89
g13
F5.8156507490166618
sg14
I2
sg15
I01
sg16
I2
sg17
I2
sbs(I15
I4
tp90
g1
(g10
g3
NtRp91
(dp92
g13
F9.6519484056872002
sg14
I15
sg15
I01
sg16
I4
sg17
I173
sbs(I5
I11
tp93
g1
(g10
g3
NtRp94
(dp95
g13
F7.6886983721525421
sg14
I5
sg15
I01
sg16
I11
sg17
I90
sbs(I15
I12
tp96
g1
(g10
g3
NtRp97
(dp98
g13
F-3.0596318696019007
sg14
I15
sg15
I01
sg16
I12
sg17
I159
sbs(I5
I4
tp99
g1
(g10
g3
NtRp100
(dp101
g13
F-2.2891385553071153
sg14
I5
sg15
I01
sg16
I4
sg17
I13
sbs(I6
I6
tp102
g1
(g10
g3
NtRp103
(dp104
g13
F3.142357258063051
sg14
I6
sg15
I01
sg16
I6
sg17
I37
sbs(I12
I14
tp105
g1
(g10
g3
NtRp106
(dp107
g13
F-2.9913996489790073
sg14
I12
sg15
I01
sg16
I14
sg17
I131
sbs(I3
I13
tp108
g1
(g10
g3
NtRp109
(dp110
g13
F20.214424035380226
sg14
I3
sg15
I01
sg16
I13
sg17
I107
sbs(I9
I3
tp111
g1
(g10
g3
NtRp112
(dp113
g13
F-26.445804851729264
sg14
I9
sg15
I01
sg16
I3
sg17
I60
sbs(I19
I2
tp114
g1
(g10
g3
NtRp115
(dp116
g13
F23.127826110826977
sg14
I19
sg15
I01
sg16
I2
sg17
I245
sbs(I2
I3
tp117
g1
(g10
g3
NtRp118
(dp119
g13
F-7.7206145165428897
sg14
I2
sg15
I01
sg16
I3
sg17
I5
sbs(I1
I9
tp120
g1
(g10
g3
NtRp121
(dp122
g13
F20.775569023733173
sg14
I1
sg15
I01
sg16
I9
sg17
I47
sbs(I4
I2
tp123
g1
(g10
g3
NtRp124
(dp125
g13
F-29.448931069725056
sg14
I4
sg15
I01
sg16
I2
sg17
I7
sbs(I14
I2
tp126
g1
(g10
g3
NtRp127
(dp128
g13
F14.012150624880068
sg14
I14
sg15
I01
sg16
I2
sg17
I125
sbs(I4
I11
tp129
g1
(g10
g3
NtRp130
(dp131
g13
F-14.42129155065687
sg14
I4
sg15
I01
sg16
I11
sg17
I86
sbs(I3
I5
tp132
g1
(g10
g3
NtRp133
(dp134
g13
F-1.9514286876195344
sg14
I3
sg15
I01
sg16
I5
sg17
I12
sbs(I10
I5
tp135
g1
(g10
g3
NtRp136
(dp137
g13
F19.503859081962926
sg14
I10
sg15
I01
sg16
I5
sg17
I79
sbs(I6
I5
tp138
g1
(g10
g3
NtRp139
(dp140
g13
F-20.111156572537922
sg14
I6
sg15
I01
sg16
I5
sg17
I28
sbs(I9
I2
tp141
g1
(g10
g3
NtRp142
(dp143
g13
F0.95857779623631134
sg14
I9
sg15
I00
sg16
I2
sg17
I48
sbs(I7
I14
tp144
g1
(g10
g3
NtRp145
(dp146
g13
F-13.331885807333153
sg14
I7
sg15
I01
sg16
I14
sg17
I162
sbs(I9
I9
tp147
g1
(g10
g3
NtRp148
(dp149
g13
F7.2060086206523017
sg14
I9
sg15
I01
sg16
I9
sg17
I73
sbs(I12
I19
tp150
g1
(g10
g3
NtRp151
(dp152
g13
F8.8486599306304452
sg14
I12
sg15
I01
sg16
I19
sg17
I284
sbs(I3
I6
tp153
g1
(g10
g3
NtRp154
(dp155
g13
F-22.477063247365137
sg14
I3
sg15
I01
sg16
I6
sg17
I22
sbs(I18
I7
tp156
g1
(g10
g3
NtRp157
(dp158
g13
F9.4049373908324263
sg14
I18
sg15
I01
sg16
I7
sg17
I272
sbs(I11
I8
tp159
g1
(g10
g3
NtRp160
(dp161
g13
F11.138716766893133
sg14
I11
sg15
I01
sg16
I8
sg17
I91
sbs(I13
I18
tp162
g1
(g10
g3
NtRp163
(dp164
g13
F12.413970252723715
sg14
I13
sg15
I01
sg16
I18
sg17
I271
sbs(I4
I3
tp165
g1
(g10
g3
NtRp166
(dp167
g13
F-4.5980422085539834
sg14
I4
sg15
I01
sg16
I3
sg17
I10
sbs(I2
I15
tp168
g1
(g10
g3
NtRp169
(dp170
g13
F-6.8412256747697526
sg14
I2
sg15
I01
sg16
I15
sg17
I172
sbs(I13
I9
tp171
g1
(g10
g3
NtRp172
(dp173
g13
F-3.4562001249656258
sg14
I13
sg15
I01
sg16
I9
sg17
I137
sbs(I4
I8
tp174
g1
(g10
g3
NtRp175
(dp176
g13
F-3.0913322783592996
sg14
I4
sg15
I01
sg16
I8
sg17
I38
sbs(I5
I2
tp177
g1
(g10
g3
NtRp178
(dp179
g13
F-5.7827331428148998
sg14
I5
sg15
I01
sg16
I2
sg17
I21
sbs(I2
I4
tp180
g1
(g10
g3
NtRp181
(dp182
g13
F25.17293193269742
sg14
I2
sg15
I01
sg16
I4
sg17
I16
sbs(I11
I6
tp183
g1
(g10
g3
NtRp184
(dp185
g13
F-7.1702790869198507
sg14
I11
sg15
I01
sg16
I6
sg17
I110
sbs(I10
I2
tp186
g1
(g10
g3
NtRp187
(dp188
g13
F30
sg14
I10
sg15
I01
sg16
I2
sg17
I66
sbssS'_input_nodes'
p189
I1
sS'_output_nodes'
p190
I1
sS'_node_gene_type'
p191
cneat.genome
NodeGene
p192
sS'_conn_gene_type'
p193
g10
sS'fitness'
p194
F0.91823384395690988
sS'parent2_id'
p195
I18989
sS'_id'
p196
I19080
sS'parent1_id'
p197
I18989
sS'_node_genes'
p198
(lp199
g1
(g192
g3
NtRp200
(dp201
S'_bias'
p202
I0
sS'_type'
p203
S'INPUT'
p204
sg196
I1
sS'_response'
p205
F4.9242730000000003
sS'_activation_type'
p206
Nsbag1
(g192
g3
NtRp207
(dp208
g202
F0.35047205201847498
sg203
S'OUTPUT'
p209
sg196
I2
sg205
F10.638955045109704
sg206
S'tanh'
p210
sbag1
(g192
g3
NtRp211
(dp212
g202
F-4.9884863540557367
sg203
S'HIDDEN'
p213
sg196
I3
sg205
F7.8637447356358576
sg206
g210
sbag1
(g192
g3
NtRp214
(dp215
g202
F3.1475859054314679
sg203
g213
sg196
I4
sg205
F-4.6465158653665313
sg206
g210
sbag1
(g192
g3
NtRp216
(dp217
g202
F-2.9808175127566203
sg203
g213
sg196
I5
sg205
F6.9353151593916769
sg206
g210
sbag1
(g192
g3
NtRp218
(dp219
g202
F0.28662519058790681
sg203
g213
sg196
I6
sg205
F11.159786437963225
sg206
g210
sbag1
(g192
g3
NtRp220
(dp221
g202
F0.88738498146260447
sg203
g213
sg196
I7
sg205
F12.085782698879209
sg206
g210
sbag1
(g192
g3
NtRp222
(dp223
g202
F0.15991769575764145
sg203
g213
sg196
I8
sg205
F3.1135969765210483
sg206
g210
sbag1
(g192
g3
NtRp224
(dp225
g202
F4.2237459193578335
sg203
g213
sg196
I9
sg205
F0.88307653421135579
sg206
g210
sbag1
(g192
g3
NtRp226
(dp227
g202
F3.924564884410453
sg203
g213
sg196
I10
sg205
F3.4230900419291714
sg206
g210
sbag1
(g192
g3
NtRp228
(dp229
g202
F-4.556456821230416
sg203
g213
sg196
I11
sg205
F10.607329575940678
sg206
g210
sbag1
(g192
g3
NtRp230
(dp231
g202
F3.0657783724983716
sg203
g213
sg196
I12
sg205
F8.2983553732560633
sg206
g210
sbag1
(g192
g3
NtRp232
(dp233
g202
F0.96079639982782572
sg203
g213
sg196
I13
sg205
F2.5060601757239462
sg206
g210
sbag1
(g192
g3
NtRp234
(dp235
g202
F1.7885626508369068
sg203
g213
sg196
I14
sg205
F5.1137757900263781
sg206
g210
sbag1
(g192
g3
NtRp236
(dp237
g202
F-0.41005861509010133
sg203
g213
sg196
I15
sg205
F11.289598120167298
sg206
g210
sbag1
(g192
g3
NtRp238
(dp239
g202
F-1.7202141498593149
sg203
g213
sg196
I16
sg205
F8.1948652728719473
sg206
g210
sbag1
(g192
g3
NtRp240
(dp241
g202
F-2.1970961624745291
sg203
g213
sg196
I17
sg205
F1.3018803724288968
sg206
g210
sbag1
(g192
g3
NtRp242
(dp243
g202
F-0.065829078127684015
sg203
g213
sg196
I18
sg205
F3.5562540196292187
sg206
g210
sbag1
(g192
g3
NtRp244
(dp245
g202
F2.046518451618542
sg203
g213
sg196
I19
sg205
F5.2426753267392332
sg206
g210
sbasb.