ccopy_reg
_reconstructor
p1
(cneat.chromosome
Chromosome
p2
c__builtin__
object
p3
NtRp4
(dp5
S'species_id'
p6
I150
sS'_connection_genes'
p7
(dp8
(I7
I3
tp9
g1
(cneat.genome
ConnectionGene
p10
g3
NtRp11
(dp12
S'_ConnectionGene__weight'
p13
F29.659924807436781
sS'_ConnectionGene__in'
p14
I7
sS'_ConnectionGene__enabled'
p15
I01
sS'_ConnectionGene__out'
p16
I3
sS'_ConnectionGene__innov_number'
p17
I36
sbs(I4
I7
tp18
g1
(g10
g3
NtRp19
(dp20
g13
F-1.9097244398045015
sg14
I4
sg15
I01
sg16
I7
sg17
I35
sbs(I1
I3
tp21
g1
(g10
g3
NtRp22
(dp23
g13
F-29.482591858282493
sg14
I1
sg15
I01
sg16
I3
sg17
I3
sbs(I10
I11
tp24
g1
(g10
g3
NtRp25
(dp26
g13
F2.4860867931868942
sg14
I10
sg15
I01
sg16
I11
sg17
I95
sbs(I20
I3
tp27
g1
(g10
g3
NtRp28
(dp29
g13
F11.479230768865076
sg14
I20
sg15
I01
sg16
I3
sg17
I322
sbs(I5
I9
tp30
g1
(g10
g3
NtRp31
(dp32
g13
F22.584603904045299
sg14
I5
sg15
I01
sg16
I9
sg17
I100
sbs(I16
I9
tp33
g1
(g10
g3
NtRp34
(dp35
g13
F-4.3657438001901543
sg14
I16
sg15
I01
sg16
I9
sg17
I236
sbs(I11
I2
tp36
g1
(g10
g3
NtRp37
(dp38
g13
F29.729297659582294
sg14
I11
sg15
I01
sg16
I2
sg17
I89
sbs(I10
I6
tp39
g1
(g10
g3
NtRp40
(dp41
g13
F-7.3194773339388792
sg14
I10
sg15
I01
sg16
I6
sg17
I68
sbs(I5
I4
tp42
g1
(g10
g3
NtRp43
(dp44
g13
F11.058514874567049
sg14
I5
sg15
I01
sg16
I4
sg17
I13
sbs(I1
I15
tp45
g1
(g10
g3
NtRp46
(dp47
g13
F3.5791974751176432
sg14
I1
sg15
I01
sg16
I15
sg17
I149
sbs(I10
I15
tp48
g1
(g10
g3
NtRp49
(dp50
g13
F-28.510972057451156
sg14
I10
sg15
I01
sg16
I15
sg17
I169
sbs(I19
I15
tp51
g1
(g10
g3
NtRp52
(dp53
g13
F-6.5287933135412564
sg14
I19
sg15
I01
sg16
I15
sg17
I308
sbs(I11
I8
tp54
g1
(g10
g3
NtRp55
(dp56
g13
F-23.68152658739551
sg14
I11
sg15
I01
sg16
I8
sg17
I91
sbs(I13
I8
tp57
g1
(g10
g3
NtRp58
(dp59
g13
F2.3314158170950581
sg14
I13
sg15
I01
sg16
I8
sg17
I177
sbs(I15
I19
tp60
g1
(g10
g3
NtRp61
(dp62
g13
F4.652489968993244
sg14
I15
sg15
I01
sg16
I19
sg17
I345
sbs(I3
I7
tp63
g1
(g10
g3
NtRp64
(dp65
g13
F-4.7270417452623024
sg14
I3
sg15
I01
sg16
I7
sg17
I49
sbs(I15
I5
tp66
g1
(g10
g3
NtRp67
(dp68
g13
F15.78876610800752
sg14
I15
sg15
I01
sg16
I5
sg17
I147
sbs(I5
I8
tp69
g1
(g10
g3
NtRp70
(dp71
g13
F24.16856008096368
sg14
I5
sg15
I01
sg16
I8
sg17
I45
sbs(I1
I2
tp72
g1
(g10
g3
NtRp73
(dp74
g13
F-25.933597611483645
sg14
I1
sg15
I01
sg16
I2
sg17
I1
sbs(I12
I2
tp75
g1
(g10
g3
NtRp76
(dp77
g13
F27.15562688231941
sg14
I12
sg15
I01
sg16
I2
sg17
I104
sbs(I13
I12
tp78
g1
(g10
g3
NtRp79
(dp80
g13
F-5.3121411556425882
sg14
I13
sg15
I01
sg16
I12
sg17
I291
sbs(I1
I11
tp81
g1
(g10
g3
NtRp82
(dp83
g13
F-17.800135936705395
sg14
I1
sg15
I01
sg16
I11
sg17
I88
sbs(I4
I9
tp84
g1
(g10
g3
NtRp85
(dp86
g13
F-30
sg14
I4
sg15
I01
sg16
I9
sg17
I57
sbs(I3
I3
tp87
g1
(g10
g3
NtRp88
(dp89
g13
F-23.214570397369187
sg14
I3
sg15
I01
sg16
I3
sg17
I8
sbs(I2
I9
tp90
g1
(g10
g3
NtRp91
(dp92
g13
F10.383638771455422
sg14
I2
sg15
I00
sg16
I9
sg17
I144
sbs(I13
I3
tp93
g1
(g10
g3
NtRp94
(dp95
g13
F23.84881282961803
sg14
I13
sg15
I01
sg16
I3
sg17
I117
sbs(I12
I13
tp96
g1
(g10
g3
NtRp97
(dp98
g13
F14.059983559760855
sg14
I12
sg15
I01
sg16
I13
sg17
I120
sbs(I3
I10
tp99
g1
(g10
g3
NtRp100
(dp101
g13
F-21.818678575266151
sg14
I3
sg15
I01
sg16
I10
sg17
I76
sbs(I4
I4
tp102
g1
(g10
g3
NtRp103
(dp104
g13
F-14.355782570635085
sg14
I4
sg15
I00
sg16
I4
sg17
I11
sbs(I10
I12
tp105
g1
(g10
g3
NtRp106
(dp107
g13
F8.2282852575889738
sg14
I10
sg15
I01
sg16
I12
sg17
I111
sbs(I4
I8
tp108
g1
(g10
g3
NtRp109
(dp110
g13
F9.8892265106205475
sg14
I4
sg15
I01
sg16
I8
sg17
I38
sbs(I11
I4
tp111
g1
(g10
g3
NtRp112
(dp113
g13
F5.6247498607228286
sg14
I11
sg15
I01
sg16
I4
sg17
I83
sbs(I2
I13
tp114
g1
(g10
g3
NtRp115
(dp116
g13
F-18.496203470843184
sg14
I2
sg15
I01
sg16
I13
sg17
I176
sbs(I6
I5
tp117
g1
(g10
g3
NtRp118
(dp119
g13
F-6.9816365375183285
sg14
I6
sg15
I01
sg16
I5
sg17
I28
sbs(I3
I6
tp120
g1
(g10
g3
NtRp121
(dp122
g13
F7.3444851599532939
sg14
I3
sg15
I00
sg16
I6
sg17
I22
sbs(I2
I2
tp123
g1
(g10
g3
NtRp124
(dp125
g13
F-17.178555370701993
sg14
I2
sg15
I01
sg16
I2
sg17
I2
sbs(I19
I10
tp126
g1
(g10
g3
NtRp127
(dp128
g13
F-5.4994701639014751
sg14
I19
sg15
I01
sg16
I10
sg17
I379
sbs(I5
I3
tp129
g1
(g10
g3
NtRp130
(dp131
g13
F5.5422993205102777
sg14
I5
sg15
I01
sg16
I3
sg17
I15
sbs(I14
I18
tp132
g1
(g10
g3
NtRp133
(dp134
g13
F-0.031135163181860048
sg14
I14
sg15
I01
sg16
I18
sg17
I267
sbs(I2
I16
tp135
g1
(g10
g3
NtRp136
(dp137
g13
F12.269291823554878
sg14
I2
sg15
I01
sg16
I16
sg17
I228
sbs(I3
I2
tp138
g1
(g10
g3
NtRp139
(dp140
g13
F-5.8423539677049874
sg14
I3
sg15
I01
sg16
I2
sg17
I4
sbs(I6
I6
tp141
g1
(g10
g3
NtRp142
(dp143
g13
F1.7154967624188715
sg14
I6
sg15
I01
sg16
I6
sg17
I37
sbs(I5
I11
tp144
g1
(g10
g3
NtRp145
(dp146
g13
F23.487551741553624
sg14
I5
sg15
I01
sg16
I11
sg17
I90
sbs(I9
I3
tp147
g1
(g10
g3
NtRp148
(dp149
g13
F-15.830641969462498
sg14
I9
sg15
I01
sg16
I3
sg17
I60
sbs(I2
I20
tp150
g1
(g10
g3
NtRp151
(dp152
g13
F8.1997206672716807
sg14
I2
sg15
I01
sg16
I20
sg17
I365
sbs(I17
I5
tp153
g1
(g10
g3
NtRp154
(dp155
g13
F14.285919220177563
sg14
I17
sg15
I01
sg16
I5
sg17
I277
sbs(I18
I6
tp156
g1
(g10
g3
NtRp157
(dp158
g13
F12.688877507129133
sg14
I18
sg15
I01
sg16
I6
sg17
I326
sbs(I2
I3
tp159
g1
(g10
g3
NtRp160
(dp161
g13
F7.2300666182829705
sg14
I2
sg15
I00
sg16
I3
sg17
I5
sbs(I1
I9
tp162
g1
(g10
g3
NtRp163
(dp164
g13
F-12.341696980032648
sg14
I1
sg15
I01
sg16
I9
sg17
I47
sbs(I4
I2
tp165
g1
(g10
g3
NtRp166
(dp167
g13
F24.672288874665984
sg14
I4
sg15
I01
sg16
I2
sg17
I7
sbs(I2
I14
tp168
g1
(g10
g3
NtRp169
(dp170
g13
F-4.5858443438872305
sg14
I2
sg15
I01
sg16
I14
sg17
I331
sbs(I4
I11
tp171
g1
(g10
g3
NtRp172
(dp173
g13
F-19.516872102795084
sg14
I4
sg15
I01
sg16
I11
sg17
I86
sbs(I3
I5
tp174
g1
(g10
g3
NtRp175
(dp176
g13
F24.84032424385687
sg14
I3
sg15
I00
sg16
I5
sg17
I12
sbs(I10
I5
tp177
g1
(g10
g3
NtRp178
(dp179
g13
F0.24591021061422236
sg14
I10
sg15
I01
sg16
I5
sg17
I79
sbs(I9
I2
tp180
g1
(g10
g3
NtRp181
(dp182
g13
F6.7673408249434743
sg14
I9
sg15
I01
sg16
I2
sg17
I48
sbs(I2
I11
tp183
g1
(g10
g3
NtRp184
(dp185
g13
F1.8692195719323019
sg14
I2
sg15
I01
sg16
I11
sg17
I82
sbs(I9
I9
tp186
g1
(g10
g3
NtRp187
(dp188
g13
F-5.2536834993792771
sg14
I9
sg15
I01
sg16
I9
sg17
I73
sbs(I2
I4
tp189
g1
(g10
g3
NtRp190
(dp191
g13
F-5.5579618905415646
sg14
I2
sg15
I01
sg16
I4
sg17
I16
sbs(I15
I10
tp192
g1
(g10
g3
NtRp193
(dp194
g13
F2.3760877436614787
sg14
I15
sg15
I01
sg16
I10
sg17
I180
sbs(I13
I14
tp195
g1
(g10
g3
NtRp196
(dp197
g13
F14.14178372738356
sg14
I13
sg15
I01
sg16
I14
sg17
I189
sbs(I3
I18
tp198
g1
(g10
g3
NtRp199
(dp200
g13
F-0.97826786129280918
sg14
I3
sg15
I01
sg16
I18
sg17
I293
sbs(I12
I4
tp201
g1
(g10
g3
NtRp202
(dp203
g13
F-3.4816546525702532
sg14
I12
sg15
I01
sg16
I4
sg17
I115
sbs(I3
I17
tp204
g1
(g10
g3
NtRp205
(dp206
g13
F17.175089948029619
sg14
I3
sg15
I01
sg16
I17
sg17
I247
sbs(I4
I3
tp207
g1
(g10
g3
NtRp208
(dp209
g13
F-14.300675600590397
sg14
I4
sg15
I01
sg16
I3
sg17
I10
sbs(I15
I9
tp210
g1
(g10
g3
NtRp211
(dp212
g13
F-11.243143439502203
sg14
I15
sg15
I01
sg16
I9
sg17
I171
sbs(I14
I3
tp213
g1
(g10
g3
NtRp214
(dp215
g13
F19.775932597890598
sg14
I14
sg15
I01
sg16
I3
sg17
I132
sbs(I14
I15
tp216
g1
(g10
g3
NtRp217
(dp218
g13
F2.2334404839338449
sg14
I14
sg15
I01
sg16
I15
sg17
I190
sbs(I10
I2
tp219
g1
(g10
g3
NtRp220
(dp221
g13
F5.1541690188971341
sg14
I10
sg15
I01
sg16
I2
sg17
I66
sbs(I5
I2
tp222
g1
(g10
g3
NtRp223
(dp224
g13
F18.2675407835704
sg14
I5
sg15
I01
sg16
I2
sg17
I21
sbs(I17
I17
tp225
g1
(g10
g3
NtRp226
(dp227
g13
F-8.2990413106761434
sg14
I17
sg15
I01
sg16
I17
sg17
I324
sbs(I8
I4
tp228
g1
(g10
g3
NtRp229
(dp230
g13
F-2.9570095527081643
sg14
I8
sg15
I01
sg16
I4
sg17
I41
sbssS'_input_nodes'
p231
I1
sS'_output_nodes'
p232
I1
sS'_node_gene_type'
p233
cneat.genome
NodeGene
p234
sS'_conn_gene_type'
p235
g10
sS'fitness'
p236
F0.992879822045866
sS'parent2_id'
p237
I21756
sS'_id'
p238
I21791
sS'parent1_id'
p239
I21756
sS'_node_genes'
p240
(lp241
g1
(g234
g3
NtRp242
(dp243
S'_bias'
p244
I0
sS'_type'
p245
S'INPUT'
p246
sg238
I1
sS'_response'
p247
F4.9242730000000003
sS'_activation_type'
p248
Nsbag1
(g234
g3
NtRp249
(dp250
g244
F-3.2106230719913147
sg245
S'OUTPUT'
p251
sg238
I2
sg247
F5.9656345181511643
sg248
S'tanh'
p252
sbag1
(g234
g3
NtRp253
(dp254
g244
F-1.9768366532727455
sg245
S'HIDDEN'
p255
sg238
I3
sg247
F3.8711278252931995
sg248
g252
sbag1
(g234
g3
NtRp256
(dp257
g244
F4.8948367584436312
sg245
g255
sg238
I4
sg247
F5.0180426024475828
sg248
g252
sbag1
(g234
g3
NtRp258
(dp259
g244
F-4.06940507698173
sg245
g255
sg238
I5
sg247
F6.6673998968710642
sg248
g252
sbag1
(g234
g3
NtRp260
(dp261
g244
F2.0318517775179155
sg245
g255
sg238
I6
sg247
F10.752579423350669
sg248
g252
sbag1
(g234
g3
NtRp262
(dp263
g244
F-2.921773128809138
sg245
g255
sg238
I7
sg247
F9.3434549733711698
sg248
g252
sbag1
(g234
g3
NtRp264
(dp265
g244
F-2.8688948625604995
sg245
g255
sg238
I8
sg247
F6.1345419109726196
sg248
g252
sbag1
(g234
g3
NtRp266
(dp267
g244
F6.095122071637884
sg245
g255
sg238
I9
sg247
F4.1179203932353561
sg248
g252
sbag1
(g234
g3
NtRp268
(dp269
g244
F-0.58356753838085829
sg245
g255
sg238
I10
sg247
F1.7632295027783136
sg248
g252
sbag1
(g234
g3
NtRp270
(dp271
g244
F-1.8503938307803653
sg245
g255
sg238
I11
sg247
F5.5997686333752439
sg248
g252
sbag1
(g234
g3
NtRp272
(dp273
g244
F3.5226640654850718
sg245
g255
sg238
I12
sg247
F10.45919916488085
sg248
g252
sbag1
(g234
g3
NtRp274
(dp275
g244
F-7.7146010282074853
sg245
g255
sg238
I13
sg247
F8.0178360219066196
sg248
g252
sbag1
(g234
g3
NtRp276
(dp277
g244
F1.323981530920215
sg245
g255
sg238
I14
sg247
F7.3160634477913087
sg248
g252
sbag1
(g234
g3
NtRp278
(dp279
g244
F-1.0619282384016466
sg245
g255
sg238
I15
sg247
F4.415513987690435
sg248
g252
sbag1
(g234
g3
NtRp280
(dp281
g244
F0.73125090020802874
sg245
g255
sg238
I16
sg247
F4.4237423962470253
sg248
g252
sbag1
(g234
g3
NtRp282
(dp283
g244
F-4.7867088275489644
sg245
g255
sg238
I17
sg247
F4.8227246387200138
sg248
g252
sbag1
(g234
g3
NtRp284
(dp285
g244
F-1.4854760652073387
sg245
g255
sg238
I18
sg247
F6.0555031966564989
sg248
g252
sbag1
(g234
g3
NtRp286
(dp287
g244
F-1.5007911400512837
sg245
g255
sg238
I19
sg247
F5.4312569452322856
sg248
g252
sbag1
(g234
g3
NtRp288
(dp289
g244
F0.33850490165357722
sg245
g255
sg238
I20
sg247
F4.8974882934462247
sg248
g252
sbasb.