ccopy_reg
_reconstructor
p1
(cneat.chromosome
Chromosome
p2
c__builtin__
object
p3
NtRp4
(dp5
S'species_id'
p6
I141
sS'_connection_genes'
p7
(dp8
(I7
I3
tp9
g1
(cneat.genome
ConnectionGene
p10
g3
NtRp11
(dp12
S'_ConnectionGene__weight'
p13
F16.914777554101565
sS'_ConnectionGene__in'
p14
I7
sS'_ConnectionGene__enabled'
p15
I01
sS'_ConnectionGene__out'
p16
I3
sS'_ConnectionGene__innov_number'
p17
I36
sbs(I1
I3
tp18
g1
(g10
g3
NtRp19
(dp20
g13
F-26.444892232410638
sg14
I1
sg15
I01
sg16
I3
sg17
I3
sbs(I10
I11
tp21
g1
(g10
g3
NtRp22
(dp23
g13
F-0.37625100857095628
sg14
I10
sg15
I01
sg16
I11
sg17
I95
sbs(I5
I9
tp24
g1
(g10
g3
NtRp25
(dp26
g13
F8.9554627308387484
sg14
I5
sg15
I01
sg16
I9
sg17
I100
sbs(I16
I9
tp27
g1
(g10
g3
NtRp28
(dp29
g13
F-4.3143555347880769
sg14
I16
sg15
I01
sg16
I9
sg17
I236
sbs(I11
I2
tp30
g1
(g10
g3
NtRp31
(dp32
g13
F13.494931357450216
sg14
I11
sg15
I01
sg16
I2
sg17
I89
sbs(I10
I6
tp33
g1
(g10
g3
NtRp34
(dp35
g13
F2.7597810425690166
sg14
I10
sg15
I01
sg16
I6
sg17
I68
sbs(I5
I4
tp36
g1
(g10
g3
NtRp37
(dp38
g13
F7.2003497527454243
sg14
I5
sg15
I01
sg16
I4
sg17
I13
sbs(I10
I15
tp39
g1
(g10
g3
NtRp40
(dp41
g13
F-29.476785515269633
sg14
I10
sg15
I01
sg16
I15
sg17
I169
sbs(I13
I14
tp42
g1
(g10
g3
NtRp43
(dp44
g13
F18.42672751297394
sg14
I13
sg15
I01
sg16
I14
sg17
I189
sbs(I13
I8
tp45
g1
(g10
g3
NtRp46
(dp47
g13
F2.8986824298647567
sg14
I13
sg15
I01
sg16
I8
sg17
I177
sbs(I3
I7
tp48
g1
(g10
g3
NtRp49
(dp50
g13
F5.6075455609850282
sg14
I3
sg15
I01
sg16
I7
sg17
I49
sbs(I15
I5
tp51
g1
(g10
g3
NtRp52
(dp53
g13
F7.5538124517440908
sg14
I15
sg15
I01
sg16
I5
sg17
I147
sbs(I2
I18
tp54
g1
(g10
g3
NtRp55
(dp56
g13
F1
sg14
I2
sg15
I01
sg16
I18
sg17
I380
sbs(I5
I8
tp57
g1
(g10
g3
NtRp58
(dp59
g13
F15.011773748662055
sg14
I5
sg15
I01
sg16
I8
sg17
I45
sbs(I1
I2
tp60
g1
(g10
g3
NtRp61
(dp62
g13
F-23.873512507611075
sg14
I1
sg15
I01
sg16
I2
sg17
I1
sbs(I12
I2
tp63
g1
(g10
g3
NtRp64
(dp65
g13
F6.015557442082466
sg14
I12
sg15
I01
sg16
I2
sg17
I104
sbs(I1
I11
tp66
g1
(g10
g3
NtRp67
(dp68
g13
F-30
sg14
I1
sg15
I01
sg16
I11
sg17
I88
sbs(I4
I9
tp69
g1
(g10
g3
NtRp70
(dp71
g13
F-25.220550164167456
sg14
I4
sg15
I01
sg16
I9
sg17
I57
sbs(I3
I3
tp72
g1
(g10
g3
NtRp73
(dp74
g13
F-23.835847057810287
sg14
I3
sg15
I01
sg16
I3
sg17
I8
sbs(I2
I9
tp75
g1
(g10
g3
NtRp76
(dp77
g13
F9.1574211307335958
sg14
I2
sg15
I00
sg16
I9
sg17
I144
sbs(I13
I3
tp78
g1
(g10
g3
NtRp79
(dp80
g13
F30
sg14
I13
sg15
I01
sg16
I3
sg17
I117
sbs(I12
I13
tp81
g1
(g10
g3
NtRp82
(dp83
g13
F2.7909559036832947
sg14
I12
sg15
I01
sg16
I13
sg17
I120
sbs(I3
I10
tp84
g1
(g10
g3
NtRp85
(dp86
g13
F-27.113463832593233
sg14
I3
sg15
I01
sg16
I10
sg17
I76
sbs(I4
I4
tp87
g1
(g10
g3
NtRp88
(dp89
g13
F10.264412346704727
sg14
I4
sg15
I00
sg16
I4
sg17
I11
sbs(I10
I12
tp90
g1
(g10
g3
NtRp91
(dp92
g13
F-12.898224501466089
sg14
I10
sg15
I01
sg16
I12
sg17
I111
sbs(I4
I8
tp93
g1
(g10
g3
NtRp94
(dp95
g13
F16.556193160904304
sg14
I4
sg15
I01
sg16
I8
sg17
I38
sbs(I2
I13
tp96
g1
(g10
g3
NtRp97
(dp98
g13
F-16.953544788020459
sg14
I2
sg15
I01
sg16
I13
sg17
I176
sbs(I6
I5
tp99
g1
(g10
g3
NtRp100
(dp101
g13
F-1.7288151669934413
sg14
I6
sg15
I01
sg16
I5
sg17
I28
sbs(I3
I6
tp102
g1
(g10
g3
NtRp103
(dp104
g13
F13.967925293549257
sg14
I3
sg15
I01
sg16
I6
sg17
I22
sbs(I2
I2
tp105
g1
(g10
g3
NtRp106
(dp107
g13
F-16.636688184956508
sg14
I2
sg15
I01
sg16
I2
sg17
I2
sbs(I5
I3
tp108
g1
(g10
g3
NtRp109
(dp110
g13
F3.5600469841220468
sg14
I5
sg15
I01
sg16
I3
sg17
I15
sbs(I2
I16
tp111
g1
(g10
g3
NtRp112
(dp113
g13
F1.8047270777801518
sg14
I2
sg15
I01
sg16
I16
sg17
I228
sbs(I3
I2
tp114
g1
(g10
g3
NtRp115
(dp116
g13
F-15.453217058897192
sg14
I3
sg15
I01
sg16
I2
sg17
I4
sbs(I6
I6
tp117
g1
(g10
g3
NtRp118
(dp119
g13
F-7.468059576004614
sg14
I6
sg15
I01
sg16
I6
sg17
I37
sbs(I18
I9
tp120
g1
(g10
g3
NtRp121
(dp122
g13
F9.1574211307335958
sg14
I18
sg15
I01
sg16
I9
sg17
I268
sbs(I5
I11
tp123
g1
(g10
g3
NtRp124
(dp125
g13
F27.21834879084232
sg14
I5
sg15
I01
sg16
I11
sg17
I90
sbs(I9
I3
tp126
g1
(g10
g3
NtRp127
(dp128
g13
F-25.452355197124348
sg14
I9
sg15
I01
sg16
I3
sg17
I60
sbs(I17
I5
tp129
g1
(g10
g3
NtRp130
(dp131
g13
F26.140841110199794
sg14
I17
sg15
I01
sg16
I5
sg17
I277
sbs(I3
I11
tp132
g1
(g10
g3
NtRp133
(dp134
g13
F-11.874372935132211
sg14
I3
sg15
I01
sg16
I11
sg17
I93
sbs(I2
I3
tp135
g1
(g10
g3
NtRp136
(dp137
g13
F12.670888583579979
sg14
I2
sg15
I01
sg16
I3
sg17
I5
sbs(I1
I9
tp138
g1
(g10
g3
NtRp139
(dp140
g13
F4.214380270065659
sg14
I1
sg15
I01
sg16
I9
sg17
I47
sbs(I4
I2
tp141
g1
(g10
g3
NtRp142
(dp143
g13
F2.5071818832126787
sg14
I4
sg15
I01
sg16
I2
sg17
I7
sbs(I4
I11
tp144
g1
(g10
g3
NtRp145
(dp146
g13
F-14.378405337859654
sg14
I4
sg15
I01
sg16
I11
sg17
I86
sbs(I3
I5
tp147
g1
(g10
g3
NtRp148
(dp149
g13
F24.293816915927604
sg14
I3
sg15
I00
sg16
I5
sg17
I12
sbs(I10
I5
tp150
g1
(g10
g3
NtRp151
(dp152
g13
F9.7472854828354336
sg14
I10
sg15
I00
sg16
I5
sg17
I79
sbs(I9
I2
tp153
g1
(g10
g3
NtRp154
(dp155
g13
F12.243762247264351
sg14
I9
sg15
I01
sg16
I2
sg17
I48
sbs(I9
I9
tp156
g1
(g10
g3
NtRp157
(dp158
g13
F-15.212289903552305
sg14
I9
sg15
I01
sg16
I9
sg17
I73
sbs(I2
I4
tp159
g1
(g10
g3
NtRp160
(dp161
g13
F0.21351203998749724
sg14
I2
sg15
I01
sg16
I4
sg17
I16
sbs(I15
I10
tp162
g1
(g10
g3
NtRp163
(dp164
g13
F0.72135039318309402
sg14
I15
sg15
I01
sg16
I10
sg17
I180
sbs(I11
I8
tp165
g1
(g10
g3
NtRp166
(dp167
g13
F-23.007836239805211
sg14
I11
sg15
I01
sg16
I8
sg17
I91
sbs(I12
I4
tp168
g1
(g10
g3
NtRp169
(dp170
g13
F13.398384096750338
sg14
I12
sg15
I01
sg16
I4
sg17
I115
sbs(I3
I17
tp171
g1
(g10
g3
NtRp172
(dp173
g13
F15.452879726172302
sg14
I3
sg15
I01
sg16
I17
sg17
I247
sbs(I4
I3
tp174
g1
(g10
g3
NtRp175
(dp176
g13
F-7.1935322874520669
sg14
I4
sg15
I01
sg16
I3
sg17
I10
sbs(I15
I9
tp177
g1
(g10
g3
NtRp178
(dp179
g13
F2.9700434938486349
sg14
I15
sg15
I01
sg16
I9
sg17
I171
sbs(I14
I3
tp180
g1
(g10
g3
NtRp181
(dp182
g13
F13.023588135638008
sg14
I14
sg15
I01
sg16
I3
sg17
I132
sbs(I10
I2
tp183
g1
(g10
g3
NtRp184
(dp185
g13
F8.421215190329745
sg14
I10
sg15
I01
sg16
I2
sg17
I66
sbs(I5
I2
tp186
g1
(g10
g3
NtRp187
(dp188
g13
F1.7677363661436847
sg14
I5
sg15
I01
sg16
I2
sg17
I21
sbs(I17
I17
tp189
g1
(g10
g3
NtRp190
(dp191
g13
F-11.000858152051121
sg14
I17
sg15
I01
sg16
I17
sg17
I324
sbs(I8
I4
tp192
g1
(g10
g3
NtRp193
(dp194
g13
F0.054664980414375286
sg14
I8
sg15
I01
sg16
I4
sg17
I41
sbssS'_input_nodes'
p195
I1
sS'_output_nodes'
p196
I1
sS'_node_gene_type'
p197
cneat.genome
NodeGene
p198
sS'_conn_gene_type'
p199
g10
sS'fitness'
p200
F0.99461087979760687
sS'parent2_id'
p201
I20221
sS'_id'
p202
I20329
sS'parent1_id'
p203
I20270
sS'_node_genes'
p204
(lp205
g1
(g198
g3
NtRp206
(dp207
S'_bias'
p208
I0
sS'_type'
p209
S'INPUT'
p210
sg202
I1
sS'_response'
p211
F4.9242730000000003
sS'_activation_type'
p212
Nsbag1
(g198
g3
NtRp213
(dp214
g208
F-1.0743858680655651
sg209
S'OUTPUT'
p215
sg202
I2
sg211
F5.7055782090424163
sg212
S'tanh'
p216
sbag1
(g198
g3
NtRp217
(dp218
g208
F-2.6643417553632744
sg209
S'HIDDEN'
p219
sg202
I3
sg211
F5.7468668591291667
sg212
g216
sbag1
(g198
g3
NtRp220
(dp221
g208
F3.2423900757271999
sg209
g219
sg202
I4
sg211
F5.5794896917973196
sg212
g216
sbag1
(g198
g3
NtRp222
(dp223
g208
F-4.4338236898956582
sg209
g219
sg202
I5
sg211
F7.1767963428038808
sg212
g216
sbag1
(g198
g3
NtRp224
(dp225
g208
F2.7388880849502497
sg209
g219
sg202
I6
sg211
F10.461950282835302
sg212
g216
sbag1
(g198
g3
NtRp226
(dp227
g208
F-2.6378911471026369
sg209
g219
sg202
I7
sg211
F9.6726310105400035
sg212
g216
sbag1
(g198
g3
NtRp228
(dp229
g208
F-1.7484460821030985
sg209
g219
sg202
I8
sg211
F5.6766021838590426
sg212
g216
sbag1
(g198
g3
NtRp230
(dp231
g208
F6.5263660659205494
sg209
g219
sg202
I9
sg211
F4.5078845581707494
sg212
g216
sbag1
(g198
g3
NtRp232
(dp233
g208
F0.89910794580910414
sg209
g219
sg202
I10
sg211
F3.0793845536124271
sg212
g216
sbag1
(g198
g3
NtRp234
(dp235
g208
F-0.28059594659753384
sg209
g219
sg202
I11
sg211
F6.0024190573474456
sg212
g216
sbag1
(g198
g3
NtRp236
(dp237
g208
F1.2462557962665792
sg209
g219
sg202
I12
sg211
F12.814940118356535
sg212
g216
sbag1
(g198
g3
NtRp238
(dp239
g208
F-6.9620305114547936
sg209
g219
sg202
I13
sg211
F5.8333787768285204
sg212
g216
sbag1
(g198
g3
NtRp240
(dp241
g208
F1.6786777932428925
sg209
g219
sg202
I14
sg211
F5.7158511776391903
sg212
g216
sbag1
(g198
g3
NtRp242
(dp243
g208
F-0.93801744383858932
sg209
g219
sg202
I15
sg211
F4.8979668500977001
sg212
g216
sbag1
(g198
g3
NtRp244
(dp245
g208
F0.97050054249925455
sg209
g219
sg202
I16
sg211
F2.5483392165501462
sg212
g216
sbag1
(g198
g3
NtRp246
(dp247
g208
F-1.6905473797476209
sg209
g219
sg202
I17
sg211
F4.7065301625484386
sg212
g216
sbag1
(g198
g3
NtRp248
(dp249
g208
I0
sg209
g219
sg202
I18
sg211
F4.9242730000000003
sg212
g216
sbasb.