ccopy_reg
_reconstructor
p1
(cneat.chromosome
Chromosome
p2
c__builtin__
object
p3
NtRp4
(dp5
S'species_id'
p6
I83
sS'_connection_genes'
p7
(dp8
(I1
I3
tp9
g1
(cneat.genome
ConnectionGene
p10
g3
NtRp11
(dp12
S'_ConnectionGene__weight'
p13
F23.262209346283075
sS'_ConnectionGene__in'
p14
I1
sS'_ConnectionGene__enabled'
p15
I01
sS'_ConnectionGene__out'
p16
I3
sS'_ConnectionGene__innov_number'
p17
I3
sbs(I5
I6
tp18
g1
(g10
g3
NtRp19
(dp20
g13
F-6.0418212797492306
sg14
I5
sg15
I00
sg16
I6
sg17
I25
sbs(I11
I2
tp21
g1
(g10
g3
NtRp22
(dp23
g13
F-25.309225127663758
sg14
I11
sg15
I01
sg16
I2
sg17
I89
sbs(I16
I2
tp24
g1
(g10
g3
NtRp25
(dp26
g13
F-16.588663686771888
sg14
I16
sg15
I01
sg16
I2
sg17
I196
sbs(I8
I9
tp27
g1
(g10
g3
NtRp28
(dp29
g13
F-11.384401840036684
sg14
I8
sg15
I01
sg16
I9
sg17
I61
sbs(I6
I2
tp30
g1
(g10
g3
NtRp31
(dp32
g13
F-4.2762330084858036
sg14
I6
sg15
I01
sg16
I2
sg17
I18
sbs(I7
I16
tp33
g1
(g10
g3
NtRp34
(dp35
g13
F-2.9130994230418672
sg14
I7
sg15
I01
sg16
I16
sg17
I195
sbs(I3
I7
tp36
g1
(g10
g3
NtRp37
(dp38
g13
F-30
sg14
I3
sg15
I01
sg16
I7
sg17
I49
sbs(I7
I2
tp39
g1
(g10
g3
NtRp40
(dp41
g13
F-14.661560577442938
sg14
I7
sg15
I01
sg16
I2
sg17
I31
sbs(I1
I2
tp42
g1
(g10
g3
NtRp43
(dp44
g13
F-19.849847252817931
sg14
I1
sg15
I01
sg16
I2
sg17
I1
sbs(I6
I7
tp45
g1
(g10
g3
NtRp46
(dp47
g13
F5.1233364369834202
sg14
I6
sg15
I01
sg16
I7
sg17
I34
sbs(I3
I3
tp48
g1
(g10
g3
NtRp49
(dp50
g13
F18.767618940995451
sg14
I3
sg15
I01
sg16
I3
sg17
I8
sbs(I3
I10
tp51
g1
(g10
g3
NtRp52
(dp53
g13
F1.1500970729568234
sg14
I3
sg15
I01
sg16
I10
sg17
I76
sbs(I8
I10
tp54
g1
(g10
g3
NtRp55
(dp56
g13
F18.078671872735249
sg14
I8
sg15
I01
sg16
I10
sg17
I65
sbs(I3
I12
tp57
g1
(g10
g3
NtRp58
(dp59
g13
F28.788610181243886
sg14
I3
sg15
I01
sg16
I12
sg17
I105
sbs(I13
I7
tp60
g1
(g10
g3
NtRp61
(dp62
g13
F-22.405849922648674
sg14
I13
sg15
I01
sg16
I7
sg17
I108
sbs(I3
I14
tp63
g1
(g10
g3
NtRp64
(dp65
g13
F-18.218316865880283
sg14
I3
sg15
I01
sg16
I14
sg17
I133
sbs(I15
I3
tp66
g1
(g10
g3
NtRp67
(dp68
g13
F6.311673230081964
sg14
I15
sg15
I01
sg16
I3
sg17
I182
sbs(I5
I3
tp69
g1
(g10
g3
NtRp70
(dp71
g13
F24.901468776172557
sg14
I5
sg15
I01
sg16
I3
sg17
I15
sbs(I12
I3
tp72
g1
(g10
g3
NtRp73
(dp74
g13
F11.681829268577044
sg14
I12
sg15
I01
sg16
I3
sg17
I106
sbs(I13
I11
tp75
g1
(g10
g3
NtRp76
(dp77
g13
F-7.8316346070000105
sg14
I13
sg15
I01
sg16
I11
sg17
I215
sbs(I3
I2
tp78
g1
(g10
g3
NtRp79
(dp80
g13
F6.5587506304413488
sg14
I3
sg15
I00
sg16
I2
sg17
I4
sbs(I8
I2
tp81
g1
(g10
g3
NtRp82
(dp83
g13
F-18.203055242053228
sg14
I8
sg15
I01
sg16
I2
sg17
I46
sbs(I3
I13
tp84
g1
(g10
g3
NtRp85
(dp86
g13
F9.6845731062219649
sg14
I3
sg15
I01
sg16
I13
sg17
I107
sbs(I5
I17
tp87
g1
(g10
g3
NtRp88
(dp89
g13
F3.9873247064409552
sg14
I5
sg15
I01
sg16
I17
sg17
I211
sbs(I8
I11
tp90
g1
(g10
g3
NtRp91
(dp92
g13
F15.621200373994297
sg14
I8
sg15
I00
sg16
I11
sg17
I98
sbs(I9
I3
tp93
g1
(g10
g3
NtRp94
(dp95
g13
F-5.0402639140317165
sg14
I9
sg15
I01
sg16
I3
sg17
I60
sbs(I12
I15
tp96
g1
(g10
g3
NtRp97
(dp98
g13
F-3.4875879288255667
sg14
I12
sg15
I01
sg16
I15
sg17
I185
sbs(I1
I4
tp99
g1
(g10
g3
NtRp100
(dp101
g13
F12.079371043432184
sg14
I1
sg15
I01
sg16
I4
sg17
I6
sbs(I2
I10
tp102
g1
(g10
g3
NtRp103
(dp104
g13
F-20.4293609241452
sg14
I2
sg15
I01
sg16
I10
sg17
I69
sbs(I7
I5
tp105
g1
(g10
g3
NtRp106
(dp107
g13
F12.002274581547764
sg14
I7
sg15
I01
sg16
I5
sg17
I50
sbs(I16
I16
tp108
g1
(g10
g3
NtRp109
(dp110
g13
F12.560600353829596
sg14
I16
sg15
I01
sg16
I16
sg17
I204
sbs(I17
I6
tp111
g1
(g10
g3
NtRp112
(dp113
g13
F-11.807521218420449
sg14
I17
sg15
I01
sg16
I6
sg17
I221
sbs(I5
I8
tp114
g1
(g10
g3
NtRp115
(dp116
g13
F-3.8917835078874119
sg14
I5
sg15
I01
sg16
I8
sg17
I45
sbs(I14
I2
tp117
g1
(g10
g3
NtRp118
(dp119
g13
F-10.440410500128186
sg14
I14
sg15
I01
sg16
I2
sg17
I125
sbs(I3
I5
tp120
g1
(g10
g3
NtRp121
(dp122
g13
F18.059517984399893
sg14
I3
sg15
I01
sg16
I5
sg17
I12
sbs(I8
I3
tp123
g1
(g10
g3
NtRp124
(dp125
g13
F10.862228029612277
sg14
I8
sg15
I01
sg16
I3
sg17
I39
sbs(I5
I10
tp126
g1
(g10
g3
NtRp127
(dp128
g13
F-13.270036986738537
sg14
I5
sg15
I01
sg16
I10
sg17
I67
sbs(I13
I14
tp129
g1
(g10
g3
NtRp130
(dp131
g13
F-7.2068250949863062
sg14
I13
sg15
I01
sg16
I14
sg17
I189
sbs(I5
I2
tp132
g1
(g10
g3
NtRp133
(dp134
g13
F-15.219153695223618
sg14
I5
sg15
I01
sg16
I2
sg17
I21
sbs(I8
I18
tp135
g1
(g10
g3
NtRp136
(dp137
g13
F-1.2368672673404599
sg14
I8
sg15
I01
sg16
I18
sg17
I231
sbs(I4
I3
tp138
g1
(g10
g3
NtRp139
(dp140
g13
F22.143459226795258
sg14
I4
sg15
I01
sg16
I3
sg17
I10
sbs(I8
I15
tp141
g1
(g10
g3
NtRp142
(dp143
g13
F-0.062240926093703353
sg14
I8
sg15
I01
sg16
I15
sg17
I154
sbs(I18
I11
tp144
g1
(g10
g3
NtRp145
(dp146
g13
F19.179349627375519
sg14
I18
sg15
I01
sg16
I11
sg17
I232
sbs(I2
I4
tp147
g1
(g10
g3
NtRp148
(dp149
g13
F-14.122030895950306
sg14
I2
sg15
I01
sg16
I4
sg17
I16
sbs(I10
I2
tp150
g1
(g10
g3
NtRp151
(dp152
g13
F-29.62180073827049
sg14
I10
sg15
I01
sg16
I2
sg17
I66
sbssS'_input_nodes'
p153
I1
sS'_output_nodes'
p154
I1
sS'_node_gene_type'
p155
cneat.genome
NodeGene
p156
sS'_conn_gene_type'
p157
g10
sS'fitness'
p158
F0.99486890314949328
sS'parent2_id'
p159
I12555
sS'_id'
p160
I12597
sS'parent1_id'
p161
I12555
sS'_node_genes'
p162
(lp163
g1
(g156
g3
NtRp164
(dp165
S'_bias'
p166
I0
sS'_type'
p167
S'INPUT'
p168
sg160
I1
sS'_response'
p169
F4.9242730000000003
sS'_activation_type'
p170
Nsbag1
(g156
g3
NtRp171
(dp172
g166
F-1.9372635314756865
sg167
S'OUTPUT'
p173
sg160
I2
sg169
F2.8394988719519314
sg170
S'tanh'
p174
sbag1
(g156
g3
NtRp175
(dp176
g166
F1.960192112484016
sg167
S'HIDDEN'
p177
sg160
I3
sg169
F-4.3774328278514592
sg170
g174
sbag1
(g156
g3
NtRp178
(dp179
g166
F-4.0412009680970309
sg167
g177
sg160
I4
sg169
F5.9891172471930405
sg170
g174
sbag1
(g156
g3
NtRp180
(dp181
g166
F1.1714510041663428
sg167
g177
sg160
I5
sg169
F7.4023321623245746
sg170
g174
sbag1
(g156
g3
NtRp182
(dp183
g166
F-4.3317044736244572
sg167
g177
sg160
I6
sg169
F3.7030416840205533
sg170
g174
sbag1
(g156
g3
NtRp184
(dp185
g166
F-1.7161960801519591
sg167
g177
sg160
I7
sg169
F4.7321846161913124
sg170
g174
sbag1
(g156
g3
NtRp186
(dp187
g166
F-0.32032157325114963
sg167
g177
sg160
I8
sg169
F2.7793782177026096
sg170
g174
sbag1
(g156
g3
NtRp188
(dp189
g166
F1.2787343621616691
sg167
g177
sg160
I9
sg169
F3.22921172573046
sg170
g174
sbag1
(g156
g3
NtRp190
(dp191
g166
F-1.2241891515011303
sg167
g177
sg160
I10
sg169
F2.4996525612651972
sg170
g174
sbag1
(g156
g3
NtRp192
(dp193
g166
F-0.33830264592013459
sg167
g177
sg160
I11
sg169
F6.7425284330642983
sg170
g174
sbag1
(g156
g3
NtRp194
(dp195
g166
F-0.41849463774470652
sg167
g177
sg160
I12
sg169
F7.0452594742621022
sg170
g174
sbag1
(g156
g3
NtRp196
(dp197
g166
F-0.94922458904412421
sg167
g177
sg160
I13
sg169
F1.2453234841626744
sg170
g174
sbag1
(g156
g3
NtRp198
(dp199
g166
F2.28591952031829
sg167
g177
sg160
I14
sg169
F2.9870788763300382
sg170
g174
sbag1
(g156
g3
NtRp200
(dp201
g166
F-1.1391066316998482
sg167
g177
sg160
I15
sg169
F5.6370819210356018
sg170
g174
sbag1
(g156
g3
NtRp202
(dp203
g166
F0.35001386887129299
sg167
g177
sg160
I16
sg169
F2.2818734715742677
sg170
g174
sbag1
(g156
g3
NtRp204
(dp205
g166
F-1.7363768389358567
sg167
g177
sg160
I17
sg169
F2.5219862820841388
sg170
g174
sbag1
(g156
g3
NtRp206
(dp207
g166
F-0.019210520401426234
sg167
g177
sg160
I18
sg169
F5.5260847904688859
sg170
g174
sbasb.