ccopy_reg
_reconstructor
p1
(cneat.chromosome
Chromosome
p2
c__builtin__
object
p3
NtRp4
(dp5
S'species_id'
p6
I33
sS'_connection_genes'
p7
(dp8
(I1
I2
tp9
g1
(cneat.genome
ConnectionGene
p10
g3
NtRp11
(dp12
S'_ConnectionGene__weight'
p13
F-26.861140208924976
sS'_ConnectionGene__in'
p14
I1
sS'_ConnectionGene__enabled'
p15
I01
sS'_ConnectionGene__out'
p16
I2
sS'_ConnectionGene__innov_number'
p17
I1
sbs(I7
I3
tp18
g1
(g10
g3
NtRp19
(dp20
g13
F22.794931414924722
sg14
I7
sg15
I01
sg16
I3
sg17
I36
sbs(I3
I2
tp21
g1
(g10
g3
NtRp22
(dp23
g13
F8.1975608903155308
sg14
I3
sg15
I00
sg16
I2
sg17
I4
sbs(I1
I3
tp24
g1
(g10
g3
NtRp25
(dp26
g13
F7.9292130672983498
sg14
I1
sg15
I01
sg16
I3
sg17
I3
sbs(I3
I3
tp27
g1
(g10
g3
NtRp28
(dp29
g13
F9.4885054592503444
sg14
I3
sg15
I01
sg16
I3
sg17
I8
sbs(I4
I8
tp30
g1
(g10
g3
NtRp31
(dp32
g13
F3.6156598463030036
sg14
I4
sg15
I01
sg16
I8
sg17
I38
sbs(I4
I4
tp33
g1
(g10
g3
NtRp34
(dp35
g13
F3.0629394334714464
sg14
I4
sg15
I01
sg16
I4
sg17
I11
sbs(I4
I7
tp36
g1
(g10
g3
NtRp37
(dp38
g13
F10.80036987452908
sg14
I4
sg15
I01
sg16
I7
sg17
I35
sbs(I1
I4
tp39
g1
(g10
g3
NtRp40
(dp41
g13
F8.5485129668796862
sg14
I1
sg15
I01
sg16
I4
sg17
I6
sbs(I6
I3
tp42
g1
(g10
g3
NtRp43
(dp44
g13
F21.666274673142073
sg14
I6
sg15
I01
sg16
I3
sg17
I23
sbs(I1
I6
tp45
g1
(g10
g3
NtRp46
(dp47
g13
F5.5139024619544799
sg14
I1
sg15
I01
sg16
I6
sg17
I27
sbs(I4
I3
tp48
g1
(g10
g3
NtRp49
(dp50
g13
F15.566585930944527
sg14
I4
sg15
I01
sg16
I3
sg17
I10
sbs(I8
I3
tp51
g1
(g10
g3
NtRp52
(dp53
g13
F16.120321926176945
sg14
I8
sg15
I01
sg16
I3
sg17
I39
sbs(I3
I5
tp54
g1
(g10
g3
NtRp55
(dp56
g13
F10.16111678103232
sg14
I3
sg15
I01
sg16
I5
sg17
I12
sbs(I5
I2
tp57
g1
(g10
g3
NtRp58
(dp59
g13
F16.008168853146582
sg14
I5
sg15
I01
sg16
I2
sg17
I21
sbs(I2
I4
tp60
g1
(g10
g3
NtRp61
(dp62
g13
F1.0039513135861073
sg14
I2
sg15
I01
sg16
I4
sg17
I16
sbs(I5
I3
tp63
g1
(g10
g3
NtRp64
(dp65
g13
F-2.4055919099424208
sg14
I5
sg15
I01
sg16
I3
sg17
I15
sbssS'_input_nodes'
p66
I1
sS'_output_nodes'
p67
I1
sS'_node_gene_type'
p68
cneat.genome
NodeGene
p69
sS'_conn_gene_type'
p70
g10
sS'fitness'
p71
F0.99108701680512434
sS'parent2_id'
p72
I4938
sS'_id'
p73
I5054
sS'parent1_id'
p74
I4982
sS'_node_genes'
p75
(lp76
g1
(g69
g3
NtRp77
(dp78
S'_bias'
p79
I0
sS'_type'
p80
S'INPUT'
p81
sg73
I1
sS'_response'
p82
F4.9242730000000003
sS'_activation_type'
p83
Nsbag1
(g69
g3
NtRp84
(dp85
g79
F-0.47242712267271042
sg80
S'OUTPUT'
p86
sg73
I2
sg82
F3.6611680502142558
sg83
S'tanh'
p87
sbag1
(g69
g3
NtRp88
(dp89
g79
F-0.45871318545390433
sg80
S'HIDDEN'
p90
sg73
I3
sg82
F1.1617533816958461
sg83
g87
sbag1
(g69
g3
NtRp91
(dp92
g79
F-1.6828022031809524
sg80
g90
sg73
I4
sg82
F8.8877009249905665
sg83
g87
sbag1
(g69
g3
NtRp93
(dp94
g79
F0.24249368288575404
sg80
g90
sg73
I5
sg82
F4.8369747683943629
sg83
g87
sbag1
(g69
g3
NtRp95
(dp96
g79
F-0.044637776509468652
sg80
g90
sg73
I6
sg82
F6.0130132859473528
sg83
g87
sbag1
(g69
g3
NtRp97
(dp98
g79
F1.4763086848696372
sg80
g90
sg73
I7
sg82
F4.5018740864022559
sg83
g87
sbag1
(g69
g3
NtRp99
(dp100
g79
F0.51377612655506422
sg80
g90
sg73
I8
sg82
F6.3773923117288085
sg83
g87
sbasb.