ccopy_reg
_reconstructor
p1
(cneat.chromosome
Chromosome
p2
c__builtin__
object
p3
NtRp4
(dp5
S'species_id'
p6
I104
sS'_connection_genes'
p7
(dp8
(I7
I3
tp9
g1
(cneat.genome
ConnectionGene
p10
g3
NtRp11
(dp12
S'_ConnectionGene__weight'
p13
F18.224062239562091
sS'_ConnectionGene__in'
p14
I7
sS'_ConnectionGene__enabled'
p15
I01
sS'_ConnectionGene__out'
p16
I3
sS'_ConnectionGene__innov_number'
p17
I36
sbs(I1
I3
tp18
g1
(g10
g3
NtRp19
(dp20
g13
F-7.3008182593767748
sg14
I1
sg15
I01
sg16
I3
sg17
I3
sbs(I5
I9
tp21
g1
(g10
g3
NtRp22
(dp23
g13
F7.1705771157783431
sg14
I5
sg15
I01
sg16
I9
sg17
I100
sbs(I11
I2
tp24
g1
(g10
g3
NtRp25
(dp26
g13
F18.185059465772241
sg14
I11
sg15
I01
sg16
I2
sg17
I89
sbs(I3
I2
tp27
g1
(g10
g3
NtRp28
(dp29
g13
F14.655572083117312
sg14
I3
sg15
I01
sg16
I2
sg17
I4
sbs(I11
I8
tp30
g1
(g10
g3
NtRp31
(dp32
g13
F-16.760391728154683
sg14
I11
sg15
I01
sg16
I8
sg17
I91
sbs(I13
I8
tp33
g1
(g10
g3
NtRp34
(dp35
g13
F-7.0265869684018361
sg14
I13
sg15
I01
sg16
I8
sg17
I177
sbs(I3
I7
tp36
g1
(g10
g3
NtRp37
(dp38
g13
F-8.4703524843278473
sg14
I3
sg15
I01
sg16
I7
sg17
I49
sbs(I1
I11
tp39
g1
(g10
g3
NtRp40
(dp41
g13
F-6.4521583476106956
sg14
I1
sg15
I01
sg16
I11
sg17
I88
sbs(I5
I8
tp42
g1
(g10
g3
NtRp43
(dp44
g13
F10.719181850447836
sg14
I5
sg15
I01
sg16
I8
sg17
I45
sbs(I1
I2
tp45
g1
(g10
g3
NtRp46
(dp47
g13
F-20.107540311772382
sg14
I1
sg15
I01
sg16
I2
sg17
I1
sbs(I12
I2
tp48
g1
(g10
g3
NtRp49
(dp50
g13
F20.37249028867484
sg14
I12
sg15
I01
sg16
I2
sg17
I104
sbs(I4
I9
tp51
g1
(g10
g3
NtRp52
(dp53
g13
F-9.9916436841104019
sg14
I4
sg15
I01
sg16
I9
sg17
I57
sbs(I3
I3
tp54
g1
(g10
g3
NtRp55
(dp56
g13
F1.1665170883053886
sg14
I3
sg15
I01
sg16
I3
sg17
I8
sbs(I2
I9
tp57
g1
(g10
g3
NtRp58
(dp59
g13
F-0.40705418991748421
sg14
I2
sg15
I01
sg16
I9
sg17
I144
sbs(I13
I3
tp60
g1
(g10
g3
NtRp61
(dp62
g13
F28.95285708918825
sg14
I13
sg15
I00
sg16
I3
sg17
I117
sbs(I3
I10
tp63
g1
(g10
g3
NtRp64
(dp65
g13
F-25.737880818179331
sg14
I3
sg15
I01
sg16
I10
sg17
I76
sbs(I4
I4
tp66
g1
(g10
g3
NtRp67
(dp68
g13
F-1.5222762824800848
sg14
I4
sg15
I00
sg16
I4
sg17
I11
sbs(I10
I12
tp69
g1
(g10
g3
NtRp70
(dp71
g13
F-5.8518040428286184
sg14
I10
sg15
I01
sg16
I12
sg17
I111
sbs(I4
I8
tp72
g1
(g10
g3
NtRp73
(dp74
g13
F3.2553432779079201
sg14
I4
sg15
I01
sg16
I8
sg17
I38
sbs(I2
I13
tp75
g1
(g10
g3
NtRp76
(dp77
g13
F-1.3582671010128584
sg14
I2
sg15
I01
sg16
I13
sg17
I176
sbs(I4
I11
tp78
g1
(g10
g3
NtRp79
(dp80
g13
F-6.8270853038465491
sg14
I4
sg15
I01
sg16
I11
sg17
I86
sbs(I3
I6
tp81
g1
(g10
g3
NtRp82
(dp83
g13
F-2.6552150263760086
sg14
I3
sg15
I01
sg16
I6
sg17
I22
sbs(I2
I2
tp84
g1
(g10
g3
NtRp85
(dp86
g13
F5.7673715973437947
sg14
I2
sg15
I01
sg16
I2
sg17
I2
sbs(I3
I5
tp87
g1
(g10
g3
NtRp88
(dp89
g13
F26.77666565767834
sg14
I3
sg15
I01
sg16
I5
sg17
I12
sbs(I5
I4
tp90
g1
(g10
g3
NtRp91
(dp92
g13
F17.236098665409489
sg14
I5
sg15
I01
sg16
I4
sg17
I13
sbs(I6
I6
tp93
g1
(g10
g3
NtRp94
(dp95
g13
F-6.0631687212506522
sg14
I6
sg15
I01
sg16
I6
sg17
I37
sbs(I5
I11
tp96
g1
(g10
g3
NtRp97
(dp98
g13
F24.859561455013587
sg14
I5
sg15
I01
sg16
I11
sg17
I90
sbs(I9
I3
tp99
g1
(g10
g3
NtRp100
(dp101
g13
F-29.400243817944151
sg14
I9
sg15
I01
sg16
I3
sg17
I60
sbs(I2
I3
tp102
g1
(g10
g3
NtRp103
(dp104
g13
F19.91455979642198
sg14
I2
sg15
I01
sg16
I3
sg17
I5
sbs(I1
I9
tp105
g1
(g10
g3
NtRp106
(dp107
g13
F23.830879879474431
sg14
I1
sg15
I01
sg16
I9
sg17
I47
sbs(I4
I2
tp108
g1
(g10
g3
NtRp109
(dp110
g13
F-11.40097586033218
sg14
I4
sg15
I01
sg16
I2
sg17
I7
sbs(I6
I5
tp111
g1
(g10
g3
NtRp112
(dp113
g13
F-26.423757280590589
sg14
I6
sg15
I01
sg16
I5
sg17
I28
sbs(I5
I3
tp114
g1
(g10
g3
NtRp115
(dp116
g13
F5.7723316119095376
sg14
I5
sg15
I01
sg16
I3
sg17
I15
sbs(I10
I5
tp117
g1
(g10
g3
NtRp118
(dp119
g13
F-3.8227936179508819
sg14
I10
sg15
I01
sg16
I5
sg17
I79
sbs(I13
I14
tp120
g1
(g10
g3
NtRp121
(dp122
g13
F-3.0879792498129524
sg14
I13
sg15
I01
sg16
I14
sg17
I189
sbs(I9
I9
tp123
g1
(g10
g3
NtRp124
(dp125
g13
F-1.0322504023378598
sg14
I9
sg15
I01
sg16
I9
sg17
I73
sbs(I9
I2
tp126
g1
(g10
g3
NtRp127
(dp128
g13
F-5.7169419893810574
sg14
I9
sg15
I01
sg16
I2
sg17
I48
sbs(I12
I4
tp129
g1
(g10
g3
NtRp130
(dp131
g13
F-7.9626843765145141
sg14
I12
sg15
I01
sg16
I4
sg17
I115
sbs(I4
I3
tp132
g1
(g10
g3
NtRp133
(dp134
g13
F-24.07702607436935
sg14
I4
sg15
I01
sg16
I3
sg17
I10
sbs(I14
I3
tp135
g1
(g10
g3
NtRp136
(dp137
g13
F25.042431501992652
sg14
I14
sg15
I01
sg16
I3
sg17
I132
sbs(I8
I4
tp138
g1
(g10
g3
NtRp139
(dp140
g13
F-9.9849897046598937
sg14
I8
sg15
I01
sg16
I4
sg17
I41
sbs(I5
I2
tp141
g1
(g10
g3
NtRp142
(dp143
g13
F10.860649387888769
sg14
I5
sg15
I01
sg16
I2
sg17
I21
sbs(I2
I4
tp144
g1
(g10
g3
NtRp145
(dp146
g13
F8.9982056377676738
sg14
I2
sg15
I01
sg16
I4
sg17
I16
sbs(I10
I2
tp147
g1
(g10
g3
NtRp148
(dp149
g13
F20.899900091074393
sg14
I10
sg15
I01
sg16
I2
sg17
I66
sbssS'_input_nodes'
p150
I1
sS'_output_nodes'
p151
I1
sS'_node_gene_type'
p152
cneat.genome
NodeGene
p153
sS'_conn_gene_type'
p154
g10
sS'fitness'
p155
F0.95709658032849465
sS'parent2_id'
p156
I15431
sS'_id'
p157
I15521
sS'parent1_id'
p158
I15431
sS'_node_genes'
p159
(lp160
g1
(g153
g3
NtRp161
(dp162
S'_bias'
p163
I0
sS'_type'
p164
S'INPUT'
p165
sg157
I1
sS'_response'
p166
F4.9242730000000003
sS'_activation_type'
p167
Nsbag1
(g153
g3
NtRp168
(dp169
g163
F-0.75253143111349174
sg164
S'OUTPUT'
p170
sg157
I2
sg166
F5.0274651883646815
sg167
S'tanh'
p171
sbag1
(g153
g3
NtRp172
(dp173
g163
F-3.9324238320993903
sg164
S'HIDDEN'
p174
sg157
I3
sg166
F5.0985571531469613
sg167
g171
sbag1
(g153
g3
NtRp175
(dp176
g163
F2.6750674425308811
sg164
g174
sg157
I4
sg166
F5.1620835430820797
sg167
g171
sbag1
(g153
g3
NtRp177
(dp178
g163
F-2.9854907286778767
sg164
g174
sg157
I5
sg166
F5.9239136545285911
sg167
g171
sbag1
(g153
g3
NtRp179
(dp180
g163
F2.6923370816429149
sg164
g174
sg157
I6
sg166
F9.6051099596646683
sg167
g171
sbag1
(g153
g3
NtRp181
(dp182
g163
F-2.5091045065823239
sg164
g174
sg157
I7
sg166
F12.316357521623416
sg167
g171
sbag1
(g153
g3
NtRp183
(dp184
g163
F-5.951911745802521
sg164
g174
sg157
I8
sg166
F3.1724663120557413
sg167
g171
sbag1
(g153
g3
NtRp185
(dp186
g163
F4.3059721226611511
sg164
g174
sg157
I9
sg166
F5.784852648632727
sg167
g171
sbag1
(g153
g3
NtRp187
(dp188
g163
F-0.51406544717908809
sg164
g174
sg157
I10
sg166
F4.7833907557661819
sg167
g171
sbag1
(g153
g3
NtRp189
(dp190
g163
F-0.6208994850300722
sg164
g174
sg157
I11
sg166
F6.8486936541214964
sg167
g171
sbag1
(g153
g3
NtRp191
(dp192
g163
F-0.15236465437530311
sg164
g174
sg157
I12
sg166
F9.3779388451058932
sg167
g171
sbag1
(g153
g3
NtRp193
(dp194
g163
F-0.71490081923829041
sg164
g174
sg157
I13
sg166
F6.0629150432313814
sg167
g171
sbag1
(g153
g3
NtRp195
(dp196
g163
F-0.099417734980698155
sg164
g174
sg157
I14
sg166
F2.8563179352140491
sg167
g171
sbasb.