ccopy_reg
_reconstructor
p1
(cneat.chromosome
Chromosome
p2
c__builtin__
object
p3
NtRp4
(dp5
S'species_id'
p6
I146
sS'_connection_genes'
p7
(dp8
(I7
I3
tp9
g1
(cneat.genome
ConnectionGene
p10
g3
NtRp11
(dp12
S'_ConnectionGene__weight'
p13
F8.2800150841954263
sS'_ConnectionGene__in'
p14
I7
sS'_ConnectionGene__enabled'
p15
I01
sS'_ConnectionGene__out'
p16
I3
sS'_ConnectionGene__innov_number'
p17
I36
sbs(I1
I3
tp18
g1
(g10
g3
NtRp19
(dp20
g13
F-13.144617932706726
sg14
I1
sg15
I01
sg16
I3
sg17
I3
sbs(I5
I9
tp21
g1
(g10
g3
NtRp22
(dp23
g13
F1.8839257003661365
sg14
I5
sg15
I01
sg16
I9
sg17
I100
sbs(I16
I9
tp24
g1
(g10
g3
NtRp25
(dp26
g13
F21.565359186988388
sg14
I16
sg15
I01
sg16
I9
sg17
I236
sbs(I4
I21
tp27
g1
(g10
g3
NtRp28
(dp29
g13
F6.5142058743799716
sg14
I4
sg15
I01
sg16
I21
sg17
I332
sbs(I18
I9
tp30
g1
(g10
g3
NtRp31
(dp32
g13
F-21.887960874369256
sg14
I18
sg15
I01
sg16
I9
sg17
I268
sbs(I24
I19
tp33
g1
(g10
g3
NtRp34
(dp35
g13
F12.109921288036702
sg14
I24
sg15
I01
sg16
I19
sg17
I423
sbs(I3
I25
tp36
g1
(g10
g3
NtRp37
(dp38
g13
F2.4958280892530187
sg14
I3
sg15
I01
sg16
I25
sg17
I452
sbs(I4
I22
tp39
g1
(g10
g3
NtRp40
(dp41
g13
F11.357330373674658
sg14
I4
sg15
I01
sg16
I22
sg17
I371
sbs(I2
I12
tp42
g1
(g10
g3
NtRp43
(dp44
g13
F5.9346643584890906
sg14
I2
sg15
I01
sg16
I12
sg17
I135
sbs(I7
I11
tp45
g1
(g10
g3
NtRp46
(dp47
g13
F3.1889181364859405
sg14
I7
sg15
I01
sg16
I11
sg17
I92
sbs(I3
I7
tp48
g1
(g10
g3
NtRp49
(dp50
g13
F22.789020263513859
sg14
I3
sg15
I01
sg16
I7
sg17
I49
sbs(I14
I9
tp51
g1
(g10
g3
NtRp52
(dp53
g13
F22.178185523114067
sg14
I14
sg15
I01
sg16
I9
sg17
I130
sbs(I5
I8
tp54
g1
(g10
g3
NtRp55
(dp56
g13
F5.5945826079046341
sg14
I5
sg15
I01
sg16
I8
sg17
I45
sbs(I6
I14
tp57
g1
(g10
g3
NtRp58
(dp59
g13
F-27.335829824368485
sg14
I6
sg15
I01
sg16
I14
sg17
I165
sbs(I1
I2
tp60
g1
(g10
g3
NtRp61
(dp62
g13
F-25.860229287986353
sg14
I1
sg15
I01
sg16
I2
sg17
I1
sbs(I12
I2
tp63
g1
(g10
g3
NtRp64
(dp65
g13
F22.494385284696669
sg14
I12
sg15
I01
sg16
I2
sg17
I104
sbs(I20
I12
tp66
g1
(g10
g3
NtRp67
(dp68
g13
F-28.586673265488297
sg14
I20
sg15
I01
sg16
I12
sg17
I328
sbs(I4
I9
tp69
g1
(g10
g3
NtRp70
(dp71
g13
F-8.3649912818956143
sg14
I4
sg15
I01
sg16
I9
sg17
I57
sbs(I3
I3
tp72
g1
(g10
g3
NtRp73
(dp74
g13
F-14.601886085104665
sg14
I3
sg15
I01
sg16
I3
sg17
I8
sbs(I2
I9
tp75
g1
(g10
g3
NtRp76
(dp77
g13
F5.7912178943704857
sg14
I2
sg15
I01
sg16
I9
sg17
I144
sbs(I23
I17
tp78
g1
(g10
g3
NtRp79
(dp80
g13
F1.3252187102116271
sg14
I23
sg15
I01
sg16
I17
sg17
I382
sbs(I3
I10
tp81
g1
(g10
g3
NtRp82
(dp83
g13
F19.565724870689049
sg14
I3
sg15
I00
sg16
I10
sg17
I76
sbs(I4
I4
tp84
g1
(g10
g3
NtRp85
(dp86
g13
F-10.542186394620135
sg14
I4
sg15
I00
sg16
I4
sg17
I11
sbs(I10
I12
tp87
g1
(g10
g3
NtRp88
(dp89
g13
F-14.029695034323701
sg14
I10
sg15
I01
sg16
I12
sg17
I111
sbs(I21
I8
tp90
g1
(g10
g3
NtRp91
(dp92
g13
F-16.138053432301284
sg14
I21
sg15
I01
sg16
I8
sg17
I333
sbs(I10
I18
tp93
g1
(g10
g3
NtRp94
(dp95
g13
F12.46148335923702
sg14
I10
sg15
I01
sg16
I18
sg17
I226
sbs(I17
I2
tp96
g1
(g10
g3
NtRp97
(dp98
g13
F-7.0206760047559769
sg14
I17
sg15
I01
sg16
I2
sg17
I202
sbs(I4
I8
tp99
g1
(g10
g3
NtRp100
(dp101
g13
F-24.133737495095101
sg14
I4
sg15
I01
sg16
I8
sg17
I38
sbs(I13
I7
tp102
g1
(g10
g3
NtRp103
(dp104
g13
F-19.299961500493367
sg14
I13
sg15
I01
sg16
I7
sg17
I108
sbs(I9
I17
tp105
g1
(g10
g3
NtRp106
(dp107
g13
F9.7257682505964116
sg14
I9
sg15
I01
sg16
I17
sg17
I258
sbs(I3
I6
tp108
g1
(g10
g3
NtRp109
(dp110
g13
F-17.505400177896426
sg14
I3
sg15
I01
sg16
I6
sg17
I22
sbs(I2
I2
tp111
g1
(g10
g3
NtRp112
(dp113
g13
F22.873025563570213
sg14
I2
sg15
I01
sg16
I2
sg17
I2
sbs(I15
I4
tp114
g1
(g10
g3
NtRp115
(dp116
g13
F-0.51756821926207941
sg14
I15
sg15
I01
sg16
I4
sg17
I173
sbs(I9
I24
tp117
g1
(g10
g3
NtRp118
(dp119
g13
F3.0106822976244878
sg14
I9
sg15
I01
sg16
I24
sg17
I422
sbs(I3
I5
tp120
g1
(g10
g3
NtRp121
(dp122
g13
F-6.0006434912291917
sg14
I3
sg15
I01
sg16
I5
sg17
I12
sbs(I10
I2
tp123
g1
(g10
g3
NtRp124
(dp125
g13
F12.461683835124919
sg14
I10
sg15
I01
sg16
I2
sg17
I66
sbs(I15
I12
tp126
g1
(g10
g3
NtRp127
(dp128
g13
F11.651639451383861
sg14
I15
sg15
I01
sg16
I12
sg17
I159
sbs(I3
I2
tp129
g1
(g10
g3
NtRp130
(dp131
g13
F12.970126858626045
sg14
I3
sg15
I01
sg16
I2
sg17
I4
sbs(I6
I6
tp132
g1
(g10
g3
NtRp133
(dp134
g13
F6.8164785605237519
sg14
I6
sg15
I01
sg16
I6
sg17
I37
sbs(I12
I14
tp135
g1
(g10
g3
NtRp136
(dp137
g13
F-29.125323959152887
sg14
I12
sg15
I01
sg16
I14
sg17
I131
sbs(I3
I13
tp138
g1
(g10
g3
NtRp139
(dp140
g13
F17.277399657203105
sg14
I3
sg15
I01
sg16
I13
sg17
I107
sbs(I9
I3
tp141
g1
(g10
g3
NtRp142
(dp143
g13
F-22.094452748010294
sg14
I9
sg15
I01
sg16
I3
sg17
I60
sbs(I22
I4
tp144
g1
(g10
g3
NtRp145
(dp146
g13
F0.57555505384565575
sg14
I22
sg15
I01
sg16
I4
sg17
I356
sbs(I9
I16
tp147
g1
(g10
g3
NtRp148
(dp149
g13
F26.325087625129381
sg14
I9
sg15
I01
sg16
I16
sg17
I240
sbs(I1
I19
tp150
g1
(g10
g3
NtRp151
(dp152
g13
F26.795440934721562
sg14
I1
sg15
I01
sg16
I19
sg17
I304
sbs(I2
I3
tp153
g1
(g10
g3
NtRp154
(dp155
g13
F17.444942113195925
sg14
I2
sg15
I01
sg16
I3
sg17
I5
sbs(I1
I9
tp156
g1
(g10
g3
NtRp157
(dp158
g13
F14.567647354360243
sg14
I1
sg15
I01
sg16
I9
sg17
I47
sbs(I5
I11
tp159
g1
(g10
g3
NtRp160
(dp161
g13
F-0.61791015235764135
sg14
I5
sg15
I01
sg16
I11
sg17
I90
sbs(I5
I4
tp162
g1
(g10
g3
NtRp163
(dp164
g13
F-5.3047014326360618
sg14
I5
sg15
I01
sg16
I4
sg17
I13
sbs(I4
I2
tp165
g1
(g10
g3
NtRp166
(dp167
g13
F-27.991948492628698
sg14
I4
sg15
I01
sg16
I2
sg17
I7
sbs(I14
I2
tp168
g1
(g10
g3
NtRp169
(dp170
g13
F29.578590763501353
sg14
I14
sg15
I01
sg16
I2
sg17
I125
sbs(I12
I22
tp171
g1
(g10
g3
NtRp172
(dp173
g13
F4.842721665892098
sg14
I12
sg15
I01
sg16
I22
sg17
I436
sbs(I4
I11
tp174
g1
(g10
g3
NtRp175
(dp176
g13
F-5.6838641934351912
sg14
I4
sg15
I01
sg16
I11
sg17
I86
sbs(I18
I10
tp177
g1
(g10
g3
NtRp178
(dp179
g13
F-2.2524434225274619
sg14
I18
sg15
I01
sg16
I10
sg17
I294
sbs(I25
I10
tp180
g1
(g10
g3
NtRp181
(dp182
g13
F20.563465508914909
sg14
I25
sg15
I01
sg16
I10
sg17
I453
sbs(I10
I5
tp183
g1
(g10
g3
NtRp184
(dp185
g13
F25.604076979803612
sg14
I10
sg15
I01
sg16
I5
sg17
I79
sbs(I19
I9
tp186
g1
(g10
g3
NtRp187
(dp188
g13
F26.649943896742165
sg14
I19
sg15
I01
sg16
I9
sg17
I290
sbs(I6
I5
tp189
g1
(g10
g3
NtRp190
(dp191
g13
F-1.260983809411014
sg14
I6
sg15
I01
sg16
I5
sg17
I28
sbs(I9
I2
tp192
g1
(g10
g3
NtRp193
(dp194
g13
F-20.294494552407063
sg14
I9
sg15
I01
sg16
I2
sg17
I48
sbs(I7
I14
tp195
g1
(g10
g3
NtRp196
(dp197
g13
F-5.0732761988723709
sg14
I7
sg15
I01
sg16
I14
sg17
I162
sbs(I9
I9
tp198
g1
(g10
g3
NtRp199
(dp200
g13
F17.440839224022213
sg14
I9
sg15
I01
sg16
I9
sg17
I73
sbs(I9
I23
tp201
g1
(g10
g3
NtRp202
(dp203
g13
F23.768024645772449
sg14
I9
sg15
I01
sg16
I23
sg17
I381
sbs(I18
I7
tp204
g1
(g10
g3
NtRp205
(dp206
g13
F12.373178922661776
sg14
I18
sg15
I01
sg16
I7
sg17
I272
sbs(I11
I8
tp207
g1
(g10
g3
NtRp208
(dp209
g13
F-17.605799757157751
sg14
I11
sg15
I01
sg16
I8
sg17
I91
sbs(I13
I18
tp210
g1
(g10
g3
NtRp211
(dp212
g13
F8.1713174801314299
sg14
I13
sg15
I01
sg16
I18
sg17
I271
sbs(I10
I20
tp213
g1
(g10
g3
NtRp214
(dp215
g13
F9.5287513088217519
sg14
I10
sg15
I01
sg16
I20
sg17
I327
sbs(I4
I3
tp216
g1
(g10
g3
NtRp217
(dp218
g13
F7.5546421283219614
sg14
I4
sg15
I01
sg16
I3
sg17
I10
sbs(I2
I15
tp219
g1
(g10
g3
NtRp220
(dp221
g13
F-9.8583104234142418
sg14
I2
sg15
I01
sg16
I15
sg17
I172
sbs(I9
I19
tp222
g1
(g10
g3
NtRp223
(dp224
g13
F8.5584322509306308
sg14
I9
sg15
I01
sg16
I19
sg17
I312
sbs(I5
I2
tp225
g1
(g10
g3
NtRp226
(dp227
g13
F-2.9643630432717663
sg14
I5
sg15
I01
sg16
I2
sg17
I21
sbs(I2
I4
tp228
g1
(g10
g3
NtRp229
(dp230
g13
F27.415215859231886
sg14
I2
sg15
I01
sg16
I4
sg17
I16
sbs(I11
I6
tp231
g1
(g10
g3
NtRp232
(dp233
g13
F10.889362027826095
sg14
I11
sg15
I01
sg16
I6
sg17
I110
sbs(I8
I4
tp234
g1
(g10
g3
NtRp235
(dp236
g13
F1.0080377733885535
sg14
I8
sg15
I01
sg16
I4
sg17
I41
sbssS'_input_nodes'
p237
I1
sS'_output_nodes'
p238
I1
sS'_node_gene_type'
p239
cneat.genome
NodeGene
p240
sS'_conn_gene_type'
p241
g10
sS'fitness'
p242
F0.9367270982860425
sS'parent2_id'
p243
I21600
sS'_id'
p244
I21721
sS'parent1_id'
p245
I21641
sS'_node_genes'
p246
(lp247
g1
(g240
g3
NtRp248
(dp249
S'_bias'
p250
I0
sS'_type'
p251
S'INPUT'
p252
sg244
I1
sS'_response'
p253
F4.9242730000000003
sS'_activation_type'
p254
Nsbag1
(g240
g3
NtRp255
(dp256
g250
F3.4966090969085379
sg251
S'OUTPUT'
p257
sg244
I2
sg253
F8.7035192561073274
sg254
S'tanh'
p258
sbag1
(g240
g3
NtRp259
(dp260
g250
F-2.7567323204828647
sg251
S'HIDDEN'
p261
sg244
I3
sg253
F7.0490652449308957
sg254
g258
sbag1
(g240
g3
NtRp262
(dp263
g250
F1.9355942506411339
sg251
g261
sg244
I4
sg253
F-1.5736166369100519
sg254
g258
sbag1
(g240
g3
NtRp264
(dp265
g250
F-2.3799735914080951
sg251
g261
sg244
I5
sg253
F10.267808548732431
sg254
g258
sbag1
(g240
g3
NtRp266
(dp267
g250
F1.1087622448689389
sg251
g261
sg244
I6
sg253
F11.850849588023435
sg254
g258
sbag1
(g240
g3
NtRp268
(dp269
g250
F2.2435958565328549
sg251
g261
sg244
I7
sg253
F12.007214739325464
sg254
g258
sbag1
(g240
g3
NtRp270
(dp271
g250
F-2.3481058445641416
sg251
g261
sg244
I8
sg253
F5.7080176984424105
sg254
g258
sbag1
(g240
g3
NtRp272
(dp273
g250
F4.8691770379523716
sg251
g261
sg244
I9
sg253
F0.15788224879801849
sg254
g258
sbag1
(g240
g3
NtRp274
(dp275
g250
F4.3114704747635999
sg251
g261
sg244
I10
sg253
F3.1005473439952285
sg254
g258
sbag1
(g240
g3
NtRp276
(dp277
g250
F-3.2267721865317078
sg251
g261
sg244
I11
sg253
F5.1615526205539553
sg254
g258
sbag1
(g240
g3
NtRp278
(dp279
g250
F1.3020171652755002
sg251
g261
sg244
I12
sg253
F5.7093371811476157
sg254
g258
sbag1
(g240
g3
NtRp280
(dp281
g250
F2.5553390379841145
sg251
g261
sg244
I13
sg253
F3.4568800350468325
sg254
g258
sbag1
(g240
g3
NtRp282
(dp283
g250
F-1.4530588595225304
sg251
g261
sg244
I14
sg253
F12.388250604060239
sg254
g258
sbag1
(g240
g3
NtRp284
(dp285
g250
F0.30252783712548875
sg251
g261
sg244
I15
sg253
F10.954393200250589
sg254
g258
sbag1
(g240
g3
NtRp286
(dp287
g250
F-5.4505915338860262
sg251
g261
sg244
I16
sg253
F6.5263673586927942
sg254
g258
sbag1
(g240
g3
NtRp288
(dp289
g250
F-6.0986941008184861
sg251
g261
sg244
I17
sg253
F1.3596330904352103
sg254
g258
sbag1
(g240
g3
NtRp290
(dp291
g250
F-0.12559664370867601
sg251
g261
sg244
I18
sg253
F1.2859233245738366
sg254
g258
sbag1
(g240
g3
NtRp292
(dp293
g250
F-3.2434322599471592
sg251
g261
sg244
I19
sg253
F7.1599597800698076
sg254
g258
sbag1
(g240
g3
NtRp294
(dp295
g250
F-1.6987986195664577
sg251
g261
sg244
I20
sg253
F4.0612923671019852
sg254
g258
sbag1
(g240
g3
NtRp296
(dp297
g250
F-0.094345532910270841
sg251
g261
sg244
I21
sg253
F4.034664006893169
sg254
g258
sbag1
(g240
g3
NtRp298
(dp299
g250
F1.7727384661524384
sg251
g261
sg244
I22
sg253
F3.7804248794115942
sg254
g258
sbag1
(g240
g3
NtRp300
(dp301
g250
F-1.0325442927595314
sg251
g261
sg244
I23
sg253
F8.156071314686459
sg254
g258
sbag1
(g240
g3
NtRp302
(dp303
g250
F1.8805014837383855
sg251
g261
sg244
I24
sg253
F5.2321858974286943
sg254
g258
sbag1
(g240
g3
NtRp304
(dp305
g250
I0
sg251
g261
sg244
I25
sg253
F4.764047175253002
sg254
g258
sbasb.