ccopy_reg
_reconstructor
p1
(cneat.chromosome
Chromosome
p2
c__builtin__
object
p3
NtRp4
(dp5
S'species_id'
p6
I113
sS'_connection_genes'
p7
(dp8
(I5
I9
tp9
g1
(cneat.genome
ConnectionGene
p10
g3
NtRp11
(dp12
S'_ConnectionGene__weight'
p13
F1.5321902450299962
sS'_ConnectionGene__in'
p14
I5
sS'_ConnectionGene__enabled'
p15
I01
sS'_ConnectionGene__out'
p16
I9
sS'_ConnectionGene__innov_number'
p17
I100
sbs(I1
I3
tp18
g1
(g10
g3
NtRp19
(dp20
g13
F-12.72069480331241
sg14
I1
sg15
I01
sg16
I3
sg17
I3
sbs(I7
I3
tp21
g1
(g10
g3
NtRp22
(dp23
g13
F26.370934526765705
sg14
I7
sg15
I01
sg16
I3
sg17
I36
sbs(I11
I2
tp24
g1
(g10
g3
NtRp25
(dp26
g13
F19.263792458986867
sg14
I11
sg15
I01
sg16
I2
sg17
I89
sbs(I5
I4
tp27
g1
(g10
g3
NtRp28
(dp29
g13
F9.7560136608662447
sg14
I5
sg15
I01
sg16
I4
sg17
I13
sbs(I10
I15
tp30
g1
(g10
g3
NtRp31
(dp32
g13
F5.0262067604256533
sg14
I10
sg15
I01
sg16
I15
sg17
I169
sbs(I11
I8
tp33
g1
(g10
g3
NtRp34
(dp35
g13
F-14.98300551187894
sg14
I11
sg15
I01
sg16
I8
sg17
I91
sbs(I13
I8
tp36
g1
(g10
g3
NtRp37
(dp38
g13
F-9.5566837118313028
sg14
I13
sg15
I01
sg16
I8
sg17
I177
sbs(I6
I12
tp39
g1
(g10
g3
NtRp40
(dp41
g13
F0.73279280284282855
sg14
I6
sg15
I01
sg16
I12
sg17
I288
sbs(I3
I7
tp42
g1
(g10
g3
NtRp43
(dp44
g13
F-7.8580634601284931
sg14
I3
sg15
I01
sg16
I7
sg17
I49
sbs(I15
I5
tp45
g1
(g10
g3
NtRp46
(dp47
g13
F-18.43286952152895
sg14
I15
sg15
I01
sg16
I5
sg17
I147
sbs(I5
I8
tp48
g1
(g10
g3
NtRp49
(dp50
g13
F-0.027103850759819692
sg14
I5
sg15
I01
sg16
I8
sg17
I45
sbs(I1
I2
tp51
g1
(g10
g3
NtRp52
(dp53
g13
F-17.02461698687361
sg14
I1
sg15
I01
sg16
I2
sg17
I1
sbs(I10
I8
tp54
g1
(g10
g3
NtRp55
(dp56
g13
F8.7788418109783741
sg14
I10
sg15
I01
sg16
I8
sg17
I164
sbs(I1
I11
tp57
g1
(g10
g3
NtRp58
(dp59
g13
F-7.5500830250414879
sg14
I1
sg15
I01
sg16
I11
sg17
I88
sbs(I4
I9
tp60
g1
(g10
g3
NtRp61
(dp62
g13
F-6.34970248503567
sg14
I4
sg15
I01
sg16
I9
sg17
I57
sbs(I3
I3
tp63
g1
(g10
g3
NtRp64
(dp65
g13
F9.95871972918947
sg14
I3
sg15
I01
sg16
I3
sg17
I8
sbs(I2
I9
tp66
g1
(g10
g3
NtRp67
(dp68
g13
F-5.0742749012097175
sg14
I2
sg15
I01
sg16
I9
sg17
I144
sbs(I13
I3
tp69
g1
(g10
g3
NtRp70
(dp71
g13
F29.690016034986805
sg14
I13
sg15
I00
sg16
I3
sg17
I117
sbs(I3
I10
tp72
g1
(g10
g3
NtRp73
(dp74
g13
F-20.440403648961865
sg14
I3
sg15
I01
sg16
I10
sg17
I76
sbs(I4
I4
tp75
g1
(g10
g3
NtRp76
(dp77
g13
F-5.7218119298286485
sg14
I4
sg15
I01
sg16
I4
sg17
I11
sbs(I10
I12
tp78
g1
(g10
g3
NtRp79
(dp80
g13
F-5.7079172454106262
sg14
I10
sg15
I01
sg16
I12
sg17
I111
sbs(I4
I8
tp81
g1
(g10
g3
NtRp82
(dp83
g13
F10.131118707381512
sg14
I4
sg15
I01
sg16
I8
sg17
I38
sbs(I2
I13
tp84
g1
(g10
g3
NtRp85
(dp86
g13
F3.6129075613391888
sg14
I2
sg15
I01
sg16
I13
sg17
I176
sbs(I6
I5
tp87
g1
(g10
g3
NtRp88
(dp89
g13
F-22.98246603914022
sg14
I6
sg15
I01
sg16
I5
sg17
I28
sbs(I3
I6
tp90
g1
(g10
g3
NtRp91
(dp92
g13
F-7.6659474774604854
sg14
I3
sg15
I01
sg16
I6
sg17
I22
sbs(I2
I2
tp93
g1
(g10
g3
NtRp94
(dp95
g13
F22.972044488156271
sg14
I2
sg15
I01
sg16
I2
sg17
I2
sbs(I5
I3
tp96
g1
(g10
g3
NtRp97
(dp98
g13
F4.644084364263616
sg14
I5
sg15
I01
sg16
I3
sg17
I15
sbs(I3
I2
tp99
g1
(g10
g3
NtRp100
(dp101
g13
F10.636916068571615
sg14
I3
sg15
I01
sg16
I2
sg17
I4
sbs(I6
I6
tp102
g1
(g10
g3
NtRp103
(dp104
g13
F-9.6537826396555193
sg14
I6
sg15
I01
sg16
I6
sg17
I37
sbs(I5
I11
tp105
g1
(g10
g3
NtRp106
(dp107
g13
F11.79755295388167
sg14
I5
sg15
I01
sg16
I11
sg17
I90
sbs(I9
I3
tp108
g1
(g10
g3
NtRp109
(dp110
g13
F-30
sg14
I9
sg15
I01
sg16
I3
sg17
I60
sbs(I2
I3
tp111
g1
(g10
g3
NtRp112
(dp113
g13
F21.237522726041572
sg14
I2
sg15
I01
sg16
I3
sg17
I5
sbs(I1
I9
tp114
g1
(g10
g3
NtRp115
(dp116
g13
F17.476871505466651
sg14
I1
sg15
I01
sg16
I9
sg17
I47
sbs(I4
I2
tp117
g1
(g10
g3
NtRp118
(dp119
g13
F-2.1459078542354066
sg14
I4
sg15
I01
sg16
I2
sg17
I7
sbs(I4
I11
tp120
g1
(g10
g3
NtRp121
(dp122
g13
F-1.6069072828758888
sg14
I4
sg15
I01
sg16
I11
sg17
I86
sbs(I3
I5
tp123
g1
(g10
g3
NtRp124
(dp125
g13
F28.911379944544894
sg14
I3
sg15
I01
sg16
I5
sg17
I12
sbs(I10
I5
tp126
g1
(g10
g3
NtRp127
(dp128
g13
F7.3152176506254722
sg14
I10
sg15
I01
sg16
I5
sg17
I79
sbs(I12
I2
tp129
g1
(g10
g3
NtRp130
(dp131
g13
F9.7830174492732045
sg14
I12
sg15
I01
sg16
I2
sg17
I104
sbs(I13
I14
tp132
g1
(g10
g3
NtRp133
(dp134
g13
F-2.885501546313062
sg14
I13
sg15
I01
sg16
I14
sg17
I189
sbs(I9
I9
tp135
g1
(g10
g3
NtRp136
(dp137
g13
F7.5496402745863573
sg14
I9
sg15
I01
sg16
I9
sg17
I73
sbs(I9
I2
tp138
g1
(g10
g3
NtRp139
(dp140
g13
F-11.595242117133163
sg14
I9
sg15
I01
sg16
I2
sg17
I48
sbs(I12
I4
tp141
g1
(g10
g3
NtRp142
(dp143
g13
F-5.2027565608521922
sg14
I12
sg15
I01
sg16
I4
sg17
I115
sbs(I4
I3
tp144
g1
(g10
g3
NtRp145
(dp146
g13
F-11.662612932966764
sg14
I4
sg15
I01
sg16
I3
sg17
I10
sbs(I14
I3
tp147
g1
(g10
g3
NtRp148
(dp149
g13
F28.241481383649962
sg14
I14
sg15
I01
sg16
I3
sg17
I132
sbs(I10
I2
tp150
g1
(g10
g3
NtRp151
(dp152
g13
F25.965326711400657
sg14
I10
sg15
I01
sg16
I2
sg17
I66
sbs(I5
I2
tp153
g1
(g10
g3
NtRp154
(dp155
g13
F10.990674745347654
sg14
I5
sg15
I01
sg16
I2
sg17
I21
sbs(I2
I4
tp156
g1
(g10
g3
NtRp157
(dp158
g13
F11.966112257658628
sg14
I2
sg15
I01
sg16
I4
sg17
I16
sbs(I8
I4
tp159
g1
(g10
g3
NtRp160
(dp161
g13
F-4.9433221844641144
sg14
I8
sg15
I01
sg16
I4
sg17
I41
sbssS'_input_nodes'
p162
I1
sS'_output_nodes'
p163
I1
sS'_node_gene_type'
p164
cneat.genome
NodeGene
p165
sS'_conn_gene_type'
p166
g10
sS'fitness'
p167
F0.99347731443188225
sS'parent2_id'
p168
I17158
sS'_id'
p169
I17297
sS'parent1_id'
p170
I17204
sS'_node_genes'
p171
(lp172
g1
(g165
g3
NtRp173
(dp174
S'_bias'
p175
I0
sS'_type'
p176
S'INPUT'
p177
sg169
I1
sS'_response'
p178
F4.9242730000000003
sS'_activation_type'
p179
Nsbag1
(g165
g3
NtRp180
(dp181
g175
F-1.6307937524267286
sg176
S'OUTPUT'
p182
sg169
I2
sg178
F3.4620567752090787
sg179
S'tanh'
p183
sbag1
(g165
g3
NtRp184
(dp185
g175
F-3.1430434041384596
sg176
S'HIDDEN'
p186
sg169
I3
sg178
F5.2530745961990259
sg179
g183
sbag1
(g165
g3
NtRp187
(dp188
g175
F3.7224135092802655
sg176
g186
sg169
I4
sg178
F4.6013279508391882
sg179
g183
sbag1
(g165
g3
NtRp189
(dp190
g175
F-2.2386007597600646
sg176
g186
sg169
I5
sg178
F7.7230469003496056
sg179
g183
sbag1
(g165
g3
NtRp191
(dp192
g175
F4.1489180188027648
sg176
g186
sg169
I6
sg178
F10.09029494289071
sg179
g183
sbag1
(g165
g3
NtRp193
(dp194
g175
F-1.9057216449439514
sg176
g186
sg169
I7
sg178
F14.5408825432076
sg179
g183
sbag1
(g165
g3
NtRp195
(dp196
g175
F-5.8174433574875728
sg176
g186
sg169
I8
sg178
F3.7431063179916699
sg179
g183
sbag1
(g165
g3
NtRp197
(dp198
g175
F3.4862234210330154
sg176
g186
sg169
I9
sg178
F9.1695225850530502
sg179
g183
sbag1
(g165
g3
NtRp199
(dp200
g175
F-0.96122063829280224
sg176
g186
sg169
I10
sg178
F5.6797568161147378
sg179
g183
sbag1
(g165
g3
NtRp201
(dp202
g175
F0.49476363983668437
sg176
g186
sg169
I11
sg178
F5.0074663196593097
sg179
g183
sbag1
(g165
g3
NtRp203
(dp204
g175
F-0.26257074962543697
sg176
g186
sg169
I12
sg178
F10.100341727156634
sg179
g183
sbag1
(g165
g3
NtRp205
(dp206
g175
F0.022924397130670376
sg176
g186
sg169
I13
sg178
F6.2923927414542877
sg179
g183
sbag1
(g165
g3
NtRp207
(dp208
g175
F0.13950112463768072
sg176
g186
sg169
I14
sg178
F2.0662569918384457
sg179
g183
sbag1
(g165
g3
NtRp209
(dp210
g175
F-1.0540826986593268
sg176
g186
sg169
I15
sg178
F4.3695307643857344
sg179
g183
sbasb.