ccopy_reg
_reconstructor
p1
(cneat.chromosome
Chromosome
p2
c__builtin__
object
p3
NtRp4
(dp5
S'species_id'
p6
I39
sS'_connection_genes'
p7
(dp8
(I1
I2
tp9
g1
(cneat.genome
ConnectionGene
p10
g3
NtRp11
(dp12
S'_ConnectionGene__weight'
p13
F-24.567373963796761
sS'_ConnectionGene__in'
p14
I1
sS'_ConnectionGene__enabled'
p15
I01
sS'_ConnectionGene__out'
p16
I2
sS'_ConnectionGene__innov_number'
p17
I1
sbs(I5
I4
tp18
g1
(g10
g3
NtRp19
(dp20
g13
F-3.5698397110092071
sg14
I5
sg15
I01
sg16
I4
sg17
I13
sbs(I1
I3
tp21
g1
(g10
g3
NtRp22
(dp23
g13
F-3.7033151466970637
sg14
I1
sg15
I01
sg16
I3
sg17
I3
sbs(I3
I3
tp24
g1
(g10
g3
NtRp25
(dp26
g13
F7.8666001232797527
sg14
I3
sg15
I01
sg16
I3
sg17
I8
sbs(I4
I5
tp27
g1
(g10
g3
NtRp28
(dp29
g13
F-2.5132654058363215
sg14
I4
sg15
I01
sg16
I5
sg17
I20
sbs(I5
I3
tp30
g1
(g10
g3
NtRp31
(dp32
g13
F10.024437450446564
sg14
I5
sg15
I01
sg16
I3
sg17
I15
sbs(I4
I4
tp33
g1
(g10
g3
NtRp34
(dp35
g13
F-2.7344419689563582
sg14
I4
sg15
I01
sg16
I4
sg17
I11
sbs(I3
I2
tp36
g1
(g10
g3
NtRp37
(dp38
g13
F7.9100761147435854
sg14
I3
sg15
I00
sg16
I2
sg17
I4
sbs(I1
I4
tp39
g1
(g10
g3
NtRp40
(dp41
g13
F5.092548786339326
sg14
I1
sg15
I01
sg16
I4
sg17
I6
sbs(I4
I6
tp42
g1
(g10
g3
NtRp43
(dp44
g13
F1.0244067730090367
sg14
I4
sg15
I01
sg16
I6
sg17
I29
sbs(I2
I3
tp45
g1
(g10
g3
NtRp46
(dp47
g13
F-9.5554372145281103
sg14
I2
sg15
I00
sg16
I3
sg17
I5
sbs(I3
I6
tp48
g1
(g10
g3
NtRp49
(dp50
g13
F-11.693778925676266
sg14
I3
sg15
I01
sg16
I6
sg17
I22
sbs(I2
I2
tp51
g1
(g10
g3
NtRp52
(dp53
g13
F-3.1966706633944084
sg14
I2
sg15
I01
sg16
I2
sg17
I2
sbs(I4
I3
tp54
g1
(g10
g3
NtRp55
(dp56
g13
F9.3181498497287567
sg14
I4
sg15
I01
sg16
I3
sg17
I10
sbs(I3
I5
tp57
g1
(g10
g3
NtRp58
(dp59
g13
F-13.253244227804506
sg14
I3
sg15
I00
sg16
I5
sg17
I12
sbs(I5
I2
tp60
g1
(g10
g3
NtRp61
(dp62
g13
F-12.952435660849355
sg14
I5
sg15
I01
sg16
I2
sg17
I21
sbs(I2
I4
tp63
g1
(g10
g3
NtRp64
(dp65
g13
F-10.175742045334571
sg14
I2
sg15
I01
sg16
I4
sg17
I16
sbs(I6
I5
tp66
g1
(g10
g3
NtRp67
(dp68
g13
F3.5852865948858166
sg14
I6
sg15
I01
sg16
I5
sg17
I28
sbs(I5
I5
tp69
g1
(g10
g3
NtRp70
(dp71
g13
F-2.2553559552043869
sg14
I5
sg15
I01
sg16
I5
sg17
I24
sbssS'_input_nodes'
p72
I1
sS'_output_nodes'
p73
I1
sS'_node_gene_type'
p74
cneat.genome
NodeGene
p75
sS'_conn_gene_type'
p76
g10
sS'fitness'
p77
F0.98075365297337691
sS'parent2_id'
p78
I5736
sS'_id'
p79
I5778
sS'parent1_id'
p80
I5736
sS'_node_genes'
p81
(lp82
g1
(g75
g3
NtRp83
(dp84
S'_bias'
p85
I0
sS'_type'
p86
S'INPUT'
p87
sg79
I1
sS'_response'
p88
F4.9242730000000003
sS'_activation_type'
p89
Nsbag1
(g75
g3
NtRp90
(dp91
g85
F2.1351979848567848
sg86
S'OUTPUT'
p92
sg79
I2
sg88
F2.5456981815181998
sg89
S'tanh'
p93
sbag1
(g75
g3
NtRp94
(dp95
g85
F-0.5756780304591167
sg86
S'HIDDEN'
p96
sg79
I3
sg88
F4.2657524497654382
sg89
g93
sbag1
(g75
g3
NtRp97
(dp98
g85
F2.023223367771589
sg86
g96
sg79
I4
sg88
F3.9530714073815165
sg89
g93
sbag1
(g75
g3
NtRp99
(dp100
g85
F0.48848203365194232
sg86
g96
sg79
I5
sg88
F5.1985481012913306
sg89
g93
sbag1
(g75
g3
NtRp101
(dp102
g85
F-1.4939721114712308
sg86
g96
sg79
I6
sg88
F4.235799430059231
sg89
g93
sbasb.