ccopy_reg
_reconstructor
p1
(cneat.chromosome
Chromosome
p2
c__builtin__
object
p3
NtRp4
(dp5
S'species_id'
p6
I24
sS'_connection_genes'
p7
(dp8
(I1
I2
tp9
g1
(cneat.genome
ConnectionGene
p10
g3
NtRp11
(dp12
S'_ConnectionGene__weight'
p13
F-9.5114386274469513
sS'_ConnectionGene__in'
p14
I1
sS'_ConnectionGene__enabled'
p15
I01
sS'_ConnectionGene__out'
p16
I2
sS'_ConnectionGene__innov_number'
p17
I1
sbs(I3
I2
tp18
g1
(g10
g3
NtRp19
(dp20
g13
F-2.9649765309160676
sg14
I3
sg15
I00
sg16
I2
sg17
I4
sbs(I1
I3
tp21
g1
(g10
g3
NtRp22
(dp23
g13
F12.107478058920343
sg14
I1
sg15
I00
sg16
I3
sg17
I3
sbs(I3
I3
tp24
g1
(g10
g3
NtRp25
(dp26
g13
F15.885262405578979
sg14
I3
sg15
I01
sg16
I3
sg17
I8
sbs(I1
I4
tp27
g1
(g10
g3
NtRp28
(dp29
g13
F13.704099531471355
sg14
I1
sg15
I01
sg16
I4
sg17
I6
sbs(I4
I3
tp30
g1
(g10
g3
NtRp31
(dp32
g13
F10.540780037395105
sg14
I4
sg15
I01
sg16
I3
sg17
I10
sbs(I3
I5
tp33
g1
(g10
g3
NtRp34
(dp35
g13
F11.539729465910218
sg14
I3
sg15
I01
sg16
I5
sg17
I12
sbs(I5
I2
tp36
g1
(g10
g3
NtRp37
(dp38
g13
F-8.8708364574991148
sg14
I5
sg15
I01
sg16
I2
sg17
I21
sbs(I2
I4
tp39
g1
(g10
g3
NtRp40
(dp41
g13
F-6.6311530519461916
sg14
I2
sg15
I01
sg16
I4
sg17
I16
sbs(I5
I3
tp42
g1
(g10
g3
NtRp43
(dp44
g13
F-1.9631130275942641
sg14
I5
sg15
I01
sg16
I3
sg17
I15
sbssS'_input_nodes'
p45
I1
sS'_output_nodes'
p46
I1
sS'_node_gene_type'
p47
cneat.genome
NodeGene
p48
sS'_conn_gene_type'
p49
g10
sS'fitness'
p50
F0.98487626360733171
sS'parent2_id'
p51
I3236
sS'_id'
p52
I3277
sS'parent1_id'
p53
I3236
sS'_node_genes'
p54
(lp55
g1
(g48
g3
NtRp56
(dp57
S'_bias'
p58
I0
sS'_type'
p59
S'INPUT'
p60
sg52
I1
sS'_response'
p61
F4.9242730000000003
sS'_activation_type'
p62
Nsbag1
(g48
g3
NtRp63
(dp64
g58
F-1.8812764939108246
sg59
S'OUTPUT'
p65
sg52
I2
sg61
F4.8612053490964531
sg62
S'tanh'
p66
sbag1
(g48
g3
NtRp67
(dp68
g58
F1.0887442895545216
sg59
S'HIDDEN'
p69
sg52
I3
sg61
F3.5483853301710191
sg62
g66
sbag1
(g48
g3
NtRp70
(dp71
g58
F0.38585559893851495
sg59
g69
sg52
I4
sg61
F9.2114171263066478
sg62
g66
sbag1
(g48
g3
NtRp72
(dp73
g58
F0.15529269632480108
sg59
g69
sg52
I5
sg61
F5.1811428844179765
sg62
g66
sbasb.