ccopy_reg
_reconstructor
p1
(cneat.chromosome
Chromosome
p2
c__builtin__
object
p3
NtRp4
(dp5
S'species_id'
p6
I151
sS'_connection_genes'
p7
(dp8
(I7
I3
tp9
g1
(cneat.genome
ConnectionGene
p10
g3
NtRp11
(dp12
S'_ConnectionGene__weight'
p13
F6.8733102226374214
sS'_ConnectionGene__in'
p14
I7
sS'_ConnectionGene__enabled'
p15
I01
sS'_ConnectionGene__out'
p16
I3
sS'_ConnectionGene__innov_number'
p17
I36
sbs(I1
I3
tp18
g1
(g10
g3
NtRp19
(dp20
g13
F-11.014695361970311
sg14
I1
sg15
I01
sg16
I3
sg17
I3
sbs(I5
I9
tp21
g1
(g10
g3
NtRp22
(dp23
g13
F26.993356328482935
sg14
I5
sg15
I01
sg16
I9
sg17
I100
sbs(I16
I9
tp24
g1
(g10
g3
NtRp25
(dp26
g13
F25.691860958576722
sg14
I16
sg15
I01
sg16
I9
sg17
I236
sbs(I4
I21
tp27
g1
(g10
g3
NtRp28
(dp29
g13
F25.817229090454894
sg14
I4
sg15
I01
sg16
I21
sg17
I332
sbs(I3
I13
tp30
g1
(g10
g3
NtRp31
(dp32
g13
F22.885868185949757
sg14
I3
sg15
I01
sg16
I13
sg17
I107
sbs(I5
I4
tp33
g1
(g10
g3
NtRp34
(dp35
g13
F13.199665127535274
sg14
I5
sg15
I01
sg16
I4
sg17
I13
sbs(I1
I15
tp36
g1
(g10
g3
NtRp37
(dp38
g13
F-2.6107167139408127
sg14
I1
sg15
I01
sg16
I15
sg17
I149
sbs(I4
I22
tp39
g1
(g10
g3
NtRp40
(dp41
g13
F9.293585097057445
sg14
I4
sg15
I01
sg16
I22
sg17
I371
sbs(I2
I12
tp42
g1
(g10
g3
NtRp43
(dp44
g13
F6.7600199085221329
sg14
I2
sg15
I01
sg16
I12
sg17
I135
sbs(I7
I11
tp45
g1
(g10
g3
NtRp46
(dp47
g13
F-15.39143915184324
sg14
I7
sg15
I01
sg16
I11
sg17
I92
sbs(I3
I7
tp48
g1
(g10
g3
NtRp49
(dp50
g13
F23.879920537510788
sg14
I3
sg15
I01
sg16
I7
sg17
I49
sbs(I14
I9
tp51
g1
(g10
g3
NtRp52
(dp53
g13
F20.174295184505709
sg14
I14
sg15
I01
sg16
I9
sg17
I130
sbs(I9
I23
tp54
g1
(g10
g3
NtRp55
(dp56
g13
F10.097422048133806
sg14
I9
sg15
I01
sg16
I23
sg17
I381
sbs(I5
I8
tp57
g1
(g10
g3
NtRp58
(dp59
g13
F16.155894893243261
sg14
I5
sg15
I01
sg16
I8
sg17
I45
sbs(I6
I14
tp60
g1
(g10
g3
NtRp61
(dp62
g13
F-4.0600658785487882
sg14
I6
sg15
I01
sg16
I14
sg17
I165
sbs(I1
I2
tp63
g1
(g10
g3
NtRp64
(dp65
g13
F-28.664592391418445
sg14
I1
sg15
I01
sg16
I2
sg17
I1
sbs(I12
I2
tp66
g1
(g10
g3
NtRp67
(dp68
g13
F25.169085889647505
sg14
I12
sg15
I01
sg16
I2
sg17
I104
sbs(I20
I12
tp69
g1
(g10
g3
NtRp70
(dp71
g13
F-19.717039785704891
sg14
I20
sg15
I01
sg16
I12
sg17
I328
sbs(I4
I9
tp72
g1
(g10
g3
NtRp73
(dp74
g13
F-22.304504459768392
sg14
I4
sg15
I01
sg16
I9
sg17
I57
sbs(I3
I3
tp75
g1
(g10
g3
NtRp76
(dp77
g13
F-7.549090117287494
sg14
I3
sg15
I01
sg16
I3
sg17
I8
sbs(I2
I9
tp78
g1
(g10
g3
NtRp79
(dp80
g13
F0.8707826070448208
sg14
I2
sg15
I01
sg16
I9
sg17
I144
sbs(I23
I17
tp81
g1
(g10
g3
NtRp82
(dp83
g13
F11.163503226960255
sg14
I23
sg15
I01
sg16
I17
sg17
I382
sbs(I3
I10
tp84
g1
(g10
g3
NtRp85
(dp86
g13
F7.9840828606353194
sg14
I3
sg15
I01
sg16
I10
sg17
I76
sbs(I4
I4
tp87
g1
(g10
g3
NtRp88
(dp89
g13
F-7.7825752968211335
sg14
I4
sg15
I01
sg16
I4
sg17
I11
sbs(I10
I12
tp90
g1
(g10
g3
NtRp91
(dp92
g13
F-16.012940412468538
sg14
I10
sg15
I01
sg16
I12
sg17
I111
sbs(I21
I8
tp93
g1
(g10
g3
NtRp94
(dp95
g13
F-24.643126571188674
sg14
I21
sg15
I01
sg16
I8
sg17
I333
sbs(I10
I18
tp96
g1
(g10
g3
NtRp97
(dp98
g13
F12.914736106614061
sg14
I10
sg15
I01
sg16
I18
sg17
I226
sbs(I17
I2
tp99
g1
(g10
g3
NtRp100
(dp101
g13
F-4.6715531961474657
sg14
I17
sg15
I01
sg16
I2
sg17
I202
sbs(I4
I8
tp102
g1
(g10
g3
NtRp103
(dp104
g13
F-23.682373862651378
sg14
I4
sg15
I01
sg16
I8
sg17
I38
sbs(I13
I7
tp105
g1
(g10
g3
NtRp106
(dp107
g13
F-30
sg14
I13
sg15
I01
sg16
I7
sg17
I108
sbs(I9
I17
tp108
g1
(g10
g3
NtRp109
(dp110
g13
F0.59789859818656166
sg14
I9
sg15
I00
sg16
I17
sg17
I258
sbs(I18
I9
tp111
g1
(g10
g3
NtRp112
(dp113
g13
F-21.265456837618224
sg14
I18
sg15
I01
sg16
I9
sg17
I268
sbs(I2
I2
tp114
g1
(g10
g3
NtRp115
(dp116
g13
F25.69311173115327
sg14
I2
sg15
I01
sg16
I2
sg17
I2
sbs(I15
I4
tp117
g1
(g10
g3
NtRp118
(dp119
g13
F-2.7376296739514894
sg14
I15
sg15
I01
sg16
I4
sg17
I173
sbs(I10
I2
tp120
g1
(g10
g3
NtRp121
(dp122
g13
F11.423963487023533
sg14
I10
sg15
I01
sg16
I2
sg17
I66
sbs(I15
I12
tp123
g1
(g10
g3
NtRp124
(dp125
g13
F21.932411456380084
sg14
I15
sg15
I01
sg16
I12
sg17
I159
sbs(I3
I2
tp126
g1
(g10
g3
NtRp127
(dp128
g13
F2.5948267042585833
sg14
I3
sg15
I01
sg16
I2
sg17
I4
sbs(I6
I6
tp129
g1
(g10
g3
NtRp130
(dp131
g13
F14.347594963212629
sg14
I6
sg15
I01
sg16
I6
sg17
I37
sbs(I12
I14
tp132
g1
(g10
g3
NtRp133
(dp134
g13
F-25.880023289131607
sg14
I12
sg15
I01
sg16
I14
sg17
I131
sbs(I5
I11
tp135
g1
(g10
g3
NtRp136
(dp137
g13
F12.350176341483545
sg14
I5
sg15
I01
sg16
I11
sg17
I90
sbs(I9
I3
tp138
g1
(g10
g3
NtRp139
(dp140
g13
F-21.241174775692592
sg14
I9
sg15
I01
sg16
I3
sg17
I60
sbs(I22
I4
tp141
g1
(g10
g3
NtRp142
(dp143
g13
F5.547570275234083
sg14
I22
sg15
I01
sg16
I4
sg17
I356
sbs(I9
I16
tp144
g1
(g10
g3
NtRp145
(dp146
g13
F28.937640459830323
sg14
I9
sg15
I01
sg16
I16
sg17
I240
sbs(I1
I19
tp147
g1
(g10
g3
NtRp148
(dp149
g13
F21.424140035881468
sg14
I1
sg15
I01
sg16
I19
sg17
I304
sbs(I2
I3
tp150
g1
(g10
g3
NtRp151
(dp152
g13
F26.256043111793048
sg14
I2
sg15
I01
sg16
I3
sg17
I5
sbs(I1
I9
tp153
g1
(g10
g3
NtRp154
(dp155
g13
F17.380384710716175
sg14
I1
sg15
I01
sg16
I9
sg17
I47
sbs(I4
I2
tp156
g1
(g10
g3
NtRp157
(dp158
g13
F-26.887080110417365
sg14
I4
sg15
I01
sg16
I2
sg17
I7
sbs(I14
I2
tp159
g1
(g10
g3
NtRp160
(dp161
g13
F22.921429173905931
sg14
I14
sg15
I01
sg16
I2
sg17
I125
sbs(I4
I11
tp162
g1
(g10
g3
NtRp163
(dp164
g13
F-7.7706932956843549
sg14
I4
sg15
I01
sg16
I11
sg17
I86
sbs(I3
I5
tp165
g1
(g10
g3
NtRp166
(dp167
g13
F4.5224196366480074
sg14
I3
sg15
I01
sg16
I5
sg17
I12
sbs(I10
I5
tp168
g1
(g10
g3
NtRp169
(dp170
g13
F30
sg14
I10
sg15
I01
sg16
I5
sg17
I79
sbs(I19
I9
tp171
g1
(g10
g3
NtRp172
(dp173
g13
F19.91702359313723
sg14
I19
sg15
I01
sg16
I9
sg17
I290
sbs(I6
I5
tp174
g1
(g10
g3
NtRp175
(dp176
g13
F-9.131614119890946
sg14
I6
sg15
I01
sg16
I5
sg17
I28
sbs(I9
I2
tp177
g1
(g10
g3
NtRp178
(dp179
g13
F-22.552118378795512
sg14
I9
sg15
I01
sg16
I2
sg17
I48
sbs(I7
I14
tp180
g1
(g10
g3
NtRp181
(dp182
g13
F-9.9623898338869648
sg14
I7
sg15
I01
sg16
I14
sg17
I162
sbs(I9
I9
tp183
g1
(g10
g3
NtRp184
(dp185
g13
F30
sg14
I9
sg15
I01
sg16
I9
sg17
I73
sbs(I3
I6
tp186
g1
(g10
g3
NtRp187
(dp188
g13
F-28.643452176975419
sg14
I3
sg15
I01
sg16
I6
sg17
I22
sbs(I18
I7
tp189
g1
(g10
g3
NtRp190
(dp191
g13
F1.1405685781589932
sg14
I18
sg15
I01
sg16
I7
sg17
I272
sbs(I11
I8
tp192
g1
(g10
g3
NtRp193
(dp194
g13
F-12.90357420598127
sg14
I11
sg15
I01
sg16
I8
sg17
I91
sbs(I7
I5
tp195
g1
(g10
g3
NtRp196
(dp197
g13
F3.9333947394181115
sg14
I7
sg15
I01
sg16
I5
sg17
I50
sbs(I13
I18
tp198
g1
(g10
g3
NtRp199
(dp200
g13
F4.6830232372280385
sg14
I13
sg15
I01
sg16
I18
sg17
I271
sbs(I10
I20
tp201
g1
(g10
g3
NtRp202
(dp203
g13
F4.26210347349293
sg14
I10
sg15
I01
sg16
I20
sg17
I327
sbs(I4
I3
tp204
g1
(g10
g3
NtRp205
(dp206
g13
F-7.8427212162333806
sg14
I4
sg15
I01
sg16
I3
sg17
I10
sbs(I2
I15
tp207
g1
(g10
g3
NtRp208
(dp209
g13
F-5.3130178119402647
sg14
I2
sg15
I01
sg16
I15
sg17
I172
sbs(I9
I19
tp210
g1
(g10
g3
NtRp211
(dp212
g13
F11.694890218512656
sg14
I9
sg15
I01
sg16
I19
sg17
I312
sbs(I5
I2
tp213
g1
(g10
g3
NtRp214
(dp215
g13
F1.1123304078168355
sg14
I5
sg15
I01
sg16
I2
sg17
I21
sbs(I2
I4
tp216
g1
(g10
g3
NtRp217
(dp218
g13
F26.624944561720199
sg14
I2
sg15
I01
sg16
I4
sg17
I16
sbs(I11
I6
tp219
g1
(g10
g3
NtRp220
(dp221
g13
F3.4208435113284255
sg14
I11
sg15
I01
sg16
I6
sg17
I110
sbs(I8
I4
tp222
g1
(g10
g3
NtRp223
(dp224
g13
F-0.96950288504554494
sg14
I8
sg15
I01
sg16
I4
sg17
I41
sbssS'_input_nodes'
p225
I1
sS'_output_nodes'
p226
I1
sS'_node_gene_type'
p227
cneat.genome
NodeGene
p228
sS'_conn_gene_type'
p229
g10
sS'fitness'
p230
F0.99555395452634809
sS'parent2_id'
p231
I22308
sS'_id'
p232
I22352
sS'parent1_id'
p233
I22308
sS'_node_genes'
p234
(lp235
g1
(g228
g3
NtRp236
(dp237
S'_bias'
p238
I0
sS'_type'
p239
S'INPUT'
p240
sg232
I1
sS'_response'
p241
F4.9242730000000003
sS'_activation_type'
p242
Nsbag1
(g228
g3
NtRp243
(dp244
g238
F1.0046826807208227
sg239
S'OUTPUT'
p245
sg232
I2
sg241
F8.0933008614561484
sg242
S'tanh'
p246
sbag1
(g228
g3
NtRp247
(dp248
g238
F-1.1242504694554176
sg239
S'HIDDEN'
p249
sg232
I3
sg241
F5.6817565328506205
sg242
g246
sbag1
(g228
g3
NtRp250
(dp251
g238
F-0.77711291465092469
sg239
g249
sg232
I4
sg241
F-1.0407763777768986
sg242
g246
sbag1
(g228
g3
NtRp252
(dp253
g238
F-2.4512103279957325
sg239
g249
sg232
I5
sg241
F11.384921476278276
sg242
g246
sbag1
(g228
g3
NtRp254
(dp255
g238
F1.6009720257051803
sg239
g249
sg232
I6
sg241
F12.512032049808106
sg242
g246
sbag1
(g228
g3
NtRp256
(dp257
g238
F1.5158429975873906
sg239
g249
sg232
I7
sg241
F10.454116684313464
sg242
g246
sbag1
(g228
g3
NtRp258
(dp259
g238
F-1.9053974495116326
sg239
g249
sg232
I8
sg241
F3.8369167251121286
sg242
g246
sbag1
(g228
g3
NtRp260
(dp261
g238
F3.854654219180961
sg239
g249
sg232
I9
sg241
F1.9112572851664236
sg242
g246
sbag1
(g228
g3
NtRp262
(dp263
g238
F3.1675533652397059
sg239
g249
sg232
I10
sg241
F4.0747826400261502
sg242
g246
sbag1
(g228
g3
NtRp264
(dp265
g238
F-1.9308187962793493
sg239
g249
sg232
I11
sg241
F7.9218721540065529
sg242
g246
sbag1
(g228
g3
NtRp266
(dp267
g238
F4.7615246171832544
sg239
g249
sg232
I12
sg241
F7.5442280291571704
sg242
g246
sbag1
(g228
g3
NtRp268
(dp269
g238
F2.473809442598689
sg239
g249
sg232
I13
sg241
F3.6055097642048746
sg242
g246
sbag1
(g228
g3
NtRp270
(dp271
g238
F-2.6016418411904891
sg239
g249
sg232
I14
sg241
F11.656615735727211
sg242
g246
sbag1
(g228
g3
NtRp272
(dp273
g238
F-0.4972271267980844
sg239
g249
sg232
I15
sg241
F10.287145338290088
sg242
g246
sbag1
(g228
g3
NtRp274
(dp275
g238
F-2.879260614103841
sg239
g249
sg232
I16
sg241
F8.4376614363773257
sg242
g246
sbag1
(g228
g3
NtRp276
(dp277
g238
F-5.6577774515953942
sg239
g249
sg232
I17
sg241
F3.8521284163964564
sg242
g246
sbag1
(g228
g3
NtRp278
(dp279
g238
F1.2678588453271191
sg239
g249
sg232
I18
sg241
F3.5043274184035269
sg242
g246
sbag1
(g228
g3
NtRp280
(dp281
g238
F-3.3603175673350529
sg239
g249
sg232
I19
sg241
F6.5337487693337897
sg242
g246
sbag1
(g228
g3
NtRp282
(dp283
g238
F-2.1251407149221047
sg239
g249
sg232
I20
sg241
F5.2000836657459217
sg242
g246
sbag1
(g228
g3
NtRp284
(dp285
g238
F-0.3052126847372173
sg239
g249
sg232
I21
sg241
F4.6972871415351722
sg242
g246
sbag1
(g228
g3
NtRp286
(dp287
g238
F0.4493683969612054
sg239
g249
sg232
I22
sg241
F3.2912269636706579
sg242
g246
sbag1
(g228
g3
NtRp288
(dp289
g238
F-1.8158939442641737
sg239
g249
sg232
I23
sg241
F7.3354121122565727
sg242
g246
sbasb.