ccopy_reg
_reconstructor
p1
(cneat.chromosome
Chromosome
p2
c__builtin__
object
p3
NtRp4
(dp5
S'species_id'
p6
I59
sS'_connection_genes'
p7
(dp8
(I1
I3
tp9
g1
(cneat.genome
ConnectionGene
p10
g3
NtRp11
(dp12
S'_ConnectionGene__weight'
p13
F12.394304955567183
sS'_ConnectionGene__in'
p14
I1
sS'_ConnectionGene__enabled'
p15
I01
sS'_ConnectionGene__out'
p16
I3
sS'_ConnectionGene__innov_number'
p17
I3
sbs(I5
I6
tp18
g1
(g10
g3
NtRp19
(dp20
g13
F-5.6525299660436295
sg14
I5
sg15
I01
sg16
I6
sg17
I25
sbs(I8
I9
tp21
g1
(g10
g3
NtRp22
(dp23
g13
F0.95104887427449714
sg14
I8
sg15
I00
sg16
I9
sg17
I61
sbs(I6
I2
tp24
g1
(g10
g3
NtRp25
(dp26
g13
F9.1825036462608658
sg14
I6
sg15
I01
sg16
I2
sg17
I18
sbs(I3
I7
tp27
g1
(g10
g3
NtRp28
(dp29
g13
F-7.7779676938476188
sg14
I3
sg15
I01
sg16
I7
sg17
I49
sbs(I5
I8
tp30
g1
(g10
g3
NtRp31
(dp32
g13
F-4.9285856156288963
sg14
I5
sg15
I01
sg16
I8
sg17
I45
sbs(I1
I2
tp33
g1
(g10
g3
NtRp34
(dp35
g13
F-9.3223029611330244
sg14
I1
sg15
I01
sg16
I2
sg17
I1
sbs(I12
I2
tp36
g1
(g10
g3
NtRp37
(dp38
g13
F-13.460435300096727
sg14
I12
sg15
I01
sg16
I2
sg17
I104
sbs(I6
I7
tp39
g1
(g10
g3
NtRp40
(dp41
g13
F-1.9154116609315204
sg14
I6
sg15
I01
sg16
I7
sg17
I34
sbs(I3
I3
tp42
g1
(g10
g3
NtRp43
(dp44
g13
F15.327162148301342
sg14
I3
sg15
I01
sg16
I3
sg17
I8
sbs(I7
I12
tp45
g1
(g10
g3
NtRp46
(dp47
g13
F2.5759671680361658
sg14
I7
sg15
I01
sg16
I12
sg17
I103
sbs(I7
I2
tp48
g1
(g10
g3
NtRp49
(dp50
g13
F-11.971377004886019
sg14
I7
sg15
I00
sg16
I2
sg17
I31
sbs(I5
I3
tp51
g1
(g10
g3
NtRp52
(dp53
g13
F10.676903184503162
sg14
I5
sg15
I01
sg16
I3
sg17
I15
sbs(I3
I2
tp54
g1
(g10
g3
NtRp55
(dp56
g13
F3.3499533774595669
sg14
I3
sg15
I01
sg16
I2
sg17
I4
sbs(I11
I9
tp57
g1
(g10
g3
NtRp58
(dp59
g13
F-1.740744863274015
sg14
I11
sg15
I01
sg16
I9
sg17
I102
sbs(I8
I2
tp60
g1
(g10
g3
NtRp61
(dp62
g13
F-18.847605007582381
sg14
I8
sg15
I01
sg16
I2
sg17
I46
sbs(I4
I5
tp63
g1
(g10
g3
NtRp64
(dp65
g13
F8.772655068675018
sg14
I4
sg15
I01
sg16
I5
sg17
I20
sbs(I8
I11
tp66
g1
(g10
g3
NtRp67
(dp68
g13
F7.2154654830119132
sg14
I8
sg15
I01
sg16
I11
sg17
I98
sbs(I9
I3
tp69
g1
(g10
g3
NtRp70
(dp71
g13
F2.3709464486210359
sg14
I9
sg15
I01
sg16
I3
sg17
I60
sbs(I1
I4
tp72
g1
(g10
g3
NtRp73
(dp74
g13
F-7.7527409770628353
sg14
I1
sg15
I01
sg16
I4
sg17
I6
sbs(I2
I10
tp75
g1
(g10
g3
NtRp76
(dp77
g13
F4.6482648965682412
sg14
I2
sg15
I01
sg16
I10
sg17
I69
sbs(I7
I5
tp78
g1
(g10
g3
NtRp79
(dp80
g13
F5.504478487137197
sg14
I7
sg15
I01
sg16
I5
sg17
I50
sbs(I3
I5
tp81
g1
(g10
g3
NtRp82
(dp83
g13
F9.0100888800219519
sg14
I3
sg15
I01
sg16
I5
sg17
I12
sbs(I8
I3
tp84
g1
(g10
g3
NtRp85
(dp86
g13
F1.6559873855076921
sg14
I8
sg15
I01
sg16
I3
sg17
I39
sbs(I5
I10
tp87
g1
(g10
g3
NtRp88
(dp89
g13
F-0.57389169700496878
sg14
I5
sg15
I01
sg16
I10
sg17
I67
sbs(I4
I3
tp90
g1
(g10
g3
NtRp91
(dp92
g13
F16.89905862155025
sg14
I4
sg15
I01
sg16
I3
sg17
I10
sbs(I5
I2
tp93
g1
(g10
g3
NtRp94
(dp95
g13
F-28.477181187952183
sg14
I5
sg15
I01
sg16
I2
sg17
I21
sbs(I2
I4
tp96
g1
(g10
g3
NtRp97
(dp98
g13
F-12.622022921077704
sg14
I2
sg15
I01
sg16
I4
sg17
I16
sbs(I10
I2
tp99
g1
(g10
g3
NtRp100
(dp101
g13
F-28.540792503666129
sg14
I10
sg15
I01
sg16
I2
sg17
I66
sbssS'_input_nodes'
p102
I1
sS'_output_nodes'
p103
I1
sS'_node_gene_type'
p104
cneat.genome
NodeGene
p105
sS'_conn_gene_type'
p106
g10
sS'fitness'
p107
F0.93516484474710626
sS'parent2_id'
p108
I8333
sS'_id'
p109
I8414
sS'parent1_id'
p110
I8374
sS'_node_genes'
p111
(lp112
g1
(g105
g3
NtRp113
(dp114
S'_bias'
p115
I0
sS'_type'
p116
S'INPUT'
p117
sg109
I1
sS'_response'
p118
F4.9242730000000003
sS'_activation_type'
p119
Nsbag1
(g105
g3
NtRp120
(dp121
g115
F-3.3255470698051317
sg116
S'OUTPUT'
p122
sg109
I2
sg118
F4.1220669748521912
sg119
S'tanh'
p123
sbag1
(g105
g3
NtRp124
(dp125
g115
F3.101648513653533
sg116
S'HIDDEN'
p126
sg109
I3
sg118
F-2.5158746919384543
sg119
g123
sbag1
(g105
g3
NtRp127
(dp128
g115
F-1.5537504428505902
sg116
g126
sg109
I4
sg118
F7.3753034743984305
sg119
g123
sbag1
(g105
g3
NtRp129
(dp130
g115
F0.12938195367254224
sg116
g126
sg109
I5
sg118
F5.2665409452282912
sg119
g123
sbag1
(g105
g3
NtRp131
(dp132
g115
F2.0663526719681085
sg116
g126
sg109
I6
sg118
F3.7865675582263942
sg119
g123
sbag1
(g105
g3
NtRp133
(dp134
g115
F-2.0019957511734061
sg116
g126
sg109
I7
sg118
F3.1541970289002341
sg119
g123
sbag1
(g105
g3
NtRp135
(dp136
g115
F2.2186313571072067
sg116
g126
sg109
I8
sg118
F5.23615343130726
sg119
g123
sbag1
(g105
g3
NtRp137
(dp138
g115
F-1.071657353135455
sg116
g126
sg109
I9
sg118
F5.5045248303118974
sg119
g123
sbag1
(g105
g3
NtRp139
(dp140
g115
F-0.52613460382741728
sg116
g126
sg109
I10
sg118
F5.3010654302970854
sg119
g123
sbag1
(g105
g3
NtRp141
(dp142
g115
F-0.43748950775810519
sg116
g126
sg109
I11
sg118
F4.171570638893229
sg119
g123
sbag1
(g105
g3
NtRp143
(dp144
g115
F0.54901412512637471
sg116
g126
sg109
I12
sg118
F4.4674963909760432
sg119
g123
sbasb.