ccopy_reg
_reconstructor
p1
(cneat.chromosome
Chromosome
p2
c__builtin__
object
p3
NtRp4
(dp5
S'species_id'
p6
I96
sS'_connection_genes'
p7
(dp8
(I7
I3
tp9
g1
(cneat.genome
ConnectionGene
p10
g3
NtRp11
(dp12
S'_ConnectionGene__weight'
p13
F30
sS'_ConnectionGene__in'
p14
I7
sS'_ConnectionGene__enabled'
p15
I01
sS'_ConnectionGene__out'
p16
I3
sS'_ConnectionGene__innov_number'
p17
I36
sbs(I6
I9
tp18
g1
(g10
g3
NtRp19
(dp20
g13
F-20.407614809326006
sg14
I6
sg15
I01
sg16
I9
sg17
I81
sbs(I1
I3
tp21
g1
(g10
g3
NtRp22
(dp23
g13
F8.7135946239949256
sg14
I1
sg15
I01
sg16
I3
sg17
I3
sbs(I8
I13
tp24
g1
(g10
g3
NtRp25
(dp26
g13
F-1.5620997976862498
sg14
I8
sg15
I01
sg16
I13
sg17
I197
sbs(I5
I9
tp27
g1
(g10
g3
NtRp28
(dp29
g13
F0.014645536997206943
sg14
I5
sg15
I01
sg16
I9
sg17
I100
sbs(I13
I4
tp30
g1
(g10
g3
NtRp31
(dp32
g13
F-3.1254640193058778
sg14
I13
sg15
I01
sg16
I4
sg17
I163
sbs(I5
I4
tp33
g1
(g10
g3
NtRp34
(dp35
g13
F2.3317802101029148
sg14
I5
sg15
I01
sg16
I4
sg17
I13
sbs(I3
I7
tp36
g1
(g10
g3
NtRp37
(dp38
g13
F3.3055626388948394
sg14
I3
sg15
I01
sg16
I7
sg17
I49
sbs(I12
I9
tp39
g1
(g10
g3
NtRp40
(dp41
g13
F6.3117293608106966
sg14
I12
sg15
I01
sg16
I9
sg17
I109
sbs(I9
I2
tp42
g1
(g10
g3
NtRp43
(dp44
g13
F-10.346392783681392
sg14
I9
sg15
I01
sg16
I2
sg17
I48
sbs(I1
I2
tp45
g1
(g10
g3
NtRp46
(dp47
g13
F-11.875677162960041
sg14
I1
sg15
I01
sg16
I2
sg17
I1
sbs(I4
I9
tp48
g1
(g10
g3
NtRp49
(dp50
g13
F28.47407628328644
sg14
I4
sg15
I01
sg16
I9
sg17
I57
sbs(I3
I3
tp51
g1
(g10
g3
NtRp52
(dp53
g13
F-18.51263531113359
sg14
I3
sg15
I01
sg16
I3
sg17
I8
sbs(I9
I15
tp54
g1
(g10
g3
NtRp55
(dp56
g13
F0.42366981560204042
sg14
I9
sg15
I01
sg16
I15
sg17
I219
sbs(I3
I10
tp57
g1
(g10
g3
NtRp58
(dp59
g13
F28.123750370317058
sg14
I3
sg15
I01
sg16
I10
sg17
I76
sbs(I4
I8
tp60
g1
(g10
g3
NtRp61
(dp62
g13
F13.841848296138144
sg14
I4
sg15
I01
sg16
I8
sg17
I38
sbs(I4
I4
tp63
g1
(g10
g3
NtRp64
(dp65
g13
F3.4010935495816579
sg14
I4
sg15
I01
sg16
I4
sg17
I11
sbs(I6
I5
tp66
g1
(g10
g3
NtRp67
(dp68
g13
F-14.505320009506427
sg14
I6
sg15
I01
sg16
I5
sg17
I28
sbs(I3
I6
tp69
g1
(g10
g3
NtRp70
(dp71
g13
F-19.505081089204808
sg14
I3
sg15
I01
sg16
I6
sg17
I22
sbs(I14
I14
tp72
g1
(g10
g3
NtRp73
(dp74
g13
F3.0325346364595593
sg14
I14
sg15
I01
sg16
I14
sg17
I184
sbs(I3
I2
tp75
g1
(g10
g3
NtRp76
(dp77
g13
F28.607547552109761
sg14
I3
sg15
I00
sg16
I2
sg17
I4
sbs(I6
I6
tp78
g1
(g10
g3
NtRp79
(dp80
g13
F-4.0493505899704196
sg14
I6
sg15
I01
sg16
I6
sg17
I37
sbs(I15
I3
tp81
g1
(g10
g3
NtRp82
(dp83
g13
F-3.3854406704698947
sg14
I15
sg15
I01
sg16
I3
sg17
I182
sbs(I9
I3
tp84
g1
(g10
g3
NtRp85
(dp86
g13
F7.1304288876802406
sg14
I9
sg15
I00
sg16
I3
sg17
I60
sbs(I2
I3
tp87
g1
(g10
g3
NtRp88
(dp89
g13
F-6.9205924002349963
sg14
I2
sg15
I01
sg16
I3
sg17
I5
sbs(I1
I9
tp90
g1
(g10
g3
NtRp91
(dp92
g13
F14.349890165121241
sg14
I1
sg15
I01
sg16
I9
sg17
I47
sbs(I14
I2
tp93
g1
(g10
g3
NtRp94
(dp95
g13
F24.611255694725834
sg14
I14
sg15
I01
sg16
I2
sg17
I125
sbs(I4
I11
tp96
g1
(g10
g3
NtRp97
(dp98
g13
F-2.5864949665000538
sg14
I4
sg15
I01
sg16
I11
sg17
I86
sbs(I3
I5
tp99
g1
(g10
g3
NtRp100
(dp101
g13
F30
sg14
I3
sg15
I01
sg16
I5
sg17
I12
sbs(I10
I5
tp102
g1
(g10
g3
NtRp103
(dp104
g13
F-2.7751729607576401
sg14
I10
sg15
I01
sg16
I5
sg17
I79
sbs(I6
I8
tp105
g1
(g10
g3
NtRp106
(dp107
g13
F0.074075185621245154
sg14
I6
sg15
I01
sg16
I8
sg17
I51
sbs(I11
I8
tp108
g1
(g10
g3
NtRp109
(dp110
g13
F12.100323271264456
sg14
I11
sg15
I01
sg16
I8
sg17
I91
sbs(I9
I9
tp111
g1
(g10
g3
NtRp112
(dp113
g13
F-0.54169994699823043
sg14
I9
sg15
I00
sg16
I9
sg17
I73
sbs(I13
I14
tp114
g1
(g10
g3
NtRp115
(dp116
g13
F0.52465663875046531
sg14
I13
sg15
I01
sg16
I14
sg17
I189
sbs(I10
I14
tp117
g1
(g10
g3
NtRp118
(dp119
g13
F4.4697216617420761
sg14
I10
sg15
I01
sg16
I14
sg17
I145
sbs(I4
I3
tp120
g1
(g10
g3
NtRp121
(dp122
g13
F1.485476395534068
sg14
I4
sg15
I01
sg16
I3
sg17
I10
sbs(I10
I2
tp123
g1
(g10
g3
NtRp124
(dp125
g13
F27.096239770603269
sg14
I10
sg15
I00
sg16
I2
sg17
I66
sbs(I5
I2
tp126
g1
(g10
g3
NtRp127
(dp128
g13
F-6.9987681984739076
sg14
I5
sg15
I01
sg16
I2
sg17
I21
sbs(I2
I4
tp129
g1
(g10
g3
NtRp130
(dp131
g13
F28.821357758519753
sg14
I2
sg15
I01
sg16
I4
sg17
I16
sbs(I9
I12
tp132
g1
(g10
g3
NtRp133
(dp134
g13
F4.8603949830328022
sg14
I9
sg15
I01
sg16
I12
sg17
I127
sbs(I8
I4
tp135
g1
(g10
g3
NtRp136
(dp137
g13
F8.8152610899391171
sg14
I8
sg15
I01
sg16
I4
sg17
I41
sbssS'_input_nodes'
p138
I1
sS'_output_nodes'
p139
I1
sS'_node_gene_type'
p140
cneat.genome
NodeGene
p141
sS'_conn_gene_type'
p142
g10
sS'fitness'
p143
F0.98947448729980103
sS'parent2_id'
p144
I13185
sS'_id'
p145
I13231
sS'parent1_id'
p146
I13185
sS'_node_genes'
p147
(lp148
g1
(g141
g3
NtRp149
(dp150
S'_bias'
p151
I0
sS'_type'
p152
S'INPUT'
p153
sg145
I1
sS'_response'
p154
F4.9242730000000003
sS'_activation_type'
p155
Nsbag1
(g141
g3
NtRp156
(dp157
g151
F-0.25290486511952592
sg152
S'OUTPUT'
p158
sg145
I2
sg154
F5.4143072458189758
sg155
S'tanh'
p159
sbag1
(g141
g3
NtRp160
(dp161
g151
F-4.949887546319613
sg152
S'HIDDEN'
p162
sg145
I3
sg154
F4.985654154859593
sg155
g159
sbag1
(g141
g3
NtRp163
(dp164
g151
F4.437059684219375
sg152
g162
sg145
I4
sg154
F1.5005611925829856
sg155
g159
sbag1
(g141
g3
NtRp165
(dp166
g151
F-1.9507154506175386
sg152
g162
sg145
I5
sg154
F8.0915036232982178
sg155
g159
sbag1
(g141
g3
NtRp167
(dp168
g151
F0.86444767243318743
sg152
g162
sg145
I6
sg154
F8.7701400836234651
sg155
g159
sbag1
(g141
g3
NtRp169
(dp170
g151
F-3.6165291695378907
sg152
g162
sg145
I7
sg154
F9.5238155700575398
sg155
g159
sbag1
(g141
g3
NtRp171
(dp172
g151
F-1.1368801851522152
sg152
g162
sg145
I8
sg154
F2.8160202869376025
sg155
g159
sbag1
(g141
g3
NtRp173
(dp174
g151
F0.0099048099492105579
sg152
g162
sg145
I9
sg154
F2.7875474379792529
sg155
g159
sbag1
(g141
g3
NtRp175
(dp176
g151
F4.5773483671254835
sg152
g162
sg145
I10
sg154
F2.4296248488448846
sg155
g159
sbag1
(g141
g3
NtRp177
(dp178
g151
F0.60694185077151341
sg152
g162
sg145
I11
sg154
F6.7944247498646
sg155
g159
sbag1
(g141
g3
NtRp179
(dp180
g151
F1.1192790535653212
sg152
g162
sg145
I12
sg154
F4.4744416996476657
sg155
g159
sbag1
(g141
g3
NtRp181
(dp182
g151
F-0.23629249289423915
sg152
g162
sg145
I13
sg154
F5.1935166248452784
sg155
g159
sbag1
(g141
g3
NtRp183
(dp184
g151
F-0.91631091790185804
sg152
g162
sg145
I14
sg154
F6.4891735380593909
sg155
g159
sbag1
(g141
g3
NtRp185
(dp186
g151
F-0.6943063738905203
sg152
g162
sg145
I15
sg154
F5.3010872510597631
sg155
g159
sbasb.