ccopy_reg
_reconstructor
p1
(cneat.chromosome
Chromosome
p2
c__builtin__
object
p3
NtRp4
(dp5
S'species_id'
p6
I106
sS'_connection_genes'
p7
(dp8
(I7
I3
tp9
g1
(cneat.genome
ConnectionGene
p10
g3
NtRp11
(dp12
S'_ConnectionGene__weight'
p13
F20.26284217230959
sS'_ConnectionGene__in'
p14
I7
sS'_ConnectionGene__enabled'
p15
I01
sS'_ConnectionGene__out'
p16
I3
sS'_ConnectionGene__innov_number'
p17
I36
sbs(I6
I9
tp18
g1
(g10
g3
NtRp19
(dp20
g13
F-14.86418888169446
sg14
I6
sg15
I01
sg16
I9
sg17
I81
sbs(I1
I3
tp21
g1
(g10
g3
NtRp22
(dp23
g13
F7.0079200419109897
sg14
I1
sg15
I01
sg16
I3
sg17
I3
sbs(I8
I13
tp24
g1
(g10
g3
NtRp25
(dp26
g13
F-3.5235953021448974
sg14
I8
sg15
I00
sg16
I13
sg17
I197
sbs(I5
I9
tp27
g1
(g10
g3
NtRp28
(dp29
g13
F12.941436453900373
sg14
I5
sg15
I01
sg16
I9
sg17
I100
sbs(I13
I4
tp30
g1
(g10
g3
NtRp31
(dp32
g13
F-2.0338811210087031
sg14
I13
sg15
I01
sg16
I4
sg17
I163
sbs(I5
I4
tp33
g1
(g10
g3
NtRp34
(dp35
g13
F5.585424861972041
sg14
I5
sg15
I01
sg16
I4
sg17
I13
sbs(I11
I8
tp36
g1
(g10
g3
NtRp37
(dp38
g13
F15.962596494126036
sg14
I11
sg15
I01
sg16
I8
sg17
I91
sbs(I3
I7
tp39
g1
(g10
g3
NtRp40
(dp41
g13
F12.651512074554086
sg14
I3
sg15
I01
sg16
I7
sg17
I49
sbs(I12
I9
tp42
g1
(g10
g3
NtRp43
(dp44
g13
F13.281732967217719
sg14
I12
sg15
I01
sg16
I9
sg17
I109
sbs(I1
I2
tp45
g1
(g10
g3
NtRp46
(dp47
g13
F-17.187247511029316
sg14
I1
sg15
I01
sg16
I2
sg17
I1
sbs(I4
I9
tp48
g1
(g10
g3
NtRp49
(dp50
g13
F24.314405412391892
sg14
I4
sg15
I00
sg16
I9
sg17
I57
sbs(I3
I3
tp51
g1
(g10
g3
NtRp52
(dp53
g13
F-7.8473130344021129
sg14
I3
sg15
I01
sg16
I3
sg17
I8
sbs(I9
I15
tp54
g1
(g10
g3
NtRp55
(dp56
g13
F10.576414877420055
sg14
I9
sg15
I01
sg16
I15
sg17
I219
sbs(I3
I10
tp57
g1
(g10
g3
NtRp58
(dp59
g13
F1.0044433143926814
sg14
I3
sg15
I01
sg16
I10
sg17
I76
sbs(I4
I8
tp60
g1
(g10
g3
NtRp61
(dp62
g13
F-3.3440856865274426
sg14
I4
sg15
I01
sg16
I8
sg17
I38
sbs(I4
I4
tp63
g1
(g10
g3
NtRp64
(dp65
g13
F-10.094203405796625
sg14
I4
sg15
I01
sg16
I4
sg17
I11
sbs(I6
I5
tp66
g1
(g10
g3
NtRp67
(dp68
g13
F-4.6914587085479393
sg14
I6
sg15
I01
sg16
I5
sg17
I28
sbs(I3
I6
tp69
g1
(g10
g3
NtRp70
(dp71
g13
F-6.0295611427232156
sg14
I3
sg15
I01
sg16
I6
sg17
I22
sbs(I14
I14
tp72
g1
(g10
g3
NtRp73
(dp74
g13
F2.3156255065329074
sg14
I14
sg15
I01
sg16
I14
sg17
I184
sbs(I15
I12
tp75
g1
(g10
g3
NtRp76
(dp77
g13
F8.7003946162256796
sg14
I15
sg15
I01
sg16
I12
sg17
I159
sbs(I3
I2
tp78
g1
(g10
g3
NtRp79
(dp80
g13
F17.537998191908883
sg14
I3
sg15
I01
sg16
I2
sg17
I4
sbs(I6
I6
tp81
g1
(g10
g3
NtRp82
(dp83
g13
F-5.5719759346661313
sg14
I6
sg15
I01
sg16
I6
sg17
I37
sbs(I15
I3
tp84
g1
(g10
g3
NtRp85
(dp86
g13
F2.9497337694278936
sg14
I15
sg15
I01
sg16
I3
sg17
I182
sbs(I9
I3
tp87
g1
(g10
g3
NtRp88
(dp89
g13
F1.3773051128714398
sg14
I9
sg15
I00
sg16
I3
sg17
I60
sbs(I4
I16
tp90
g1
(g10
g3
NtRp91
(dp92
g13
F1.502072018343779
sg14
I4
sg15
I01
sg16
I16
sg17
I209
sbs(I2
I3
tp93
g1
(g10
g3
NtRp94
(dp95
g13
F-14.265364827433334
sg14
I2
sg15
I01
sg16
I3
sg17
I5
sbs(I1
I9
tp96
g1
(g10
g3
NtRp97
(dp98
g13
F21.369001903148668
sg14
I1
sg15
I01
sg16
I9
sg17
I47
sbs(I14
I2
tp99
g1
(g10
g3
NtRp100
(dp101
g13
F23.01318299517332
sg14
I14
sg15
I01
sg16
I2
sg17
I125
sbs(I4
I11
tp102
g1
(g10
g3
NtRp103
(dp104
g13
F-7.2052418807932339
sg14
I4
sg15
I01
sg16
I11
sg17
I86
sbs(I3
I5
tp105
g1
(g10
g3
NtRp106
(dp107
g13
F27.773156527139523
sg14
I3
sg15
I01
sg16
I5
sg17
I12
sbs(I10
I5
tp108
g1
(g10
g3
NtRp109
(dp110
g13
F0.22727363032273451
sg14
I10
sg15
I01
sg16
I5
sg17
I79
sbs(I6
I8
tp111
g1
(g10
g3
NtRp112
(dp113
g13
F6.3371608059669615
sg14
I6
sg15
I01
sg16
I8
sg17
I51
sbs(I13
I14
tp114
g1
(g10
g3
NtRp115
(dp116
g13
F17.399203439633627
sg14
I13
sg15
I01
sg16
I14
sg17
I189
sbs(I16
I8
tp117
g1
(g10
g3
NtRp118
(dp119
g13
F9.1371843024233659
sg14
I16
sg15
I01
sg16
I8
sg17
I237
sbs(I4
I17
tp120
g1
(g10
g3
NtRp121
(dp122
g13
F1.4322964356228067
sg14
I4
sg15
I01
sg16
I17
sg17
I263
sbs(I9
I9
tp123
g1
(g10
g3
NtRp124
(dp125
g13
F-4.3719773178229335
sg14
I9
sg15
I00
sg16
I9
sg17
I73
sbs(I17
I9
tp126
g1
(g10
g3
NtRp127
(dp128
g13
F28.885843712972367
sg14
I17
sg15
I01
sg16
I9
sg17
I265
sbs(I9
I2
tp129
g1
(g10
g3
NtRp130
(dp131
g13
F-7.9585520513013952
sg14
I9
sg15
I01
sg16
I2
sg17
I48
sbs(I10
I14
tp132
g1
(g10
g3
NtRp133
(dp134
g13
F2.093009411996702
sg14
I10
sg15
I01
sg16
I14
sg17
I145
sbs(I4
I3
tp135
g1
(g10
g3
NtRp136
(dp137
g13
F-4.8035842602204788
sg14
I4
sg15
I01
sg16
I3
sg17
I10
sbs(I10
I2
tp138
g1
(g10
g3
NtRp139
(dp140
g13
F27.590763387412743
sg14
I10
sg15
I00
sg16
I2
sg17
I66
sbs(I5
I2
tp141
g1
(g10
g3
NtRp142
(dp143
g13
F-15.987554268093543
sg14
I5
sg15
I01
sg16
I2
sg17
I21
sbs(I2
I4
tp144
g1
(g10
g3
NtRp145
(dp146
g13
F27.879253409468106
sg14
I2
sg15
I01
sg16
I4
sg17
I16
sbs(I9
I12
tp147
g1
(g10
g3
NtRp148
(dp149
g13
F-5.1000939849413083
sg14
I9
sg15
I01
sg16
I12
sg17
I127
sbs(I8
I4
tp150
g1
(g10
g3
NtRp151
(dp152
g13
F25.701582175583052
sg14
I8
sg15
I01
sg16
I4
sg17
I41
sbssS'_input_nodes'
p153
I1
sS'_output_nodes'
p154
I1
sS'_node_gene_type'
p155
cneat.genome
NodeGene
p156
sS'_conn_gene_type'
p157
g10
sS'fitness'
p158
F0.99712365318469576
sS'parent2_id'
p159
I15584
sS'_id'
p160
I15621
sS'parent1_id'
p161
I15584
sS'_node_genes'
p162
(lp163
g1
(g156
g3
NtRp164
(dp165
S'_bias'
p166
I0
sS'_type'
p167
S'INPUT'
p168
sg160
I1
sS'_response'
p169
F4.9242730000000003
sS'_activation_type'
p170
Nsbag1
(g156
g3
NtRp171
(dp172
g166
F0.19902961667090532
sg167
S'OUTPUT'
p173
sg160
I2
sg169
F4.211367467124786
sg170
S'tanh'
p174
sbag1
(g156
g3
NtRp175
(dp176
g166
F-2.6684349102820812
sg167
S'HIDDEN'
p177
sg160
I3
sg169
F4.1298720807369929
sg170
g174
sbag1
(g156
g3
NtRp178
(dp179
g166
F6.4404940509232231
sg167
g177
sg160
I4
sg169
F0.49345440101393168
sg170
g174
sbag1
(g156
g3
NtRp180
(dp181
g166
F-2.9828337032662446
sg167
g177
sg160
I5
sg169
F8.859852776543768
sg170
g174
sbag1
(g156
g3
NtRp182
(dp183
g166
F1.3188893357455818
sg167
g177
sg160
I6
sg169
F7.5809021323891566
sg170
g174
sbag1
(g156
g3
NtRp184
(dp185
g166
F-3.852093887947563
sg167
g177
sg160
I7
sg169
F10.382433572555382
sg170
g174
sbag1
(g156
g3
NtRp186
(dp187
g166
F0.2501894418653674
sg167
g177
sg160
I8
sg169
F2.7702518552089166
sg170
g174
sbag1
(g156
g3
NtRp188
(dp189
g166
F-0.51415710177536356
sg167
g177
sg160
I9
sg169
F4.0598675395007193
sg170
g174
sbag1
(g156
g3
NtRp190
(dp191
g166
F3.4946202910335815
sg167
g177
sg160
I10
sg169
F-0.93491866510623711
sg170
g174
sbag1
(g156
g3
NtRp192
(dp193
g166
F0.42442316578082584
sg167
g177
sg160
I11
sg169
F8.883402162498502
sg170
g174
sbag1
(g156
g3
NtRp194
(dp195
g166
F1.32447352477215
sg167
g177
sg160
I12
sg169
F0.98981320310609988
sg170
g174
sbag1
(g156
g3
NtRp196
(dp197
g166
F-2.6648102655476746
sg167
g177
sg160
I13
sg169
F4.1948407462617245
sg170
g174
sbag1
(g156
g3
NtRp198
(dp199
g166
F-4.7285587170028949
sg167
g177
sg160
I14
sg169
F6.761162326572804
sg170
g174
sbag1
(g156
g3
NtRp200
(dp201
g166
F-0.78294976227465785
sg167
g177
sg160
I15
sg169
F7.1876430642367222
sg170
g174
sbag1
(g156
g3
NtRp202
(dp203
g166
F-1.3933884215051195
sg167
g177
sg160
I16
sg169
F3.9817753791067889
sg170
g174
sbag1
(g156
g3
NtRp204
(dp205
g166
I0
sg167
g177
sg160
I17
sg169
F4.9494678508760099
sg170
g174
sbasb.