ccopy_reg
_reconstructor
p1
(cneat.chromosome
Chromosome
p2
c__builtin__
object
p3
NtRp4
(dp5
S'species_id'
p6
I49
sS'_connection_genes'
p7
(dp8
(I1
I3
tp9
g1
(cneat.genome
ConnectionGene
p10
g3
NtRp11
(dp12
S'_ConnectionGene__weight'
p13
F7.2202895216547125
sS'_ConnectionGene__in'
p14
I1
sS'_ConnectionGene__enabled'
p15
I01
sS'_ConnectionGene__out'
p16
I3
sS'_ConnectionGene__innov_number'
p17
I3
sbs(I5
I6
tp18
g1
(g10
g3
NtRp19
(dp20
g13
F1.1661314895278023
sg14
I5
sg15
I01
sg16
I6
sg17
I25
sbs(I8
I9
tp21
g1
(g10
g3
NtRp22
(dp23
g13
F5.8545989395473779
sg14
I8
sg15
I01
sg16
I9
sg17
I61
sbs(I6
I2
tp24
g1
(g10
g3
NtRp25
(dp26
g13
F-0.46632080011037957
sg14
I6
sg15
I01
sg16
I2
sg17
I18
sbs(I3
I7
tp27
g1
(g10
g3
NtRp28
(dp29
g13
F1.8289809811040951
sg14
I3
sg15
I01
sg16
I7
sg17
I49
sbs(I10
I3
tp30
g1
(g10
g3
NtRp31
(dp32
g13
F-8.8206556117666022
sg14
I10
sg15
I01
sg16
I3
sg17
I71
sbs(I5
I8
tp33
g1
(g10
g3
NtRp34
(dp35
g13
F3.8527020705585513
sg14
I5
sg15
I01
sg16
I8
sg17
I45
sbs(I1
I2
tp36
g1
(g10
g3
NtRp37
(dp38
g13
F-5.8572212548776186
sg14
I1
sg15
I01
sg16
I2
sg17
I1
sbs(I3
I3
tp39
g1
(g10
g3
NtRp40
(dp41
g13
F20.913272699499437
sg14
I3
sg15
I01
sg16
I3
sg17
I8
sbs(I8
I10
tp42
g1
(g10
g3
NtRp43
(dp44
g13
F1.2001945892271049
sg14
I8
sg15
I01
sg16
I10
sg17
I65
sbs(I7
I2
tp45
g1
(g10
g3
NtRp46
(dp47
g13
F-1.9336338324072286
sg14
I7
sg15
I01
sg16
I2
sg17
I31
sbs(I5
I3
tp48
g1
(g10
g3
NtRp49
(dp50
g13
F5.6955509004412841
sg14
I5
sg15
I01
sg16
I3
sg17
I15
sbs(I3
I2
tp51
g1
(g10
g3
NtRp52
(dp53
g13
F12.567430982442865
sg14
I3
sg15
I01
sg16
I2
sg17
I4
sbs(I8
I2
tp54
g1
(g10
g3
NtRp55
(dp56
g13
F-19.955472170346425
sg14
I8
sg15
I01
sg16
I2
sg17
I46
sbs(I4
I5
tp57
g1
(g10
g3
NtRp58
(dp59
g13
F-1.3640489225284882
sg14
I4
sg15
I01
sg16
I5
sg17
I20
sbs(I9
I3
tp60
g1
(g10
g3
NtRp61
(dp62
g13
F1.1011891754248686
sg14
I9
sg15
I01
sg16
I3
sg17
I60
sbs(I1
I4
tp63
g1
(g10
g3
NtRp64
(dp65
g13
F11.686216948654833
sg14
I1
sg15
I01
sg16
I4
sg17
I6
sbs(I7
I5
tp66
g1
(g10
g3
NtRp67
(dp68
g13
F11.228761211576275
sg14
I7
sg15
I01
sg16
I5
sg17
I50
sbs(I3
I5
tp69
g1
(g10
g3
NtRp70
(dp71
g13
F19.095699557095031
sg14
I3
sg15
I01
sg16
I5
sg17
I12
sbs(I8
I3
tp72
g1
(g10
g3
NtRp73
(dp74
g13
F-13.754075395769384
sg14
I8
sg15
I00
sg16
I3
sg17
I39
sbs(I4
I3
tp75
g1
(g10
g3
NtRp76
(dp77
g13
F28.379674221373946
sg14
I4
sg15
I01
sg16
I3
sg17
I10
sbs(I5
I2
tp78
g1
(g10
g3
NtRp79
(dp80
g13
F-20.141408420152136
sg14
I5
sg15
I01
sg16
I2
sg17
I21
sbs(I2
I4
tp81
g1
(g10
g3
NtRp82
(dp83
g13
F-2.3569266059352456
sg14
I2
sg15
I01
sg16
I4
sg17
I16
sbs(I10
I2
tp84
g1
(g10
g3
NtRp85
(dp86
g13
F2.27492163106941
sg14
I10
sg15
I01
sg16
I2
sg17
I66
sbssS'_input_nodes'
p87
I1
sS'_output_nodes'
p88
I1
sS'_node_gene_type'
p89
cneat.genome
NodeGene
p90
sS'_conn_gene_type'
p91
g10
sS'fitness'
p92
F0.99971922371195709
sS'parent2_id'
p93
I7012
sS'_id'
p94
I7064
sS'parent1_id'
p95
I7012
sS'_node_genes'
p96
(lp97
g1
(g90
g3
NtRp98
(dp99
S'_bias'
p100
I0
sS'_type'
p101
S'INPUT'
p102
sg94
I1
sS'_response'
p103
F4.9242730000000003
sS'_activation_type'
p104
Nsbag1
(g90
g3
NtRp105
(dp106
g100
F-2.6725062019317387
sg101
S'OUTPUT'
p107
sg94
I2
sg103
F5.5764473713493015
sg104
S'tanh'
p108
sbag1
(g90
g3
NtRp109
(dp110
g100
F0.062660065554322797
sg101
S'HIDDEN'
p111
sg94
I3
sg103
F1.66653172958155
sg104
g108
sbag1
(g90
g3
NtRp112
(dp113
g100
F-3.0216785494979956
sg101
g111
sg94
I4
sg103
F6.902805288612277
sg104
g108
sbag1
(g90
g3
NtRp114
(dp115
g100
F1.5816616558964265
sg101
g111
sg94
I5
sg103
F3.9248705991138229
sg104
g108
sbag1
(g90
g3
NtRp116
(dp117
g100
F0.67507896650372101
sg101
g111
sg94
I6
sg103
F5.4011958481556341
sg104
g108
sbag1
(g90
g3
NtRp118
(dp119
g100
F-1.0608876062463186
sg101
g111
sg94
I7
sg103
F5.9179786496124658
sg104
g108
sbag1
(g90
g3
NtRp120
(dp121
g100
F3.2779171562970393
sg101
g111
sg94
I8
sg103
F9.0007656801503781
sg104
g108
sbag1
(g90
g3
NtRp122
(dp123
g100
F0.20544147345657282
sg101
g111
sg94
I9
sg103
F3.1884762096946591
sg104
g108
sbag1
(g90
g3
NtRp124
(dp125
g100
F0.60702297480354483
sg101
g111
sg94
I10
sg103
F4.170570668709173
sg104
g108
sbasb.