ccopy_reg
_reconstructor
p1
(cneat.chromosome
Chromosome
p2
c__builtin__
object
p3
NtRp4
(dp5
S'species_id'
p6
I127
sS'_connection_genes'
p7
(dp8
(I7
I3
tp9
g1
(cneat.genome
ConnectionGene
p10
g3
NtRp11
(dp12
S'_ConnectionGene__weight'
p13
F28.935476996244372
sS'_ConnectionGene__in'
p14
I7
sS'_ConnectionGene__enabled'
p15
I01
sS'_ConnectionGene__out'
p16
I3
sS'_ConnectionGene__innov_number'
p17
I36
sbs(I1
I3
tp18
g1
(g10
g3
NtRp19
(dp20
g13
F-11.160409664424677
sg14
I1
sg15
I01
sg16
I3
sg17
I3
sbs(I5
I9
tp21
g1
(g10
g3
NtRp22
(dp23
g13
F-8.0110269667816496
sg14
I5
sg15
I01
sg16
I9
sg17
I100
sbs(I11
I2
tp24
g1
(g10
g3
NtRp25
(dp26
g13
F4.4789895686498999
sg14
I11
sg15
I01
sg16
I2
sg17
I89
sbs(I3
I2
tp27
g1
(g10
g3
NtRp28
(dp29
g13
F10.612955607313992
sg14
I3
sg15
I01
sg16
I2
sg17
I4
sbs(I10
I15
tp30
g1
(g10
g3
NtRp31
(dp32
g13
F2.9044969399234977
sg14
I10
sg15
I01
sg16
I15
sg17
I169
sbs(I3
I7
tp33
g1
(g10
g3
NtRp34
(dp35
g13
F-22.313541434048474
sg14
I3
sg15
I01
sg16
I7
sg17
I49
sbs(I1
I11
tp36
g1
(g10
g3
NtRp37
(dp38
g13
F0.92363048591848607
sg14
I1
sg15
I01
sg16
I11
sg17
I88
sbs(I5
I8
tp39
g1
(g10
g3
NtRp40
(dp41
g13
F12.675182847136407
sg14
I5
sg15
I01
sg16
I8
sg17
I45
sbs(I1
I2
tp42
g1
(g10
g3
NtRp43
(dp44
g13
F-11.158742409768918
sg14
I1
sg15
I01
sg16
I2
sg17
I1
sbs(I12
I2
tp45
g1
(g10
g3
NtRp46
(dp47
g13
F8.6031558903566214
sg14
I12
sg15
I01
sg16
I2
sg17
I104
sbs(I13
I12
tp48
g1
(g10
g3
NtRp49
(dp50
g13
F8.6973139727503348
sg14
I13
sg15
I01
sg16
I12
sg17
I291
sbs(I4
I9
tp51
g1
(g10
g3
NtRp52
(dp53
g13
F13.395268188194862
sg14
I4
sg15
I01
sg16
I9
sg17
I57
sbs(I3
I3
tp54
g1
(g10
g3
NtRp55
(dp56
g13
F2.7431188513987634
sg14
I3
sg15
I01
sg16
I3
sg17
I8
sbs(I2
I9
tp57
g1
(g10
g3
NtRp58
(dp59
g13
F1.7749911741382505
sg14
I2
sg15
I01
sg16
I9
sg17
I144
sbs(I13
I3
tp60
g1
(g10
g3
NtRp61
(dp62
g13
F24.411451772353111
sg14
I13
sg15
I01
sg16
I3
sg17
I117
sbs(I3
I10
tp63
g1
(g10
g3
NtRp64
(dp65
g13
F-14.108359072141868
sg14
I3
sg15
I01
sg16
I10
sg17
I76
sbs(I4
I8
tp66
g1
(g10
g3
NtRp67
(dp68
g13
F4.80489279520057
sg14
I4
sg15
I01
sg16
I8
sg17
I38
sbs(I10
I12
tp69
g1
(g10
g3
NtRp70
(dp71
g13
F-13.540544210375423
sg14
I10
sg15
I01
sg16
I12
sg17
I111
sbs(I2
I13
tp72
g1
(g10
g3
NtRp73
(dp74
g13
F3.4116098649151048
sg14
I2
sg15
I01
sg16
I13
sg17
I176
sbs(I6
I5
tp75
g1
(g10
g3
NtRp76
(dp77
g13
F-25.863679530522642
sg14
I6
sg15
I01
sg16
I5
sg17
I28
sbs(I3
I6
tp78
g1
(g10
g3
NtRp79
(dp80
g13
F-20.019927749705381
sg14
I3
sg15
I01
sg16
I6
sg17
I22
sbs(I2
I2
tp81
g1
(g10
g3
NtRp82
(dp83
g13
F-10.994243167671204
sg14
I2
sg15
I01
sg16
I2
sg17
I2
sbs(I3
I5
tp84
g1
(g10
g3
NtRp85
(dp86
g13
F24.886655945382749
sg14
I3
sg15
I01
sg16
I5
sg17
I12
sbs(I5
I4
tp87
g1
(g10
g3
NtRp88
(dp89
g13
F-14.617596308811285
sg14
I5
sg15
I01
sg16
I4
sg17
I13
sbs(I6
I6
tp90
g1
(g10
g3
NtRp91
(dp92
g13
F1.5802760737393604
sg14
I6
sg15
I01
sg16
I6
sg17
I37
sbs(I7
I10
tp93
g1
(g10
g3
NtRp94
(dp95
g13
F24.35255363830473
sg14
I7
sg15
I01
sg16
I10
sg17
I78
sbs(I5
I11
tp96
g1
(g10
g3
NtRp97
(dp98
g13
F22.503915666460852
sg14
I5
sg15
I01
sg16
I11
sg17
I90
sbs(I9
I3
tp99
g1
(g10
g3
NtRp100
(dp101
g13
F-24.302995082220967
sg14
I9
sg15
I01
sg16
I3
sg17
I60
sbs(I4
I4
tp102
g1
(g10
g3
NtRp103
(dp104
g13
F-23.151483254314673
sg14
I4
sg15
I00
sg16
I4
sg17
I11
sbs(I2
I3
tp105
g1
(g10
g3
NtRp106
(dp107
g13
F25.518052646931455
sg14
I2
sg15
I01
sg16
I3
sg17
I5
sbs(I1
I9
tp108
g1
(g10
g3
NtRp109
(dp110
g13
F26.852669117533299
sg14
I1
sg15
I01
sg16
I9
sg17
I47
sbs(I4
I2
tp111
g1
(g10
g3
NtRp112
(dp113
g13
F-8.0431191220540512
sg14
I4
sg15
I01
sg16
I2
sg17
I7
sbs(I4
I11
tp114
g1
(g10
g3
NtRp115
(dp116
g13
F0.11833489390249316
sg14
I4
sg15
I01
sg16
I11
sg17
I86
sbs(I5
I3
tp117
g1
(g10
g3
NtRp118
(dp119
g13
F-7.5490302443152419
sg14
I5
sg15
I00
sg16
I3
sg17
I15
sbs(I2
I7
tp120
g1
(g10
g3
NtRp121
(dp122
g13
F-19.463273952157888
sg14
I2
sg15
I01
sg16
I7
sg17
I42
sbs(I10
I5
tp123
g1
(g10
g3
NtRp124
(dp125
g13
F20.614312257054802
sg14
I10
sg15
I01
sg16
I5
sg17
I79
sbs(I15
I2
tp126
g1
(g10
g3
NtRp127
(dp128
g13
F-5.2434550262330228
sg14
I15
sg15
I01
sg16
I2
sg17
I150
sbs(I9
I2
tp129
g1
(g10
g3
NtRp130
(dp131
g13
F-2.7514888889728466
sg14
I9
sg15
I01
sg16
I2
sg17
I48
sbs(I4
I15
tp132
g1
(g10
g3
NtRp133
(dp134
g13
F0.898909002586737
sg14
I4
sg15
I01
sg16
I15
sg17
I217
sbs(I9
I9
tp135
g1
(g10
g3
NtRp136
(dp137
g13
F-0.78996547492347302
sg14
I9
sg15
I01
sg16
I9
sg17
I73
sbs(I5
I14
tp138
g1
(g10
g3
NtRp139
(dp140
g13
F28.97256270628435
sg14
I5
sg15
I01
sg16
I14
sg17
I122
sbs(I11
I8
tp141
g1
(g10
g3
NtRp142
(dp143
g13
F6.1914399782166738
sg14
I11
sg15
I01
sg16
I8
sg17
I91
sbs(I12
I4
tp144
g1
(g10
g3
NtRp145
(dp146
g13
F-10.299420523393598
sg14
I12
sg15
I01
sg16
I4
sg17
I115
sbs(I4
I3
tp147
g1
(g10
g3
NtRp148
(dp149
g13
F-19.86660995776413
sg14
I4
sg15
I01
sg16
I3
sg17
I10
sbs(I14
I3
tp150
g1
(g10
g3
NtRp151
(dp152
g13
F18.196129279668689
sg14
I14
sg15
I01
sg16
I3
sg17
I132
sbs(I13
I9
tp153
g1
(g10
g3
NtRp154
(dp155
g13
F17.274867329422204
sg14
I13
sg15
I01
sg16
I9
sg17
I137
sbs(I8
I4
tp156
g1
(g10
g3
NtRp157
(dp158
g13
F-5.780259438604352
sg14
I8
sg15
I01
sg16
I4
sg17
I41
sbs(I5
I2
tp159
g1
(g10
g3
NtRp160
(dp161
g13
F6.7227602187359619
sg14
I5
sg15
I01
sg16
I2
sg17
I21
sbs(I2
I4
tp162
g1
(g10
g3
NtRp163
(dp164
g13
F9.9447961321140212
sg14
I2
sg15
I01
sg16
I4
sg17
I16
sbs(I10
I2
tp165
g1
(g10
g3
NtRp166
(dp167
g13
F-0.43392436868588324
sg14
I10
sg15
I01
sg16
I2
sg17
I66
sbssS'_input_nodes'
p168
I1
sS'_output_nodes'
p169
I1
sS'_node_gene_type'
p170
cneat.genome
NodeGene
p171
sS'_conn_gene_type'
p172
g10
sS'fitness'
p173
F0.96648808641110084
sS'parent2_id'
p174
I18228
sS'_id'
p175
I18272
sS'parent1_id'
p176
I18228
sS'_node_genes'
p177
(lp178
g1
(g171
g3
NtRp179
(dp180
S'_bias'
p181
I0
sS'_type'
p182
S'INPUT'
p183
sg175
I1
sS'_response'
p184
F4.9242730000000003
sS'_activation_type'
p185
Nsbag1
(g171
g3
NtRp186
(dp187
g181
F-1.4139926776397138
sg182
S'OUTPUT'
p188
sg175
I2
sg184
F6.5820761254644875
sg185
S'tanh'
p189
sbag1
(g171
g3
NtRp190
(dp191
g181
F-3.907689311777891
sg182
S'HIDDEN'
p192
sg175
I3
sg184
F3.4226165587576731
sg185
g189
sbag1
(g171
g3
NtRp193
(dp194
g181
F0.91307067689593913
sg182
g192
sg175
I4
sg184
F-3.030012414827258
sg185
g189
sbag1
(g171
g3
NtRp195
(dp196
g181
F-4.2542795747092992
sg182
g192
sg175
I5
sg184
F3.478241365801531
sg185
g189
sbag1
(g171
g3
NtRp197
(dp198
g181
F4.4210054909123935
sg182
g192
sg175
I6
sg184
F6.6647086985813484
sg185
g189
sbag1
(g171
g3
NtRp199
(dp200
g181
F-0.84779521056830509
sg182
g192
sg175
I7
sg184
F8.6999391437985238
sg185
g189
sbag1
(g171
g3
NtRp201
(dp202
g181
F-4.2244979244513825
sg182
g192
sg175
I8
sg184
F5.3942539084764229
sg185
g189
sbag1
(g171
g3
NtRp203
(dp204
g181
F4.4275824180013261
sg182
g192
sg175
I9
sg184
F2.9055177422611917
sg185
g189
sbag1
(g171
g3
NtRp205
(dp206
g181
F-0.68926975417345226
sg182
g192
sg175
I10
sg184
F3.6445891611643741
sg185
g189
sbag1
(g171
g3
NtRp207
(dp208
g181
F-1.5948559568967489
sg182
g192
sg175
I11
sg184
F5.1335830834935514
sg185
g189
sbag1
(g171
g3
NtRp209
(dp210
g181
F0.82615779993838256
sg182
g192
sg175
I12
sg184
F8.8971525575749375
sg185
g189
sbag1
(g171
g3
NtRp211
(dp212
g181
F-0.084636700296695622
sg182
g192
sg175
I13
sg184
F9.8442504179989143
sg185
g189
sbag1
(g171
g3
NtRp213
(dp214
g181
F2.0808267598456167
sg182
g192
sg175
I14
sg184
F6.5259991164667097
sg185
g189
sbag1
(g171
g3
NtRp215
(dp216
g181
F0.18492769624052857
sg182
g192
sg175
I15
sg184
F2.0241467049117743
sg185
g189
sbasb.