ccopy_reg
_reconstructor
p1
(cneat.chromosome
Chromosome
p2
c__builtin__
object
p3
NtRp4
(dp5
S'species_id'
p6
I80
sS'_connection_genes'
p7
(dp8
(I7
I3
tp9
g1
(cneat.genome
ConnectionGene
p10
g3
NtRp11
(dp12
S'_ConnectionGene__weight'
p13
F27.49730067701665
sS'_ConnectionGene__in'
p14
I7
sS'_ConnectionGene__enabled'
p15
I01
sS'_ConnectionGene__out'
p16
I3
sS'_ConnectionGene__innov_number'
p17
I36
sbs(I1
I3
tp18
g1
(g10
g3
NtRp19
(dp20
g13
F-10.003753677787897
sg14
I1
sg15
I01
sg16
I3
sg17
I3
sbs(I5
I9
tp21
g1
(g10
g3
NtRp22
(dp23
g13
F-3.176925565845135
sg14
I5
sg15
I01
sg16
I9
sg17
I100
sbs(I11
I2
tp24
g1
(g10
g3
NtRp25
(dp26
g13
F-1.2915282655200273
sg14
I11
sg15
I01
sg16
I2
sg17
I89
sbs(I3
I2
tp27
g1
(g10
g3
NtRp28
(dp29
g13
F10.578594058277137
sg14
I3
sg15
I01
sg16
I2
sg17
I4
sbs(I10
I12
tp30
g1
(g10
g3
NtRp31
(dp32
g13
F-11.825870041562659
sg14
I10
sg15
I01
sg16
I12
sg17
I111
sbs(I3
I7
tp33
g1
(g10
g3
NtRp34
(dp35
g13
F-7.5264640208589588
sg14
I3
sg15
I01
sg16
I7
sg17
I49
sbs(I5
I8
tp36
g1
(g10
g3
NtRp37
(dp38
g13
F7.1726956165717253
sg14
I5
sg15
I01
sg16
I8
sg17
I45
sbs(I1
I2
tp39
g1
(g10
g3
NtRp40
(dp41
g13
F-23.234869000411695
sg14
I1
sg15
I01
sg16
I2
sg17
I1
sbs(I12
I2
tp42
g1
(g10
g3
NtRp43
(dp44
g13
F23.495173756824926
sg14
I12
sg15
I01
sg16
I2
sg17
I104
sbs(I4
I9
tp45
g1
(g10
g3
NtRp46
(dp47
g13
F7.6706361478018215
sg14
I4
sg15
I01
sg16
I9
sg17
I57
sbs(I3
I3
tp48
g1
(g10
g3
NtRp49
(dp50
g13
F-1.7603573253531044
sg14
I3
sg15
I01
sg16
I3
sg17
I8
sbs(I2
I9
tp51
g1
(g10
g3
NtRp52
(dp53
g13
F-4.527400924842496
sg14
I2
sg15
I01
sg16
I9
sg17
I144
sbs(I3
I10
tp54
g1
(g10
g3
NtRp55
(dp56
g13
F-14.417562543689991
sg14
I3
sg15
I01
sg16
I10
sg17
I76
sbs(I6
I6
tp57
g1
(g10
g3
NtRp58
(dp59
g13
F-2.5770426137315861
sg14
I6
sg15
I01
sg16
I6
sg17
I37
sbs(I4
I4
tp60
g1
(g10
g3
NtRp61
(dp62
g13
F-7.4890750819476306
sg14
I4
sg15
I00
sg16
I4
sg17
I11
sbs(I4
I8
tp63
g1
(g10
g3
NtRp64
(dp65
g13
F6.8674941607803524
sg14
I4
sg15
I01
sg16
I8
sg17
I38
sbs(I4
I11
tp66
g1
(g10
g3
NtRp67
(dp68
g13
F0.1634073118410897
sg14
I4
sg15
I01
sg16
I11
sg17
I86
sbs(I3
I6
tp69
g1
(g10
g3
NtRp70
(dp71
g13
F-16.399177650861226
sg14
I3
sg15
I01
sg16
I6
sg17
I22
sbs(I2
I2
tp72
g1
(g10
g3
NtRp73
(dp74
g13
F1.6538059506976972
sg14
I2
sg15
I01
sg16
I2
sg17
I2
sbs(I3
I5
tp75
g1
(g10
g3
NtRp76
(dp77
g13
F27.812592468569267
sg14
I3
sg15
I01
sg16
I5
sg17
I12
sbs(I5
I4
tp78
g1
(g10
g3
NtRp79
(dp80
g13
F2.6706330733340748
sg14
I5
sg15
I01
sg16
I4
sg17
I13
sbs(I5
I11
tp81
g1
(g10
g3
NtRp82
(dp83
g13
F15.79231289934061
sg14
I5
sg15
I01
sg16
I11
sg17
I90
sbs(I9
I3
tp84
g1
(g10
g3
NtRp85
(dp86
g13
F-18.239269520888719
sg14
I9
sg15
I01
sg16
I3
sg17
I60
sbs(I2
I3
tp87
g1
(g10
g3
NtRp88
(dp89
g13
F3.3011102959233813
sg14
I2
sg15
I01
sg16
I3
sg17
I5
sbs(I1
I9
tp90
g1
(g10
g3
NtRp91
(dp92
g13
F14.701065473909606
sg14
I1
sg15
I01
sg16
I9
sg17
I47
sbs(I4
I2
tp93
g1
(g10
g3
NtRp94
(dp95
g13
F-6.0118662960228377
sg14
I4
sg15
I01
sg16
I2
sg17
I7
sbs(I6
I5
tp96
g1
(g10
g3
NtRp97
(dp98
g13
F-12.264053608837028
sg14
I6
sg15
I01
sg16
I5
sg17
I28
sbs(I5
I3
tp99
g1
(g10
g3
NtRp100
(dp101
g13
F-0.50230641640161888
sg14
I5
sg15
I01
sg16
I3
sg17
I15
sbs(I10
I5
tp102
g1
(g10
g3
NtRp103
(dp104
g13
F4.1234841602294647
sg14
I10
sg15
I01
sg16
I5
sg17
I79
sbs(I9
I2
tp105
g1
(g10
g3
NtRp106
(dp107
g13
F-3.1457478694297105
sg14
I9
sg15
I01
sg16
I2
sg17
I48
sbs(I9
I9
tp108
g1
(g10
g3
NtRp109
(dp110
g13
F7.2794129330824511
sg14
I9
sg15
I01
sg16
I9
sg17
I73
sbs(I11
I8
tp111
g1
(g10
g3
NtRp112
(dp113
g13
F-5.452994643357389
sg14
I11
sg15
I01
sg16
I8
sg17
I91
sbs(I12
I4
tp114
g1
(g10
g3
NtRp115
(dp116
g13
F0.87414237381553717
sg14
I12
sg15
I01
sg16
I4
sg17
I115
sbs(I4
I3
tp117
g1
(g10
g3
NtRp118
(dp119
g13
F-7.8930927683027292
sg14
I4
sg15
I01
sg16
I3
sg17
I10
sbs(I8
I4
tp120
g1
(g10
g3
NtRp121
(dp122
g13
F20.765243444648448
sg14
I8
sg15
I01
sg16
I4
sg17
I41
sbs(I5
I2
tp123
g1
(g10
g3
NtRp124
(dp125
g13
F-14.531710537182974
sg14
I5
sg15
I01
sg16
I2
sg17
I21
sbs(I2
I4
tp126
g1
(g10
g3
NtRp127
(dp128
g13
F18.725882356781579
sg14
I2
sg15
I01
sg16
I4
sg17
I16
sbs(I10
I2
tp129
g1
(g10
g3
NtRp130
(dp131
g13
F27.496700016384377
sg14
I10
sg15
I01
sg16
I2
sg17
I66
sbssS'_input_nodes'
p132
I1
sS'_output_nodes'
p133
I1
sS'_node_gene_type'
p134
cneat.genome
NodeGene
p135
sS'_conn_gene_type'
p136
g10
sS'fitness'
p137
F0.98901955166819622
sS'parent2_id'
p138
I11691
sS'_id'
p139
I11739
sS'parent1_id'
p140
I11691
sS'_node_genes'
p141
(lp142
g1
(g135
g3
NtRp143
(dp144
S'_bias'
p145
I0
sS'_type'
p146
S'INPUT'
p147
sg139
I1
sS'_response'
p148
F4.9242730000000003
sS'_activation_type'
p149
Nsbag1
(g135
g3
NtRp150
(dp151
g145
F-0.3320892657792931
sg146
S'OUTPUT'
p152
sg139
I2
sg148
F5.1271597631499475
sg149
S'tanh'
p153
sbag1
(g135
g3
NtRp154
(dp155
g145
F-2.692408533612852
sg146
S'HIDDEN'
p156
sg139
I3
sg148
F4.8980290762684682
sg149
g153
sbag1
(g135
g3
NtRp157
(dp158
g145
F2.5913014969848116
sg146
g156
sg139
I4
sg148
F0.60899431963564687
sg149
g153
sbag1
(g135
g3
NtRp159
(dp160
g145
F-3.0381528832425708
sg146
g156
sg139
I5
sg148
F5.8856990124190611
sg149
g153
sbag1
(g135
g3
NtRp161
(dp162
g145
F2.6273848932600625
sg146
g156
sg139
I6
sg148
F10.248539232470595
sg149
g153
sbag1
(g135
g3
NtRp163
(dp164
g145
F-1.255051903772967
sg146
g156
sg139
I7
sg148
F11.387117584838315
sg149
g153
sbag1
(g135
g3
NtRp165
(dp166
g145
F-3.734705148604236
sg146
g156
sg139
I8
sg148
F4.0654258714174984
sg149
g153
sbag1
(g135
g3
NtRp167
(dp168
g145
F2.6829321781813404
sg146
g156
sg139
I9
sg148
F2.7976611707635994
sg149
g153
sbag1
(g135
g3
NtRp169
(dp170
g145
F0.52333196452279207
sg146
g156
sg139
I10
sg148
F4.387464001973691
sg149
g153
sbag1
(g135
g3
NtRp171
(dp172
g145
F-2.2196831660036755
sg146
g156
sg139
I11
sg148
F5.0938696535104722
sg149
g153
sbag1
(g135
g3
NtRp173
(dp174
g145
F0.8932971916111736
sg146
g156
sg139
I12
sg148
F4.8105340172769955
sg149
g153
sbasb.