ccopy_reg
_reconstructor
p1
(cneat.chromosome
Chromosome
p2
c__builtin__
object
p3
NtRp4
(dp5
S'species_id'
p6
I82
sS'_connection_genes'
p7
(dp8
(I1
I3
tp9
g1
(cneat.genome
ConnectionGene
p10
g3
NtRp11
(dp12
S'_ConnectionGene__weight'
p13
F1.6033716670541427
sS'_ConnectionGene__in'
p14
I1
sS'_ConnectionGene__enabled'
p15
I01
sS'_ConnectionGene__out'
p16
I3
sS'_ConnectionGene__innov_number'
p17
I3
sbs(I5
I6
tp18
g1
(g10
g3
NtRp19
(dp20
g13
F0.22525840844757239
sg14
I5
sg15
I01
sg16
I6
sg17
I25
sbs(I11
I2
tp21
g1
(g10
g3
NtRp22
(dp23
g13
F-1.8698214879695134
sg14
I11
sg15
I01
sg16
I2
sg17
I89
sbs(I5
I4
tp24
g1
(g10
g3
NtRp25
(dp26
g13
F-3.6893333722271024
sg14
I5
sg15
I01
sg16
I4
sg17
I13
sbs(I8
I9
tp27
g1
(g10
g3
NtRp28
(dp29
g13
F-11.141425607736066
sg14
I8
sg15
I01
sg16
I9
sg17
I61
sbs(I6
I2
tp30
g1
(g10
g3
NtRp31
(dp32
g13
F-17.27843118256688
sg14
I6
sg15
I00
sg16
I2
sg17
I18
sbs(I3
I7
tp33
g1
(g10
g3
NtRp34
(dp35
g13
F-0.37078908105882391
sg14
I3
sg15
I01
sg16
I7
sg17
I49
sbs(I5
I8
tp36
g1
(g10
g3
NtRp37
(dp38
g13
F-12.580984792390506
sg14
I5
sg15
I01
sg16
I8
sg17
I45
sbs(I6
I14
tp39
g1
(g10
g3
NtRp40
(dp41
g13
F-1.6220247167599373
sg14
I6
sg15
I01
sg16
I14
sg17
I165
sbs(I1
I2
tp42
g1
(g10
g3
NtRp43
(dp44
g13
F-20.270917702057833
sg14
I1
sg15
I01
sg16
I2
sg17
I1
sbs(I12
I2
tp45
g1
(g10
g3
NtRp46
(dp47
g13
F10.777914428617567
sg14
I12
sg15
I01
sg16
I2
sg17
I104
sbs(I3
I3
tp48
g1
(g10
g3
NtRp49
(dp50
g13
F30
sg14
I3
sg15
I00
sg16
I3
sg17
I8
sbs(I13
I3
tp51
g1
(g10
g3
NtRp52
(dp53
g13
F8.7620893691014565
sg14
I13
sg15
I01
sg16
I3
sg17
I117
sbs(I4
I13
tp54
g1
(g10
g3
NtRp55
(dp56
g13
F19.369785138203273
sg14
I4
sg15
I01
sg16
I13
sg17
I129
sbs(I7
I2
tp57
g1
(g10
g3
NtRp58
(dp59
g13
F-14.574230555991004
sg14
I7
sg15
I01
sg16
I2
sg17
I31
sbs(I12
I10
tp60
g1
(g10
g3
NtRp61
(dp62
g13
F-1.7606417578768649
sg14
I12
sg15
I01
sg16
I10
sg17
I128
sbs(I5
I3
tp63
g1
(g10
g3
NtRp64
(dp65
g13
F11.810541173822138
sg14
I5
sg15
I01
sg16
I3
sg17
I15
sbs(I12
I3
tp66
g1
(g10
g3
NtRp67
(dp68
g13
F4.833793182825131
sg14
I12
sg15
I01
sg16
I3
sg17
I106
sbs(I2
I16
tp69
g1
(g10
g3
NtRp70
(dp71
g13
F0.9971428004422197
sg14
I2
sg15
I01
sg16
I16
sg17
I228
sbs(I3
I2
tp72
g1
(g10
g3
NtRp73
(dp74
g13
F-8.1832472896240542
sg14
I3
sg15
I01
sg16
I2
sg17
I4
sbs(I9
I3
tp75
g1
(g10
g3
NtRp76
(dp77
g13
F-0.66053087726182591
sg14
I9
sg15
I01
sg16
I3
sg17
I60
sbs(I8
I2
tp78
g1
(g10
g3
NtRp79
(dp80
g13
F-29.993830490505751
sg14
I8
sg15
I01
sg16
I2
sg17
I46
sbs(I16
I4
tp81
g1
(g10
g3
NtRp82
(dp83
g13
F-22.121335897830452
sg14
I16
sg15
I01
sg16
I4
sg17
I229
sbs(I15
I3
tp84
g1
(g10
g3
NtRp85
(dp86
g13
F15.352651297835116
sg14
I15
sg15
I01
sg16
I3
sg17
I182
sbs(I8
I11
tp87
g1
(g10
g3
NtRp88
(dp89
g13
F24.45349682227155
sg14
I8
sg15
I01
sg16
I11
sg17
I98
sbs(I13
I15
tp90
g1
(g10
g3
NtRp91
(dp92
g13
F4.1457405281537651
sg14
I13
sg15
I01
sg16
I15
sg17
I208
sbs(I1
I4
tp93
g1
(g10
g3
NtRp94
(dp95
g13
F9.136958764068595
sg14
I1
sg15
I01
sg16
I4
sg17
I6
sbs(I2
I10
tp96
g1
(g10
g3
NtRp97
(dp98
g13
F7.1655144675643001
sg14
I2
sg15
I01
sg16
I10
sg17
I69
sbs(I7
I5
tp99
g1
(g10
g3
NtRp100
(dp101
g13
F-0.76619633929549003
sg14
I7
sg15
I01
sg16
I5
sg17
I50
sbs(I3
I12
tp102
g1
(g10
g3
NtRp103
(dp104
g13
F4.9967928069549412
sg14
I3
sg15
I01
sg16
I12
sg17
I105
sbs(I14
I2
tp105
g1
(g10
g3
NtRp106
(dp107
g13
F-24.482723708562258
sg14
I14
sg15
I01
sg16
I2
sg17
I125
sbs(I3
I5
tp108
g1
(g10
g3
NtRp109
(dp110
g13
F27.430378136701901
sg14
I3
sg15
I01
sg16
I5
sg17
I12
sbs(I8
I3
tp111
g1
(g10
g3
NtRp112
(dp113
g13
F-18.291187190834787
sg14
I8
sg15
I01
sg16
I3
sg17
I39
sbs(I5
I10
tp114
g1
(g10
g3
NtRp115
(dp116
g13
F-6.7477790649173066
sg14
I5
sg15
I01
sg16
I10
sg17
I67
sbs(I13
I5
tp117
g1
(g10
g3
NtRp118
(dp119
g13
F2.3996150600511772
sg14
I13
sg15
I01
sg16
I5
sg17
I114
sbs(I4
I3
tp120
g1
(g10
g3
NtRp121
(dp122
g13
F-3.3088049872509839
sg14
I4
sg15
I01
sg16
I3
sg17
I10
sbs(I5
I2
tp123
g1
(g10
g3
NtRp124
(dp125
g13
F-15.243701419334993
sg14
I5
sg15
I01
sg16
I2
sg17
I21
sbs(I2
I4
tp126
g1
(g10
g3
NtRp127
(dp128
g13
F-19.651262008801663
sg14
I2
sg15
I00
sg16
I4
sg17
I16
sbs(I10
I2
tp129
g1
(g10
g3
NtRp130
(dp131
g13
F-9.497668216625847
sg14
I10
sg15
I01
sg16
I2
sg17
I66
sbssS'_input_nodes'
p132
I1
sS'_output_nodes'
p133
I1
sS'_node_gene_type'
p134
cneat.genome
NodeGene
p135
sS'_conn_gene_type'
p136
g10
sS'fitness'
p137
F0.99719658036024827
sS'parent2_id'
p138
I12511
sS'_id'
p139
I12551
sS'parent1_id'
p140
I12511
sS'_node_genes'
p141
(lp142
g1
(g135
g3
NtRp143
(dp144
S'_bias'
p145
I0
sS'_type'
p146
S'INPUT'
p147
sg139
I1
sS'_response'
p148
F4.9242730000000003
sS'_activation_type'
p149
Nsbag1
(g135
g3
NtRp150
(dp151
g145
F0.68570194674267038
sg146
S'OUTPUT'
p152
sg139
I2
sg148
F4.6603065472846916
sg149
S'tanh'
p153
sbag1
(g135
g3
NtRp154
(dp155
g145
F-0.42968100876471543
sg146
S'HIDDEN'
p156
sg139
I3
sg148
F-0.94631296371046358
sg149
g153
sbag1
(g135
g3
NtRp157
(dp158
g145
F-4.0395222604681074
sg146
g156
sg139
I4
sg148
F6.6848263050827708
sg149
g153
sbag1
(g135
g3
NtRp159
(dp160
g145
F1.3969571627460382
sg146
g156
sg139
I5
sg148
F1.9959034106347919
sg149
g153
sbag1
(g135
g3
NtRp161
(dp162
g145
F0.14271012917215206
sg146
g156
sg139
I6
sg148
F-1.5844585237191893
sg149
g153
sbag1
(g135
g3
NtRp163
(dp164
g145
F-2.2959179324877175
sg146
g156
sg139
I7
sg148
F3.1353926708312274
sg149
g153
sbag1
(g135
g3
NtRp165
(dp166
g145
F4.0997478734482993
sg146
g156
sg139
I8
sg148
F3.6143241924367269
sg149
g153
sbag1
(g135
g3
NtRp167
(dp168
g145
F0.7978381221984463
sg146
g156
sg139
I9
sg148
F5.6777318910666636
sg149
g153
sbag1
(g135
g3
NtRp169
(dp170
g145
F-2.4488396782659567
sg146
g156
sg139
I10
sg148
F7.3143084184705636
sg149
g153
sbag1
(g135
g3
NtRp171
(dp172
g145
F-0.78264056366371382
sg146
g156
sg139
I11
sg148
F3.6930208887372218
sg149
g153
sbag1
(g135
g3
NtRp173
(dp174
g145
F2.1707526013043026
sg146
g156
sg139
I12
sg148
F5.1748962097031299
sg149
g153
sbag1
(g135
g3
NtRp175
(dp176
g145
F1.0918253423618438
sg146
g156
sg139
I13
sg148
F5.4261373246889519
sg149
g153
sbag1
(g135
g3
NtRp177
(dp178
g145
F-2.7638789352530351
sg146
g156
sg139
I14
sg148
F6.160799306576985
sg149
g153
sbag1
(g135
g3
NtRp179
(dp180
g145
F1.0633390172573907
sg146
g156
sg139
I15
sg148
F4.4922497400724266
sg149
g153
sbag1
(g135
g3
NtRp181
(dp182
g145
F2.0289718173128595
sg146
g156
sg139
I16
sg148
F3.802111625990737
sg149
g153
sbasb.