ccopy_reg
_reconstructor
p1
(cneat.chromosome
Chromosome
p2
c__builtin__
object
p3
NtRp4
(dp5
S'species_id'
p6
I117
sS'_connection_genes'
p7
(dp8
(I7
I3
tp9
g1
(cneat.genome
ConnectionGene
p10
g3
NtRp11
(dp12
S'_ConnectionGene__weight'
p13
F26.421186896559963
sS'_ConnectionGene__in'
p14
I7
sS'_ConnectionGene__enabled'
p15
I01
sS'_ConnectionGene__out'
p16
I3
sS'_ConnectionGene__innov_number'
p17
I36
sbs(I1
I3
tp18
g1
(g10
g3
NtRp19
(dp20
g13
F-14.258427184826399
sg14
I1
sg15
I01
sg16
I3
sg17
I3
sbs(I5
I9
tp21
g1
(g10
g3
NtRp22
(dp23
g13
F4.2820896175047363
sg14
I5
sg15
I01
sg16
I9
sg17
I100
sbs(I16
I9
tp24
g1
(g10
g3
NtRp25
(dp26
g13
F30
sg14
I16
sg15
I01
sg16
I9
sg17
I236
sbs(I3
I13
tp27
g1
(g10
g3
NtRp28
(dp29
g13
F27.006003353037368
sg14
I3
sg15
I01
sg16
I13
sg17
I107
sbs(I5
I4
tp30
g1
(g10
g3
NtRp31
(dp32
g13
F2.1193714092605784
sg14
I5
sg15
I01
sg16
I4
sg17
I13
sbs(I2
I12
tp33
g1
(g10
g3
NtRp34
(dp35
g13
F-1.1108306378911277
sg14
I2
sg15
I01
sg16
I12
sg17
I135
sbs(I7
I11
tp36
g1
(g10
g3
NtRp37
(dp38
g13
F-8.9226959890245165
sg14
I7
sg15
I01
sg16
I11
sg17
I92
sbs(I3
I7
tp39
g1
(g10
g3
NtRp40
(dp41
g13
F21.502916148632213
sg14
I3
sg15
I00
sg16
I7
sg17
I49
sbs(I14
I9
tp42
g1
(g10
g3
NtRp43
(dp44
g13
F10.854386384797998
sg14
I14
sg15
I01
sg16
I9
sg17
I130
sbs(I5
I8
tp45
g1
(g10
g3
NtRp46
(dp47
g13
F22.099234657494055
sg14
I5
sg15
I01
sg16
I8
sg17
I45
sbs(I1
I2
tp48
g1
(g10
g3
NtRp49
(dp50
g13
F-20.215383616859935
sg14
I1
sg15
I01
sg16
I2
sg17
I1
sbs(I12
I2
tp51
g1
(g10
g3
NtRp52
(dp53
g13
F19.380664417071131
sg14
I12
sg15
I01
sg16
I2
sg17
I104
sbs(I4
I9
tp54
g1
(g10
g3
NtRp55
(dp56
g13
F-1.7467125066289331
sg14
I4
sg15
I01
sg16
I9
sg17
I57
sbs(I3
I3
tp57
g1
(g10
g3
NtRp58
(dp59
g13
F-2.5686834885891447
sg14
I3
sg15
I01
sg16
I3
sg17
I8
sbs(I2
I9
tp60
g1
(g10
g3
NtRp61
(dp62
g13
F16.766179826551852
sg14
I2
sg15
I01
sg16
I9
sg17
I144
sbs(I3
I10
tp63
g1
(g10
g3
NtRp64
(dp65
g13
F5.6094648427417209
sg14
I3
sg15
I01
sg16
I10
sg17
I76
sbs(I4
I4
tp66
g1
(g10
g3
NtRp67
(dp68
g13
F2.5629739987640074
sg14
I4
sg15
I00
sg16
I4
sg17
I11
sbs(I10
I12
tp69
g1
(g10
g3
NtRp70
(dp71
g13
F-28.639120205235145
sg14
I10
sg15
I01
sg16
I12
sg17
I111
sbs(I17
I2
tp72
g1
(g10
g3
NtRp73
(dp74
g13
F-5.3275985835095732
sg14
I17
sg15
I01
sg16
I2
sg17
I202
sbs(I13
I7
tp75
g1
(g10
g3
NtRp76
(dp77
g13
F-11.736199649938296
sg14
I13
sg15
I01
sg16
I7
sg17
I108
sbs(I9
I17
tp78
g1
(g10
g3
NtRp79
(dp80
g13
F4.0203902494598651
sg14
I9
sg15
I01
sg16
I17
sg17
I258
sbs(I18
I9
tp81
g1
(g10
g3
NtRp82
(dp83
g13
F-0.40885889100927608
sg14
I18
sg15
I01
sg16
I9
sg17
I268
sbs(I2
I2
tp84
g1
(g10
g3
NtRp85
(dp86
g13
F10.338642029969352
sg14
I2
sg15
I01
sg16
I2
sg17
I2
sbs(I15
I4
tp87
g1
(g10
g3
NtRp88
(dp89
g13
F10.875956286215345
sg14
I15
sg15
I01
sg16
I4
sg17
I173
sbs(I10
I2
tp90
g1
(g10
g3
NtRp91
(dp92
g13
F27.833026095840246
sg14
I10
sg15
I01
sg16
I2
sg17
I66
sbs(I15
I12
tp93
g1
(g10
g3
NtRp94
(dp95
g13
F-1.442086440025335
sg14
I15
sg15
I01
sg16
I12
sg17
I159
sbs(I3
I2
tp96
g1
(g10
g3
NtRp97
(dp98
g13
F13.977082764605886
sg14
I3
sg15
I01
sg16
I2
sg17
I4
sbs(I6
I6
tp99
g1
(g10
g3
NtRp100
(dp101
g13
F1.4941288051747306
sg14
I6
sg15
I01
sg16
I6
sg17
I37
sbs(I12
I14
tp102
g1
(g10
g3
NtRp103
(dp104
g13
F-2.8269983979837532
sg14
I12
sg15
I01
sg16
I14
sg17
I131
sbs(I5
I11
tp105
g1
(g10
g3
NtRp106
(dp107
g13
F1.0706166949259426
sg14
I5
sg15
I01
sg16
I11
sg17
I90
sbs(I9
I3
tp108
g1
(g10
g3
NtRp109
(dp110
g13
F-18.400646795746692
sg14
I9
sg15
I01
sg16
I3
sg17
I60
sbs(I9
I16
tp111
g1
(g10
g3
NtRp112
(dp113
g13
F24.96384124113354
sg14
I9
sg15
I01
sg16
I16
sg17
I240
sbs(I2
I3
tp114
g1
(g10
g3
NtRp115
(dp116
g13
F12.24980863899501
sg14
I2
sg15
I01
sg16
I3
sg17
I5
sbs(I1
I9
tp117
g1
(g10
g3
NtRp118
(dp119
g13
F12.818320297843249
sg14
I1
sg15
I01
sg16
I9
sg17
I47
sbs(I4
I2
tp120
g1
(g10
g3
NtRp121
(dp122
g13
F-30
sg14
I4
sg15
I01
sg16
I2
sg17
I7
sbs(I14
I2
tp123
g1
(g10
g3
NtRp124
(dp125
g13
F16.212123765447632
sg14
I14
sg15
I01
sg16
I2
sg17
I125
sbs(I4
I11
tp126
g1
(g10
g3
NtRp127
(dp128
g13
F-30
sg14
I4
sg15
I01
sg16
I11
sg17
I86
sbs(I3
I5
tp129
g1
(g10
g3
NtRp130
(dp131
g13
F16.617769793222323
sg14
I3
sg15
I01
sg16
I5
sg17
I12
sbs(I10
I5
tp132
g1
(g10
g3
NtRp133
(dp134
g13
F15.672902709206298
sg14
I10
sg15
I01
sg16
I5
sg17
I79
sbs(I6
I5
tp135
g1
(g10
g3
NtRp136
(dp137
g13
F-11.471090578090307
sg14
I6
sg15
I01
sg16
I5
sg17
I28
sbs(I9
I2
tp138
g1
(g10
g3
NtRp139
(dp140
g13
F-7.5882954202678539
sg14
I9
sg15
I00
sg16
I2
sg17
I48
sbs(I7
I14
tp141
g1
(g10
g3
NtRp142
(dp143
g13
F-12.145618296585509
sg14
I7
sg15
I01
sg16
I14
sg17
I162
sbs(I9
I9
tp144
g1
(g10
g3
NtRp145
(dp146
g13
F16.55675649378583
sg14
I9
sg15
I01
sg16
I9
sg17
I73
sbs(I3
I6
tp147
g1
(g10
g3
NtRp148
(dp149
g13
F-17.453214799481508
sg14
I3
sg15
I01
sg16
I6
sg17
I22
sbs(I18
I7
tp150
g1
(g10
g3
NtRp151
(dp152
g13
F-1.0143009080213952
sg14
I18
sg15
I01
sg16
I7
sg17
I272
sbs(I11
I8
tp153
g1
(g10
g3
NtRp154
(dp155
g13
F7.2639694333517406
sg14
I11
sg15
I01
sg16
I8
sg17
I91
sbs(I13
I18
tp156
g1
(g10
g3
NtRp157
(dp158
g13
F7.1629691203047576
sg14
I13
sg15
I01
sg16
I18
sg17
I271
sbs(I4
I3
tp159
g1
(g10
g3
NtRp160
(dp161
g13
F0.57243403460499165
sg14
I4
sg15
I01
sg16
I3
sg17
I10
sbs(I2
I15
tp162
g1
(g10
g3
NtRp163
(dp164
g13
F-1.3811061457963592
sg14
I2
sg15
I01
sg16
I15
sg17
I172
sbs(I4
I8
tp165
g1
(g10
g3
NtRp166
(dp167
g13
F2.9084913134382564
sg14
I4
sg15
I01
sg16
I8
sg17
I38
sbs(I5
I2
tp168
g1
(g10
g3
NtRp169
(dp170
g13
F-3.938734626583047
sg14
I5
sg15
I01
sg16
I2
sg17
I21
sbs(I2
I4
tp171
g1
(g10
g3
NtRp172
(dp173
g13
F23.72868059858293
sg14
I2
sg15
I01
sg16
I4
sg17
I16
sbs(I11
I6
tp174
g1
(g10
g3
NtRp175
(dp176
g13
F-1.4591340566645543
sg14
I11
sg15
I01
sg16
I6
sg17
I110
sbs(I8
I4
tp177
g1
(g10
g3
NtRp178
(dp179
g13
F12.762577139613919
sg14
I8
sg15
I01
sg16
I4
sg17
I41
sbssS'_input_nodes'
p180
I1
sS'_output_nodes'
p181
I1
sS'_node_gene_type'
p182
cneat.genome
NodeGene
p183
sS'_conn_gene_type'
p184
g10
sS'fitness'
p185
F0.98197905030568833
sS'parent2_id'
p186
I16646
sS'_id'
p187
I16693
sS'parent1_id'
p188
I16646
sS'_node_genes'
p189
(lp190
g1
(g183
g3
NtRp191
(dp192
S'_bias'
p193
I0
sS'_type'
p194
S'INPUT'
p195
sg187
I1
sS'_response'
p196
F4.9242730000000003
sS'_activation_type'
p197
Nsbag1
(g183
g3
NtRp198
(dp199
g193
F0.16762158082948947
sg194
S'OUTPUT'
p200
sg187
I2
sg196
F7.2804185853860863
sg197
S'tanh'
p201
sbag1
(g183
g3
NtRp202
(dp203
g193
F-4.1558068508285579
sg194
S'HIDDEN'
p204
sg187
I3
sg196
F5.3695529031727123
sg197
g201
sbag1
(g183
g3
NtRp205
(dp206
g193
F3.0663099251956631
sg194
g204
sg187
I4
sg196
F-2.5646696686365478
sg197
g201
sbag1
(g183
g3
NtRp207
(dp208
g193
F-2.9494861542570225
sg194
g204
sg187
I5
sg196
F6.0856364353239476
sg197
g201
sbag1
(g183
g3
NtRp209
(dp210
g193
F1.682549321653156
sg194
g204
sg187
I6
sg196
F10.986681550104841
sg197
g201
sbag1
(g183
g3
NtRp211
(dp212
g193
F0.021912763299099192
sg194
g204
sg187
I7
sg196
F12.68512590073478
sg197
g201
sbag1
(g183
g3
NtRp213
(dp214
g193
F-1.0170606147754886
sg194
g204
sg187
I8
sg196
F3.4587965036992303
sg197
g201
sbag1
(g183
g3
NtRp215
(dp216
g193
F3.3337473780624642
sg194
g204
sg187
I9
sg196
F-0.1860847065151523
sg197
g201
sbag1
(g183
g3
NtRp217
(dp218
g193
F5.06320289715564
sg194
g204
sg187
I10
sg196
F2.9176259349227713
sg197
g201
sbag1
(g183
g3
NtRp219
(dp220
g193
F-3.9057801609432956
sg194
g204
sg187
I11
sg196
F8.4789027694671102
sg197
g201
sbag1
(g183
g3
NtRp221
(dp222
g193
F1.6937331692207462
sg194
g204
sg187
I12
sg196
F7.3968006225175928
sg197
g201
sbag1
(g183
g3
NtRp223
(dp224
g193
F0.796077506374951
sg194
g204
sg187
I13
sg196
F3.3400300686546665
sg197
g201
sbag1
(g183
g3
NtRp225
(dp226
g193
F1.0435897614144343
sg194
g204
sg187
I14
sg196
F5.0247131291781679
sg197
g201
sbag1
(g183
g3
NtRp227
(dp228
g193
F-1.1599040323555976
sg194
g204
sg187
I15
sg196
F8.6090968679320365
sg197
g201
sbag1
(g183
g3
NtRp229
(dp230
g193
F-2.2090885178602768
sg194
g204
sg187
I16
sg196
F7.4156176425967741
sg197
g201
sbag1
(g183
g3
NtRp231
(dp232
g193
F-2.1807052277997885
sg194
g204
sg187
I17
sg196
F2.5407114686731731
sg197
g201
sbag1
(g183
g3
NtRp233
(dp234
g193
F1.1015751303236185
sg194
g204
sg187
I18
sg196
F5.8017457826825876
sg197
g201
sbasb.