ccopy_reg
_reconstructor
p1
(cneat.chromosome
Chromosome
p2
c__builtin__
object
p3
NtRp4
(dp5
S'species_id'
p6
I126
sS'_connection_genes'
p7
(dp8
(I7
I3
tp9
g1
(cneat.genome
ConnectionGene
p10
g3
NtRp11
(dp12
S'_ConnectionGene__weight'
p13
F10.310951834836672
sS'_ConnectionGene__in'
p14
I7
sS'_ConnectionGene__enabled'
p15
I01
sS'_ConnectionGene__out'
p16
I3
sS'_ConnectionGene__innov_number'
p17
I36
sbs(I1
I3
tp18
g1
(g10
g3
NtRp19
(dp20
g13
F-29.922027214406629
sg14
I1
sg15
I01
sg16
I3
sg17
I3
sbs(I10
I11
tp21
g1
(g10
g3
NtRp22
(dp23
g13
F-1.6315815141085874
sg14
I10
sg15
I01
sg16
I11
sg17
I95
sbs(I5
I9
tp24
g1
(g10
g3
NtRp25
(dp26
g13
F-5.2119771589874127
sg14
I5
sg15
I01
sg16
I9
sg17
I100
sbs(I16
I9
tp27
g1
(g10
g3
NtRp28
(dp29
g13
F-9.5305772144530376
sg14
I16
sg15
I01
sg16
I9
sg17
I236
sbs(I11
I2
tp30
g1
(g10
g3
NtRp31
(dp32
g13
F23.663831852057033
sg14
I11
sg15
I01
sg16
I2
sg17
I89
sbs(I10
I6
tp33
g1
(g10
g3
NtRp34
(dp35
g13
F5.183200051959572
sg14
I10
sg15
I01
sg16
I6
sg17
I68
sbs(I5
I4
tp36
g1
(g10
g3
NtRp37
(dp38
g13
F15.770144309598765
sg14
I5
sg15
I01
sg16
I4
sg17
I13
sbs(I9
I2
tp39
g1
(g10
g3
NtRp40
(dp41
g13
F11.516576643836828
sg14
I9
sg15
I01
sg16
I2
sg17
I48
sbs(I10
I15
tp42
g1
(g10
g3
NtRp43
(dp44
g13
F-23.768161208700707
sg14
I10
sg15
I01
sg16
I15
sg17
I169
sbs(I13
I8
tp45
g1
(g10
g3
NtRp46
(dp47
g13
F18.859540482142023
sg14
I13
sg15
I01
sg16
I8
sg17
I177
sbs(I3
I7
tp48
g1
(g10
g3
NtRp49
(dp50
g13
F-8.7195216263888291
sg14
I3
sg15
I01
sg16
I7
sg17
I49
sbs(I15
I5
tp51
g1
(g10
g3
NtRp52
(dp53
g13
F12.378223720813617
sg14
I15
sg15
I01
sg16
I5
sg17
I147
sbs(I5
I8
tp54
g1
(g10
g3
NtRp55
(dp56
g13
F23.193770898393229
sg14
I5
sg15
I01
sg16
I8
sg17
I45
sbs(I1
I2
tp57
g1
(g10
g3
NtRp58
(dp59
g13
F-29.024232328446171
sg14
I1
sg15
I01
sg16
I2
sg17
I1
sbs(I12
I2
tp60
g1
(g10
g3
NtRp61
(dp62
g13
F9.3285159175378691
sg14
I12
sg15
I01
sg16
I2
sg17
I104
sbs(I1
I11
tp63
g1
(g10
g3
NtRp64
(dp65
g13
F-19.843301723697842
sg14
I1
sg15
I01
sg16
I11
sg17
I88
sbs(I4
I9
tp66
g1
(g10
g3
NtRp67
(dp68
g13
F-21.663633076700979
sg14
I4
sg15
I01
sg16
I9
sg17
I57
sbs(I3
I3
tp69
g1
(g10
g3
NtRp70
(dp71
g13
F-17.259436315428413
sg14
I3
sg15
I01
sg16
I3
sg17
I8
sbs(I2
I9
tp72
g1
(g10
g3
NtRp73
(dp74
g13
F3.6034840499942757
sg14
I2
sg15
I00
sg16
I9
sg17
I144
sbs(I13
I3
tp75
g1
(g10
g3
NtRp76
(dp77
g13
F22.568335244627335
sg14
I13
sg15
I00
sg16
I3
sg17
I117
sbs(I12
I13
tp78
g1
(g10
g3
NtRp79
(dp80
g13
F0.0038992829829815889
sg14
I12
sg15
I01
sg16
I13
sg17
I120
sbs(I3
I10
tp81
g1
(g10
g3
NtRp82
(dp83
g13
F-27.057828778732919
sg14
I3
sg15
I01
sg16
I10
sg17
I76
sbs(I4
I4
tp84
g1
(g10
g3
NtRp85
(dp86
g13
F5.2430503177540002
sg14
I4
sg15
I00
sg16
I4
sg17
I11
sbs(I10
I12
tp87
g1
(g10
g3
NtRp88
(dp89
g13
F-5.5750121885305024
sg14
I10
sg15
I01
sg16
I12
sg17
I111
sbs(I4
I8
tp90
g1
(g10
g3
NtRp91
(dp92
g13
F16.352229600406528
sg14
I4
sg15
I01
sg16
I8
sg17
I38
sbs(I2
I13
tp93
g1
(g10
g3
NtRp94
(dp95
g13
F-24.024943492600393
sg14
I2
sg15
I01
sg16
I13
sg17
I176
sbs(I6
I5
tp96
g1
(g10
g3
NtRp97
(dp98
g13
F-24.874318321081269
sg14
I6
sg15
I01
sg16
I5
sg17
I28
sbs(I3
I6
tp99
g1
(g10
g3
NtRp100
(dp101
g13
F17.266235743286536
sg14
I3
sg15
I01
sg16
I6
sg17
I22
sbs(I2
I2
tp102
g1
(g10
g3
NtRp103
(dp104
g13
F-0.61541431388910017
sg14
I2
sg15
I01
sg16
I2
sg17
I2
sbs(I5
I3
tp105
g1
(g10
g3
NtRp106
(dp107
g13
F12.836239456261326
sg14
I5
sg15
I01
sg16
I3
sg17
I15
sbs(I2
I16
tp108
g1
(g10
g3
NtRp109
(dp110
g13
F17.370836092852137
sg14
I2
sg15
I01
sg16
I16
sg17
I228
sbs(I3
I2
tp111
g1
(g10
g3
NtRp112
(dp113
g13
F-4.7449888914780081
sg14
I3
sg15
I01
sg16
I2
sg17
I4
sbs(I6
I6
tp114
g1
(g10
g3
NtRp115
(dp116
g13
F-10.047251365145808
sg14
I6
sg15
I01
sg16
I6
sg17
I37
sbs(I5
I11
tp117
g1
(g10
g3
NtRp118
(dp119
g13
F29.405167375152214
sg14
I5
sg15
I01
sg16
I11
sg17
I90
sbs(I9
I3
tp120
g1
(g10
g3
NtRp121
(dp122
g13
F-26.178121635289084
sg14
I9
sg15
I01
sg16
I3
sg17
I60
sbs(I17
I5
tp123
g1
(g10
g3
NtRp124
(dp125
g13
F20.420313299785143
sg14
I17
sg15
I01
sg16
I5
sg17
I277
sbs(I2
I3
tp126
g1
(g10
g3
NtRp127
(dp128
g13
F13.162137179876977
sg14
I2
sg15
I01
sg16
I3
sg17
I5
sbs(I1
I9
tp129
g1
(g10
g3
NtRp130
(dp131
g13
F4.8422507254959584
sg14
I1
sg15
I01
sg16
I9
sg17
I47
sbs(I4
I2
tp132
g1
(g10
g3
NtRp133
(dp134
g13
F0.64109723284816944
sg14
I4
sg15
I01
sg16
I2
sg17
I7
sbs(I4
I11
tp135
g1
(g10
g3
NtRp136
(dp137
g13
F-4.9905562239351173
sg14
I4
sg15
I01
sg16
I11
sg17
I86
sbs(I3
I5
tp138
g1
(g10
g3
NtRp139
(dp140
g13
F23.720291443500898
sg14
I3
sg15
I00
sg16
I5
sg17
I12
sbs(I10
I5
tp141
g1
(g10
g3
NtRp142
(dp143
g13
F-2.6868227662626083
sg14
I10
sg15
I00
sg16
I5
sg17
I79
sbs(I11
I8
tp144
g1
(g10
g3
NtRp145
(dp146
g13
F-23.378943168903223
sg14
I11
sg15
I01
sg16
I8
sg17
I91
sbs(I9
I9
tp147
g1
(g10
g3
NtRp148
(dp149
g13
F-6.4023760577010309
sg14
I9
sg15
I01
sg16
I9
sg17
I73
sbs(I2
I4
tp150
g1
(g10
g3
NtRp151
(dp152
g13
F2.3006387271109046
sg14
I2
sg15
I01
sg16
I4
sg17
I16
sbs(I13
I14
tp153
g1
(g10
g3
NtRp154
(dp155
g13
F0.021036266434333317
sg14
I13
sg15
I01
sg16
I14
sg17
I189
sbs(I12
I4
tp156
g1
(g10
g3
NtRp157
(dp158
g13
F8.8145017735444142
sg14
I12
sg15
I01
sg16
I4
sg17
I115
sbs(I3
I17
tp159
g1
(g10
g3
NtRp160
(dp161
g13
F1.8479593833439552
sg14
I3
sg15
I01
sg16
I17
sg17
I247
sbs(I4
I3
tp162
g1
(g10
g3
NtRp163
(dp164
g13
F-20.2828587207315
sg14
I4
sg15
I01
sg16
I3
sg17
I10
sbs(I15
I9
tp165
g1
(g10
g3
NtRp166
(dp167
g13
F-8.772698712115508
sg14
I15
sg15
I01
sg16
I9
sg17
I171
sbs(I14
I3
tp168
g1
(g10
g3
NtRp169
(dp170
g13
F27.539638967769676
sg14
I14
sg15
I01
sg16
I3
sg17
I132
sbs(I10
I2
tp171
g1
(g10
g3
NtRp172
(dp173
g13
F15.134160688030498
sg14
I10
sg15
I01
sg16
I2
sg17
I66
sbs(I5
I2
tp174
g1
(g10
g3
NtRp175
(dp176
g13
F4.1457350879850612
sg14
I5
sg15
I01
sg16
I2
sg17
I21
sbs(I17
I17
tp177
g1
(g10
g3
NtRp178
(dp179
g13
F-1.5849721025587638
sg14
I17
sg15
I01
sg16
I17
sg17
I324
sbs(I8
I4
tp180
g1
(g10
g3
NtRp181
(dp182
g13
F10.065186121022439
sg14
I8
sg15
I01
sg16
I4
sg17
I41
sbssS'_input_nodes'
p183
I1
sS'_output_nodes'
p184
I1
sS'_node_gene_type'
p185
cneat.genome
NodeGene
p186
sS'_conn_gene_type'
p187
g10
sS'fitness'
p188
F0.98992058695194873
sS'parent2_id'
p189
I17855
sS'_id'
p190
I17904
sS'parent1_id'
p191
I17855
sS'_node_genes'
p192
(lp193
g1
(g186
g3
NtRp194
(dp195
S'_bias'
p196
I0
sS'_type'
p197
S'INPUT'
p198
sg190
I1
sS'_response'
p199
F4.9242730000000003
sS'_activation_type'
p200
Nsbag1
(g186
g3
NtRp201
(dp202
g196
F-0.64883896722169532
sg197
S'OUTPUT'
p203
sg190
I2
sg199
F5.3242181708126015
sg200
S'tanh'
p204
sbag1
(g186
g3
NtRp205
(dp206
g196
F-4.5376721529580024
sg197
S'HIDDEN'
p207
sg190
I3
sg199
F5.8229041887840216
sg200
g204
sbag1
(g186
g3
NtRp208
(dp209
g196
F3.2783659895153496
sg197
g207
sg190
I4
sg199
F3.8556653683473288
sg200
g204
sbag1
(g186
g3
NtRp210
(dp211
g196
F-2.0846080848707715
sg197
g207
sg190
I5
sg199
F5.646845506028181
sg200
g204
sbag1
(g186
g3
NtRp212
(dp213
g196
F2.2662410290463262
sg197
g207
sg190
I6
sg199
F9.2360364332620311
sg200
g204
sbag1
(g186
g3
NtRp214
(dp215
g196
F-4.0544669282924106
sg197
g207
sg190
I7
sg199
F11.340939092629927
sg200
g204
sbag1
(g186
g3
NtRp216
(dp217
g196
F-5.3203435254864573
sg197
g207
sg190
I8
sg199
F4.4176766048996159
sg200
g204
sbag1
(g186
g3
NtRp218
(dp219
g196
F5.3738649216959704
sg197
g207
sg190
I9
sg199
F4.6644487800014653
sg200
g204
sbag1
(g186
g3
NtRp220
(dp221
g196
F-0.71603899140021832
sg197
g207
sg190
I10
sg199
F4.5387820136886372
sg200
g204
sbag1
(g186
g3
NtRp222
(dp223
g196
F0.24736553132135994
sg197
g207
sg190
I11
sg199
F5.811993666011511
sg200
g204
sbag1
(g186
g3
NtRp224
(dp225
g196
F0.082760215083130084
sg197
g207
sg190
I12
sg199
F12.303972837746839
sg200
g204
sbag1
(g186
g3
NtRp226
(dp227
g196
F-4.3096448537853016
sg197
g207
sg190
I13
sg199
F6.8115354898504421
sg200
g204
sbag1
(g186
g3
NtRp228
(dp229
g196
F1.6536654113975757
sg197
g207
sg190
I14
sg199
F5.9028561685799383
sg200
g204
sbag1
(g186
g3
NtRp230
(dp231
g196
F-0.54808563469829263
sg197
g207
sg190
I15
sg199
F4.9064834138746409
sg200
g204
sbag1
(g186
g3
NtRp232
(dp233
g196
F0.64097488612342568
sg197
g207
sg190
I16
sg199
F3.1972474370071038
sg200
g204
sbag1
(g186
g3
NtRp234
(dp235
g196
F-0.25280399423174543
sg197
g207
sg190
I17
sg199
F3.9423635941130439
sg200
g204
sbasb.