ccopy_reg
_reconstructor
p1
(cneat.chromosome
Chromosome
p2
c__builtin__
object
p3
NtRp4
(dp5
S'species_id'
p6
I85
sS'_connection_genes'
p7
(dp8
(I7
I3
tp9
g1
(cneat.genome
ConnectionGene
p10
g3
NtRp11
(dp12
S'_ConnectionGene__weight'
p13
F29.225296923866889
sS'_ConnectionGene__in'
p14
I7
sS'_ConnectionGene__enabled'
p15
I01
sS'_ConnectionGene__out'
p16
I3
sS'_ConnectionGene__innov_number'
p17
I36
sbs(I1
I3
tp18
g1
(g10
g3
NtRp19
(dp20
g13
F-17.485816399717244
sg14
I1
sg15
I01
sg16
I3
sg17
I3
sbs(I5
I9
tp21
g1
(g10
g3
NtRp22
(dp23
g13
F-6.548146559071979
sg14
I5
sg15
I01
sg16
I9
sg17
I100
sbs(I3
I2
tp24
g1
(g10
g3
NtRp25
(dp26
g13
F5.6174205788216067
sg14
I3
sg15
I01
sg16
I2
sg17
I4
sbs(I3
I7
tp27
g1
(g10
g3
NtRp28
(dp29
g13
F-8.0569449717593962
sg14
I3
sg15
I01
sg16
I7
sg17
I49
sbs(I5
I8
tp30
g1
(g10
g3
NtRp31
(dp32
g13
F-1.0815118194893223
sg14
I5
sg15
I01
sg16
I8
sg17
I45
sbs(I1
I2
tp33
g1
(g10
g3
NtRp34
(dp35
g13
F-24.318122528936115
sg14
I1
sg15
I01
sg16
I2
sg17
I1
sbs(I12
I2
tp36
g1
(g10
g3
NtRp37
(dp38
g13
F29.970362119650094
sg14
I12
sg15
I01
sg16
I2
sg17
I104
sbs(I4
I9
tp39
g1
(g10
g3
NtRp40
(dp41
g13
F3.0635120480425426
sg14
I4
sg15
I01
sg16
I9
sg17
I57
sbs(I3
I3
tp42
g1
(g10
g3
NtRp43
(dp44
g13
F5.8146878887288835
sg14
I3
sg15
I01
sg16
I3
sg17
I8
sbs(I2
I9
tp45
g1
(g10
g3
NtRp46
(dp47
g13
F-0.42171470246723197
sg14
I2
sg15
I01
sg16
I9
sg17
I144
sbs(I3
I10
tp48
g1
(g10
g3
NtRp49
(dp50
g13
F-9.455620199636698
sg14
I3
sg15
I01
sg16
I10
sg17
I76
sbs(I4
I4
tp51
g1
(g10
g3
NtRp52
(dp53
g13
F-4.0584828935160004
sg14
I4
sg15
I01
sg16
I4
sg17
I11
sbs(I10
I12
tp54
g1
(g10
g3
NtRp55
(dp56
g13
F-14.238683722073054
sg14
I10
sg15
I01
sg16
I12
sg17
I111
sbs(I4
I8
tp57
g1
(g10
g3
NtRp58
(dp59
g13
F11.403764020664802
sg14
I4
sg15
I01
sg16
I8
sg17
I38
sbs(I13
I7
tp60
g1
(g10
g3
NtRp61
(dp62
g13
F-17.322414936888016
sg14
I13
sg15
I01
sg16
I7
sg17
I108
sbs(I4
I11
tp63
g1
(g10
g3
NtRp64
(dp65
g13
F-2.0590731320181024
sg14
I4
sg15
I01
sg16
I11
sg17
I86
sbs(I3
I6
tp66
g1
(g10
g3
NtRp67
(dp68
g13
F-10.591905681041002
sg14
I3
sg15
I01
sg16
I6
sg17
I22
sbs(I2
I2
tp69
g1
(g10
g3
NtRp70
(dp71
g13
F5.9857980056364113
sg14
I2
sg15
I01
sg16
I2
sg17
I2
sbs(I15
I4
tp72
g1
(g10
g3
NtRp73
(dp74
g13
F21.147637363137058
sg14
I15
sg15
I01
sg16
I4
sg17
I173
sbs(I5
I11
tp75
g1
(g10
g3
NtRp76
(dp77
g13
F21.391290793309818
sg14
I5
sg15
I01
sg16
I11
sg17
I90
sbs(I5
I4
tp78
g1
(g10
g3
NtRp79
(dp80
g13
F-1.6038152230748177
sg14
I5
sg15
I01
sg16
I4
sg17
I13
sbs(I6
I6
tp81
g1
(g10
g3
NtRp82
(dp83
g13
F-4.0405328608587094
sg14
I6
sg15
I01
sg16
I6
sg17
I37
sbs(I12
I14
tp84
g1
(g10
g3
NtRp85
(dp86
g13
F-4.0191823366880275
sg14
I12
sg15
I01
sg16
I14
sg17
I131
sbs(I3
I13
tp87
g1
(g10
g3
NtRp88
(dp89
g13
F6.1097542185094982
sg14
I3
sg15
I01
sg16
I13
sg17
I107
sbs(I9
I3
tp90
g1
(g10
g3
NtRp91
(dp92
g13
F-16.681630319110162
sg14
I9
sg15
I01
sg16
I3
sg17
I60
sbs(I2
I3
tp93
g1
(g10
g3
NtRp94
(dp95
g13
F15.559059282004979
sg14
I2
sg15
I01
sg16
I3
sg17
I5
sbs(I1
I9
tp96
g1
(g10
g3
NtRp97
(dp98
g13
F17.45225721864453
sg14
I1
sg15
I01
sg16
I9
sg17
I47
sbs(I4
I2
tp99
g1
(g10
g3
NtRp100
(dp101
g13
F-12.946829709819729
sg14
I4
sg15
I01
sg16
I2
sg17
I7
sbs(I14
I2
tp102
g1
(g10
g3
NtRp103
(dp104
g13
F25.791264867246703
sg14
I14
sg15
I01
sg16
I2
sg17
I125
sbs(I6
I5
tp105
g1
(g10
g3
NtRp106
(dp107
g13
F-10.927918006207261
sg14
I6
sg15
I01
sg16
I5
sg17
I28
sbs(I3
I5
tp108
g1
(g10
g3
NtRp109
(dp110
g13
F27.346286499810279
sg14
I3
sg15
I01
sg16
I5
sg17
I12
sbs(I10
I5
tp111
g1
(g10
g3
NtRp112
(dp113
g13
F-8.847359083831698
sg14
I10
sg15
I01
sg16
I5
sg17
I79
sbs(I5
I16
tp114
g1
(g10
g3
NtRp115
(dp116
g13
F-0.074541310168823482
sg14
I5
sg15
I01
sg16
I16
sg17
I187
sbs(I9
I2
tp117
g1
(g10
g3
NtRp118
(dp119
g13
F4.3399076815556521
sg14
I9
sg15
I01
sg16
I2
sg17
I48
sbs(I16
I8
tp120
g1
(g10
g3
NtRp121
(dp122
g13
F6.6454219425510317
sg14
I16
sg15
I01
sg16
I8
sg17
I237
sbs(I9
I9
tp123
g1
(g10
g3
NtRp124
(dp125
g13
F9.5303224737787531
sg14
I9
sg15
I01
sg16
I9
sg17
I73
sbs(I11
I8
tp126
g1
(g10
g3
NtRp127
(dp128
g13
F-5.2721168457591601
sg14
I11
sg15
I01
sg16
I8
sg17
I91
sbs(I4
I3
tp129
g1
(g10
g3
NtRp130
(dp131
g13
F-6.7388675123332877
sg14
I4
sg15
I01
sg16
I3
sg17
I10
sbs(I2
I15
tp132
g1
(g10
g3
NtRp133
(dp134
g13
F-0.65091520381893009
sg14
I2
sg15
I01
sg16
I15
sg17
I172
sbs(I8
I4
tp135
g1
(g10
g3
NtRp136
(dp137
g13
F20.905575480062723
sg14
I8
sg15
I01
sg16
I4
sg17
I41
sbs(I5
I2
tp138
g1
(g10
g3
NtRp139
(dp140
g13
F-22.691208753645441
sg14
I5
sg15
I01
sg16
I2
sg17
I21
sbs(I2
I4
tp141
g1
(g10
g3
NtRp142
(dp143
g13
F17.542627259325435
sg14
I2
sg15
I00
sg16
I4
sg17
I16
sbs(I11
I6
tp144
g1
(g10
g3
NtRp145
(dp146
g13
F4.9734634330375558
sg14
I11
sg15
I01
sg16
I6
sg17
I110
sbs(I10
I2
tp147
g1
(g10
g3
NtRp148
(dp149
g13
F25.130376259431618
sg14
I10
sg15
I01
sg16
I2
sg17
I66
sbssS'_input_nodes'
p150
I1
sS'_output_nodes'
p151
I1
sS'_node_gene_type'
p152
cneat.genome
NodeGene
p153
sS'_conn_gene_type'
p154
g10
sS'fitness'
p155
F0.97193891624999862
sS'parent2_id'
p156
I12768
sS'_id'
p157
I12814
sS'parent1_id'
p158
I12768
sS'_node_genes'
p159
(lp160
g1
(g153
g3
NtRp161
(dp162
S'_bias'
p163
I0
sS'_type'
p164
S'INPUT'
p165
sg157
I1
sS'_response'
p166
F4.9242730000000003
sS'_activation_type'
p167
Nsbag1
(g153
g3
NtRp168
(dp169
g163
F-0.85364606811359101
sg164
S'OUTPUT'
p170
sg157
I2
sg166
F5.4630194741350868
sg167
S'tanh'
p171
sbag1
(g153
g3
NtRp172
(dp173
g163
F-2.9653297826406284
sg164
S'HIDDEN'
p174
sg157
I3
sg166
F5.787816758234718
sg167
g171
sbag1
(g153
g3
NtRp175
(dp176
g163
F3.5740175598596564
sg164
g174
sg157
I4
sg166
F-0.2570689742301302
sg167
g171
sbag1
(g153
g3
NtRp177
(dp178
g163
F-1.693945320976842
sg164
g174
sg157
I5
sg166
F5.8834230058328352
sg167
g171
sbag1
(g153
g3
NtRp179
(dp180
g163
F2.7065593612057004
sg164
g174
sg157
I6
sg166
F11.675779641015248
sg167
g171
sbag1
(g153
g3
NtRp181
(dp182
g163
F-0.91599892060190313
sg164
g174
sg157
I7
sg166
F12.327919276061898
sg167
g171
sbag1
(g153
g3
NtRp183
(dp184
g163
F-4.2078939331046357
sg164
g174
sg157
I8
sg166
F4.6516304485127238
sg167
g171
sbag1
(g153
g3
NtRp185
(dp186
g163
F2.4835340677032778
sg164
g174
sg157
I9
sg166
F3.4731440771800881
sg167
g171
sbag1
(g153
g3
NtRp187
(dp188
g163
F1.6426393130341608
sg164
g174
sg157
I10
sg166
F3.6946915976341081
sg167
g171
sbag1
(g153
g3
NtRp189
(dp190
g163
F-3.8196518746802228
sg164
g174
sg157
I11
sg166
F6.4191155734767866
sg167
g171
sbag1
(g153
g3
NtRp191
(dp192
g163
F1.1263552977882261
sg164
g174
sg157
I12
sg166
F5.0312126255759999
sg167
g171
sbag1
(g153
g3
NtRp193
(dp194
g163
F-0.15130684194379562
sg164
g174
sg157
I13
sg166
F7.5001257672034303
sg167
g171
sbag1
(g153
g3
NtRp195
(dp196
g163
F-1.2518649431307931
sg164
g174
sg157
I14
sg166
F4.941473675140406
sg167
g171
sbag1
(g153
g3
NtRp197
(dp198
g163
F-0.61069178240433553
sg164
g174
sg157
I15
sg166
F4.8482457748308523
sg167
g171
sbag1
(g153
g3
NtRp199
(dp200
g163
F2.0514790789929691
sg164
g174
sg157
I16
sg166
F4.6788528579815489
sg167
g171
sbasb.