ccopy_reg
_reconstructor
p1
(cneat.chromosome
Chromosome
p2
c__builtin__
object
p3
NtRp4
(dp5
S'species_id'
p6
I117
sS'_connection_genes'
p7
(dp8
(I7
I3
tp9
g1
(cneat.genome
ConnectionGene
p10
g3
NtRp11
(dp12
S'_ConnectionGene__weight'
p13
F24.956890433504388
sS'_ConnectionGene__in'
p14
I7
sS'_ConnectionGene__enabled'
p15
I01
sS'_ConnectionGene__out'
p16
I3
sS'_ConnectionGene__innov_number'
p17
I36
sbs(I1
I3
tp18
g1
(g10
g3
NtRp19
(dp20
g13
F-21.122104715137038
sg14
I1
sg15
I01
sg16
I3
sg17
I3
sbs(I5
I9
tp21
g1
(g10
g3
NtRp22
(dp23
g13
F5.2538281339905977
sg14
I5
sg15
I01
sg16
I9
sg17
I100
sbs(I16
I9
tp24
g1
(g10
g3
NtRp25
(dp26
g13
F20.94044736442201
sg14
I16
sg15
I01
sg16
I9
sg17
I236
sbs(I3
I13
tp27
g1
(g10
g3
NtRp28
(dp29
g13
F28.163473117434048
sg14
I3
sg15
I01
sg16
I13
sg17
I107
sbs(I5
I4
tp30
g1
(g10
g3
NtRp31
(dp32
g13
F4.0745904399341946
sg14
I5
sg15
I01
sg16
I4
sg17
I13
sbs(I2
I12
tp33
g1
(g10
g3
NtRp34
(dp35
g13
F3.7223911991134608
sg14
I2
sg15
I01
sg16
I12
sg17
I135
sbs(I7
I11
tp36
g1
(g10
g3
NtRp37
(dp38
g13
F-12.74675229633144
sg14
I7
sg15
I01
sg16
I11
sg17
I92
sbs(I3
I7
tp39
g1
(g10
g3
NtRp40
(dp41
g13
F12.148218073742779
sg14
I3
sg15
I00
sg16
I7
sg17
I49
sbs(I14
I9
tp42
g1
(g10
g3
NtRp43
(dp44
g13
F12.485484071261389
sg14
I14
sg15
I01
sg16
I9
sg17
I130
sbs(I5
I8
tp45
g1
(g10
g3
NtRp46
(dp47
g13
F21.6914593816952
sg14
I5
sg15
I01
sg16
I8
sg17
I45
sbs(I1
I2
tp48
g1
(g10
g3
NtRp49
(dp50
g13
F-25.266391648228943
sg14
I1
sg15
I01
sg16
I2
sg17
I1
sbs(I12
I2
tp51
g1
(g10
g3
NtRp52
(dp53
g13
F17.794593030415115
sg14
I12
sg15
I01
sg16
I2
sg17
I104
sbs(I4
I9
tp54
g1
(g10
g3
NtRp55
(dp56
g13
F-0.25966415037367008
sg14
I4
sg15
I01
sg16
I9
sg17
I57
sbs(I3
I3
tp57
g1
(g10
g3
NtRp58
(dp59
g13
F-3.754051522506586
sg14
I3
sg15
I01
sg16
I3
sg17
I8
sbs(I2
I9
tp60
g1
(g10
g3
NtRp61
(dp62
g13
F22.401215608640012
sg14
I2
sg15
I01
sg16
I9
sg17
I144
sbs(I3
I10
tp63
g1
(g10
g3
NtRp64
(dp65
g13
F10.08266236917579
sg14
I3
sg15
I01
sg16
I10
sg17
I76
sbs(I4
I4
tp66
g1
(g10
g3
NtRp67
(dp68
g13
F4.436181496931658
sg14
I4
sg15
I00
sg16
I4
sg17
I11
sbs(I10
I12
tp69
g1
(g10
g3
NtRp70
(dp71
g13
F-26.086230919213421
sg14
I10
sg15
I01
sg16
I12
sg17
I111
sbs(I17
I2
tp72
g1
(g10
g3
NtRp73
(dp74
g13
F-7.3093657957299936
sg14
I17
sg15
I01
sg16
I2
sg17
I202
sbs(I13
I7
tp75
g1
(g10
g3
NtRp76
(dp77
g13
F-12.673422822298759
sg14
I13
sg15
I01
sg16
I7
sg17
I108
sbs(I9
I17
tp78
g1
(g10
g3
NtRp79
(dp80
g13
F1.7922104552920519
sg14
I9
sg15
I01
sg16
I17
sg17
I258
sbs(I18
I9
tp81
g1
(g10
g3
NtRp82
(dp83
g13
F-1.0060000772656463
sg14
I18
sg15
I01
sg16
I9
sg17
I268
sbs(I2
I2
tp84
g1
(g10
g3
NtRp85
(dp86
g13
F12.921481466277861
sg14
I2
sg15
I01
sg16
I2
sg17
I2
sbs(I15
I4
tp87
g1
(g10
g3
NtRp88
(dp89
g13
F8.7150469600702998
sg14
I15
sg15
I01
sg16
I4
sg17
I173
sbs(I10
I2
tp90
g1
(g10
g3
NtRp91
(dp92
g13
F27.537076977826175
sg14
I10
sg15
I01
sg16
I2
sg17
I66
sbs(I15
I12
tp93
g1
(g10
g3
NtRp94
(dp95
g13
F-4.4277939331861305
sg14
I15
sg15
I01
sg16
I12
sg17
I159
sbs(I3
I2
tp96
g1
(g10
g3
NtRp97
(dp98
g13
F17.458197380342007
sg14
I3
sg15
I01
sg16
I2
sg17
I4
sbs(I6
I6
tp99
g1
(g10
g3
NtRp100
(dp101
g13
F7.5010269167751105
sg14
I6
sg15
I01
sg16
I6
sg17
I37
sbs(I12
I14
tp102
g1
(g10
g3
NtRp103
(dp104
g13
F-1.394261124795511
sg14
I12
sg15
I01
sg16
I14
sg17
I131
sbs(I5
I11
tp105
g1
(g10
g3
NtRp106
(dp107
g13
F-7.1018723739622533
sg14
I5
sg15
I01
sg16
I11
sg17
I90
sbs(I9
I3
tp108
g1
(g10
g3
NtRp109
(dp110
g13
F-21.566092904346917
sg14
I9
sg15
I01
sg16
I3
sg17
I60
sbs(I9
I16
tp111
g1
(g10
g3
NtRp112
(dp113
g13
F26.869505715772345
sg14
I9
sg15
I01
sg16
I16
sg17
I240
sbs(I2
I3
tp114
g1
(g10
g3
NtRp115
(dp116
g13
F6.6905307511070671
sg14
I2
sg15
I01
sg16
I3
sg17
I5
sbs(I1
I9
tp117
g1
(g10
g3
NtRp118
(dp119
g13
F14.396375070794432
sg14
I1
sg15
I01
sg16
I9
sg17
I47
sbs(I4
I2
tp120
g1
(g10
g3
NtRp121
(dp122
g13
F-27.912709947957445
sg14
I4
sg15
I01
sg16
I2
sg17
I7
sbs(I14
I2
tp123
g1
(g10
g3
NtRp124
(dp125
g13
F10.83807406091074
sg14
I14
sg15
I01
sg16
I2
sg17
I125
sbs(I4
I11
tp126
g1
(g10
g3
NtRp127
(dp128
g13
F-27.685534157910165
sg14
I4
sg15
I01
sg16
I11
sg17
I86
sbs(I3
I5
tp129
g1
(g10
g3
NtRp130
(dp131
g13
F12.378766616598003
sg14
I3
sg15
I01
sg16
I5
sg17
I12
sbs(I10
I5
tp132
g1
(g10
g3
NtRp133
(dp134
g13
F16.996104292486422
sg14
I10
sg15
I01
sg16
I5
sg17
I79
sbs(I6
I5
tp135
g1
(g10
g3
NtRp136
(dp137
g13
F-15.043624576392753
sg14
I6
sg15
I01
sg16
I5
sg17
I28
sbs(I9
I2
tp138
g1
(g10
g3
NtRp139
(dp140
g13
F-3.9520874906670693
sg14
I9
sg15
I00
sg16
I2
sg17
I48
sbs(I7
I14
tp141
g1
(g10
g3
NtRp142
(dp143
g13
F-7.7748622312086946
sg14
I7
sg15
I01
sg16
I14
sg17
I162
sbs(I9
I9
tp144
g1
(g10
g3
NtRp145
(dp146
g13
F18.355108178745141
sg14
I9
sg15
I01
sg16
I9
sg17
I73
sbs(I3
I6
tp147
g1
(g10
g3
NtRp148
(dp149
g13
F-26.770274662357554
sg14
I3
sg15
I01
sg16
I6
sg17
I22
sbs(I18
I7
tp150
g1
(g10
g3
NtRp151
(dp152
g13
F-1.0561182517287759
sg14
I18
sg15
I01
sg16
I7
sg17
I272
sbs(I11
I8
tp153
g1
(g10
g3
NtRp154
(dp155
g13
F3.5294137503167899
sg14
I11
sg15
I01
sg16
I8
sg17
I91
sbs(I13
I18
tp156
g1
(g10
g3
NtRp157
(dp158
g13
F6.2985286134556233
sg14
I13
sg15
I01
sg16
I18
sg17
I271
sbs(I4
I3
tp159
g1
(g10
g3
NtRp160
(dp161
g13
F5.6906086634433182
sg14
I4
sg15
I01
sg16
I3
sg17
I10
sbs(I2
I15
tp162
g1
(g10
g3
NtRp163
(dp164
g13
F-0.66448155981295109
sg14
I2
sg15
I01
sg16
I15
sg17
I172
sbs(I4
I8
tp165
g1
(g10
g3
NtRp166
(dp167
g13
F-1.0543923616403557
sg14
I4
sg15
I01
sg16
I8
sg17
I38
sbs(I5
I2
tp168
g1
(g10
g3
NtRp169
(dp170
g13
F-1.694520768309776
sg14
I5
sg15
I01
sg16
I2
sg17
I21
sbs(I2
I4
tp171
g1
(g10
g3
NtRp172
(dp173
g13
F20.502883468007337
sg14
I2
sg15
I01
sg16
I4
sg17
I16
sbs(I11
I6
tp174
g1
(g10
g3
NtRp175
(dp176
g13
F-1.0529796271055134
sg14
I11
sg15
I01
sg16
I6
sg17
I110
sbs(I8
I4
tp177
g1
(g10
g3
NtRp178
(dp179
g13
F12.021191386950772
sg14
I8
sg15
I01
sg16
I4
sg17
I41
sbssS'_input_nodes'
p180
I1
sS'_output_nodes'
p181
I1
sS'_node_gene_type'
p182
cneat.genome
NodeGene
p183
sS'_conn_gene_type'
p184
g10
sS'fitness'
p185
F0.99592575542597128
sS'parent2_id'
p186
I17049
sS'_id'
p187
I17083
sS'parent1_id'
p188
I17049
sS'_node_genes'
p189
(lp190
g1
(g183
g3
NtRp191
(dp192
S'_bias'
p193
I0
sS'_type'
p194
S'INPUT'
p195
sg187
I1
sS'_response'
p196
F4.9242730000000003
sS'_activation_type'
p197
Nsbag1
(g183
g3
NtRp198
(dp199
g193
F0.037252856829468328
sg194
S'OUTPUT'
p200
sg187
I2
sg196
F8.855597504853014
sg197
S'tanh'
p201
sbag1
(g183
g3
NtRp202
(dp203
g193
F-4.1558068508285579
sg194
S'HIDDEN'
p204
sg187
I3
sg196
F6.1370404127613369
sg197
g201
sbag1
(g183
g3
NtRp205
(dp206
g193
F2.2067042873248526
sg194
g204
sg187
I4
sg196
F-2.5912615656776414
sg197
g201
sbag1
(g183
g3
NtRp207
(dp208
g193
F-2.9110915641337489
sg194
g204
sg187
I5
sg196
F6.367041242730167
sg197
g201
sbag1
(g183
g3
NtRp209
(dp210
g193
F0.23731189460156149
sg194
g204
sg187
I6
sg196
F10.715934317787363
sg197
g201
sbag1
(g183
g3
NtRp211
(dp212
g193
F0.42000584547182007
sg194
g204
sg187
I7
sg196
F12.113542736131214
sg197
g201
sbag1
(g183
g3
NtRp213
(dp214
g193
F-1.0723422796328406
sg194
g204
sg187
I8
sg196
F3.4826885786545976
sg197
g201
sbag1
(g183
g3
NtRp215
(dp216
g193
F4.2536165068560754
sg194
g204
sg187
I9
sg196
F-1.0687458043237881
sg197
g201
sbag1
(g183
g3
NtRp217
(dp218
g193
F4.9701700100810147
sg194
g204
sg187
I10
sg196
F2.9176259349227713
sg197
g201
sbag1
(g183
g3
NtRp219
(dp220
g193
F-3.8706244023980183
sg194
g204
sg187
I11
sg196
F8.9608458428183262
sg197
g201
sbag1
(g183
g3
NtRp221
(dp222
g193
F2.4145699813957902
sg194
g204
sg187
I12
sg196
F7.5076385053033761
sg197
g201
sbag1
(g183
g3
NtRp223
(dp224
g193
F1.4887988820749178
sg194
g204
sg187
I13
sg196
F4.385533113881138
sg197
g201
sbag1
(g183
g3
NtRp225
(dp226
g193
F1.1174822437419945
sg194
g204
sg187
I14
sg196
F5.4281945448544144
sg197
g201
sbag1
(g183
g3
NtRp227
(dp228
g193
F-1.48788287512575
sg194
g204
sg187
I15
sg196
F11.195883080680531
sg197
g201
sbag1
(g183
g3
NtRp229
(dp230
g193
F-2.7472914623486826
sg194
g204
sg187
I16
sg196
F7.5482626885794044
sg197
g201
sbag1
(g183
g3
NtRp231
(dp232
g193
F-1.1875224351458944
sg194
g204
sg187
I17
sg196
F2.5407114686731731
sg197
g201
sbag1
(g183
g3
NtRp233
(dp234
g193
F1.7757374017838434
sg194
g204
sg187
I18
sg196
F4.6404257284906194
sg197
g201
sbasb.