ccopy_reg
_reconstructor
p1
(cneat.chromosome
Chromosome
p2
c__builtin__
object
p3
NtRp4
(dp5
S'species_id'
p6
I97
sS'_connection_genes'
p7
(dp8
(I7
I3
tp9
g1
(cneat.genome
ConnectionGene
p10
g3
NtRp11
(dp12
S'_ConnectionGene__weight'
p13
F25.559967919245544
sS'_ConnectionGene__in'
p14
I7
sS'_ConnectionGene__enabled'
p15
I01
sS'_ConnectionGene__out'
p16
I3
sS'_ConnectionGene__innov_number'
p17
I36
sbs(I1
I3
tp18
g1
(g10
g3
NtRp19
(dp20
g13
F-14.872430873233634
sg14
I1
sg15
I01
sg16
I3
sg17
I3
sbs(I5
I9
tp21
g1
(g10
g3
NtRp22
(dp23
g13
F4.4689474062833598
sg14
I5
sg15
I01
sg16
I9
sg17
I100
sbs(I16
I9
tp24
g1
(g10
g3
NtRp25
(dp26
g13
F21.708166268303621
sg14
I16
sg15
I01
sg16
I9
sg17
I236
sbs(I3
I2
tp27
g1
(g10
g3
NtRp28
(dp29
g13
F3.9720475791318286
sg14
I3
sg15
I01
sg16
I2
sg17
I4
sbs(I3
I7
tp30
g1
(g10
g3
NtRp31
(dp32
g13
F4.4823988994727868
sg14
I3
sg15
I00
sg16
I7
sg17
I49
sbs(I14
I9
tp33
g1
(g10
g3
NtRp34
(dp35
g13
F2.9237712165027769
sg14
I14
sg15
I01
sg16
I9
sg17
I130
sbs(I5
I8
tp36
g1
(g10
g3
NtRp37
(dp38
g13
F19.153892016920906
sg14
I5
sg15
I01
sg16
I8
sg17
I45
sbs(I1
I2
tp39
g1
(g10
g3
NtRp40
(dp41
g13
F-15.463383934657305
sg14
I1
sg15
I01
sg16
I2
sg17
I1
sbs(I12
I2
tp42
g1
(g10
g3
NtRp43
(dp44
g13
F13.289339492636081
sg14
I12
sg15
I01
sg16
I2
sg17
I104
sbs(I4
I9
tp45
g1
(g10
g3
NtRp46
(dp47
g13
F7.9807976189604082
sg14
I4
sg15
I01
sg16
I9
sg17
I57
sbs(I3
I3
tp48
g1
(g10
g3
NtRp49
(dp50
g13
F1.2841815344249121
sg14
I3
sg15
I01
sg16
I3
sg17
I8
sbs(I2
I9
tp51
g1
(g10
g3
NtRp52
(dp53
g13
F-7.108666035076971
sg14
I2
sg15
I01
sg16
I9
sg17
I144
sbs(I3
I10
tp54
g1
(g10
g3
NtRp55
(dp56
g13
F-9.7462899996821797
sg14
I3
sg15
I01
sg16
I10
sg17
I76
sbs(I4
I4
tp57
g1
(g10
g3
NtRp58
(dp59
g13
F-2.9835502235986042
sg14
I4
sg15
I00
sg16
I4
sg17
I11
sbs(I10
I12
tp60
g1
(g10
g3
NtRp61
(dp62
g13
F-17.429922474893125
sg14
I10
sg15
I01
sg16
I12
sg17
I111
sbs(I4
I8
tp63
g1
(g10
g3
NtRp64
(dp65
g13
F11.838514332115231
sg14
I4
sg15
I01
sg16
I8
sg17
I38
sbs(I13
I7
tp66
g1
(g10
g3
NtRp67
(dp68
g13
F-10.150726387121477
sg14
I13
sg15
I01
sg16
I7
sg17
I108
sbs(I4
I11
tp69
g1
(g10
g3
NtRp70
(dp71
g13
F-9.3271835343086682
sg14
I4
sg15
I01
sg16
I11
sg17
I86
sbs(I3
I6
tp72
g1
(g10
g3
NtRp73
(dp74
g13
F-21.269874797915254
sg14
I3
sg15
I01
sg16
I6
sg17
I22
sbs(I2
I2
tp75
g1
(g10
g3
NtRp76
(dp77
g13
F6.9743488114481655
sg14
I2
sg15
I01
sg16
I2
sg17
I2
sbs(I15
I4
tp78
g1
(g10
g3
NtRp79
(dp80
g13
F21.336785455175445
sg14
I15
sg15
I01
sg16
I4
sg17
I173
sbs(I5
I11
tp81
g1
(g10
g3
NtRp82
(dp83
g13
F6.6917431092137782
sg14
I5
sg15
I01
sg16
I11
sg17
I90
sbs(I5
I4
tp84
g1
(g10
g3
NtRp85
(dp86
g13
F5.7170345762509047
sg14
I5
sg15
I01
sg16
I4
sg17
I13
sbs(I6
I6
tp87
g1
(g10
g3
NtRp88
(dp89
g13
F-0.17334900098800721
sg14
I6
sg15
I01
sg16
I6
sg17
I37
sbs(I12
I14
tp90
g1
(g10
g3
NtRp91
(dp92
g13
F-1.1661762657400725
sg14
I12
sg15
I01
sg16
I14
sg17
I131
sbs(I3
I13
tp93
g1
(g10
g3
NtRp94
(dp95
g13
F5.3931396355335544
sg14
I3
sg15
I01
sg16
I13
sg17
I107
sbs(I9
I3
tp96
g1
(g10
g3
NtRp97
(dp98
g13
F-22.363859029525305
sg14
I9
sg15
I01
sg16
I3
sg17
I60
sbs(I9
I16
tp99
g1
(g10
g3
NtRp100
(dp101
g13
F12.172504659176013
sg14
I9
sg15
I01
sg16
I16
sg17
I240
sbs(I2
I3
tp102
g1
(g10
g3
NtRp103
(dp104
g13
F6.8163302035457498
sg14
I2
sg15
I01
sg16
I3
sg17
I5
sbs(I1
I9
tp105
g1
(g10
g3
NtRp106
(dp107
g13
F13.083981105596255
sg14
I1
sg15
I01
sg16
I9
sg17
I47
sbs(I4
I2
tp108
g1
(g10
g3
NtRp109
(dp110
g13
F-13.524559883696341
sg14
I4
sg15
I01
sg16
I2
sg17
I7
sbs(I14
I2
tp111
g1
(g10
g3
NtRp112
(dp113
g13
F20.283742114281818
sg14
I14
sg15
I01
sg16
I2
sg17
I125
sbs(I6
I5
tp114
g1
(g10
g3
NtRp115
(dp116
g13
F-22.062896052461657
sg14
I6
sg15
I01
sg16
I5
sg17
I28
sbs(I3
I5
tp117
g1
(g10
g3
NtRp118
(dp119
g13
F26.607946416115844
sg14
I3
sg15
I01
sg16
I5
sg17
I12
sbs(I10
I5
tp120
g1
(g10
g3
NtRp121
(dp122
g13
F1.9133931822946202
sg14
I10
sg15
I01
sg16
I5
sg17
I79
sbs(I9
I2
tp123
g1
(g10
g3
NtRp124
(dp125
g13
F-7.5607034603915935
sg14
I9
sg15
I01
sg16
I2
sg17
I48
sbs(I7
I14
tp126
g1
(g10
g3
NtRp127
(dp128
g13
F-6.9596514736462778
sg14
I7
sg15
I01
sg16
I14
sg17
I162
sbs(I9
I9
tp129
g1
(g10
g3
NtRp130
(dp131
g13
F19.484079886229495
sg14
I9
sg15
I00
sg16
I9
sg17
I73
sbs(I11
I8
tp132
g1
(g10
g3
NtRp133
(dp134
g13
F7.5941564449177852
sg14
I11
sg15
I01
sg16
I8
sg17
I91
sbs(I4
I3
tp135
g1
(g10
g3
NtRp136
(dp137
g13
F-13.092555580318406
sg14
I4
sg15
I01
sg16
I3
sg17
I10
sbs(I2
I15
tp138
g1
(g10
g3
NtRp139
(dp140
g13
F5.7267745145368059
sg14
I2
sg15
I01
sg16
I15
sg17
I172
sbs(I8
I4
tp141
g1
(g10
g3
NtRp142
(dp143
g13
F17.909145575963091
sg14
I8
sg15
I01
sg16
I4
sg17
I41
sbs(I5
I2
tp144
g1
(g10
g3
NtRp145
(dp146
g13
F-10.915266163940137
sg14
I5
sg15
I01
sg16
I2
sg17
I21
sbs(I2
I4
tp147
g1
(g10
g3
NtRp148
(dp149
g13
F21.169305756425437
sg14
I2
sg15
I01
sg16
I4
sg17
I16
sbs(I11
I6
tp150
g1
(g10
g3
NtRp151
(dp152
g13
F9.1742141522716274
sg14
I11
sg15
I01
sg16
I6
sg17
I110
sbs(I10
I2
tp153
g1
(g10
g3
NtRp154
(dp155
g13
F25.698270056929328
sg14
I10
sg15
I01
sg16
I2
sg17
I66
sbssS'_input_nodes'
p156
I1
sS'_output_nodes'
p157
I1
sS'_node_gene_type'
p158
cneat.genome
NodeGene
p159
sS'_conn_gene_type'
p160
g10
sS'fitness'
p161
F0.99075427558316842
sS'parent2_id'
p162
I13916
sS'_id'
p163
I13967
sS'parent1_id'
p164
I13923
sS'_node_genes'
p165
(lp166
g1
(g159
g3
NtRp167
(dp168
S'_bias'
p169
I0
sS'_type'
p170
S'INPUT'
p171
sg163
I1
sS'_response'
p172
F4.9242730000000003
sS'_activation_type'
p173
Nsbag1
(g159
g3
NtRp174
(dp175
g169
F1.5335047720587687
sg170
S'OUTPUT'
p176
sg163
I2
sg172
F5.5854173221085786
sg173
S'tanh'
p177
sbag1
(g159
g3
NtRp178
(dp179
g169
F-1.581457147544169
sg170
S'HIDDEN'
p180
sg163
I3
sg172
F5.6404139622215244
sg173
g177
sbag1
(g159
g3
NtRp181
(dp182
g169
F2.4049399871056236
sg170
g180
sg163
I4
sg172
F-1.0149723358205467
sg173
g177
sbag1
(g159
g3
NtRp183
(dp184
g169
F-1.2256140817226546
sg170
g180
sg163
I5
sg172
F6.5276298599886973
sg173
g177
sbag1
(g159
g3
NtRp185
(dp186
g169
F3.1423929863391007
sg170
g180
sg163
I6
sg172
F10.512458794460221
sg173
g177
sbag1
(g159
g3
NtRp187
(dp188
g169
F-0.70629925733378018
sg170
g180
sg163
I7
sg172
F13.004500273420206
sg173
g177
sbag1
(g159
g3
NtRp189
(dp190
g169
F-2.7632974590062092
sg170
g180
sg163
I8
sg172
F3.2680225317639549
sg173
g177
sbag1
(g159
g3
NtRp191
(dp192
g169
F2.0993832909174031
sg170
g180
sg163
I9
sg172
F0.86641611036274724
sg173
g177
sbag1
(g159
g3
NtRp193
(dp194
g169
F3.5021281499706793
sg170
g180
sg163
I10
sg172
F4.0527746306696786
sg173
g177
sbag1
(g159
g3
NtRp195
(dp196
g169
F-4.2120054676670948
sg170
g180
sg163
I11
sg172
F8.1008357703925924
sg173
g177
sbag1
(g159
g3
NtRp197
(dp198
g169
F2.9233864807686785
sg170
g180
sg163
I12
sg172
F5.6574253045282807
sg173
g177
sbag1
(g159
g3
NtRp199
(dp200
g169
F-0.86804437707866366
sg170
g180
sg163
I13
sg172
F4.2356456524553545
sg173
g177
sbag1
(g159
g3
NtRp201
(dp202
g169
F-0.84536825528339299
sg170
g180
sg163
I14
sg172
F6.0517247701717372
sg173
g177
sbag1
(g159
g3
NtRp203
(dp204
g169
F1.0362179369341102
sg170
g180
sg163
I15
sg172
F7.5444118739863013
sg173
g177
sbag1
(g159
g3
NtRp205
(dp206
g169
F-1.0281549213688328
sg170
g180
sg163
I16
sg172
F6.1850723091877233
sg173
g177
sbasb.