ccopy_reg
_reconstructor
p1
(cneat.chromosome
Chromosome
p2
c__builtin__
object
p3
NtRp4
(dp5
S'species_id'
p6
I113
sS'_connection_genes'
p7
(dp8
(I7
I3
tp9
g1
(cneat.genome
ConnectionGene
p10
g3
NtRp11
(dp12
S'_ConnectionGene__weight'
p13
F26.062265335730125
sS'_ConnectionGene__in'
p14
I7
sS'_ConnectionGene__enabled'
p15
I01
sS'_ConnectionGene__out'
p16
I3
sS'_ConnectionGene__innov_number'
p17
I36
sbs(I1
I3
tp18
g1
(g10
g3
NtRp19
(dp20
g13
F-15.623582732758759
sg14
I1
sg15
I01
sg16
I3
sg17
I3
sbs(I5
I9
tp21
g1
(g10
g3
NtRp22
(dp23
g13
F5.9054011722620174
sg14
I5
sg15
I01
sg16
I9
sg17
I100
sbs(I11
I2
tp24
g1
(g10
g3
NtRp25
(dp26
g13
F18.482527998958975
sg14
I11
sg15
I01
sg16
I2
sg17
I89
sbs(I3
I2
tp27
g1
(g10
g3
NtRp28
(dp29
g13
F10.199277755463985
sg14
I3
sg15
I01
sg16
I2
sg17
I4
sbs(I10
I12
tp30
g1
(g10
g3
NtRp31
(dp32
g13
F-8.5566505961438075
sg14
I10
sg15
I01
sg16
I12
sg17
I111
sbs(I10
I15
tp33
g1
(g10
g3
NtRp34
(dp35
g13
F6.0254039863195876
sg14
I10
sg15
I01
sg16
I15
sg17
I169
sbs(I13
I14
tp36
g1
(g10
g3
NtRp37
(dp38
g13
F1.5115230216925231
sg14
I13
sg15
I01
sg16
I14
sg17
I189
sbs(I13
I8
tp39
g1
(g10
g3
NtRp40
(dp41
g13
F-3.3205985653071095
sg14
I13
sg15
I01
sg16
I8
sg17
I177
sbs(I3
I7
tp42
g1
(g10
g3
NtRp43
(dp44
g13
F-10.997964815168974
sg14
I3
sg15
I01
sg16
I7
sg17
I49
sbs(I1
I11
tp45
g1
(g10
g3
NtRp46
(dp47
g13
F-14.736439161667171
sg14
I1
sg15
I01
sg16
I11
sg17
I88
sbs(I5
I8
tp48
g1
(g10
g3
NtRp49
(dp50
g13
F11.625733053871262
sg14
I5
sg15
I01
sg16
I8
sg17
I45
sbs(I1
I2
tp51
g1
(g10
g3
NtRp52
(dp53
g13
F-21.44745657137554
sg14
I1
sg15
I01
sg16
I2
sg17
I1
sbs(I12
I2
tp54
g1
(g10
g3
NtRp55
(dp56
g13
F17.358113799546746
sg14
I12
sg15
I01
sg16
I2
sg17
I104
sbs(I15
I5
tp57
g1
(g10
g3
NtRp58
(dp59
g13
F-6.5174995762228356
sg14
I15
sg15
I01
sg16
I5
sg17
I147
sbs(I4
I9
tp60
g1
(g10
g3
NtRp61
(dp62
g13
F-8.3195575238154653
sg14
I4
sg15
I01
sg16
I9
sg17
I57
sbs(I3
I3
tp63
g1
(g10
g3
NtRp64
(dp65
g13
F3.1844578606042373
sg14
I3
sg15
I01
sg16
I3
sg17
I8
sbs(I2
I9
tp66
g1
(g10
g3
NtRp67
(dp68
g13
F-4.5231214754306803
sg14
I2
sg15
I00
sg16
I9
sg17
I144
sbs(I13
I3
tp69
g1
(g10
g3
NtRp70
(dp71
g13
F26.507826751252324
sg14
I13
sg15
I00
sg16
I3
sg17
I117
sbs(I3
I10
tp72
g1
(g10
g3
NtRp73
(dp74
g13
F-26.092112268451597
sg14
I3
sg15
I01
sg16
I10
sg17
I76
sbs(I4
I8
tp75
g1
(g10
g3
NtRp76
(dp77
g13
F0.53075146705422238
sg14
I4
sg15
I01
sg16
I8
sg17
I38
sbs(I4
I4
tp78
g1
(g10
g3
NtRp79
(dp80
g13
F-2.4958370314547995
sg14
I4
sg15
I01
sg16
I4
sg17
I11
sbs(I2
I13
tp81
g1
(g10
g3
NtRp82
(dp83
g13
F-6.7182038339929182
sg14
I2
sg15
I01
sg16
I13
sg17
I176
sbs(I4
I11
tp84
g1
(g10
g3
NtRp85
(dp86
g13
F-7.9575677738773187
sg14
I4
sg15
I01
sg16
I11
sg17
I86
sbs(I3
I6
tp87
g1
(g10
g3
NtRp88
(dp89
g13
F-3.1732200685906182
sg14
I3
sg15
I01
sg16
I6
sg17
I22
sbs(I2
I2
tp90
g1
(g10
g3
NtRp91
(dp92
g13
F6.3442007034127528
sg14
I2
sg15
I01
sg16
I2
sg17
I2
sbs(I3
I5
tp93
g1
(g10
g3
NtRp94
(dp95
g13
F29.753376650680639
sg14
I3
sg15
I01
sg16
I5
sg17
I12
sbs(I5
I4
tp96
g1
(g10
g3
NtRp97
(dp98
g13
F18.622977245111564
sg14
I5
sg15
I01
sg16
I4
sg17
I13
sbs(I6
I6
tp99
g1
(g10
g3
NtRp100
(dp101
g13
F-3.9063580377329234
sg14
I6
sg15
I01
sg16
I6
sg17
I37
sbs(I5
I11
tp102
g1
(g10
g3
NtRp103
(dp104
g13
F17.336320984098489
sg14
I5
sg15
I01
sg16
I11
sg17
I90
sbs(I9
I3
tp105
g1
(g10
g3
NtRp106
(dp107
g13
F-27.894575055279574
sg14
I9
sg15
I01
sg16
I3
sg17
I60
sbs(I2
I3
tp108
g1
(g10
g3
NtRp109
(dp110
g13
F16.532284189722638
sg14
I2
sg15
I01
sg16
I3
sg17
I5
sbs(I1
I9
tp111
g1
(g10
g3
NtRp112
(dp113
g13
F22.884848899798786
sg14
I1
sg15
I01
sg16
I9
sg17
I47
sbs(I4
I2
tp114
g1
(g10
g3
NtRp115
(dp116
g13
F-2.4496288378303319
sg14
I4
sg15
I01
sg16
I2
sg17
I7
sbs(I6
I5
tp117
g1
(g10
g3
NtRp118
(dp119
g13
F-22.868734150287029
sg14
I6
sg15
I01
sg16
I5
sg17
I28
sbs(I5
I3
tp120
g1
(g10
g3
NtRp121
(dp122
g13
F8.0515641602645509
sg14
I5
sg15
I01
sg16
I3
sg17
I15
sbs(I10
I5
tp123
g1
(g10
g3
NtRp124
(dp125
g13
F-0.81175219690858813
sg14
I10
sg15
I00
sg16
I5
sg17
I79
sbs(I9
I2
tp126
g1
(g10
g3
NtRp127
(dp128
g13
F-10.654182253597771
sg14
I9
sg15
I01
sg16
I2
sg17
I48
sbs(I9
I9
tp129
g1
(g10
g3
NtRp130
(dp131
g13
F6.8802692423508365
sg14
I9
sg15
I01
sg16
I9
sg17
I73
sbs(I11
I8
tp132
g1
(g10
g3
NtRp133
(dp134
g13
F-15.690857697249953
sg14
I11
sg15
I01
sg16
I8
sg17
I91
sbs(I12
I4
tp135
g1
(g10
g3
NtRp136
(dp137
g13
F-4.9783959668871134
sg14
I12
sg15
I01
sg16
I4
sg17
I115
sbs(I4
I3
tp138
g1
(g10
g3
NtRp139
(dp140
g13
F-16.11848388050856
sg14
I4
sg15
I01
sg16
I3
sg17
I10
sbs(I14
I3
tp141
g1
(g10
g3
NtRp142
(dp143
g13
F24.159828414102076
sg14
I14
sg15
I01
sg16
I3
sg17
I132
sbs(I8
I4
tp144
g1
(g10
g3
NtRp145
(dp146
g13
F-3.3959111466879177
sg14
I8
sg15
I01
sg16
I4
sg17
I41
sbs(I5
I2
tp147
g1
(g10
g3
NtRp148
(dp149
g13
F14.00259696567915
sg14
I5
sg15
I01
sg16
I2
sg17
I21
sbs(I2
I4
tp150
g1
(g10
g3
NtRp151
(dp152
g13
F10.348379173072182
sg14
I2
sg15
I01
sg16
I4
sg17
I16
sbs(I10
I2
tp153
g1
(g10
g3
NtRp154
(dp155
g13
F21.985365076737178
sg14
I10
sg15
I01
sg16
I2
sg17
I66
sbssS'_input_nodes'
p156
I1
sS'_output_nodes'
p157
I1
sS'_node_gene_type'
p158
cneat.genome
NodeGene
p159
sS'_conn_gene_type'
p160
g10
sS'fitness'
p161
F0.98874082120536788
sS'parent2_id'
p162
I15846
sS'_id'
p163
I15924
sS'parent1_id'
p164
I15846
sS'_node_genes'
p165
(lp166
g1
(g159
g3
NtRp167
(dp168
S'_bias'
p169
I0
sS'_type'
p170
S'INPUT'
p171
sg163
I1
sS'_response'
p172
F4.9242730000000003
sS'_activation_type'
p173
Nsbag1
(g159
g3
NtRp174
(dp175
g169
F-0.93594544952491177
sg170
S'OUTPUT'
p176
sg163
I2
sg172
F4.8213152418345775
sg173
S'tanh'
p177
sbag1
(g159
g3
NtRp178
(dp179
g169
F-4.5746384559775022
sg170
S'HIDDEN'
p180
sg163
I3
sg172
F5.0985571531469613
sg173
g177
sbag1
(g159
g3
NtRp181
(dp182
g169
F2.6750674425308811
sg170
g180
sg163
I4
sg172
F5.1875508235971681
sg173
g177
sbag1
(g159
g3
NtRp183
(dp184
g169
F-2.9854907286778767
sg170
g180
sg163
I5
sg172
F5.6235336897281254
sg173
g177
sbag1
(g159
g3
NtRp185
(dp186
g169
F2.6769691243789713
sg170
g180
sg163
I6
sg172
F9.560619187996938
sg173
g177
sbag1
(g159
g3
NtRp187
(dp188
g169
F-2.8612681910508209
sg170
g180
sg163
I7
sg172
F12.316357521623416
sg173
g177
sbag1
(g159
g3
NtRp189
(dp190
g169
F-5.630428985608857
sg170
g180
sg163
I8
sg172
F3.9280199740850468
sg173
g177
sbag1
(g159
g3
NtRp191
(dp192
g169
F4.7225447801812841
sg170
g180
sg163
I9
sg172
F5.9170055642334383
sg173
g177
sbag1
(g159
g3
NtRp193
(dp194
g169
F-1.6304106265343381
sg170
g180
sg163
I10
sg172
F5.5340859110295391
sg173
g177
sbag1
(g159
g3
NtRp195
(dp196
g169
F-0.96371014237072561
sg170
g180
sg163
I11
sg172
F6.4928863164531965
sg173
g177
sbag1
(g159
g3
NtRp197
(dp198
g169
F-0.15236465437530311
sg170
g180
sg163
I12
sg172
F10.655409682432335
sg173
g177
sbag1
(g159
g3
NtRp199
(dp200
g169
F-1.011412242557082
sg170
g180
sg163
I13
sg172
F6.1000695273913559
sg173
g177
sbag1
(g159
g3
NtRp201
(dp202
g169
F-0.099417734980698155
sg170
g180
sg163
I14
sg172
F2.8563179352140491
sg173
g177
sbag1
(g159
g3
NtRp203
(dp204
g169
I0
sg170
g180
sg163
I15
sg172
F4.3471074564866194
sg173
g177
sbasb.