ccopy_reg
_reconstructor
p1
(cneat.chromosome
Chromosome
p2
c__builtin__
object
p3
NtRp4
(dp5
S'species_id'
p6
I151
sS'_connection_genes'
p7
(dp8
(I7
I3
tp9
g1
(cneat.genome
ConnectionGene
p10
g3
NtRp11
(dp12
S'_ConnectionGene__weight'
p13
F13.225783983462691
sS'_ConnectionGene__in'
p14
I7
sS'_ConnectionGene__enabled'
p15
I01
sS'_ConnectionGene__out'
p16
I3
sS'_ConnectionGene__innov_number'
p17
I36
sbs(I1
I3
tp18
g1
(g10
g3
NtRp19
(dp20
g13
F-16.617329000301382
sg14
I1
sg15
I01
sg16
I3
sg17
I3
sbs(I5
I9
tp21
g1
(g10
g3
NtRp22
(dp23
g13
F21.600951013713853
sg14
I5
sg15
I01
sg16
I9
sg17
I100
sbs(I16
I9
tp24
g1
(g10
g3
NtRp25
(dp26
g13
F29.63328414720004
sg14
I16
sg15
I01
sg16
I9
sg17
I236
sbs(I4
I21
tp27
g1
(g10
g3
NtRp28
(dp29
g13
F22.352994092955189
sg14
I4
sg15
I01
sg16
I21
sg17
I332
sbs(I3
I13
tp30
g1
(g10
g3
NtRp31
(dp32
g13
F25.991621133343049
sg14
I3
sg15
I01
sg16
I13
sg17
I107
sbs(I5
I4
tp33
g1
(g10
g3
NtRp34
(dp35
g13
F9.8096753474734832
sg14
I5
sg15
I01
sg16
I4
sg17
I13
sbs(I4
I22
tp36
g1
(g10
g3
NtRp37
(dp38
g13
F5.8264748246808153
sg14
I4
sg15
I01
sg16
I22
sg17
I371
sbs(I2
I12
tp39
g1
(g10
g3
NtRp40
(dp41
g13
F4.2204579808876446
sg14
I2
sg15
I01
sg16
I12
sg17
I135
sbs(I12
I14
tp42
g1
(g10
g3
NtRp43
(dp44
g13
F-30
sg14
I12
sg15
I01
sg16
I14
sg17
I131
sbs(I7
I11
tp45
g1
(g10
g3
NtRp46
(dp47
g13
F-15.937086955584238
sg14
I7
sg15
I01
sg16
I11
sg17
I92
sbs(I3
I7
tp48
g1
(g10
g3
NtRp49
(dp50
g13
F25.599073243547497
sg14
I3
sg15
I01
sg16
I7
sg17
I49
sbs(I14
I9
tp51
g1
(g10
g3
NtRp52
(dp53
g13
F15.39664181750511
sg14
I14
sg15
I01
sg16
I9
sg17
I130
sbs(I5
I8
tp54
g1
(g10
g3
NtRp55
(dp56
g13
F15.470915385701254
sg14
I5
sg15
I01
sg16
I8
sg17
I45
sbs(I6
I14
tp57
g1
(g10
g3
NtRp58
(dp59
g13
F-11.364020207939033
sg14
I6
sg15
I01
sg16
I14
sg17
I165
sbs(I1
I2
tp60
g1
(g10
g3
NtRp61
(dp62
g13
F-25.246148933149353
sg14
I1
sg15
I01
sg16
I2
sg17
I1
sbs(I12
I2
tp63
g1
(g10
g3
NtRp64
(dp65
g13
F28.690872745316632
sg14
I12
sg15
I01
sg16
I2
sg17
I104
sbs(I20
I12
tp66
g1
(g10
g3
NtRp67
(dp68
g13
F-22.308920502132587
sg14
I20
sg15
I01
sg16
I12
sg17
I328
sbs(I4
I9
tp69
g1
(g10
g3
NtRp70
(dp71
g13
F-27.557646128972159
sg14
I4
sg15
I01
sg16
I9
sg17
I57
sbs(I3
I3
tp72
g1
(g10
g3
NtRp73
(dp74
g13
F-7.5500462997281517
sg14
I3
sg15
I01
sg16
I3
sg17
I8
sbs(I2
I9
tp75
g1
(g10
g3
NtRp76
(dp77
g13
F8.0278171757796706
sg14
I2
sg15
I01
sg16
I9
sg17
I144
sbs(I23
I17
tp78
g1
(g10
g3
NtRp79
(dp80
g13
F14.044794349204164
sg14
I23
sg15
I01
sg16
I17
sg17
I382
sbs(I3
I10
tp81
g1
(g10
g3
NtRp82
(dp83
g13
F13.455636732304498
sg14
I3
sg15
I01
sg16
I10
sg17
I76
sbs(I4
I4
tp84
g1
(g10
g3
NtRp85
(dp86
g13
F-5.1986930935377123
sg14
I4
sg15
I01
sg16
I4
sg17
I11
sbs(I10
I12
tp87
g1
(g10
g3
NtRp88
(dp89
g13
F-23.733274083493534
sg14
I10
sg15
I01
sg16
I12
sg17
I111
sbs(I21
I8
tp90
g1
(g10
g3
NtRp91
(dp92
g13
F-23.635435900578145
sg14
I21
sg15
I01
sg16
I8
sg17
I333
sbs(I10
I18
tp93
g1
(g10
g3
NtRp94
(dp95
g13
F14.944348019104012
sg14
I10
sg15
I01
sg16
I18
sg17
I226
sbs(I17
I2
tp96
g1
(g10
g3
NtRp97
(dp98
g13
F-6.518778790150094
sg14
I17
sg15
I01
sg16
I2
sg17
I202
sbs(I4
I8
tp99
g1
(g10
g3
NtRp100
(dp101
g13
F-19.654762762898823
sg14
I4
sg15
I01
sg16
I8
sg17
I38
sbs(I13
I7
tp102
g1
(g10
g3
NtRp103
(dp104
g13
F-29.900774309727129
sg14
I13
sg15
I01
sg16
I7
sg17
I108
sbs(I9
I17
tp105
g1
(g10
g3
NtRp106
(dp107
g13
F2.2709545598252285
sg14
I9
sg15
I00
sg16
I17
sg17
I258
sbs(I3
I6
tp108
g1
(g10
g3
NtRp109
(dp110
g13
F-27.321886583635408
sg14
I3
sg15
I01
sg16
I6
sg17
I22
sbs(I2
I2
tp111
g1
(g10
g3
NtRp112
(dp113
g13
F23.596414086023454
sg14
I2
sg15
I01
sg16
I2
sg17
I2
sbs(I15
I4
tp114
g1
(g10
g3
NtRp115
(dp116
g13
F-4.8141621784036204
sg14
I15
sg15
I01
sg16
I4
sg17
I173
sbs(I10
I2
tp117
g1
(g10
g3
NtRp118
(dp119
g13
F10.594003660551014
sg14
I10
sg15
I01
sg16
I2
sg17
I66
sbs(I15
I12
tp120
g1
(g10
g3
NtRp121
(dp122
g13
F15.71351755990432
sg14
I15
sg15
I01
sg16
I12
sg17
I159
sbs(I3
I2
tp123
g1
(g10
g3
NtRp124
(dp125
g13
F-1.8848194150409603
sg14
I3
sg15
I01
sg16
I2
sg17
I4
sbs(I6
I6
tp126
g1
(g10
g3
NtRp127
(dp128
g13
F13.681713748090138
sg14
I6
sg15
I01
sg16
I6
sg17
I37
sbs(I18
I9
tp129
g1
(g10
g3
NtRp130
(dp131
g13
F-24.051855017076548
sg14
I18
sg15
I01
sg16
I9
sg17
I268
sbs(I5
I11
tp132
g1
(g10
g3
NtRp133
(dp134
g13
F10.179389542173517
sg14
I5
sg15
I01
sg16
I11
sg17
I90
sbs(I9
I3
tp135
g1
(g10
g3
NtRp136
(dp137
g13
F-16.477425073131407
sg14
I9
sg15
I01
sg16
I3
sg17
I60
sbs(I22
I4
tp138
g1
(g10
g3
NtRp139
(dp140
g13
F7.8931618631436198
sg14
I22
sg15
I01
sg16
I4
sg17
I356
sbs(I9
I16
tp141
g1
(g10
g3
NtRp142
(dp143
g13
F26.979672926063682
sg14
I9
sg15
I01
sg16
I16
sg17
I240
sbs(I1
I19
tp144
g1
(g10
g3
NtRp145
(dp146
g13
F24.304794962190858
sg14
I1
sg15
I01
sg16
I19
sg17
I304
sbs(I2
I3
tp147
g1
(g10
g3
NtRp148
(dp149
g13
F23.081297579892169
sg14
I2
sg15
I01
sg16
I3
sg17
I5
sbs(I1
I9
tp150
g1
(g10
g3
NtRp151
(dp152
g13
F18.297862760692468
sg14
I1
sg15
I01
sg16
I9
sg17
I47
sbs(I4
I2
tp153
g1
(g10
g3
NtRp154
(dp155
g13
F-25.955066936937964
sg14
I4
sg15
I01
sg16
I2
sg17
I7
sbs(I14
I2
tp156
g1
(g10
g3
NtRp157
(dp158
g13
F28.707062939208178
sg14
I14
sg15
I01
sg16
I2
sg17
I125
sbs(I4
I11
tp159
g1
(g10
g3
NtRp160
(dp161
g13
F-7.3450320559949445
sg14
I4
sg15
I01
sg16
I11
sg17
I86
sbs(I3
I5
tp162
g1
(g10
g3
NtRp163
(dp164
g13
F-3.2646121956151712
sg14
I3
sg15
I01
sg16
I5
sg17
I12
sbs(I10
I5
tp165
g1
(g10
g3
NtRp166
(dp167
g13
F30
sg14
I10
sg15
I01
sg16
I5
sg17
I79
sbs(I19
I9
tp168
g1
(g10
g3
NtRp169
(dp170
g13
F23.995394166303708
sg14
I19
sg15
I01
sg16
I9
sg17
I290
sbs(I6
I5
tp171
g1
(g10
g3
NtRp172
(dp173
g13
F-12.285290873851256
sg14
I6
sg15
I01
sg16
I5
sg17
I28
sbs(I9
I2
tp174
g1
(g10
g3
NtRp175
(dp176
g13
F-20.230862980078346
sg14
I9
sg15
I01
sg16
I2
sg17
I48
sbs(I7
I14
tp177
g1
(g10
g3
NtRp178
(dp179
g13
F-9.6750114869372492
sg14
I7
sg15
I01
sg16
I14
sg17
I162
sbs(I9
I9
tp180
g1
(g10
g3
NtRp181
(dp182
g13
F23.813878122137766
sg14
I9
sg15
I01
sg16
I9
sg17
I73
sbs(I9
I23
tp183
g1
(g10
g3
NtRp184
(dp185
g13
F3.8342264604815646
sg14
I9
sg15
I01
sg16
I23
sg17
I381
sbs(I18
I7
tp186
g1
(g10
g3
NtRp187
(dp188
g13
F3.4370398530475867
sg14
I18
sg15
I01
sg16
I7
sg17
I272
sbs(I11
I8
tp189
g1
(g10
g3
NtRp190
(dp191
g13
F-15.670770792676482
sg14
I11
sg15
I01
sg16
I8
sg17
I91
sbs(I7
I5
tp192
g1
(g10
g3
NtRp193
(dp194
g13
F1.6296347498030521
sg14
I7
sg15
I01
sg16
I5
sg17
I50
sbs(I13
I18
tp195
g1
(g10
g3
NtRp196
(dp197
g13
F6.3952065696395941
sg14
I13
sg15
I01
sg16
I18
sg17
I271
sbs(I10
I20
tp198
g1
(g10
g3
NtRp199
(dp200
g13
F8.659105699594825
sg14
I10
sg15
I01
sg16
I20
sg17
I327
sbs(I4
I3
tp201
g1
(g10
g3
NtRp202
(dp203
g13
F-7.8530643451057429
sg14
I4
sg15
I01
sg16
I3
sg17
I10
sbs(I2
I15
tp204
g1
(g10
g3
NtRp205
(dp206
g13
F-3.6602532476464535
sg14
I2
sg15
I01
sg16
I15
sg17
I172
sbs(I9
I19
tp207
g1
(g10
g3
NtRp208
(dp209
g13
F11.055672474502046
sg14
I9
sg15
I00
sg16
I19
sg17
I312
sbs(I5
I2
tp210
g1
(g10
g3
NtRp211
(dp212
g13
F-3.0745704999364429
sg14
I5
sg15
I01
sg16
I2
sg17
I21
sbs(I2
I4
tp213
g1
(g10
g3
NtRp214
(dp215
g13
F29.531490439970216
sg14
I2
sg15
I01
sg16
I4
sg17
I16
sbs(I11
I6
tp216
g1
(g10
g3
NtRp217
(dp218
g13
F6.6722734600184141
sg14
I11
sg15
I01
sg16
I6
sg17
I110
sbs(I8
I4
tp219
g1
(g10
g3
NtRp220
(dp221
g13
F3.0935400766740444
sg14
I8
sg15
I01
sg16
I4
sg17
I41
sbssS'_input_nodes'
p222
I1
sS'_output_nodes'
p223
I1
sS'_node_gene_type'
p224
cneat.genome
NodeGene
p225
sS'_conn_gene_type'
p226
g10
sS'fitness'
p227
F0.99005079452935285
sS'parent2_id'
p228
I21885
sS'_id'
p229
I21923
sS'parent1_id'
p230
I21885
sS'_node_genes'
p231
(lp232
g1
(g225
g3
NtRp233
(dp234
S'_bias'
p235
I0
sS'_type'
p236
S'INPUT'
p237
sg229
I1
sS'_response'
p238
F4.9242730000000003
sS'_activation_type'
p239
Nsbag1
(g225
g3
NtRp240
(dp241
g235
F1.4117093190796424
sg236
S'OUTPUT'
p242
sg229
I2
sg238
F8.0067537339582628
sg239
S'tanh'
p243
sbag1
(g225
g3
NtRp244
(dp245
g235
F-0.7919735025798802
sg236
S'HIDDEN'
p246
sg229
I3
sg238
F5.8595052921117228
sg239
g243
sbag1
(g225
g3
NtRp247
(dp248
g235
F0.56879733743725769
sg236
g246
sg229
I4
sg238
F-1.0407763777768986
sg239
g243
sbag1
(g225
g3
NtRp249
(dp250
g235
F-2.7017361460552616
sg236
g246
sg229
I5
sg238
F11.412068368098979
sg239
g243
sbag1
(g225
g3
NtRp251
(dp252
g235
F1.734568316897221
sg236
g246
sg229
I6
sg238
F12.512032049808106
sg239
g243
sbag1
(g225
g3
NtRp253
(dp254
g235
F1.6598344489082739
sg236
g246
sg229
I7
sg238
F11.315174728508715
sg239
g243
sbag1
(g225
g3
NtRp255
(dp256
g235
F-2.4591406397995179
sg236
g246
sg229
I8
sg238
F2.89781651653864
sg239
g243
sbag1
(g225
g3
NtRp257
(dp258
g235
F3.9868483452138284
sg236
g246
sg229
I9
sg238
F0.72835201628601742
sg239
g243
sbag1
(g225
g3
NtRp259
(dp260
g235
F3.1675533652397059
sg236
g246
sg229
I10
sg238
F3.5740670488951314
sg239
g243
sbag1
(g225
g3
NtRp261
(dp262
g235
F-2.4373940771370624
sg236
g246
sg229
I11
sg238
F7.9218721540065529
sg239
g243
sbag1
(g225
g3
NtRp263
(dp264
g235
F4.3249974462193066
sg236
g246
sg229
I12
sg238
F8.0464157001511243
sg239
g243
sbag1
(g225
g3
NtRp265
(dp266
g235
F2.473809442598689
sg236
g246
sg229
I13
sg238
F3.7031780374471293
sg239
g243
sbag1
(g225
g3
NtRp267
(dp268
g235
F-3.106360748967262
sg236
g246
sg229
I14
sg238
F13.049778027875277
sg239
g243
sbag1
(g225
g3
NtRp269
(dp270
g235
F-0.34540314737032773
sg236
g246
sg229
I15
sg238
F10.5876328106351
sg239
g243
sbag1
(g225
g3
NtRp271
(dp272
g235
F-2.879260614103841
sg236
g246
sg229
I16
sg238
F8.3785149152067451
sg239
g243
sbag1
(g225
g3
NtRp273
(dp274
g235
F-5.6452684756452927
sg236
g246
sg229
I17
sg238
F3.8521284163964564
sg239
g243
sbag1
(g225
g3
NtRp275
(dp276
g235
F1.2678588453271191
sg236
g246
sg229
I18
sg238
F3.5043274184035269
sg239
g243
sbag1
(g225
g3
NtRp277
(dp278
g235
F-2.8923925365044187
sg236
g246
sg229
I19
sg238
F5.8697577328188428
sg239
g243
sbag1
(g225
g3
NtRp279
(dp280
g235
F-1.5610367623959127
sg236
g246
sg229
I20
sg238
F5.2000836657459217
sg239
g243
sbag1
(g225
g3
NtRp281
(dp282
g235
F-0.3052126847372173
sg236
g246
sg229
I21
sg238
F4.6972871415351722
sg239
g243
sbag1
(g225
g3
NtRp283
(dp284
g235
F0.83596436660877016
sg236
g246
sg229
I22
sg238
F3.6767109507082498
sg239
g243
sbag1
(g225
g3
NtRp285
(dp286
g235
F-1.376357619836017
sg236
g246
sg229
I23
sg238
F7.1352707650929919
sg239
g243
sbasb.