ccopy_reg
_reconstructor
p1
(cneat.chromosome
Chromosome
p2
c__builtin__
object
p3
NtRp4
(dp5
S'species_id'
p6
I141
sS'_connection_genes'
p7
(dp8
(I7
I3
tp9
g1
(cneat.genome
ConnectionGene
p10
g3
NtRp11
(dp12
S'_ConnectionGene__weight'
p13
F13.28184192040168
sS'_ConnectionGene__in'
p14
I7
sS'_ConnectionGene__enabled'
p15
I01
sS'_ConnectionGene__out'
p16
I3
sS'_ConnectionGene__innov_number'
p17
I36
sbs(I1
I3
tp18
g1
(g10
g3
NtRp19
(dp20
g13
F-25.972525265905528
sg14
I1
sg15
I01
sg16
I3
sg17
I3
sbs(I10
I11
tp21
g1
(g10
g3
NtRp22
(dp23
g13
F0.39530891139193625
sg14
I10
sg15
I01
sg16
I11
sg17
I95
sbs(I5
I9
tp24
g1
(g10
g3
NtRp25
(dp26
g13
F7.3361743315051573
sg14
I5
sg15
I01
sg16
I9
sg17
I100
sbs(I16
I9
tp27
g1
(g10
g3
NtRp28
(dp29
g13
F-3.1377289960883652
sg14
I16
sg15
I01
sg16
I9
sg17
I236
sbs(I11
I2
tp30
g1
(g10
g3
NtRp31
(dp32
g13
F15.893680832578543
sg14
I11
sg15
I01
sg16
I2
sg17
I89
sbs(I10
I6
tp33
g1
(g10
g3
NtRp34
(dp35
g13
F0.8313827700000771
sg14
I10
sg15
I01
sg16
I6
sg17
I68
sbs(I5
I4
tp36
g1
(g10
g3
NtRp37
(dp38
g13
F9.9937925155405125
sg14
I5
sg15
I01
sg16
I4
sg17
I13
sbs(I10
I15
tp39
g1
(g10
g3
NtRp40
(dp41
g13
F-30
sg14
I10
sg15
I01
sg16
I15
sg17
I169
sbs(I13
I14
tp42
g1
(g10
g3
NtRp43
(dp44
g13
F18.872335831404193
sg14
I13
sg15
I01
sg16
I14
sg17
I189
sbs(I13
I8
tp45
g1
(g10
g3
NtRp46
(dp47
g13
F2.7928505446751606
sg14
I13
sg15
I01
sg16
I8
sg17
I177
sbs(I3
I7
tp48
g1
(g10
g3
NtRp49
(dp50
g13
F4.1201918369847634
sg14
I3
sg15
I01
sg16
I7
sg17
I49
sbs(I15
I5
tp51
g1
(g10
g3
NtRp52
(dp53
g13
F5.1461781342420965
sg14
I15
sg15
I01
sg16
I5
sg17
I147
sbs(I5
I8
tp54
g1
(g10
g3
NtRp55
(dp56
g13
F10.930480694991434
sg14
I5
sg15
I01
sg16
I8
sg17
I45
sbs(I1
I2
tp57
g1
(g10
g3
NtRp58
(dp59
g13
F-26.79812999752787
sg14
I1
sg15
I01
sg16
I2
sg17
I1
sbs(I12
I2
tp60
g1
(g10
g3
NtRp61
(dp62
g13
F8.137040013766681
sg14
I12
sg15
I01
sg16
I2
sg17
I104
sbs(I1
I11
tp63
g1
(g10
g3
NtRp64
(dp65
g13
F-28.572794424725895
sg14
I1
sg15
I01
sg16
I11
sg17
I88
sbs(I4
I9
tp66
g1
(g10
g3
NtRp67
(dp68
g13
F-24.959264203699323
sg14
I4
sg15
I01
sg16
I9
sg17
I57
sbs(I3
I3
tp69
g1
(g10
g3
NtRp70
(dp71
g13
F-23.23471332798001
sg14
I3
sg15
I01
sg16
I3
sg17
I8
sbs(I2
I9
tp72
g1
(g10
g3
NtRp73
(dp74
g13
F12.102822445359889
sg14
I2
sg15
I00
sg16
I9
sg17
I144
sbs(I13
I3
tp75
g1
(g10
g3
NtRp76
(dp77
g13
F30
sg14
I13
sg15
I01
sg16
I3
sg17
I117
sbs(I12
I13
tp78
g1
(g10
g3
NtRp79
(dp80
g13
F1.5060181262918357
sg14
I12
sg15
I01
sg16
I13
sg17
I120
sbs(I3
I10
tp81
g1
(g10
g3
NtRp82
(dp83
g13
F-27.814826808420051
sg14
I3
sg15
I01
sg16
I10
sg17
I76
sbs(I2
I18
tp84
g1
(g10
g3
NtRp85
(dp86
g13
F4.299069368438504
sg14
I2
sg15
I01
sg16
I18
sg17
I380
sbs(I10
I12
tp87
g1
(g10
g3
NtRp88
(dp89
g13
F-16.129672914670511
sg14
I10
sg15
I01
sg16
I12
sg17
I111
sbs(I4
I8
tp90
g1
(g10
g3
NtRp91
(dp92
g13
F9.1136698484407539
sg14
I4
sg15
I01
sg16
I8
sg17
I38
sbs(I2
I13
tp93
g1
(g10
g3
NtRp94
(dp95
g13
F-12.308286443186057
sg14
I2
sg15
I01
sg16
I13
sg17
I176
sbs(I6
I5
tp96
g1
(g10
g3
NtRp97
(dp98
g13
F-3.0666014550485547
sg14
I6
sg15
I01
sg16
I5
sg17
I28
sbs(I3
I6
tp99
g1
(g10
g3
NtRp100
(dp101
g13
F14.829869538172586
sg14
I3
sg15
I01
sg16
I6
sg17
I22
sbs(I2
I2
tp102
g1
(g10
g3
NtRp103
(dp104
g13
F-14.881487221482596
sg14
I2
sg15
I01
sg16
I2
sg17
I2
sbs(I5
I3
tp105
g1
(g10
g3
NtRp106
(dp107
g13
F0.43424562134007227
sg14
I5
sg15
I01
sg16
I3
sg17
I15
sbs(I2
I16
tp108
g1
(g10
g3
NtRp109
(dp110
g13
F1.3364730406209109
sg14
I2
sg15
I01
sg16
I16
sg17
I228
sbs(I3
I2
tp111
g1
(g10
g3
NtRp112
(dp113
g13
F-7.3358088403912749
sg14
I3
sg15
I01
sg16
I2
sg17
I4
sbs(I6
I6
tp114
g1
(g10
g3
NtRp115
(dp116
g13
F-6.2131855507395457
sg14
I6
sg15
I01
sg16
I6
sg17
I37
sbs(I18
I9
tp117
g1
(g10
g3
NtRp118
(dp119
g13
F13.295511776274827
sg14
I18
sg15
I01
sg16
I9
sg17
I268
sbs(I5
I11
tp120
g1
(g10
g3
NtRp121
(dp122
g13
F26.287559530254427
sg14
I5
sg15
I01
sg16
I11
sg17
I90
sbs(I9
I3
tp123
g1
(g10
g3
NtRp124
(dp125
g13
F-19.145675067872748
sg14
I9
sg15
I01
sg16
I3
sg17
I60
sbs(I17
I5
tp126
g1
(g10
g3
NtRp127
(dp128
g13
F28.422596728315739
sg14
I17
sg15
I01
sg16
I5
sg17
I277
sbs(I3
I11
tp129
g1
(g10
g3
NtRp130
(dp131
g13
F-10.470016888452989
sg14
I3
sg15
I01
sg16
I11
sg17
I93
sbs(I4
I11
tp132
g1
(g10
g3
NtRp133
(dp134
g13
F-11.605509564752683
sg14
I4
sg15
I01
sg16
I11
sg17
I86
sbs(I2
I3
tp135
g1
(g10
g3
NtRp136
(dp137
g13
F10.542784497341593
sg14
I2
sg15
I01
sg16
I3
sg17
I5
sbs(I1
I9
tp138
g1
(g10
g3
NtRp139
(dp140
g13
F6.9939219165993061
sg14
I1
sg15
I01
sg16
I9
sg17
I47
sbs(I4
I2
tp141
g1
(g10
g3
NtRp142
(dp143
g13
F1.0627953515510704
sg14
I4
sg15
I01
sg16
I2
sg17
I7
sbs(I4
I4
tp144
g1
(g10
g3
NtRp145
(dp146
g13
F8.3870937112502855
sg14
I4
sg15
I00
sg16
I4
sg17
I11
sbs(I3
I5
tp147
g1
(g10
g3
NtRp148
(dp149
g13
F23.645105958648756
sg14
I3
sg15
I00
sg16
I5
sg17
I12
sbs(I10
I5
tp150
g1
(g10
g3
NtRp151
(dp152
g13
F13.01591436935972
sg14
I10
sg15
I00
sg16
I5
sg17
I79
sbs(I9
I2
tp153
g1
(g10
g3
NtRp154
(dp155
g13
F14.853418891671273
sg14
I9
sg15
I01
sg16
I2
sg17
I48
sbs(I9
I9
tp156
g1
(g10
g3
NtRp157
(dp158
g13
F-22.292291090156422
sg14
I9
sg15
I01
sg16
I9
sg17
I73
sbs(I2
I4
tp159
g1
(g10
g3
NtRp160
(dp161
g13
F0.92837697357670801
sg14
I2
sg15
I01
sg16
I4
sg17
I16
sbs(I15
I10
tp162
g1
(g10
g3
NtRp163
(dp164
g13
F4.2065709445800037
sg14
I15
sg15
I01
sg16
I10
sg17
I180
sbs(I11
I8
tp165
g1
(g10
g3
NtRp166
(dp167
g13
F-23.481802914621053
sg14
I11
sg15
I01
sg16
I8
sg17
I91
sbs(I12
I4
tp168
g1
(g10
g3
NtRp169
(dp170
g13
F19.1907416189229
sg14
I12
sg15
I01
sg16
I4
sg17
I115
sbs(I3
I17
tp171
g1
(g10
g3
NtRp172
(dp173
g13
F16.999099198862279
sg14
I3
sg15
I01
sg16
I17
sg17
I247
sbs(I4
I3
tp174
g1
(g10
g3
NtRp175
(dp176
g13
F-8.3086819702762007
sg14
I4
sg15
I01
sg16
I3
sg17
I10
sbs(I15
I9
tp177
g1
(g10
g3
NtRp178
(dp179
g13
F-0.10566833691971789
sg14
I15
sg15
I01
sg16
I9
sg17
I171
sbs(I14
I3
tp180
g1
(g10
g3
NtRp181
(dp182
g13
F7.0070105992719292
sg14
I14
sg15
I01
sg16
I3
sg17
I132
sbs(I10
I2
tp183
g1
(g10
g3
NtRp184
(dp185
g13
F-2.0693263398091268
sg14
I10
sg15
I01
sg16
I2
sg17
I66
sbs(I5
I2
tp186
g1
(g10
g3
NtRp187
(dp188
g13
F3.9988989845520404
sg14
I5
sg15
I01
sg16
I2
sg17
I21
sbs(I17
I17
tp189
g1
(g10
g3
NtRp190
(dp191
g13
F-14.047592265301459
sg14
I17
sg15
I01
sg16
I17
sg17
I324
sbs(I8
I4
tp192
g1
(g10
g3
NtRp193
(dp194
g13
F0.43446766540875315
sg14
I8
sg15
I01
sg16
I4
sg17
I41
sbssS'_input_nodes'
p195
I1
sS'_output_nodes'
p196
I1
sS'_node_gene_type'
p197
cneat.genome
NodeGene
p198
sS'_conn_gene_type'
p199
g10
sS'fitness'
p200
F0.99823099999916043
sS'parent2_id'
p201
I20531
sS'_id'
p202
I20578
sS'parent1_id'
p203
I20531
sS'_node_genes'
p204
(lp205
g1
(g198
g3
NtRp206
(dp207
S'_bias'
p208
I0
sS'_type'
p209
S'INPUT'
p210
sg202
I1
sS'_response'
p211
F4.9242730000000003
sS'_activation_type'
p212
Nsbag1
(g198
g3
NtRp213
(dp214
g208
F-1.0743858680655651
sg209
S'OUTPUT'
p215
sg202
I2
sg211
F5.8554983072903743
sg212
S'tanh'
p216
sbag1
(g198
g3
NtRp217
(dp218
g208
F-1.9222126272808879
sg209
S'HIDDEN'
p219
sg202
I3
sg211
F5.7468668591291667
sg212
g216
sbag1
(g198
g3
NtRp220
(dp221
g208
F3.4896023848116848
sg209
g219
sg202
I4
sg211
F6.2061722819836538
sg212
g216
sbag1
(g198
g3
NtRp222
(dp223
g208
F-4.389018588555996
sg209
g219
sg202
I5
sg211
F8.2234268925971392
sg212
g216
sbag1
(g198
g3
NtRp224
(dp225
g208
F2.7388880849502497
sg209
g219
sg202
I6
sg211
F10.461950282835302
sg212
g216
sbag1
(g198
g3
NtRp226
(dp227
g208
F-2.6378911471026369
sg209
g219
sg202
I7
sg211
F9.492174044401315
sg212
g216
sbag1
(g198
g3
NtRp228
(dp229
g208
F-1.9924962079511728
sg209
g219
sg202
I8
sg211
F5.4464352729400431
sg212
g216
sbag1
(g198
g3
NtRp230
(dp231
g208
F6.3454143594944759
sg209
g219
sg202
I9
sg211
F4.4583665353182349
sg212
g216
sbag1
(g198
g3
NtRp232
(dp233
g208
F-1.3127244325665803
sg209
g219
sg202
I10
sg211
F3.0793845536124271
sg212
g216
sbag1
(g198
g3
NtRp234
(dp235
g208
F-0.53940280439745913
sg209
g219
sg202
I11
sg211
F6.0024190573474456
sg212
g216
sbag1
(g198
g3
NtRp236
(dp237
g208
F1.426218575189512
sg209
g219
sg202
I12
sg211
F12.596513154720874
sg212
g216
sbag1
(g198
g3
NtRp238
(dp239
g208
F-6.4136364956674319
sg209
g219
sg202
I13
sg211
F5.8333787768285204
sg212
g216
sbag1
(g198
g3
NtRp240
(dp241
g208
F0.90437068112507435
sg209
g219
sg202
I14
sg211
F5.5818459032014545
sg212
g216
sbag1
(g198
g3
NtRp242
(dp243
g208
F-1.1785707604492097
sg209
g219
sg202
I15
sg211
F4.3499842810712588
sg212
g216
sbag1
(g198
g3
NtRp244
(dp245
g208
F1.9283145976517111
sg209
g219
sg202
I16
sg211
F2.1663210159035504
sg212
g216
sbag1
(g198
g3
NtRp246
(dp247
g208
F-1.6905473797476209
sg209
g219
sg202
I17
sg211
F4.7065301625484386
sg212
g216
sbag1
(g198
g3
NtRp248
(dp249
g208
F-0.10909436062807434
sg209
g219
sg202
I18
sg211
F5.055363244878782
sg212
g216
sbasb.