ccopy_reg
_reconstructor
p1
(cneat.chromosome
Chromosome
p2
c__builtin__
object
p3
NtRp4
(dp5
S'species_id'
p6
I77
sS'_connection_genes'
p7
(dp8
(I7
I3
tp9
g1
(cneat.genome
ConnectionGene
p10
g3
NtRp11
(dp12
S'_ConnectionGene__weight'
p13
F28.031511273154152
sS'_ConnectionGene__in'
p14
I7
sS'_ConnectionGene__enabled'
p15
I01
sS'_ConnectionGene__out'
p16
I3
sS'_ConnectionGene__innov_number'
p17
I36
sbs(I1
I3
tp18
g1
(g10
g3
NtRp19
(dp20
g13
F-15.030373201339163
sg14
I1
sg15
I01
sg16
I3
sg17
I3
sbs(I5
I9
tp21
g1
(g10
g3
NtRp22
(dp23
g13
F-1.8128005792787696
sg14
I5
sg15
I01
sg16
I9
sg17
I100
sbs(I3
I2
tp24
g1
(g10
g3
NtRp25
(dp26
g13
F13.122249709065109
sg14
I3
sg15
I01
sg16
I2
sg17
I4
sbs(I10
I12
tp27
g1
(g10
g3
NtRp28
(dp29
g13
F-4.1105254606139017
sg14
I10
sg15
I01
sg16
I12
sg17
I111
sbs(I3
I7
tp30
g1
(g10
g3
NtRp31
(dp32
g13
F-7.686376267384146
sg14
I3
sg15
I01
sg16
I7
sg17
I49
sbs(I5
I8
tp33
g1
(g10
g3
NtRp34
(dp35
g13
F0.088571643886351414
sg14
I5
sg15
I01
sg16
I8
sg17
I45
sbs(I1
I2
tp36
g1
(g10
g3
NtRp37
(dp38
g13
F-30
sg14
I1
sg15
I01
sg16
I2
sg17
I1
sbs(I12
I2
tp39
g1
(g10
g3
NtRp40
(dp41
g13
F23.26264107835906
sg14
I12
sg15
I01
sg16
I2
sg17
I104
sbs(I4
I9
tp42
g1
(g10
g3
NtRp43
(dp44
g13
F8.6402925825154533
sg14
I4
sg15
I01
sg16
I9
sg17
I57
sbs(I3
I3
tp45
g1
(g10
g3
NtRp46
(dp47
g13
F0.12948705909350533
sg14
I3
sg15
I01
sg16
I3
sg17
I8
sbs(I2
I9
tp48
g1
(g10
g3
NtRp49
(dp50
g13
F2.0316155415031445
sg14
I2
sg15
I01
sg16
I9
sg17
I144
sbs(I3
I10
tp51
g1
(g10
g3
NtRp52
(dp53
g13
F-13.683000039467622
sg14
I3
sg15
I01
sg16
I10
sg17
I76
sbs(I6
I6
tp54
g1
(g10
g3
NtRp55
(dp56
g13
F-3.4111676838276459
sg14
I6
sg15
I01
sg16
I6
sg17
I37
sbs(I4
I4
tp57
g1
(g10
g3
NtRp58
(dp59
g13
F-6.4002509385191093
sg14
I4
sg15
I00
sg16
I4
sg17
I11
sbs(I4
I8
tp60
g1
(g10
g3
NtRp61
(dp62
g13
F5.0316278999032065
sg14
I4
sg15
I01
sg16
I8
sg17
I38
sbs(I4
I11
tp63
g1
(g10
g3
NtRp64
(dp65
g13
F1.0385955269707767
sg14
I4
sg15
I01
sg16
I11
sg17
I86
sbs(I3
I6
tp66
g1
(g10
g3
NtRp67
(dp68
g13
F-12.535150454344805
sg14
I3
sg15
I01
sg16
I6
sg17
I22
sbs(I2
I2
tp69
g1
(g10
g3
NtRp70
(dp71
g13
F-2.1691402326293403
sg14
I2
sg15
I01
sg16
I2
sg17
I2
sbs(I5
I4
tp72
g1
(g10
g3
NtRp73
(dp74
g13
F-0.59103438870445091
sg14
I5
sg15
I01
sg16
I4
sg17
I13
sbs(I5
I11
tp75
g1
(g10
g3
NtRp76
(dp77
g13
F10.738868480598073
sg14
I5
sg15
I01
sg16
I11
sg17
I90
sbs(I9
I3
tp78
g1
(g10
g3
NtRp79
(dp80
g13
F-21.325362725904707
sg14
I9
sg15
I01
sg16
I3
sg17
I60
sbs(I2
I3
tp81
g1
(g10
g3
NtRp82
(dp83
g13
F8.0641755128245709
sg14
I2
sg15
I01
sg16
I3
sg17
I5
sbs(I1
I9
tp84
g1
(g10
g3
NtRp85
(dp86
g13
F8.2193559076814573
sg14
I1
sg15
I01
sg16
I9
sg17
I47
sbs(I4
I2
tp87
g1
(g10
g3
NtRp88
(dp89
g13
F-1.8926049606964168
sg14
I4
sg15
I01
sg16
I2
sg17
I7
sbs(I6
I5
tp90
g1
(g10
g3
NtRp91
(dp92
g13
F-21.116475960975976
sg14
I6
sg15
I01
sg16
I5
sg17
I28
sbs(I3
I5
tp93
g1
(g10
g3
NtRp94
(dp95
g13
F28.182855947380101
sg14
I3
sg15
I01
sg16
I5
sg17
I12
sbs(I10
I5
tp96
g1
(g10
g3
NtRp97
(dp98
g13
F2.7800894701294969
sg14
I10
sg15
I01
sg16
I5
sg17
I79
sbs(I9
I2
tp99
g1
(g10
g3
NtRp100
(dp101
g13
F-2.4775633579651002
sg14
I9
sg15
I01
sg16
I2
sg17
I48
sbs(I9
I9
tp102
g1
(g10
g3
NtRp103
(dp104
g13
F8.9715090107102462
sg14
I9
sg15
I01
sg16
I9
sg17
I73
sbs(I11
I8
tp105
g1
(g10
g3
NtRp106
(dp107
g13
F-3.6832942102211681
sg14
I11
sg15
I01
sg16
I8
sg17
I91
sbs(I4
I3
tp108
g1
(g10
g3
NtRp109
(dp110
g13
F-1.0051911517539553
sg14
I4
sg15
I01
sg16
I3
sg17
I10
sbs(I8
I4
tp111
g1
(g10
g3
NtRp112
(dp113
g13
F18.730857710603228
sg14
I8
sg15
I01
sg16
I4
sg17
I41
sbs(I5
I2
tp114
g1
(g10
g3
NtRp115
(dp116
g13
F-20.598989249567893
sg14
I5
sg15
I01
sg16
I2
sg17
I21
sbs(I2
I4
tp117
g1
(g10
g3
NtRp118
(dp119
g13
F22.671897910363846
sg14
I2
sg15
I01
sg16
I4
sg17
I16
sbs(I10
I2
tp120
g1
(g10
g3
NtRp121
(dp122
g13
F27.252101761630158
sg14
I10
sg15
I01
sg16
I2
sg17
I66
sbssS'_input_nodes'
p123
I1
sS'_output_nodes'
p124
I1
sS'_node_gene_type'
p125
cneat.genome
NodeGene
p126
sS'_conn_gene_type'
p127
g10
sS'fitness'
p128
F0.98692547096282024
sS'parent2_id'
p129
I11269
sS'_id'
p130
I11313
sS'parent1_id'
p131
I11269
sS'_node_genes'
p132
(lp133
g1
(g126
g3
NtRp134
(dp135
S'_bias'
p136
I0
sS'_type'
p137
S'INPUT'
p138
sg130
I1
sS'_response'
p139
F4.9242730000000003
sS'_activation_type'
p140
Nsbag1
(g126
g3
NtRp141
(dp142
g136
F-0.3320892657792931
sg137
S'OUTPUT'
p143
sg130
I2
sg139
F4.7495988733743717
sg140
S'tanh'
p144
sbag1
(g126
g3
NtRp145
(dp146
g136
F-2.2161703869864979
sg137
S'HIDDEN'
p147
sg130
I3
sg139
F4.668627707519823
sg140
g144
sbag1
(g126
g3
NtRp148
(dp149
g136
F2.5495883388575651
sg137
g147
sg130
I4
sg139
F1.0958811235866943
sg140
g144
sbag1
(g126
g3
NtRp150
(dp151
g136
F-1.976564376039549
sg137
g147
sg130
I5
sg139
F5.3341983220450215
sg140
g144
sbag1
(g126
g3
NtRp152
(dp153
g136
F2.6273848932600625
sg137
g147
sg130
I6
sg139
F10.260208527646444
sg140
g144
sbag1
(g126
g3
NtRp154
(dp155
g136
F-1.2073149673051575
sg137
g147
sg130
I7
sg139
F11.819914366332178
sg140
g144
sbag1
(g126
g3
NtRp156
(dp157
g136
F-3.7176077832758709
sg137
g147
sg130
I8
sg139
F4.5390264618501455
sg140
g144
sbag1
(g126
g3
NtRp158
(dp159
g136
F3.2238503075311149
sg137
g147
sg130
I9
sg139
F3.2604439389682565
sg140
g144
sbag1
(g126
g3
NtRp160
(dp161
g136
F0.83834263257628172
sg137
g147
sg130
I10
sg139
F3.6561693767109844
sg140
g144
sbag1
(g126
g3
NtRp162
(dp163
g136
F-1.4186729713893613
sg137
g147
sg130
I11
sg139
F5.4546023322844324
sg140
g144
sbag1
(g126
g3
NtRp164
(dp165
g136
F0.54478952853952556
sg137
g147
sg130
I12
sg139
F4.7730743079428972
sg140
g144
sbasb.