ccopy_reg
_reconstructor
p1
(cneat.chromosome
Chromosome
p2
c__builtin__
object
p3
NtRp4
(dp5
S'species_id'
p6
I41
sS'_connection_genes'
p7
(dp8
(I1
I2
tp9
g1
(cneat.genome
ConnectionGene
p10
g3
NtRp11
(dp12
S'_ConnectionGene__weight'
p13
F-4.9865674099012693
sS'_ConnectionGene__in'
p14
I1
sS'_ConnectionGene__enabled'
p15
I01
sS'_ConnectionGene__out'
p16
I2
sS'_ConnectionGene__innov_number'
p17
I1
sbs(I3
I2
tp18
g1
(g10
g3
NtRp19
(dp20
g13
F10.31822447001294
sg14
I3
sg15
I01
sg16
I2
sg17
I4
sbs(I1
I3
tp21
g1
(g10
g3
NtRp22
(dp23
g13
F22.404726671881804
sg14
I1
sg15
I00
sg16
I3
sg17
I3
sbs(I6
I7
tp24
g1
(g10
g3
NtRp25
(dp26
g13
F-1.4738616921299381
sg14
I6
sg15
I01
sg16
I7
sg17
I34
sbs(I3
I3
tp27
g1
(g10
g3
NtRp28
(dp29
g13
F30
sg14
I3
sg15
I01
sg16
I3
sg17
I8
sbs(I5
I6
tp30
g1
(g10
g3
NtRp31
(dp32
g13
F-3.5839341222398313
sg14
I5
sg15
I01
sg16
I6
sg17
I25
sbs(I1
I4
tp33
g1
(g10
g3
NtRp34
(dp35
g13
F7.3377099332669964
sg14
I1
sg15
I01
sg16
I4
sg17
I6
sbs(I8
I9
tp36
g1
(g10
g3
NtRp37
(dp38
g13
F3.1545152000304215
sg14
I8
sg15
I01
sg16
I9
sg17
I61
sbs(I9
I2
tp39
g1
(g10
g3
NtRp40
(dp41
g13
F-16.391161414877924
sg14
I9
sg15
I01
sg16
I2
sg17
I48
sbs(I6
I2
tp42
g1
(g10
g3
NtRp43
(dp44
g13
F11.4061876899189
sg14
I6
sg15
I00
sg16
I2
sg17
I18
sbs(I5
I3
tp45
g1
(g10
g3
NtRp46
(dp47
g13
F4.0430747010230972
sg14
I5
sg15
I01
sg16
I3
sg17
I15
sbs(I7
I2
tp48
g1
(g10
g3
NtRp49
(dp50
g13
F-0.54521107576346006
sg14
I7
sg15
I01
sg16
I2
sg17
I31
sbs(I4
I3
tp51
g1
(g10
g3
NtRp52
(dp53
g13
F19.69557810301432
sg14
I4
sg15
I01
sg16
I3
sg17
I10
sbs(I3
I9
tp54
g1
(g10
g3
NtRp55
(dp56
g13
F0.71626702844574508
sg14
I3
sg15
I01
sg16
I9
sg17
I62
sbs(I3
I5
tp57
g1
(g10
g3
NtRp58
(dp59
g13
F7.5512542252697097
sg14
I3
sg15
I01
sg16
I5
sg17
I12
sbs(I5
I2
tp60
g1
(g10
g3
NtRp61
(dp62
g13
F-22.255293605968603
sg14
I5
sg15
I00
sg16
I2
sg17
I21
sbs(I2
I4
tp63
g1
(g10
g3
NtRp64
(dp65
g13
F-0.10347005767110573
sg14
I2
sg15
I01
sg16
I4
sg17
I16
sbs(I5
I8
tp66
g1
(g10
g3
NtRp67
(dp68
g13
F6.7790478885132721
sg14
I5
sg15
I01
sg16
I8
sg17
I45
sbs(I8
I2
tp69
g1
(g10
g3
NtRp70
(dp71
g13
F-28.67180202295128
sg14
I8
sg15
I00
sg16
I2
sg17
I46
sbssS'_input_nodes'
p72
I1
sS'_output_nodes'
p73
I1
sS'_node_gene_type'
p74
cneat.genome
NodeGene
p75
sS'_conn_gene_type'
p76
g10
sS'fitness'
p77
F0.99408385005237032
sS'parent2_id'
p78
I5869
sS'_id'
p79
I5914
sS'parent1_id'
p80
I5869
sS'_node_genes'
p81
(lp82
g1
(g75
g3
NtRp83
(dp84
S'_bias'
p85
I0
sS'_type'
p86
S'INPUT'
p87
sg79
I1
sS'_response'
p88
F4.9242730000000003
sS'_activation_type'
p89
Nsbag1
(g75
g3
NtRp90
(dp91
g85
F-5.124245155712722
sg86
S'OUTPUT'
p92
sg79
I2
sg88
F5.0977714303591837
sg89
S'tanh'
p93
sbag1
(g75
g3
NtRp94
(dp95
g85
F1.9154167769103756
sg86
S'HIDDEN'
p96
sg79
I3
sg88
F4.6685921668971462
sg89
g93
sbag1
(g75
g3
NtRp97
(dp98
g85
F1.136838371440569
sg86
g96
sg79
I4
sg88
F7.6112642941460775
sg89
g93
sbag1
(g75
g3
NtRp99
(dp100
g85
F1.2289619578652144
sg86
g96
sg79
I5
sg88
F6.5573846062758498
sg89
g93
sbag1
(g75
g3
NtRp101
(dp102
g85
F0.30932335372368736
sg86
g96
sg79
I6
sg88
F3.830784010256953
sg89
g93
sbag1
(g75
g3
NtRp103
(dp104
g85
F0.4953382115245894
sg86
g96
sg79
I7
sg88
F5.0082100846367172
sg89
g93
sbag1
(g75
g3
NtRp105
(dp106
g85
F-0.31426470812159168
sg86
g96
sg79
I8
sg88
F5.1684381974164859
sg89
g93
sbag1
(g75
g3
NtRp107
(dp108
g85
F3.0209996665992187
sg86
g96
sg79
I9
sg88
F5.2091901678288703
sg89
g93
sbasb.