ccopy_reg
_reconstructor
p1
(cneat.chromosome
Chromosome
p2
c__builtin__
object
p3
NtRp4
(dp5
S'species_id'
p6
I126
sS'_connection_genes'
p7
(dp8
(I7
I3
tp9
g1
(cneat.genome
ConnectionGene
p10
g3
NtRp11
(dp12
S'_ConnectionGene__weight'
p13
F15.256617464027004
sS'_ConnectionGene__in'
p14
I7
sS'_ConnectionGene__enabled'
p15
I01
sS'_ConnectionGene__out'
p16
I3
sS'_ConnectionGene__innov_number'
p17
I36
sbs(I1
I3
tp18
g1
(g10
g3
NtRp19
(dp20
g13
F-29.751022998664382
sg14
I1
sg15
I01
sg16
I3
sg17
I3
sbs(I10
I11
tp21
g1
(g10
g3
NtRp22
(dp23
g13
F0.84913982786585396
sg14
I10
sg15
I01
sg16
I11
sg17
I95
sbs(I5
I9
tp24
g1
(g10
g3
NtRp25
(dp26
g13
F-0.50946334554602046
sg14
I5
sg15
I01
sg16
I9
sg17
I100
sbs(I16
I9
tp27
g1
(g10
g3
NtRp28
(dp29
g13
F-11.372342833576091
sg14
I16
sg15
I01
sg16
I9
sg17
I236
sbs(I11
I2
tp30
g1
(g10
g3
NtRp31
(dp32
g13
F22.359063296719228
sg14
I11
sg15
I01
sg16
I2
sg17
I89
sbs(I10
I6
tp33
g1
(g10
g3
NtRp34
(dp35
g13
F7.9384643452028385
sg14
I10
sg15
I01
sg16
I6
sg17
I68
sbs(I5
I4
tp36
g1
(g10
g3
NtRp37
(dp38
g13
F11.530575375308239
sg14
I5
sg15
I01
sg16
I4
sg17
I13
sbs(I10
I15
tp39
g1
(g10
g3
NtRp40
(dp41
g13
F-25.016343271255693
sg14
I10
sg15
I01
sg16
I15
sg17
I169
sbs(I13
I14
tp42
g1
(g10
g3
NtRp43
(dp44
g13
F2.246666448131434
sg14
I13
sg15
I01
sg16
I14
sg17
I189
sbs(I13
I8
tp45
g1
(g10
g3
NtRp46
(dp47
g13
F18.127019453083392
sg14
I13
sg15
I01
sg16
I8
sg17
I177
sbs(I3
I7
tp48
g1
(g10
g3
NtRp49
(dp50
g13
F-6.113299633187383
sg14
I3
sg15
I01
sg16
I7
sg17
I49
sbs(I15
I5
tp51
g1
(g10
g3
NtRp52
(dp53
g13
F14.5355719638503
sg14
I15
sg15
I01
sg16
I5
sg17
I147
sbs(I5
I8
tp54
g1
(g10
g3
NtRp55
(dp56
g13
F23.476607033156142
sg14
I5
sg15
I01
sg16
I8
sg17
I45
sbs(I1
I2
tp57
g1
(g10
g3
NtRp58
(dp59
g13
F-26.693405758791368
sg14
I1
sg15
I01
sg16
I2
sg17
I1
sbs(I12
I2
tp60
g1
(g10
g3
NtRp61
(dp62
g13
F8.9249842215792796
sg14
I12
sg15
I01
sg16
I2
sg17
I104
sbs(I1
I11
tp63
g1
(g10
g3
NtRp64
(dp65
g13
F-15.833580596513217
sg14
I1
sg15
I01
sg16
I11
sg17
I88
sbs(I4
I9
tp66
g1
(g10
g3
NtRp67
(dp68
g13
F-20.328853168998489
sg14
I4
sg15
I01
sg16
I9
sg17
I57
sbs(I3
I3
tp69
g1
(g10
g3
NtRp70
(dp71
g13
F-14.587748602377401
sg14
I3
sg15
I01
sg16
I3
sg17
I8
sbs(I2
I9
tp72
g1
(g10
g3
NtRp73
(dp74
g13
F4.1617391631803615
sg14
I2
sg15
I00
sg16
I9
sg17
I144
sbs(I13
I3
tp75
g1
(g10
g3
NtRp76
(dp77
g13
F29.172768693298238
sg14
I13
sg15
I00
sg16
I3
sg17
I117
sbs(I12
I13
tp78
g1
(g10
g3
NtRp79
(dp80
g13
F2.8474750659146517
sg14
I12
sg15
I01
sg16
I13
sg17
I120
sbs(I3
I10
tp81
g1
(g10
g3
NtRp82
(dp83
g13
F-25.341189016555774
sg14
I3
sg15
I01
sg16
I10
sg17
I76
sbs(I4
I4
tp84
g1
(g10
g3
NtRp85
(dp86
g13
F5.2842387413019143
sg14
I4
sg15
I00
sg16
I4
sg17
I11
sbs(I10
I12
tp87
g1
(g10
g3
NtRp88
(dp89
g13
F-9.2582785580480351
sg14
I10
sg15
I01
sg16
I12
sg17
I111
sbs(I4
I8
tp90
g1
(g10
g3
NtRp91
(dp92
g13
F17.112998397138295
sg14
I4
sg15
I01
sg16
I8
sg17
I38
sbs(I2
I13
tp93
g1
(g10
g3
NtRp94
(dp95
g13
F-22.56866382561725
sg14
I2
sg15
I01
sg16
I13
sg17
I176
sbs(I6
I5
tp96
g1
(g10
g3
NtRp97
(dp98
g13
F-20.631098237191857
sg14
I6
sg15
I01
sg16
I5
sg17
I28
sbs(I3
I6
tp99
g1
(g10
g3
NtRp100
(dp101
g13
F15.699322980348171
sg14
I3
sg15
I01
sg16
I6
sg17
I22
sbs(I2
I2
tp102
g1
(g10
g3
NtRp103
(dp104
g13
F-4.1782464630580343
sg14
I2
sg15
I01
sg16
I2
sg17
I2
sbs(I5
I3
tp105
g1
(g10
g3
NtRp106
(dp107
g13
F8.2595788417247746
sg14
I5
sg15
I01
sg16
I3
sg17
I15
sbs(I2
I16
tp108
g1
(g10
g3
NtRp109
(dp110
g13
F18.906535175216916
sg14
I2
sg15
I01
sg16
I16
sg17
I228
sbs(I3
I2
tp111
g1
(g10
g3
NtRp112
(dp113
g13
F-8.4804112385647414
sg14
I3
sg15
I01
sg16
I2
sg17
I4
sbs(I6
I6
tp114
g1
(g10
g3
NtRp115
(dp116
g13
F-13.2786304935834
sg14
I6
sg15
I01
sg16
I6
sg17
I37
sbs(I5
I11
tp117
g1
(g10
g3
NtRp118
(dp119
g13
F28.999200854026519
sg14
I5
sg15
I01
sg16
I11
sg17
I90
sbs(I9
I3
tp120
g1
(g10
g3
NtRp121
(dp122
g13
F-30
sg14
I9
sg15
I01
sg16
I3
sg17
I60
sbs(I17
I5
tp123
g1
(g10
g3
NtRp124
(dp125
g13
F21.105929038271015
sg14
I17
sg15
I01
sg16
I5
sg17
I277
sbs(I2
I3
tp126
g1
(g10
g3
NtRp127
(dp128
g13
F14.558524024333904
sg14
I2
sg15
I01
sg16
I3
sg17
I5
sbs(I1
I9
tp129
g1
(g10
g3
NtRp130
(dp131
g13
F4.4112467482010249
sg14
I1
sg15
I01
sg16
I9
sg17
I47
sbs(I4
I2
tp132
g1
(g10
g3
NtRp133
(dp134
g13
F4.7341434078571778
sg14
I4
sg15
I01
sg16
I2
sg17
I7
sbs(I4
I11
tp135
g1
(g10
g3
NtRp136
(dp137
g13
F-8.4547309414026248
sg14
I4
sg15
I01
sg16
I11
sg17
I86
sbs(I3
I5
tp138
g1
(g10
g3
NtRp139
(dp140
g13
F19.606695268316148
sg14
I3
sg15
I00
sg16
I5
sg17
I12
sbs(I10
I5
tp141
g1
(g10
g3
NtRp142
(dp143
g13
F0.28362991110455793
sg14
I10
sg15
I00
sg16
I5
sg17
I79
sbs(I9
I2
tp144
g1
(g10
g3
NtRp145
(dp146
g13
F11.697351170034798
sg14
I9
sg15
I01
sg16
I2
sg17
I48
sbs(I9
I9
tp147
g1
(g10
g3
NtRp148
(dp149
g13
F-7.8582927536673717
sg14
I9
sg15
I01
sg16
I9
sg17
I73
sbs(I2
I4
tp150
g1
(g10
g3
NtRp151
(dp152
g13
F3.0564040859576931
sg14
I2
sg15
I01
sg16
I4
sg17
I16
sbs(I11
I8
tp153
g1
(g10
g3
NtRp154
(dp155
g13
F-24.886991117366751
sg14
I11
sg15
I01
sg16
I8
sg17
I91
sbs(I12
I4
tp156
g1
(g10
g3
NtRp157
(dp158
g13
F8.0092037992164187
sg14
I12
sg15
I01
sg16
I4
sg17
I115
sbs(I3
I17
tp159
g1
(g10
g3
NtRp160
(dp161
g13
F2.7521059391561096
sg14
I3
sg15
I01
sg16
I17
sg17
I247
sbs(I4
I3
tp162
g1
(g10
g3
NtRp163
(dp164
g13
F-19.807671940101638
sg14
I4
sg15
I01
sg16
I3
sg17
I10
sbs(I15
I9
tp165
g1
(g10
g3
NtRp166
(dp167
g13
F-6.7751409079710978
sg14
I15
sg15
I01
sg16
I9
sg17
I171
sbs(I14
I3
tp168
g1
(g10
g3
NtRp169
(dp170
g13
F28.797321768905125
sg14
I14
sg15
I01
sg16
I3
sg17
I132
sbs(I10
I2
tp171
g1
(g10
g3
NtRp172
(dp173
g13
F8.7675296734357744
sg14
I10
sg15
I01
sg16
I2
sg17
I66
sbs(I5
I2
tp174
g1
(g10
g3
NtRp175
(dp176
g13
F3.0187661129354137
sg14
I5
sg15
I01
sg16
I2
sg17
I21
sbs(I17
I17
tp177
g1
(g10
g3
NtRp178
(dp179
g13
F-2.6983459923716073
sg14
I17
sg15
I01
sg16
I17
sg17
I324
sbs(I8
I4
tp180
g1
(g10
g3
NtRp181
(dp182
g13
F8.7643186926782892
sg14
I8
sg15
I01
sg16
I4
sg17
I41
sbssS'_input_nodes'
p183
I1
sS'_output_nodes'
p184
I1
sS'_node_gene_type'
p185
cneat.genome
NodeGene
p186
sS'_conn_gene_type'
p187
g10
sS'fitness'
p188
F0.99207009111694178
sS'parent2_id'
p189
I17977
sS'_id'
p190
I18167
sS'parent1_id'
p191
I18096
sS'_node_genes'
p192
(lp193
g1
(g186
g3
NtRp194
(dp195
S'_bias'
p196
I0
sS'_type'
p197
S'INPUT'
p198
sg190
I1
sS'_response'
p199
F4.9242730000000003
sS'_activation_type'
p200
Nsbag1
(g186
g3
NtRp201
(dp202
g196
F-0.64883896722169532
sg197
S'OUTPUT'
p203
sg190
I2
sg199
F4.7924447626707076
sg200
S'tanh'
p204
sbag1
(g186
g3
NtRp205
(dp206
g196
F-3.8016544403337194
sg197
S'HIDDEN'
p207
sg190
I3
sg199
F6.3523986915122048
sg200
g204
sbag1
(g186
g3
NtRp208
(dp209
g196
F3.2136248873499564
sg197
g207
sg190
I4
sg199
F3.8556653683473288
sg200
g204
sbag1
(g186
g3
NtRp210
(dp211
g196
F-2.9988181622429484
sg197
g207
sg190
I5
sg199
F5.646845506028181
sg200
g204
sbag1
(g186
g3
NtRp212
(dp213
g196
F2.0776403362432743
sg197
g207
sg190
I6
sg199
F8.4318435570900956
sg200
g204
sbag1
(g186
g3
NtRp214
(dp215
g196
F-4.0544669282924106
sg197
g207
sg190
I7
sg199
F11.340939092629927
sg200
g204
sbag1
(g186
g3
NtRp216
(dp217
g196
F-5.3922026800622644
sg197
g207
sg190
I8
sg199
F4.6083243221529742
sg200
g204
sbag1
(g186
g3
NtRp218
(dp219
g196
F5.3738649216959704
sg197
g207
sg190
I9
sg199
F4.5078845581707494
sg200
g204
sbag1
(g186
g3
NtRp220
(dp221
g196
F-0.71603899140021832
sg197
g207
sg190
I10
sg199
F4.4501828280126112
sg200
g204
sbag1
(g186
g3
NtRp222
(dp223
g196
F-0.23724924248260595
sg197
g207
sg190
I11
sg199
F5.811993666011511
sg200
g204
sbag1
(g186
g3
NtRp224
(dp225
g196
F0.082760215083130084
sg197
g207
sg190
I12
sg199
F11.486565301902715
sg200
g204
sbag1
(g186
g3
NtRp226
(dp227
g196
F-4.0911952822826789
sg197
g207
sg190
I13
sg199
F6.8115354898504421
sg200
g204
sbag1
(g186
g3
NtRp228
(dp229
g196
F1.9796069207133016
sg197
g207
sg190
I14
sg199
F6.5986249977798339
sg200
g204
sbag1
(g186
g3
NtRp230
(dp231
g196
F-0.54020043275331198
sg197
g207
sg190
I15
sg199
F4.4833310798884956
sg200
g204
sbag1
(g186
g3
NtRp232
(dp233
g196
F0.64097488612342568
sg197
g207
sg190
I16
sg199
F3.1972474370071038
sg200
g204
sbag1
(g186
g3
NtRp234
(dp235
g196
F-0.25280399423174543
sg197
g207
sg190
I17
sg199
F3.1902048057680825
sg200
g204
sbasb.