ccopy_reg
_reconstructor
p1
(cneat.chromosome
Chromosome
p2
c__builtin__
object
p3
NtRp4
(dp5
S'species_id'
p6
I59
sS'_connection_genes'
p7
(dp8
(I1
I3
tp9
g1
(cneat.genome
ConnectionGene
p10
g3
NtRp11
(dp12
S'_ConnectionGene__weight'
p13
F18.09083607645389
sS'_ConnectionGene__in'
p14
I1
sS'_ConnectionGene__enabled'
p15
I01
sS'_ConnectionGene__out'
p16
I3
sS'_ConnectionGene__innov_number'
p17
I3
sbs(I5
I6
tp18
g1
(g10
g3
NtRp19
(dp20
g13
F4.4257954659212624
sg14
I5
sg15
I01
sg16
I6
sg17
I25
sbs(I8
I9
tp21
g1
(g10
g3
NtRp22
(dp23
g13
F-0.030484023976110497
sg14
I8
sg15
I00
sg16
I9
sg17
I61
sbs(I6
I2
tp24
g1
(g10
g3
NtRp25
(dp26
g13
F13.705017680287089
sg14
I6
sg15
I01
sg16
I2
sg17
I18
sbs(I3
I7
tp27
g1
(g10
g3
NtRp28
(dp29
g13
F-1.9696427059633399
sg14
I3
sg15
I01
sg16
I7
sg17
I49
sbs(I7
I2
tp30
g1
(g10
g3
NtRp31
(dp32
g13
F-13.191991465666064
sg14
I7
sg15
I00
sg16
I2
sg17
I31
sbs(I1
I2
tp33
g1
(g10
g3
NtRp34
(dp35
g13
F-5.9615218892475879
sg14
I1
sg15
I01
sg16
I2
sg17
I1
sbs(I12
I2
tp36
g1
(g10
g3
NtRp37
(dp38
g13
F-10.213921090137056
sg14
I12
sg15
I01
sg16
I2
sg17
I104
sbs(I6
I7
tp39
g1
(g10
g3
NtRp40
(dp41
g13
F7.9814800655789151
sg14
I6
sg15
I01
sg16
I7
sg17
I34
sbs(I3
I3
tp42
g1
(g10
g3
NtRp43
(dp44
g13
F14.930141113038223
sg14
I3
sg15
I01
sg16
I3
sg17
I8
sbs(I7
I12
tp45
g1
(g10
g3
NtRp46
(dp47
g13
F3.7780569679160481
sg14
I7
sg15
I01
sg16
I12
sg17
I103
sbs(I5
I8
tp48
g1
(g10
g3
NtRp49
(dp50
g13
F-0.14487376327626178
sg14
I5
sg15
I01
sg16
I8
sg17
I45
sbs(I3
I5
tp51
g1
(g10
g3
NtRp52
(dp53
g13
F4.1314065634792012
sg14
I3
sg15
I01
sg16
I5
sg17
I12
sbs(I8
I11
tp54
g1
(g10
g3
NtRp55
(dp56
g13
F8.2887306523036663
sg14
I8
sg15
I01
sg16
I11
sg17
I98
sbs(I3
I2
tp57
g1
(g10
g3
NtRp58
(dp59
g13
F8.7113948173523283
sg14
I3
sg15
I01
sg16
I2
sg17
I4
sbs(I11
I9
tp60
g1
(g10
g3
NtRp61
(dp62
g13
F-2.4711439341804011
sg14
I11
sg15
I01
sg16
I9
sg17
I102
sbs(I13
I2
tp63
g1
(g10
g3
NtRp64
(dp65
g13
F-29.805946179852747
sg14
I13
sg15
I01
sg16
I2
sg17
I121
sbs(I8
I2
tp66
g1
(g10
g3
NtRp67
(dp68
g13
F-19.910408715187348
sg14
I8
sg15
I01
sg16
I2
sg17
I46
sbs(I4
I5
tp69
g1
(g10
g3
NtRp70
(dp71
g13
F1.178346832586765
sg14
I4
sg15
I01
sg16
I5
sg17
I20
sbs(I10
I13
tp72
g1
(g10
g3
NtRp73
(dp74
g13
F-2.4972143744525166
sg14
I10
sg15
I01
sg16
I13
sg17
I143
sbs(I9
I3
tp75
g1
(g10
g3
NtRp76
(dp77
g13
F-2.7822998003839077
sg14
I9
sg15
I01
sg16
I3
sg17
I60
sbs(I1
I4
tp78
g1
(g10
g3
NtRp79
(dp80
g13
F-5.1643012062197791
sg14
I1
sg15
I01
sg16
I4
sg17
I6
sbs(I2
I10
tp81
g1
(g10
g3
NtRp82
(dp83
g13
F2.6495955232720165
sg14
I2
sg15
I01
sg16
I10
sg17
I69
sbs(I7
I5
tp84
g1
(g10
g3
NtRp85
(dp86
g13
F1.5425497860933191
sg14
I7
sg15
I01
sg16
I5
sg17
I50
sbs(I5
I3
tp87
g1
(g10
g3
NtRp88
(dp89
g13
F17.655478598664821
sg14
I5
sg15
I01
sg16
I3
sg17
I15
sbs(I8
I3
tp90
g1
(g10
g3
NtRp91
(dp92
g13
F-0.48712602833625263
sg14
I8
sg15
I01
sg16
I3
sg17
I39
sbs(I5
I10
tp93
g1
(g10
g3
NtRp94
(dp95
g13
F8.151009559565594
sg14
I5
sg15
I01
sg16
I10
sg17
I67
sbs(I4
I3
tp96
g1
(g10
g3
NtRp97
(dp98
g13
F15.929453426063525
sg14
I4
sg15
I01
sg16
I3
sg17
I10
sbs(I5
I2
tp99
g1
(g10
g3
NtRp100
(dp101
g13
F-28.404512491050411
sg14
I5
sg15
I01
sg16
I2
sg17
I21
sbs(I2
I4
tp102
g1
(g10
g3
NtRp103
(dp104
g13
F-18.129588204117361
sg14
I2
sg15
I01
sg16
I4
sg17
I16
sbs(I10
I2
tp105
g1
(g10
g3
NtRp106
(dp107
g13
F-21.21836776594558
sg14
I10
sg15
I00
sg16
I2
sg17
I66
sbssS'_input_nodes'
p108
I1
sS'_output_nodes'
p109
I1
sS'_node_gene_type'
p110
cneat.genome
NodeGene
p111
sS'_conn_gene_type'
p112
g10
sS'fitness'
p113
F0.99596534637405776
sS'parent2_id'
p114
I9346
sS'_id'
p115
I9383
sS'parent1_id'
p116
I9346
sS'_node_genes'
p117
(lp118
g1
(g111
g3
NtRp119
(dp120
S'_bias'
p121
I0
sS'_type'
p122
S'INPUT'
p123
sg115
I1
sS'_response'
p124
F4.9242730000000003
sS'_activation_type'
p125
Nsbag1
(g111
g3
NtRp126
(dp127
g121
F-3.2274498674776431
sg122
S'OUTPUT'
p128
sg115
I2
sg124
F3.5699682797562522
sg125
S'tanh'
p129
sbag1
(g111
g3
NtRp130
(dp131
g121
F1.4810879275583142
sg122
S'HIDDEN'
p132
sg115
I3
sg124
F-3.2725532072713479
sg125
g129
sbag1
(g111
g3
NtRp133
(dp134
g121
F-1.6677884875416864
sg122
g132
sg115
I4
sg124
F9.6736707597964067
sg125
g129
sbag1
(g111
g3
NtRp135
(dp136
g121
F1.8808431011539464
sg122
g132
sg115
I5
sg124
F5.2172720538903352
sg125
g129
sbag1
(g111
g3
NtRp137
(dp138
g121
F1.8373033732706754
sg122
g132
sg115
I6
sg124
F4.8021306139287825
sg125
g129
sbag1
(g111
g3
NtRp139
(dp140
g121
F-3.2031731573491427
sg122
g132
sg115
I7
sg124
F1.8345309886094421
sg125
g129
sbag1
(g111
g3
NtRp141
(dp142
g121
F2.8046682937280947
sg122
g132
sg115
I8
sg124
F5.2921318087823952
sg125
g129
sbag1
(g111
g3
NtRp143
(dp144
g121
F-0.96685069240606714
sg122
g132
sg115
I9
sg124
F4.9141917587794559
sg125
g129
sbag1
(g111
g3
NtRp145
(dp146
g121
F-2.7586836611110059
sg122
g132
sg115
I10
sg124
F4.5972725077192003
sg125
g129
sbag1
(g111
g3
NtRp147
(dp148
g121
F0.099101500332685777
sg122
g132
sg115
I11
sg124
F4.1999065979435342
sg125
g129
sbag1
(g111
g3
NtRp149
(dp150
g121
F2.0069958756733444
sg122
g132
sg115
I12
sg124
F2.3483720495573261
sg125
g129
sbag1
(g111
g3
NtRp151
(dp152
g121
F0.68920369034000395
sg122
g132
sg115
I13
sg124
F4.9242730000000003
sg125
g129
sbasb.