ccopy_reg
_reconstructor
p1
(cneat.chromosome
Chromosome
p2
c__builtin__
object
p3
NtRp4
(dp5
S'species_id'
p6
I84
sS'_connection_genes'
p7
(dp8
(I7
I3
tp9
g1
(cneat.genome
ConnectionGene
p10
g3
NtRp11
(dp12
S'_ConnectionGene__weight'
p13
F19.986358915375
sS'_ConnectionGene__in'
p14
I7
sS'_ConnectionGene__enabled'
p15
I01
sS'_ConnectionGene__out'
p16
I3
sS'_ConnectionGene__innov_number'
p17
I36
sbs(I6
I9
tp18
g1
(g10
g3
NtRp19
(dp20
g13
F-17.002374462784221
sg14
I6
sg15
I01
sg16
I9
sg17
I81
sbs(I1
I3
tp21
g1
(g10
g3
NtRp22
(dp23
g13
F1.2725602152575979
sg14
I1
sg15
I01
sg16
I3
sg17
I3
sbs(I8
I13
tp24
g1
(g10
g3
NtRp25
(dp26
g13
F-6.5509441448699741
sg14
I8
sg15
I01
sg16
I13
sg17
I197
sbs(I5
I9
tp27
g1
(g10
g3
NtRp28
(dp29
g13
F2.9611914039450391
sg14
I5
sg15
I01
sg16
I9
sg17
I100
sbs(I13
I4
tp30
g1
(g10
g3
NtRp31
(dp32
g13
F-3.0064924662609229
sg14
I13
sg15
I01
sg16
I4
sg17
I163
sbs(I5
I4
tp33
g1
(g10
g3
NtRp34
(dp35
g13
F5.4812588747602717
sg14
I5
sg15
I01
sg16
I4
sg17
I13
sbs(I3
I7
tp36
g1
(g10
g3
NtRp37
(dp38
g13
F8.8218821817141233
sg14
I3
sg15
I01
sg16
I7
sg17
I49
sbs(I12
I9
tp39
g1
(g10
g3
NtRp40
(dp41
g13
F8.8169405688839646
sg14
I12
sg15
I01
sg16
I9
sg17
I109
sbs(I1
I2
tp42
g1
(g10
g3
NtRp43
(dp44
g13
F-9.6032258109827762
sg14
I1
sg15
I01
sg16
I2
sg17
I1
sbs(I4
I9
tp45
g1
(g10
g3
NtRp46
(dp47
g13
F26.558680919590021
sg14
I4
sg15
I01
sg16
I9
sg17
I57
sbs(I3
I3
tp48
g1
(g10
g3
NtRp49
(dp50
g13
F-20.238217773924568
sg14
I3
sg15
I01
sg16
I3
sg17
I8
sbs(I9
I15
tp51
g1
(g10
g3
NtRp52
(dp53
g13
F4.9367391674986489
sg14
I9
sg15
I01
sg16
I15
sg17
I219
sbs(I3
I10
tp54
g1
(g10
g3
NtRp55
(dp56
g13
F18.286049233710326
sg14
I3
sg15
I01
sg16
I10
sg17
I76
sbs(I6
I6
tp57
g1
(g10
g3
NtRp58
(dp59
g13
F0.60298205765167534
sg14
I6
sg15
I01
sg16
I6
sg17
I37
sbs(I4
I4
tp60
g1
(g10
g3
NtRp61
(dp62
g13
F6.5980891159025736
sg14
I4
sg15
I01
sg16
I4
sg17
I11
sbs(I4
I8
tp63
g1
(g10
g3
NtRp64
(dp65
g13
F10.61629129375655
sg14
I4
sg15
I01
sg16
I8
sg17
I38
sbs(I6
I5
tp66
g1
(g10
g3
NtRp67
(dp68
g13
F-12.834381565971153
sg14
I6
sg15
I01
sg16
I5
sg17
I28
sbs(I3
I6
tp69
g1
(g10
g3
NtRp70
(dp71
g13
F-13.627049450323129
sg14
I3
sg15
I01
sg16
I6
sg17
I22
sbs(I15
I12
tp72
g1
(g10
g3
NtRp73
(dp74
g13
F2.3945203243242732
sg14
I15
sg15
I01
sg16
I12
sg17
I159
sbs(I3
I2
tp75
g1
(g10
g3
NtRp76
(dp77
g13
F28.909495249474382
sg14
I3
sg15
I00
sg16
I2
sg17
I4
sbs(I9
I3
tp78
g1
(g10
g3
NtRp79
(dp80
g13
F-2.4607478454939304
sg14
I9
sg15
I01
sg16
I3
sg17
I60
sbs(I2
I3
tp81
g1
(g10
g3
NtRp82
(dp83
g13
F-3.615675143340825
sg14
I2
sg15
I01
sg16
I3
sg17
I5
sbs(I1
I9
tp84
g1
(g10
g3
NtRp85
(dp86
g13
F10.762719968496391
sg14
I1
sg15
I01
sg16
I9
sg17
I47
sbs(I14
I2
tp87
g1
(g10
g3
NtRp88
(dp89
g13
F29.156052725704434
sg14
I14
sg15
I01
sg16
I2
sg17
I125
sbs(I4
I11
tp90
g1
(g10
g3
NtRp91
(dp92
g13
F3.0479751108452602
sg14
I4
sg15
I01
sg16
I11
sg17
I86
sbs(I3
I5
tp93
g1
(g10
g3
NtRp94
(dp95
g13
F12.447048614447548
sg14
I3
sg15
I01
sg16
I5
sg17
I12
sbs(I10
I5
tp96
g1
(g10
g3
NtRp97
(dp98
g13
F5.7633048287062278
sg14
I10
sg15
I01
sg16
I5
sg17
I79
sbs(I9
I2
tp99
g1
(g10
g3
NtRp100
(dp101
g13
F-2.0632859047102037
sg14
I9
sg15
I01
sg16
I2
sg17
I48
sbs(I9
I9
tp102
g1
(g10
g3
NtRp103
(dp104
g13
F-6.7687683092910742
sg14
I9
sg15
I00
sg16
I9
sg17
I73
sbs(I11
I8
tp105
g1
(g10
g3
NtRp106
(dp107
g13
F3.0189742431308599
sg14
I11
sg15
I01
sg16
I8
sg17
I91
sbs(I10
I14
tp108
g1
(g10
g3
NtRp109
(dp110
g13
F6.7777136034263767
sg14
I10
sg15
I01
sg16
I14
sg17
I145
sbs(I4
I3
tp111
g1
(g10
g3
NtRp112
(dp113
g13
F-2.1380638848708635
sg14
I4
sg15
I01
sg16
I3
sg17
I10
sbs(I10
I2
tp114
g1
(g10
g3
NtRp115
(dp116
g13
F30
sg14
I10
sg15
I00
sg16
I2
sg17
I66
sbs(I5
I2
tp117
g1
(g10
g3
NtRp118
(dp119
g13
F-7.500133218905475
sg14
I5
sg15
I01
sg16
I2
sg17
I21
sbs(I2
I4
tp120
g1
(g10
g3
NtRp121
(dp122
g13
F30
sg14
I2
sg15
I01
sg16
I4
sg17
I16
sbs(I9
I12
tp123
g1
(g10
g3
NtRp124
(dp125
g13
F8.3046844323324613
sg14
I9
sg15
I00
sg16
I12
sg17
I127
sbs(I8
I4
tp126
g1
(g10
g3
NtRp127
(dp128
g13
F5.8385290547749911
sg14
I8
sg15
I00
sg16
I4
sg17
I41
sbssS'_input_nodes'
p129
I1
sS'_output_nodes'
p130
I1
sS'_node_gene_type'
p131
cneat.genome
NodeGene
p132
sS'_conn_gene_type'
p133
g10
sS'fitness'
p134
F0.99735615027755387
sS'parent2_id'
p135
I11963
sS'_id'
p136
I12049
sS'parent1_id'
p137
I11963
sS'_node_genes'
p138
(lp139
g1
(g132
g3
NtRp140
(dp141
S'_bias'
p142
I0
sS'_type'
p143
S'INPUT'
p144
sg136
I1
sS'_response'
p145
F4.9242730000000003
sS'_activation_type'
p146
Nsbag1
(g132
g3
NtRp147
(dp148
g142
F-0.65595704453101422
sg143
S'OUTPUT'
p149
sg136
I2
sg145
F5.8911625857151293
sg146
S'tanh'
p150
sbag1
(g132
g3
NtRp151
(dp152
g142
F-2.5843443231015213
sg143
S'HIDDEN'
p153
sg136
I3
sg145
F5.3172115113110658
sg146
g150
sbag1
(g132
g3
NtRp154
(dp155
g142
F4.4527026931442073
sg143
g153
sg136
I4
sg145
F0.68363561307541143
sg146
g150
sbag1
(g132
g3
NtRp156
(dp157
g142
F-0.66367176481709755
sg143
g153
sg136
I5
sg145
F7.6399778796748627
sg146
g150
sbag1
(g132
g3
NtRp158
(dp159
g142
F0.12920706694225931
sg143
g153
sg136
I6
sg145
F11.425663984195701
sg146
g150
sbag1
(g132
g3
NtRp160
(dp161
g142
F-1.3716655141938321
sg143
g153
sg136
I7
sg145
F9.8156031903774323
sg146
g150
sbag1
(g132
g3
NtRp162
(dp163
g142
F-1.356004054482344
sg143
g153
sg136
I8
sg145
F2.7552148175963818
sg146
g150
sbag1
(g132
g3
NtRp164
(dp165
g142
F0.89063717349128335
sg143
g153
sg136
I9
sg145
F3.2761592292601942
sg146
g150
sbag1
(g132
g3
NtRp166
(dp167
g142
F4.2001602822374577
sg143
g153
sg136
I10
sg145
F2.6716338076104225
sg146
g150
sbag1
(g132
g3
NtRp168
(dp169
g142
F0.30381430900416728
sg143
g153
sg136
I11
sg145
F6.3494833578026757
sg146
g150
sbag1
(g132
g3
NtRp170
(dp171
g142
F-2.185755234057206
sg143
g153
sg136
I12
sg145
F3.1539853403193638
sg146
g150
sbag1
(g132
g3
NtRp172
(dp173
g142
F-0.84414238195269398
sg143
g153
sg136
I13
sg145
F5.1514562356409801
sg146
g150
sbag1
(g132
g3
NtRp174
(dp175
g142
F-0.3073486265904698
sg143
g153
sg136
I14
sg145
F4.9242730000000003
sg146
g150
sbag1
(g132
g3
NtRp176
(dp177
g142
F-0.66099491008791156
sg143
g153
sg136
I15
sg145
F4.9242730000000003
sg146
g150
sbasb.