ccopy_reg
_reconstructor
p1
(cneat.chromosome
Chromosome
p2
c__builtin__
object
p3
NtRp4
(dp5
S'species_id'
p6
I27
sS'_connection_genes'
p7
(dp8
(I1
I2
tp9
g1
(cneat.genome
ConnectionGene
p10
g3
NtRp11
(dp12
S'_ConnectionGene__weight'
p13
F-19.926930943912808
sS'_ConnectionGene__in'
p14
I1
sS'_ConnectionGene__enabled'
p15
I01
sS'_ConnectionGene__out'
p16
I2
sS'_ConnectionGene__innov_number'
p17
I1
sbs(I7
I3
tp18
g1
(g10
g3
NtRp19
(dp20
g13
F16.131962473735737
sg14
I7
sg15
I01
sg16
I3
sg17
I36
sbs(I3
I2
tp21
g1
(g10
g3
NtRp22
(dp23
g13
F-1.2567608033530926
sg14
I3
sg15
I00
sg16
I2
sg17
I4
sbs(I1
I3
tp24
g1
(g10
g3
NtRp25
(dp26
g13
F15.238323821338815
sg14
I1
sg15
I00
sg16
I3
sg17
I3
sbs(I3
I3
tp27
g1
(g10
g3
NtRp28
(dp29
g13
F10.234510796166134
sg14
I3
sg15
I01
sg16
I3
sg17
I8
sbs(I4
I8
tp30
g1
(g10
g3
NtRp31
(dp32
g13
F0.6954271956796706
sg14
I4
sg15
I01
sg16
I8
sg17
I38
sbs(I4
I4
tp33
g1
(g10
g3
NtRp34
(dp35
g13
F5.2313316648655892
sg14
I4
sg15
I01
sg16
I4
sg17
I11
sbs(I4
I7
tp36
g1
(g10
g3
NtRp37
(dp38
g13
F5.4143040233933428
sg14
I4
sg15
I01
sg16
I7
sg17
I35
sbs(I1
I4
tp39
g1
(g10
g3
NtRp40
(dp41
g13
F9.5055197852147337
sg14
I1
sg15
I01
sg16
I4
sg17
I6
sbs(I6
I3
tp42
g1
(g10
g3
NtRp43
(dp44
g13
F12.722743805074124
sg14
I6
sg15
I01
sg16
I3
sg17
I23
sbs(I1
I6
tp45
g1
(g10
g3
NtRp46
(dp47
g13
F8.3647105978757388
sg14
I1
sg15
I01
sg16
I6
sg17
I27
sbs(I4
I3
tp48
g1
(g10
g3
NtRp49
(dp50
g13
F18.69209181612473
sg14
I4
sg15
I00
sg16
I3
sg17
I10
sbs(I8
I3
tp51
g1
(g10
g3
NtRp52
(dp53
g13
F16.219612558623773
sg14
I8
sg15
I01
sg16
I3
sg17
I39
sbs(I5
I3
tp54
g1
(g10
g3
NtRp55
(dp56
g13
F6.2777408196660822
sg14
I5
sg15
I01
sg16
I3
sg17
I15
sbs(I5
I2
tp57
g1
(g10
g3
NtRp58
(dp59
g13
F2.3822148465776576
sg14
I5
sg15
I01
sg16
I2
sg17
I21
sbs(I2
I4
tp60
g1
(g10
g3
NtRp61
(dp62
g13
F-6.3192162917574999
sg14
I2
sg15
I01
sg16
I4
sg17
I16
sbs(I3
I5
tp63
g1
(g10
g3
NtRp64
(dp65
g13
F11.843586288986517
sg14
I3
sg15
I01
sg16
I5
sg17
I12
sbssS'_input_nodes'
p66
I1
sS'_output_nodes'
p67
I1
sS'_node_gene_type'
p68
cneat.genome
NodeGene
p69
sS'_conn_gene_type'
p70
g10
sS'fitness'
p71
F0.9875877087465047
sS'parent2_id'
p72
I3710
sS'_id'
p73
I3755
sS'parent1_id'
p74
I3710
sS'_node_genes'
p75
(lp76
g1
(g69
g3
NtRp77
(dp78
S'_bias'
p79
I0
sS'_type'
p80
S'INPUT'
p81
sg73
I1
sS'_response'
p82
F4.9242730000000003
sS'_activation_type'
p83
Nsbag1
(g69
g3
NtRp84
(dp85
g79
F0.26470847731764124
sg80
S'OUTPUT'
p86
sg73
I2
sg82
F4.163299106309359
sg83
S'tanh'
p87
sbag1
(g69
g3
NtRp88
(dp89
g79
F-1.3603044291430657
sg80
S'HIDDEN'
p90
sg73
I3
sg82
F2.250283792489558
sg83
g87
sbag1
(g69
g3
NtRp91
(dp92
g79
F-0.42188938819103328
sg80
g90
sg73
I4
sg82
F9.7708079053631103
sg83
g87
sbag1
(g69
g3
NtRp93
(dp94
g79
F0.28670243092425701
sg80
g90
sg73
I5
sg82
F4.3821523244174969
sg83
g87
sbag1
(g69
g3
NtRp95
(dp96
g79
F-1.0713375513766596
sg80
g90
sg73
I6
sg82
F6.7107354909563579
sg83
g87
sbag1
(g69
g3
NtRp97
(dp98
g79
F0.5710252213732645
sg80
g90
sg73
I7
sg82
F5.4234773869349056
sg83
g87
sbag1
(g69
g3
NtRp99
(dp100
g79
F-0.9482042756382647
sg80
g90
sg73
I8
sg82
F5.115244602110903
sg83
g87
sbasb.