ccopy_reg
_reconstructor
p1
(cneat.chromosome
Chromosome
p2
c__builtin__
object
p3
NtRp4
(dp5
S'species_id'
p6
I105
sS'_connection_genes'
p7
(dp8
(I7
I3
tp9
g1
(cneat.genome
ConnectionGene
p10
g3
NtRp11
(dp12
S'_ConnectionGene__weight'
p13
F30
sS'_ConnectionGene__in'
p14
I7
sS'_ConnectionGene__enabled'
p15
I01
sS'_ConnectionGene__out'
p16
I3
sS'_ConnectionGene__innov_number'
p17
I36
sbs(I1
I3
tp18
g1
(g10
g3
NtRp19
(dp20
g13
F-15.889197574130023
sg14
I1
sg15
I01
sg16
I3
sg17
I3
sbs(I5
I9
tp21
g1
(g10
g3
NtRp22
(dp23
g13
F5.2396300447911246
sg14
I5
sg15
I01
sg16
I9
sg17
I100
sbs(I16
I9
tp24
g1
(g10
g3
NtRp25
(dp26
g13
F18.057616574776894
sg14
I16
sg15
I01
sg16
I9
sg17
I236
sbs(I3
I13
tp27
g1
(g10
g3
NtRp28
(dp29
g13
F13.313121687099297
sg14
I3
sg15
I01
sg16
I13
sg17
I107
sbs(I5
I4
tp30
g1
(g10
g3
NtRp31
(dp32
g13
F-6.8883875697049186
sg14
I5
sg15
I01
sg16
I4
sg17
I13
sbs(I10
I2
tp33
g1
(g10
g3
NtRp34
(dp35
g13
F28.073042221207082
sg14
I10
sg15
I01
sg16
I2
sg17
I66
sbs(I3
I7
tp36
g1
(g10
g3
NtRp37
(dp38
g13
F5.0150679248519845
sg14
I3
sg15
I00
sg16
I7
sg17
I49
sbs(I14
I9
tp39
g1
(g10
g3
NtRp40
(dp41
g13
F14.389232647486271
sg14
I14
sg15
I01
sg16
I9
sg17
I130
sbs(I5
I8
tp42
g1
(g10
g3
NtRp43
(dp44
g13
F20.710640183236507
sg14
I5
sg15
I01
sg16
I8
sg17
I45
sbs(I1
I2
tp45
g1
(g10
g3
NtRp46
(dp47
g13
F-9.4847694809774517
sg14
I1
sg15
I01
sg16
I2
sg17
I1
sbs(I12
I2
tp48
g1
(g10
g3
NtRp49
(dp50
g13
F17.768720086529683
sg14
I12
sg15
I01
sg16
I2
sg17
I104
sbs(I4
I9
tp51
g1
(g10
g3
NtRp52
(dp53
g13
F4.631618262934639
sg14
I4
sg15
I01
sg16
I9
sg17
I57
sbs(I3
I3
tp54
g1
(g10
g3
NtRp55
(dp56
g13
F-5.7283171094590815
sg14
I3
sg15
I01
sg16
I3
sg17
I8
sbs(I2
I9
tp57
g1
(g10
g3
NtRp58
(dp59
g13
F10.021378481709487
sg14
I2
sg15
I01
sg16
I9
sg17
I144
sbs(I3
I10
tp60
g1
(g10
g3
NtRp61
(dp62
g13
F-3.1269829427687328
sg14
I3
sg15
I01
sg16
I10
sg17
I76
sbs(I4
I4
tp63
g1
(g10
g3
NtRp64
(dp65
g13
F-3.7763409907184
sg14
I4
sg15
I00
sg16
I4
sg17
I11
sbs(I10
I12
tp66
g1
(g10
g3
NtRp67
(dp68
g13
F-19.087964120083953
sg14
I10
sg15
I01
sg16
I12
sg17
I111
sbs(I17
I2
tp69
g1
(g10
g3
NtRp70
(dp71
g13
F-17.291285457679187
sg14
I17
sg15
I01
sg16
I2
sg17
I202
sbs(I13
I7
tp72
g1
(g10
g3
NtRp73
(dp74
g13
F-8.3407599137726383
sg14
I13
sg15
I00
sg16
I7
sg17
I108
sbs(I9
I17
tp75
g1
(g10
g3
NtRp76
(dp77
g13
F3.8700491827873549
sg14
I9
sg15
I01
sg16
I17
sg17
I258
sbs(I3
I6
tp78
g1
(g10
g3
NtRp79
(dp80
g13
F-17.44296220629947
sg14
I3
sg15
I01
sg16
I6
sg17
I22
sbs(I2
I2
tp81
g1
(g10
g3
NtRp82
(dp83
g13
F13.317774881728589
sg14
I2
sg15
I01
sg16
I2
sg17
I2
sbs(I15
I4
tp84
g1
(g10
g3
NtRp85
(dp86
g13
F14.868168993094509
sg14
I15
sg15
I01
sg16
I4
sg17
I173
sbs(I3
I2
tp87
g1
(g10
g3
NtRp88
(dp89
g13
F19.181027622093207
sg14
I3
sg15
I01
sg16
I2
sg17
I4
sbs(I6
I6
tp90
g1
(g10
g3
NtRp91
(dp92
g13
F8.4632279839605378
sg14
I6
sg15
I01
sg16
I6
sg17
I37
sbs(I12
I14
tp93
g1
(g10
g3
NtRp94
(dp95
g13
F-1.8965483627788156
sg14
I12
sg15
I01
sg16
I14
sg17
I131
sbs(I5
I11
tp96
g1
(g10
g3
NtRp97
(dp98
g13
F3.5251632762572158
sg14
I5
sg15
I01
sg16
I11
sg17
I90
sbs(I9
I3
tp99
g1
(g10
g3
NtRp100
(dp101
g13
F-29.958500232604273
sg14
I9
sg15
I01
sg16
I3
sg17
I60
sbs(I9
I16
tp102
g1
(g10
g3
NtRp103
(dp104
g13
F23.280595149321535
sg14
I9
sg15
I01
sg16
I16
sg17
I240
sbs(I2
I3
tp105
g1
(g10
g3
NtRp106
(dp107
g13
F13.034872950967305
sg14
I2
sg15
I01
sg16
I3
sg17
I5
sbs(I1
I9
tp108
g1
(g10
g3
NtRp109
(dp110
g13
F12.724993597813956
sg14
I1
sg15
I01
sg16
I9
sg17
I47
sbs(I4
I2
tp111
g1
(g10
g3
NtRp112
(dp113
g13
F-20.875156215788898
sg14
I4
sg15
I01
sg16
I2
sg17
I7
sbs(I14
I2
tp114
g1
(g10
g3
NtRp115
(dp116
g13
F27.631271415557986
sg14
I14
sg15
I01
sg16
I2
sg17
I125
sbs(I4
I11
tp117
g1
(g10
g3
NtRp118
(dp119
g13
F-15.943369850856497
sg14
I4
sg15
I01
sg16
I11
sg17
I86
sbs(I3
I5
tp120
g1
(g10
g3
NtRp121
(dp122
g13
F28.673064418056654
sg14
I3
sg15
I01
sg16
I5
sg17
I12
sbs(I10
I5
tp123
g1
(g10
g3
NtRp124
(dp125
g13
F-1.4657700493045203
sg14
I10
sg15
I01
sg16
I5
sg17
I79
sbs(I6
I5
tp126
g1
(g10
g3
NtRp127
(dp128
g13
F-18.836914663186139
sg14
I6
sg15
I01
sg16
I5
sg17
I28
sbs(I9
I2
tp129
g1
(g10
g3
NtRp130
(dp131
g13
F-14.203885541352157
sg14
I9
sg15
I00
sg16
I2
sg17
I48
sbs(I7
I14
tp132
g1
(g10
g3
NtRp133
(dp134
g13
F-16.42096773134659
sg14
I7
sg15
I01
sg16
I14
sg17
I162
sbs(I9
I9
tp135
g1
(g10
g3
NtRp136
(dp137
g13
F15.19095035258972
sg14
I9
sg15
I00
sg16
I9
sg17
I73
sbs(I18
I7
tp138
g1
(g10
g3
NtRp139
(dp140
g13
F-4.2237179606721504
sg14
I18
sg15
I01
sg16
I7
sg17
I272
sbs(I11
I8
tp141
g1
(g10
g3
NtRp142
(dp143
g13
F13.34254813287361
sg14
I11
sg15
I01
sg16
I8
sg17
I91
sbs(I13
I18
tp144
g1
(g10
g3
NtRp145
(dp146
g13
F0.16328896943239046
sg14
I13
sg15
I01
sg16
I18
sg17
I271
sbs(I4
I3
tp147
g1
(g10
g3
NtRp148
(dp149
g13
F-13.577131213651462
sg14
I4
sg15
I01
sg16
I3
sg17
I10
sbs(I2
I15
tp150
g1
(g10
g3
NtRp151
(dp152
g13
F3.0995593131316488
sg14
I2
sg15
I01
sg16
I15
sg17
I172
sbs(I4
I8
tp153
g1
(g10
g3
NtRp154
(dp155
g13
F9.5246863803688893
sg14
I4
sg15
I01
sg16
I8
sg17
I38
sbs(I5
I2
tp156
g1
(g10
g3
NtRp157
(dp158
g13
F-10.079055935147327
sg14
I5
sg15
I01
sg16
I2
sg17
I21
sbs(I2
I4
tp159
g1
(g10
g3
NtRp160
(dp161
g13
F24.985074865896316
sg14
I2
sg15
I01
sg16
I4
sg17
I16
sbs(I11
I6
tp162
g1
(g10
g3
NtRp163
(dp164
g13
F7.3254956752684972
sg14
I11
sg15
I01
sg16
I6
sg17
I110
sbs(I8
I4
tp165
g1
(g10
g3
NtRp166
(dp167
g13
F12.013104564695563
sg14
I8
sg15
I01
sg16
I4
sg17
I41
sbssS'_input_nodes'
p168
I1
sS'_output_nodes'
p169
I1
sS'_node_gene_type'
p170
cneat.genome
NodeGene
p171
sS'_conn_gene_type'
p172
g10
sS'fitness'
p173
F0.87882352367914895
sS'parent2_id'
p174
I14853
sS'_id'
p175
I14898
sS'parent1_id'
p176
I14853
sS'_node_genes'
p177
(lp178
g1
(g171
g3
NtRp179
(dp180
S'_bias'
p181
I0
sS'_type'
p182
S'INPUT'
p183
sg175
I1
sS'_response'
p184
F4.9242730000000003
sS'_activation_type'
p185
Nsbag1
(g171
g3
NtRp186
(dp187
g181
F2.5727997869068617
sg182
S'OUTPUT'
p188
sg175
I2
sg184
F6.2223978222259912
sg185
S'tanh'
p189
sbag1
(g171
g3
NtRp190
(dp191
g181
F-2.1206350016276048
sg182
S'HIDDEN'
p192
sg175
I3
sg184
F4.1894363472902931
sg185
g189
sbag1
(g171
g3
NtRp193
(dp194
g181
F2.4049399871056236
sg182
g192
sg175
I4
sg184
F-1.8926751360268204
sg185
g189
sbag1
(g171
g3
NtRp195
(dp196
g181
F-1.181002080551526
sg182
g192
sg175
I5
sg184
F6.4652113675377665
sg185
g189
sbag1
(g171
g3
NtRp197
(dp198
g181
F2.8783122850101588
sg182
g192
sg175
I6
sg184
F10.301869830728458
sg185
g189
sbag1
(g171
g3
NtRp199
(dp200
g181
F-0.6528409504572017
sg182
g192
sg175
I7
sg184
F12.865306426043812
sg185
g189
sbag1
(g171
g3
NtRp201
(dp202
g181
F-2.534822684424217
sg182
g192
sg175
I8
sg184
F2.6339654700714061
sg185
g189
sbag1
(g171
g3
NtRp203
(dp204
g181
F2.6084700674788857
sg182
g192
sg175
I9
sg184
F0.92102814546004708
sg185
g189
sbag1
(g171
g3
NtRp205
(dp206
g181
F2.8846869980128376
sg182
g192
sg175
I10
sg184
F2.7429334931960749
sg185
g189
sbag1
(g171
g3
NtRp207
(dp208
g181
F-3.9732145719950136
sg182
g192
sg175
I11
sg184
F7.7161296828361596
sg185
g189
sbag1
(g171
g3
NtRp209
(dp210
g181
F3.5088436028083492
sg182
g192
sg175
I12
sg184
F4.5550213148126995
sg185
g189
sbag1
(g171
g3
NtRp211
(dp212
g181
F0.062320569038723073
sg182
g192
sg175
I13
sg184
F3.481186340340245
sg185
g189
sbag1
(g171
g3
NtRp213
(dp214
g181
F0.28227579201735442
sg182
g192
sg175
I14
sg184
F6.037519932433562
sg185
g189
sbag1
(g171
g3
NtRp215
(dp216
g181
F0.92435290791984204
sg182
g192
sg175
I15
sg184
F7.095254049379502
sg185
g189
sbag1
(g171
g3
NtRp217
(dp218
g181
F-1.2661783163112037
sg182
g192
sg175
I16
sg184
F5.632258107477961
sg185
g189
sbag1
(g171
g3
NtRp219
(dp220
g181
F-1.6873014322866395
sg182
g192
sg175
I17
sg184
F4.1387497707525087
sg185
g189
sbag1
(g171
g3
NtRp221
(dp222
g181
F0.61338433477551646
sg182
g192
sg175
I18
sg184
F4.9744720268177955
sg185
g189
sbasb.