ccopy_reg
_reconstructor
p1
(cneat.chromosome
Chromosome
p2
c__builtin__
object
p3
NtRp4
(dp5
S'species_id'
p6
I55
sS'_connection_genes'
p7
(dp8
(I1
I3
tp9
g1
(cneat.genome
ConnectionGene
p10
g3
NtRp11
(dp12
S'_ConnectionGene__weight'
p13
F-4.0165207419146487
sS'_ConnectionGene__in'
p14
I1
sS'_ConnectionGene__enabled'
p15
I01
sS'_ConnectionGene__out'
p16
I3
sS'_ConnectionGene__innov_number'
p17
I3
sbs(I5
I6
tp18
g1
(g10
g3
NtRp19
(dp20
g13
F-8.0291462245931911
sg14
I5
sg15
I01
sg16
I6
sg17
I25
sbs(I11
I2
tp21
g1
(g10
g3
NtRp22
(dp23
g13
F-18.377364847965119
sg14
I11
sg15
I01
sg16
I2
sg17
I89
sbs(I8
I9
tp24
g1
(g10
g3
NtRp25
(dp26
g13
F8.9138202595599729
sg14
I8
sg15
I01
sg16
I9
sg17
I61
sbs(I6
I2
tp27
g1
(g10
g3
NtRp28
(dp29
g13
F-1.4918044141993221
sg14
I6
sg15
I01
sg16
I2
sg17
I18
sbs(I3
I7
tp30
g1
(g10
g3
NtRp31
(dp32
g13
F-13.858242030429786
sg14
I3
sg15
I01
sg16
I7
sg17
I49
sbs(I7
I2
tp33
g1
(g10
g3
NtRp34
(dp35
g13
F1.8177120791756978
sg14
I7
sg15
I01
sg16
I2
sg17
I31
sbs(I1
I2
tp36
g1
(g10
g3
NtRp37
(dp38
g13
F-9.1425480130287173
sg14
I1
sg15
I01
sg16
I2
sg17
I1
sbs(I3
I3
tp39
g1
(g10
g3
NtRp40
(dp41
g13
F25.21923965711844
sg14
I3
sg15
I00
sg16
I3
sg17
I8
sbs(I5
I8
tp42
g1
(g10
g3
NtRp43
(dp44
g13
F5.8756152285709318
sg14
I5
sg15
I01
sg16
I8
sg17
I45
sbs(I3
I5
tp45
g1
(g10
g3
NtRp46
(dp47
g13
F23.79618548751527
sg14
I3
sg15
I01
sg16
I5
sg17
I12
sbs(I12
I3
tp48
g1
(g10
g3
NtRp49
(dp50
g13
F13.482389674905075
sg14
I12
sg15
I01
sg16
I3
sg17
I106
sbs(I3
I2
tp51
g1
(g10
g3
NtRp52
(dp53
g13
F-7.5543585531625306
sg14
I3
sg15
I01
sg16
I2
sg17
I4
sbs(I8
I2
tp54
g1
(g10
g3
NtRp55
(dp56
g13
F-19.305623707239143
sg14
I8
sg15
I01
sg16
I2
sg17
I46
sbs(I8
I11
tp57
g1
(g10
g3
NtRp58
(dp59
g13
F12.529701081442957
sg14
I8
sg15
I01
sg16
I11
sg17
I98
sbs(I9
I3
tp60
g1
(g10
g3
NtRp61
(dp62
g13
F-3.5247448427142176
sg14
I9
sg15
I01
sg16
I3
sg17
I60
sbs(I1
I4
tp63
g1
(g10
g3
NtRp64
(dp65
g13
F7.0682301202208837
sg14
I1
sg15
I01
sg16
I4
sg17
I6
sbs(I2
I10
tp66
g1
(g10
g3
NtRp67
(dp68
g13
F-4.2952084191138198
sg14
I2
sg15
I01
sg16
I10
sg17
I69
sbs(I7
I5
tp69
g1
(g10
g3
NtRp70
(dp71
g13
F-2.391380659565173
sg14
I7
sg15
I01
sg16
I5
sg17
I50
sbs(I5
I10
tp72
g1
(g10
g3
NtRp73
(dp74
g13
F-2.7666984122011566
sg14
I5
sg15
I01
sg16
I10
sg17
I67
sbs(I5
I3
tp75
g1
(g10
g3
NtRp76
(dp77
g13
F16.239906777147247
sg14
I5
sg15
I01
sg16
I3
sg17
I15
sbs(I8
I3
tp78
g1
(g10
g3
NtRp79
(dp80
g13
F-10.721094753666751
sg14
I8
sg15
I01
sg16
I3
sg17
I39
sbs(I3
I12
tp81
g1
(g10
g3
NtRp82
(dp83
g13
F0.74474673249334244
sg14
I3
sg15
I01
sg16
I12
sg17
I105
sbs(I4
I3
tp84
g1
(g10
g3
NtRp85
(dp86
g13
F19.300936490212219
sg14
I4
sg15
I01
sg16
I3
sg17
I10
sbs(I5
I2
tp87
g1
(g10
g3
NtRp88
(dp89
g13
F-17.423189029899405
sg14
I5
sg15
I01
sg16
I2
sg17
I21
sbs(I2
I4
tp90
g1
(g10
g3
NtRp91
(dp92
g13
F-12.736784770842959
sg14
I2
sg15
I01
sg16
I4
sg17
I16
sbs(I10
I2
tp93
g1
(g10
g3
NtRp94
(dp95
g13
F-14.536486010489348
sg14
I10
sg15
I01
sg16
I2
sg17
I66
sbssS'_input_nodes'
p96
I1
sS'_output_nodes'
p97
I1
sS'_node_gene_type'
p98
cneat.genome
NodeGene
p99
sS'_conn_gene_type'
p100
g10
sS'fitness'
p101
F0.92515320571161375
sS'parent2_id'
p102
I8311
sS'_id'
p103
I8349
sS'parent1_id'
p104
I8311
sS'_node_genes'
p105
(lp106
g1
(g99
g3
NtRp107
(dp108
S'_bias'
p109
I0
sS'_type'
p110
S'INPUT'
p111
sg103
I1
sS'_response'
p112
F4.9242730000000003
sS'_activation_type'
p113
Nsbag1
(g99
g3
NtRp114
(dp115
g109
F-1.6805643173708968
sg110
S'OUTPUT'
p116
sg103
I2
sg112
F3.7755153090703923
sg113
S'tanh'
p117
sbag1
(g99
g3
NtRp118
(dp119
g109
F0.83471367819799192
sg110
S'HIDDEN'
p120
sg103
I3
sg112
F-1.7327019355938966
sg113
g117
sbag1
(g99
g3
NtRp121
(dp122
g109
F-3.6483835163611786
sg110
g120
sg103
I4
sg112
F6.4953422833657335
sg113
g117
sbag1
(g99
g3
NtRp123
(dp124
g109
F-0.71151383282049097
sg110
g120
sg103
I5
sg112
F4.5542722466542163
sg113
g117
sbag1
(g99
g3
NtRp125
(dp126
g109
F0.4824455397865014
sg110
g120
sg103
I6
sg112
F1.7042399803012203
sg113
g117
sbag1
(g99
g3
NtRp127
(dp128
g109
F-2.7432175072725311
sg110
g120
sg103
I7
sg112
F3.9025204697158622
sg113
g117
sbag1
(g99
g3
NtRp129
(dp130
g109
F1.5275144903968729
sg110
g120
sg103
I8
sg112
F5.3163344883956123
sg113
g117
sbag1
(g99
g3
NtRp131
(dp132
g109
F0.61578533319192652
sg110
g120
sg103
I9
sg112
F6.5000506242681411
sg113
g117
sbag1
(g99
g3
NtRp133
(dp134
g109
F-0.20374218425864399
sg110
g120
sg103
I10
sg112
F5.1345240602348499
sg113
g117
sbag1
(g99
g3
NtRp135
(dp136
g109
F0.4611863568502797
sg110
g120
sg103
I11
sg112
F4.624891085152286
sg113
g117
sbag1
(g99
g3
NtRp137
(dp138
g109
F-0.27302105269456639
sg110
g120
sg103
I12
sg112
F4.943184328513329
sg113
g117
sbasb.