ccopy_reg
_reconstructor
p1
(cneat.chromosome
Chromosome
p2
c__builtin__
object
p3
NtRp4
(dp5
S'species_id'
p6
I64
sS'_connection_genes'
p7
(dp8
(I1
I3
tp9
g1
(cneat.genome
ConnectionGene
p10
g3
NtRp11
(dp12
S'_ConnectionGene__weight'
p13
F15.240557490802372
sS'_ConnectionGene__in'
p14
I1
sS'_ConnectionGene__enabled'
p15
I01
sS'_ConnectionGene__out'
p16
I3
sS'_ConnectionGene__innov_number'
p17
I3
sbs(I5
I6
tp18
g1
(g10
g3
NtRp19
(dp20
g13
F-3.2476500553295069
sg14
I5
sg15
I01
sg16
I6
sg17
I25
sbs(I11
I2
tp21
g1
(g10
g3
NtRp22
(dp23
g13
F-17.963935411045441
sg14
I11
sg15
I01
sg16
I2
sg17
I89
sbs(I8
I9
tp24
g1
(g10
g3
NtRp25
(dp26
g13
F-5.4726284819230973
sg14
I8
sg15
I01
sg16
I9
sg17
I61
sbs(I6
I2
tp27
g1
(g10
g3
NtRp28
(dp29
g13
F2.4433396804218228
sg14
I6
sg15
I01
sg16
I2
sg17
I18
sbs(I3
I7
tp30
g1
(g10
g3
NtRp31
(dp32
g13
F-14.002530173078533
sg14
I3
sg15
I01
sg16
I7
sg17
I49
sbs(I7
I2
tp33
g1
(g10
g3
NtRp34
(dp35
g13
F-17.213330758929523
sg14
I7
sg15
I01
sg16
I2
sg17
I31
sbs(I1
I2
tp36
g1
(g10
g3
NtRp37
(dp38
g13
F-14.658850610880812
sg14
I1
sg15
I01
sg16
I2
sg17
I1
sbs(I3
I3
tp39
g1
(g10
g3
NtRp40
(dp41
g13
F14.906481605458421
sg14
I3
sg15
I00
sg16
I3
sg17
I8
sbs(I13
I7
tp42
g1
(g10
g3
NtRp43
(dp44
g13
F-16.1973120442801
sg14
I13
sg15
I01
sg16
I7
sg17
I108
sbs(I3
I14
tp45
g1
(g10
g3
NtRp46
(dp47
g13
F-2.7480217736145875
sg14
I3
sg15
I01
sg16
I14
sg17
I133
sbs(I5
I3
tp48
g1
(g10
g3
NtRp49
(dp50
g13
F15.490929108688347
sg14
I5
sg15
I01
sg16
I3
sg17
I15
sbs(I12
I3
tp51
g1
(g10
g3
NtRp52
(dp53
g13
F13.254773296630306
sg14
I12
sg15
I01
sg16
I3
sg17
I106
sbs(I3
I2
tp54
g1
(g10
g3
NtRp55
(dp56
g13
F-12.125845785043932
sg14
I3
sg15
I00
sg16
I2
sg17
I4
sbs(I8
I2
tp57
g1
(g10
g3
NtRp58
(dp59
g13
F-22.102907191801762
sg14
I8
sg15
I01
sg16
I2
sg17
I46
sbs(I3
I13
tp60
g1
(g10
g3
NtRp61
(dp62
g13
F5.3645295397979886
sg14
I3
sg15
I01
sg16
I13
sg17
I107
sbs(I8
I11
tp63
g1
(g10
g3
NtRp64
(dp65
g13
F8.7284547395758754
sg14
I8
sg15
I01
sg16
I11
sg17
I98
sbs(I9
I3
tp66
g1
(g10
g3
NtRp67
(dp68
g13
F-1.7260966362324923
sg14
I9
sg15
I01
sg16
I3
sg17
I60
sbs(I1
I4
tp69
g1
(g10
g3
NtRp70
(dp71
g13
F-4.1460719940426056
sg14
I1
sg15
I01
sg16
I4
sg17
I6
sbs(I2
I10
tp72
g1
(g10
g3
NtRp73
(dp74
g13
F-8.5588306173594688
sg14
I2
sg15
I01
sg16
I10
sg17
I69
sbs(I7
I5
tp75
g1
(g10
g3
NtRp76
(dp77
g13
F-6.0382039317721485
sg14
I7
sg15
I01
sg16
I5
sg17
I50
sbs(I3
I12
tp78
g1
(g10
g3
NtRp79
(dp80
g13
F13.778232490407159
sg14
I3
sg15
I01
sg16
I12
sg17
I105
sbs(I5
I8
tp81
g1
(g10
g3
NtRp82
(dp83
g13
F-0.14951049235065328
sg14
I5
sg15
I01
sg16
I8
sg17
I45
sbs(I14
I2
tp84
g1
(g10
g3
NtRp85
(dp86
g13
F-10.003620994659732
sg14
I14
sg15
I01
sg16
I2
sg17
I125
sbs(I3
I5
tp87
g1
(g10
g3
NtRp88
(dp89
g13
F27.608275091205449
sg14
I3
sg15
I01
sg16
I5
sg17
I12
sbs(I8
I3
tp90
g1
(g10
g3
NtRp91
(dp92
g13
F-1.2019671541690857
sg14
I8
sg15
I01
sg16
I3
sg17
I39
sbs(I5
I10
tp93
g1
(g10
g3
NtRp94
(dp95
g13
F-6.3446473481013781
sg14
I5
sg15
I01
sg16
I10
sg17
I67
sbs(I4
I3
tp96
g1
(g10
g3
NtRp97
(dp98
g13
F20.085366303621385
sg14
I4
sg15
I01
sg16
I3
sg17
I10
sbs(I5
I2
tp99
g1
(g10
g3
NtRp100
(dp101
g13
F-19.919747422696261
sg14
I5
sg15
I01
sg16
I2
sg17
I21
sbs(I2
I4
tp102
g1
(g10
g3
NtRp103
(dp104
g13
F-15.104500554332031
sg14
I2
sg15
I01
sg16
I4
sg17
I16
sbs(I10
I2
tp105
g1
(g10
g3
NtRp106
(dp107
g13
F-24.760992709378442
sg14
I10
sg15
I01
sg16
I2
sg17
I66
sbssS'_input_nodes'
p108
I1
sS'_output_nodes'
p109
I1
sS'_node_gene_type'
p110
cneat.genome
NodeGene
p111
sS'_conn_gene_type'
p112
g10
sS'fitness'
p113
F0.99892994884026864
sS'parent2_id'
p114
I8884
sS'_id'
p115
I8971
sS'parent1_id'
p116
I8884
sS'_node_genes'
p117
(lp118
g1
(g111
g3
NtRp119
(dp120
S'_bias'
p121
I0
sS'_type'
p122
S'INPUT'
p123
sg115
I1
sS'_response'
p124
F4.9242730000000003
sS'_activation_type'
p125
Nsbag1
(g111
g3
NtRp126
(dp127
g121
F-3.1851776061597392
sg122
S'OUTPUT'
p128
sg115
I2
sg124
F3.0555535913433509
sg125
S'tanh'
p129
sbag1
(g111
g3
NtRp130
(dp131
g121
F1.2611027719247487
sg122
S'HIDDEN'
p132
sg115
I3
sg124
F-1.3721474603494987
sg125
g129
sbag1
(g111
g3
NtRp133
(dp134
g121
F-1.8417448662745455
sg122
g132
sg115
I4
sg124
F9.7357789252789804
sg125
g129
sbag1
(g111
g3
NtRp135
(dp136
g121
F-0.052501325015785749
sg122
g132
sg115
I5
sg124
F5.6289365420566178
sg125
g129
sbag1
(g111
g3
NtRp137
(dp138
g121
F-0.25539503037423927
sg122
g132
sg115
I6
sg124
F2.3784682061666569
sg125
g129
sbag1
(g111
g3
NtRp139
(dp140
g121
F-3.3731590543779264
sg122
g132
sg115
I7
sg124
F4.6586628493196596
sg125
g129
sbag1
(g111
g3
NtRp141
(dp142
g121
F3.9718039040187603
sg122
g132
sg115
I8
sg124
F3.6440226762785199
sg125
g129
sbag1
(g111
g3
NtRp143
(dp144
g121
F0.70356540827808967
sg122
g132
sg115
I9
sg124
F5.7542215291651662
sg125
g129
sbag1
(g111
g3
NtRp145
(dp146
g121
F-2.2108497673986318
sg122
g132
sg115
I10
sg124
F3.3250113581325071
sg125
g129
sbag1
(g111
g3
NtRp147
(dp148
g121
F0.77565672396920871
sg122
g132
sg115
I11
sg124
F5.6585918842684766
sg125
g129
sbag1
(g111
g3
NtRp149
(dp150
g121
F-2.068455003626358
sg122
g132
sg115
I12
sg124
F6.2304803158939741
sg125
g129
sbag1
(g111
g3
NtRp151
(dp152
g121
I0
sg122
g132
sg115
I13
sg124
F4.6099552705100875
sg125
g129
sbag1
(g111
g3
NtRp153
(dp154
g121
I0
sg122
g132
sg115
I14
sg124
F4.6801660267824241
sg125
g129
sbasb.