ccopy_reg
_reconstructor
p1
(cneat.chromosome
Chromosome
p2
c__builtin__
object
p3
NtRp4
(dp5
S'species_id'
p6
I111
sS'_connection_genes'
p7
(dp8
(I7
I3
tp9
g1
(cneat.genome
ConnectionGene
p10
g3
NtRp11
(dp12
S'_ConnectionGene__weight'
p13
F30
sS'_ConnectionGene__in'
p14
I7
sS'_ConnectionGene__enabled'
p15
I01
sS'_ConnectionGene__out'
p16
I3
sS'_ConnectionGene__innov_number'
p17
I36
sbs(I6
I9
tp18
g1
(g10
g3
NtRp19
(dp20
g13
F-14.517832152496167
sg14
I6
sg15
I01
sg16
I9
sg17
I81
sbs(I1
I3
tp21
g1
(g10
g3
NtRp22
(dp23
g13
F7.787968202457825
sg14
I1
sg15
I01
sg16
I3
sg17
I3
sbs(I8
I13
tp24
g1
(g10
g3
NtRp25
(dp26
g13
F-5.1297458814179189
sg14
I8
sg15
I00
sg16
I13
sg17
I197
sbs(I5
I9
tp27
g1
(g10
g3
NtRp28
(dp29
g13
F13.077457288543561
sg14
I5
sg15
I01
sg16
I9
sg17
I100
sbs(I13
I4
tp30
g1
(g10
g3
NtRp31
(dp32
g13
F-3.1638450858615608
sg14
I13
sg15
I01
sg16
I4
sg17
I163
sbs(I5
I4
tp33
g1
(g10
g3
NtRp34
(dp35
g13
F8.6822717578261202
sg14
I5
sg15
I01
sg16
I4
sg17
I13
sbs(I11
I8
tp36
g1
(g10
g3
NtRp37
(dp38
g13
F12.274360125565021
sg14
I11
sg15
I01
sg16
I8
sg17
I91
sbs(I3
I7
tp39
g1
(g10
g3
NtRp40
(dp41
g13
F17.777950445377016
sg14
I3
sg15
I01
sg16
I7
sg17
I49
sbs(I12
I9
tp42
g1
(g10
g3
NtRp43
(dp44
g13
F16.262311046987982
sg14
I12
sg15
I01
sg16
I9
sg17
I109
sbs(I1
I2
tp45
g1
(g10
g3
NtRp46
(dp47
g13
F-13.881601018644336
sg14
I1
sg15
I01
sg16
I2
sg17
I1
sbs(I4
I9
tp48
g1
(g10
g3
NtRp49
(dp50
g13
F23.629478256493424
sg14
I4
sg15
I00
sg16
I9
sg17
I57
sbs(I3
I3
tp51
g1
(g10
g3
NtRp52
(dp53
g13
F-13.193814392023691
sg14
I3
sg15
I01
sg16
I3
sg17
I8
sbs(I9
I15
tp54
g1
(g10
g3
NtRp55
(dp56
g13
F9.6148157376335011
sg14
I9
sg15
I01
sg16
I15
sg17
I219
sbs(I3
I10
tp57
g1
(g10
g3
NtRp58
(dp59
g13
F3.5497560754243467
sg14
I3
sg15
I01
sg16
I10
sg17
I76
sbs(I4
I8
tp60
g1
(g10
g3
NtRp61
(dp62
g13
F-4.6716881556965513
sg14
I4
sg15
I01
sg16
I8
sg17
I38
sbs(I4
I4
tp63
g1
(g10
g3
NtRp64
(dp65
g13
F-10.247391226355875
sg14
I4
sg15
I01
sg16
I4
sg17
I11
sbs(I9
I17
tp66
g1
(g10
g3
NtRp67
(dp68
g13
F3.6594570682426246
sg14
I9
sg15
I01
sg16
I17
sg17
I258
sbs(I3
I6
tp69
g1
(g10
g3
NtRp70
(dp71
g13
F-11.446739689018942
sg14
I3
sg15
I01
sg16
I6
sg17
I22
sbs(I14
I14
tp72
g1
(g10
g3
NtRp73
(dp74
g13
F-5.2737590558269662
sg14
I14
sg15
I01
sg16
I14
sg17
I184
sbs(I1
I10
tp75
g1
(g10
g3
NtRp76
(dp77
g13
F-0.58829114967148932
sg14
I1
sg15
I01
sg16
I10
sg17
I74
sbs(I15
I12
tp78
g1
(g10
g3
NtRp79
(dp80
g13
F13.258500142024891
sg14
I15
sg15
I01
sg16
I12
sg17
I159
sbs(I3
I2
tp81
g1
(g10
g3
NtRp82
(dp83
g13
F18.842787692746054
sg14
I3
sg15
I01
sg16
I2
sg17
I4
sbs(I6
I6
tp84
g1
(g10
g3
NtRp85
(dp86
g13
F-13.997405244329508
sg14
I6
sg15
I01
sg16
I6
sg17
I37
sbs(I15
I3
tp87
g1
(g10
g3
NtRp88
(dp89
g13
F-3.5525651167624428
sg14
I15
sg15
I01
sg16
I3
sg17
I182
sbs(I9
I3
tp90
g1
(g10
g3
NtRp91
(dp92
g13
F0.97302198731611744
sg14
I9
sg15
I00
sg16
I3
sg17
I60
sbs(I4
I16
tp93
g1
(g10
g3
NtRp94
(dp95
g13
F5.8699007762983664
sg14
I4
sg15
I01
sg16
I16
sg17
I209
sbs(I2
I3
tp96
g1
(g10
g3
NtRp97
(dp98
g13
F-12.343940886826891
sg14
I2
sg15
I01
sg16
I3
sg17
I5
sbs(I1
I9
tp99
g1
(g10
g3
NtRp100
(dp101
g13
F26.531345089451204
sg14
I1
sg15
I01
sg16
I9
sg17
I47
sbs(I14
I2
tp102
g1
(g10
g3
NtRp103
(dp104
g13
F24.476162480622133
sg14
I14
sg15
I01
sg16
I2
sg17
I125
sbs(I4
I11
tp105
g1
(g10
g3
NtRp106
(dp107
g13
F-12.349005983200177
sg14
I4
sg15
I01
sg16
I11
sg17
I86
sbs(I3
I5
tp108
g1
(g10
g3
NtRp109
(dp110
g13
F28.402443772158598
sg14
I3
sg15
I01
sg16
I5
sg17
I12
sbs(I10
I5
tp111
g1
(g10
g3
NtRp112
(dp113
g13
F-0.9178339590013227
sg14
I10
sg15
I01
sg16
I5
sg17
I79
sbs(I6
I5
tp114
g1
(g10
g3
NtRp115
(dp116
g13
F0.94110213957198796
sg14
I6
sg15
I01
sg16
I5
sg17
I28
sbs(I6
I8
tp117
g1
(g10
g3
NtRp118
(dp119
g13
F2.4629265415351567
sg14
I6
sg15
I01
sg16
I8
sg17
I51
sbs(I13
I14
tp120
g1
(g10
g3
NtRp121
(dp122
g13
F18.703359357757439
sg14
I13
sg15
I01
sg16
I14
sg17
I189
sbs(I16
I8
tp123
g1
(g10
g3
NtRp124
(dp125
g13
F16.913882841416449
sg14
I16
sg15
I01
sg16
I8
sg17
I237
sbs(I4
I17
tp126
g1
(g10
g3
NtRp127
(dp128
g13
F-0.53721046783489812
sg14
I4
sg15
I01
sg16
I17
sg17
I263
sbs(I9
I9
tp129
g1
(g10
g3
NtRp130
(dp131
g13
F-10.965945840895092
sg14
I9
sg15
I01
sg16
I9
sg17
I73
sbs(I17
I9
tp132
g1
(g10
g3
NtRp133
(dp134
g13
F26.428217332452746
sg14
I17
sg15
I01
sg16
I9
sg17
I265
sbs(I9
I2
tp135
g1
(g10
g3
NtRp136
(dp137
g13
F-9.2943791778703098
sg14
I9
sg15
I01
sg16
I2
sg17
I48
sbs(I10
I14
tp138
g1
(g10
g3
NtRp139
(dp140
g13
F1.6685538261407062
sg14
I10
sg15
I01
sg16
I14
sg17
I145
sbs(I4
I3
tp141
g1
(g10
g3
NtRp142
(dp143
g13
F4.2420442548708568
sg14
I4
sg15
I01
sg16
I3
sg17
I10
sbs(I10
I2
tp144
g1
(g10
g3
NtRp145
(dp146
g13
F30
sg14
I10
sg15
I00
sg16
I2
sg17
I66
sbs(I5
I2
tp147
g1
(g10
g3
NtRp148
(dp149
g13
F-18.82997210872842
sg14
I5
sg15
I01
sg16
I2
sg17
I21
sbs(I2
I4
tp150
g1
(g10
g3
NtRp151
(dp152
g13
F21.446594496727371
sg14
I2
sg15
I01
sg16
I4
sg17
I16
sbs(I9
I12
tp153
g1
(g10
g3
NtRp154
(dp155
g13
F4.2299928139604059
sg14
I9
sg15
I01
sg16
I12
sg17
I127
sbs(I8
I4
tp156
g1
(g10
g3
NtRp157
(dp158
g13
F26.669141951675154
sg14
I8
sg15
I01
sg16
I4
sg17
I41
sbssS'_input_nodes'
p159
I1
sS'_output_nodes'
p160
I1
sS'_node_gene_type'
p161
cneat.genome
NodeGene
p162
sS'_conn_gene_type'
p163
g10
sS'fitness'
p164
F0.98917378256071509
sS'parent2_id'
p165
I16257
sS'_id'
p166
I16308
sS'parent1_id'
p167
I16257
sS'_node_genes'
p168
(lp169
g1
(g162
g3
NtRp170
(dp171
S'_bias'
p172
I0
sS'_type'
p173
S'INPUT'
p174
sg166
I1
sS'_response'
p175
F4.9242730000000003
sS'_activation_type'
p176
Nsbag1
(g162
g3
NtRp177
(dp178
g172
F0.025805364180549406
sg173
S'OUTPUT'
p179
sg166
I2
sg175
F4.9023016879023826
sg176
S'tanh'
p180
sbag1
(g162
g3
NtRp181
(dp182
g172
F-1.8421523550372165
sg173
S'HIDDEN'
p183
sg166
I3
sg175
F3.4939793247548621
sg176
g180
sbag1
(g162
g3
NtRp184
(dp185
g172
F7.5853979869839359
sg173
g183
sg166
I4
sg175
F1.0311010433438281
sg176
g180
sbag1
(g162
g3
NtRp186
(dp187
g172
F-2.4263916338284108
sg173
g183
sg166
I5
sg175
F9.9895474748445885
sg176
g180
sbag1
(g162
g3
NtRp188
(dp189
g172
F0.53906627759344194
sg173
g183
sg166
I6
sg175
F7.1736001284764708
sg176
g180
sbag1
(g162
g3
NtRp190
(dp191
g172
F-3.9328311709131762
sg173
g183
sg166
I7
sg175
F10.029600015849482
sg176
g180
sbag1
(g162
g3
NtRp192
(dp193
g172
F0.53525250927784773
sg173
g183
sg166
I8
sg175
F4.02097046006757
sg176
g180
sbag1
(g162
g3
NtRp194
(dp195
g172
F-0.51415710177536356
sg173
g183
sg166
I9
sg175
F4.5341024592959007
sg176
g180
sbag1
(g162
g3
NtRp196
(dp197
g172
F4.2219856326316272
sg173
g183
sg166
I10
sg175
F-1.0577551589376364
sg176
g180
sbag1
(g162
g3
NtRp198
(dp199
g172
F-0.63435250841193125
sg173
g183
sg166
I11
sg175
F8.1836913760974834
sg176
g180
sbag1
(g162
g3
NtRp200
(dp201
g172
F1.9239109198348125
sg173
g183
sg166
I12
sg175
F3.040101072777051
sg176
g180
sbag1
(g162
g3
NtRp202
(dp203
g172
F-2.0287274416494037
sg173
g183
sg166
I13
sg175
F2.6109965865890725
sg176
g180
sbag1
(g162
g3
NtRp204
(dp205
g172
F-5.6593658020199644
sg173
g183
sg166
I14
sg175
F6.761162326572804
sg176
g180
sbag1
(g162
g3
NtRp206
(dp207
g172
F-0.46620829060355173
sg173
g183
sg166
I15
sg175
F6.758109670156264
sg176
g180
sbag1
(g162
g3
NtRp208
(dp209
g172
F-2.5014101655554941
sg173
g183
sg166
I16
sg175
F5.6400012135606232
sg176
g180
sbag1
(g162
g3
NtRp210
(dp211
g172
F-1.2502814956851434
sg173
g183
sg166
I17
sg175
F4.0987495009176254
sg176
g180
sbasb.