ccopy_reg
_reconstructor
p1
(cneat.chromosome
Chromosome
p2
c__builtin__
object
p3
NtRp4
(dp5
S'species_id'
p6
I70
sS'_connection_genes'
p7
(dp8
(I1
I3
tp9
g1
(cneat.genome
ConnectionGene
p10
g3
NtRp11
(dp12
S'_ConnectionGene__weight'
p13
F20.884249443007121
sS'_ConnectionGene__in'
p14
I1
sS'_ConnectionGene__enabled'
p15
I01
sS'_ConnectionGene__out'
p16
I3
sS'_ConnectionGene__innov_number'
p17
I3
sbs(I5
I6
tp18
g1
(g10
g3
NtRp19
(dp20
g13
F-22.178605067321467
sg14
I5
sg15
I01
sg16
I6
sg17
I25
sbs(I11
I2
tp21
g1
(g10
g3
NtRp22
(dp23
g13
F-26.147140316439188
sg14
I11
sg15
I01
sg16
I2
sg17
I89
sbs(I8
I9
tp24
g1
(g10
g3
NtRp25
(dp26
g13
F4.8722935501012952
sg14
I8
sg15
I01
sg16
I9
sg17
I61
sbs(I6
I2
tp27
g1
(g10
g3
NtRp28
(dp29
g13
F-0.5718761814616875
sg14
I6
sg15
I01
sg16
I2
sg17
I18
sbs(I3
I7
tp30
g1
(g10
g3
NtRp31
(dp32
g13
F-13.333771949185895
sg14
I3
sg15
I01
sg16
I7
sg17
I49
sbs(I5
I8
tp33
g1
(g10
g3
NtRp34
(dp35
g13
F-8.0765057285880619
sg14
I5
sg15
I01
sg16
I8
sg17
I45
sbs(I8
I2
tp36
g1
(g10
g3
NtRp37
(dp38
g13
F-13.727459855913716
sg14
I8
sg15
I01
sg16
I2
sg17
I46
sbs(I1
I2
tp39
g1
(g10
g3
NtRp40
(dp41
g13
F-18.533541105306988
sg14
I1
sg15
I01
sg16
I2
sg17
I1
sbs(I11
I10
tp42
g1
(g10
g3
NtRp43
(dp44
g13
F-6.4152052904584682
sg14
I11
sg15
I01
sg16
I10
sg17
I126
sbs(I3
I3
tp45
g1
(g10
g3
NtRp46
(dp47
g13
F24.067434278092435
sg14
I3
sg15
I01
sg16
I3
sg17
I8
sbs(I8
I10
tp48
g1
(g10
g3
NtRp49
(dp50
g13
F12.599238839438891
sg14
I8
sg15
I01
sg16
I10
sg17
I65
sbs(I13
I7
tp51
g1
(g10
g3
NtRp52
(dp53
g13
F-6.1700265481057119
sg14
I13
sg15
I01
sg16
I7
sg17
I108
sbs(I7
I2
tp54
g1
(g10
g3
NtRp55
(dp56
g13
F-16.946205485591591
sg14
I7
sg15
I01
sg16
I2
sg17
I31
sbs(I5
I3
tp57
g1
(g10
g3
NtRp58
(dp59
g13
F4.6501637659770889
sg14
I5
sg15
I01
sg16
I3
sg17
I15
sbs(I12
I3
tp60
g1
(g10
g3
NtRp61
(dp62
g13
F19.295739361649179
sg14
I12
sg15
I00
sg16
I3
sg17
I106
sbs(I3
I2
tp63
g1
(g10
g3
NtRp64
(dp65
g13
F-14.661142825634027
sg14
I3
sg15
I01
sg16
I2
sg17
I4
sbs(I12
I14
tp66
g1
(g10
g3
NtRp67
(dp68
g13
F2.6623803290344661
sg14
I12
sg15
I01
sg16
I14
sg17
I131
sbs(I3
I13
tp69
g1
(g10
g3
NtRp70
(dp71
g13
F-0.93197198896610045
sg14
I3
sg15
I01
sg16
I13
sg17
I107
sbs(I8
I11
tp72
g1
(g10
g3
NtRp73
(dp74
g13
F22.458361063966265
sg14
I8
sg15
I01
sg16
I11
sg17
I98
sbs(I9
I3
tp75
g1
(g10
g3
NtRp76
(dp77
g13
F-16.796115877198947
sg14
I9
sg15
I01
sg16
I3
sg17
I60
sbs(I1
I4
tp78
g1
(g10
g3
NtRp79
(dp80
g13
F0.7823083671338481
sg14
I1
sg15
I01
sg16
I4
sg17
I6
sbs(I2
I10
tp81
g1
(g10
g3
NtRp82
(dp83
g13
F-0.067562025917314195
sg14
I2
sg15
I01
sg16
I10
sg17
I69
sbs(I7
I5
tp84
g1
(g10
g3
NtRp85
(dp86
g13
F8.3112841475342556
sg14
I7
sg15
I01
sg16
I5
sg17
I50
sbs(I12
I11
tp87
g1
(g10
g3
NtRp88
(dp89
g13
F-6.801245222625286
sg14
I12
sg15
I01
sg16
I11
sg17
I140
sbs(I3
I12
tp90
g1
(g10
g3
NtRp91
(dp92
g13
F9.4097487965319857
sg14
I3
sg15
I01
sg16
I12
sg17
I105
sbs(I3
I5
tp93
g1
(g10
g3
NtRp94
(dp95
g13
F14.878257527613908
sg14
I3
sg15
I01
sg16
I5
sg17
I12
sbs(I8
I3
tp96
g1
(g10
g3
NtRp97
(dp98
g13
F-0.14547663716825487
sg14
I8
sg15
I01
sg16
I3
sg17
I39
sbs(I5
I10
tp99
g1
(g10
g3
NtRp100
(dp101
g13
F-4.2699995091536174
sg14
I5
sg15
I01
sg16
I10
sg17
I67
sbs(I11
I3
tp102
g1
(g10
g3
NtRp103
(dp104
g13
F7.2994788693325026
sg14
I11
sg15
I01
sg16
I3
sg17
I97
sbs(I4
I3
tp105
g1
(g10
g3
NtRp106
(dp107
g13
F22.032692606919873
sg14
I4
sg15
I01
sg16
I3
sg17
I10
sbs(I14
I3
tp108
g1
(g10
g3
NtRp109
(dp110
g13
F12.604211975174721
sg14
I14
sg15
I01
sg16
I3
sg17
I132
sbs(I5
I2
tp111
g1
(g10
g3
NtRp112
(dp113
g13
F-29.950875785194949
sg14
I5
sg15
I01
sg16
I2
sg17
I21
sbs(I2
I4
tp114
g1
(g10
g3
NtRp115
(dp116
g13
F-7.7779836481728628
sg14
I2
sg15
I01
sg16
I4
sg17
I16
sbs(I10
I2
tp117
g1
(g10
g3
NtRp118
(dp119
g13
F-26.720960883979107
sg14
I10
sg15
I01
sg16
I2
sg17
I66
sbssS'_input_nodes'
p120
I1
sS'_output_nodes'
p121
I1
sS'_node_gene_type'
p122
cneat.genome
NodeGene
p123
sS'_conn_gene_type'
p124
g10
sS'fitness'
p125
F0.99440117507221204
sS'parent2_id'
p126
I10268
sS'_id'
p127
I10365
sS'parent1_id'
p128
I10268
sS'_node_genes'
p129
(lp130
g1
(g123
g3
NtRp131
(dp132
S'_bias'
p133
I0
sS'_type'
p134
S'INPUT'
p135
sg127
I1
sS'_response'
p136
F4.9242730000000003
sS'_activation_type'
p137
Nsbag1
(g123
g3
NtRp138
(dp139
g133
F-0.21034294210386739
sg134
S'OUTPUT'
p140
sg127
I2
sg136
F6.5132439505994766
sg137
S'tanh'
p141
sbag1
(g123
g3
NtRp142
(dp143
g133
F0.23754662932064363
sg134
S'HIDDEN'
p144
sg127
I3
sg136
F-1.9337177497604494
sg137
g141
sbag1
(g123
g3
NtRp145
(dp146
g133
F-1.9998582228360327
sg134
g144
sg127
I4
sg136
F10.080968626672076
sg137
g141
sbag1
(g123
g3
NtRp147
(dp148
g133
F-0.90040603271716413
sg134
g144
sg127
I5
sg136
F7.5624006817087812
sg137
g141
sbag1
(g123
g3
NtRp149
(dp150
g133
F-0.92938679708990124
sg134
g144
sg127
I6
sg136
F1.1540647404088522
sg137
g141
sbag1
(g123
g3
NtRp151
(dp152
g133
F-3.2964481948728142
sg134
g144
sg127
I7
sg136
F2.5062186690875672
sg137
g141
sbag1
(g123
g3
NtRp153
(dp154
g133
F3.9368239135230962
sg134
g144
sg127
I8
sg136
F5.1932130484967276
sg137
g141
sbag1
(g123
g3
NtRp155
(dp156
g133
F2.4961541470011297
sg134
g144
sg127
I9
sg136
F4.487765435717292
sg137
g141
sbag1
(g123
g3
NtRp157
(dp158
g133
F-0.64334157185637741
sg134
g144
sg127
I10
sg136
F4.2562950520779745
sg137
g141
sbag1
(g123
g3
NtRp159
(dp160
g133
F0.74695172087951234
sg134
g144
sg127
I11
sg136
F5.9535349649625484
sg137
g141
sbag1
(g123
g3
NtRp161
(dp162
g133
F-1.6838845924818948
sg134
g144
sg127
I12
sg136
F6.4590838545950238
sg137
g141
sbag1
(g123
g3
NtRp163
(dp164
g133
F-1.5410803062102798
sg134
g144
sg127
I13
sg136
F4.8448831617716817
sg137
g141
sbag1
(g123
g3
NtRp165
(dp166
g133
F0.068496850772296877
sg134
g144
sg127
I14
sg136
F4.5271068088830972
sg137
g141
sbasb.