ccopy_reg
_reconstructor
p1
(cneat.chromosome
Chromosome
p2
c__builtin__
object
p3
NtRp4
(dp5
S'species_id'
p6
I106
sS'_connection_genes'
p7
(dp8
(I7
I3
tp9
g1
(cneat.genome
ConnectionGene
p10
g3
NtRp11
(dp12
S'_ConnectionGene__weight'
p13
F27.57809667829935
sS'_ConnectionGene__in'
p14
I7
sS'_ConnectionGene__enabled'
p15
I01
sS'_ConnectionGene__out'
p16
I3
sS'_ConnectionGene__innov_number'
p17
I36
sbs(I6
I9
tp18
g1
(g10
g3
NtRp19
(dp20
g13
F-18.605136549168105
sg14
I6
sg15
I01
sg16
I9
sg17
I81
sbs(I1
I3
tp21
g1
(g10
g3
NtRp22
(dp23
g13
F6.3862712717510988
sg14
I1
sg15
I01
sg16
I3
sg17
I3
sbs(I8
I13
tp24
g1
(g10
g3
NtRp25
(dp26
g13
F-0.27298598879769304
sg14
I8
sg15
I00
sg16
I13
sg17
I197
sbs(I5
I9
tp27
g1
(g10
g3
NtRp28
(dp29
g13
F5.489925596545822
sg14
I5
sg15
I01
sg16
I9
sg17
I100
sbs(I13
I4
tp30
g1
(g10
g3
NtRp31
(dp32
g13
F-3.3908731942382122
sg14
I13
sg15
I01
sg16
I4
sg17
I163
sbs(I5
I4
tp33
g1
(g10
g3
NtRp34
(dp35
g13
F9.076844372194774
sg14
I5
sg15
I01
sg16
I4
sg17
I13
sbs(I3
I7
tp36
g1
(g10
g3
NtRp37
(dp38
g13
F7.6494611027957484
sg14
I3
sg15
I01
sg16
I7
sg17
I49
sbs(I12
I9
tp39
g1
(g10
g3
NtRp40
(dp41
g13
F15.278830273899377
sg14
I12
sg15
I01
sg16
I9
sg17
I109
sbs(I9
I2
tp42
g1
(g10
g3
NtRp43
(dp44
g13
F-17.664170388374316
sg14
I9
sg15
I01
sg16
I2
sg17
I48
sbs(I1
I2
tp45
g1
(g10
g3
NtRp46
(dp47
g13
F-21.240869061839199
sg14
I1
sg15
I01
sg16
I2
sg17
I1
sbs(I4
I9
tp48
g1
(g10
g3
NtRp49
(dp50
g13
F29.13738304466159
sg14
I4
sg15
I00
sg16
I9
sg17
I57
sbs(I3
I3
tp51
g1
(g10
g3
NtRp52
(dp53
g13
F-12.751304463755677
sg14
I3
sg15
I01
sg16
I3
sg17
I8
sbs(I9
I15
tp54
g1
(g10
g3
NtRp55
(dp56
g13
F1.3820678484851823
sg14
I9
sg15
I01
sg16
I15
sg17
I219
sbs(I3
I10
tp57
g1
(g10
g3
NtRp58
(dp59
g13
F4.1084801927325163
sg14
I3
sg15
I01
sg16
I10
sg17
I76
sbs(I4
I8
tp60
g1
(g10
g3
NtRp61
(dp62
g13
F5.8491940667291953
sg14
I4
sg15
I01
sg16
I8
sg17
I38
sbs(I4
I4
tp63
g1
(g10
g3
NtRp64
(dp65
g13
F-8.935128141695845
sg14
I4
sg15
I01
sg16
I4
sg17
I11
sbs(I6
I5
tp66
g1
(g10
g3
NtRp67
(dp68
g13
F-3.3736148934696493
sg14
I6
sg15
I01
sg16
I5
sg17
I28
sbs(I3
I6
tp69
g1
(g10
g3
NtRp70
(dp71
g13
F-12.271419124322152
sg14
I3
sg15
I01
sg16
I6
sg17
I22
sbs(I14
I14
tp72
g1
(g10
g3
NtRp73
(dp74
g13
F-1.386885440763606
sg14
I14
sg15
I01
sg16
I14
sg17
I184
sbs(I15
I12
tp75
g1
(g10
g3
NtRp76
(dp77
g13
F8.8472056212778014
sg14
I15
sg15
I01
sg16
I12
sg17
I159
sbs(I3
I2
tp78
g1
(g10
g3
NtRp79
(dp80
g13
F23.202812061258772
sg14
I3
sg15
I01
sg16
I2
sg17
I4
sbs(I6
I6
tp81
g1
(g10
g3
NtRp82
(dp83
g13
F-8.1382039047197736
sg14
I6
sg15
I01
sg16
I6
sg17
I37
sbs(I15
I3
tp84
g1
(g10
g3
NtRp85
(dp86
g13
F5.5171757254565756
sg14
I15
sg15
I01
sg16
I3
sg17
I182
sbs(I9
I3
tp87
g1
(g10
g3
NtRp88
(dp89
g13
F4.4369791140292154
sg14
I9
sg15
I00
sg16
I3
sg17
I60
sbs(I4
I16
tp90
g1
(g10
g3
NtRp91
(dp92
g13
F-1.603129686986519
sg14
I4
sg15
I01
sg16
I16
sg17
I209
sbs(I2
I3
tp93
g1
(g10
g3
NtRp94
(dp95
g13
F-9.9818983626835038
sg14
I2
sg15
I01
sg16
I3
sg17
I5
sbs(I1
I9
tp96
g1
(g10
g3
NtRp97
(dp98
g13
F19.756374174200843
sg14
I1
sg15
I01
sg16
I9
sg17
I47
sbs(I14
I2
tp99
g1
(g10
g3
NtRp100
(dp101
g13
F28.556908292098992
sg14
I14
sg15
I01
sg16
I2
sg17
I125
sbs(I4
I11
tp102
g1
(g10
g3
NtRp103
(dp104
g13
F-8.2592445587641627
sg14
I4
sg15
I01
sg16
I11
sg17
I86
sbs(I3
I5
tp105
g1
(g10
g3
NtRp106
(dp107
g13
F30
sg14
I3
sg15
I01
sg16
I5
sg17
I12
sbs(I10
I5
tp108
g1
(g10
g3
NtRp109
(dp110
g13
F-2.0673145035283595
sg14
I10
sg15
I01
sg16
I5
sg17
I79
sbs(I6
I8
tp111
g1
(g10
g3
NtRp112
(dp113
g13
F5.4969149315207346
sg14
I6
sg15
I01
sg16
I8
sg17
I51
sbs(I11
I8
tp114
g1
(g10
g3
NtRp115
(dp116
g13
F15.117533003031625
sg14
I11
sg15
I01
sg16
I8
sg17
I91
sbs(I16
I8
tp117
g1
(g10
g3
NtRp118
(dp119
g13
F12.748990834904461
sg14
I16
sg15
I01
sg16
I8
sg17
I237
sbs(I4
I17
tp120
g1
(g10
g3
NtRp121
(dp122
g13
F2.4515067629668112
sg14
I4
sg15
I01
sg16
I17
sg17
I263
sbs(I9
I9
tp123
g1
(g10
g3
NtRp124
(dp125
g13
F-3.4137765503370128
sg14
I9
sg15
I00
sg16
I9
sg17
I73
sbs(I17
I9
tp126
g1
(g10
g3
NtRp127
(dp128
g13
F29.217957885128214
sg14
I17
sg15
I01
sg16
I9
sg17
I265
sbs(I13
I14
tp129
g1
(g10
g3
NtRp130
(dp131
g13
F11.119378602107233
sg14
I13
sg15
I01
sg16
I14
sg17
I189
sbs(I10
I14
tp132
g1
(g10
g3
NtRp133
(dp134
g13
F5.9186188494024821
sg14
I10
sg15
I01
sg16
I14
sg17
I145
sbs(I4
I3
tp135
g1
(g10
g3
NtRp136
(dp137
g13
F-5.5590215151991762
sg14
I4
sg15
I01
sg16
I3
sg17
I10
sbs(I10
I2
tp138
g1
(g10
g3
NtRp139
(dp140
g13
F21.425439178857282
sg14
I10
sg15
I00
sg16
I2
sg17
I66
sbs(I5
I2
tp141
g1
(g10
g3
NtRp142
(dp143
g13
F-10.935335627128651
sg14
I5
sg15
I01
sg16
I2
sg17
I21
sbs(I2
I4
tp144
g1
(g10
g3
NtRp145
(dp146
g13
F28.817137169387522
sg14
I2
sg15
I01
sg16
I4
sg17
I16
sbs(I9
I12
tp147
g1
(g10
g3
NtRp148
(dp149
g13
F-3.87535409834351
sg14
I9
sg15
I01
sg16
I12
sg17
I127
sbs(I8
I4
tp150
g1
(g10
g3
NtRp151
(dp152
g13
F15.074464839814178
sg14
I8
sg15
I01
sg16
I4
sg17
I41
sbssS'_input_nodes'
p153
I1
sS'_output_nodes'
p154
I1
sS'_node_gene_type'
p155
cneat.genome
NodeGene
p156
sS'_conn_gene_type'
p157
g10
sS'fitness'
p158
F0.9706783505710519
sS'parent2_id'
p159
I15218
sS'_id'
p160
I15268
sS'parent1_id'
p161
I15218
sS'_node_genes'
p162
(lp163
g1
(g156
g3
NtRp164
(dp165
S'_bias'
p166
I0
sS'_type'
p167
S'INPUT'
p168
sg160
I1
sS'_response'
p169
F4.9242730000000003
sS'_activation_type'
p170
Nsbag1
(g156
g3
NtRp171
(dp172
g166
F0.43555872610395013
sg167
S'OUTPUT'
p173
sg160
I2
sg169
F3.7846417330617212
sg170
S'tanh'
p174
sbag1
(g156
g3
NtRp175
(dp176
g166
F-3.1917472666402942
sg167
S'HIDDEN'
p177
sg160
I3
sg169
F4.3706656642426829
sg170
g174
sbag1
(g156
g3
NtRp178
(dp179
g166
F4.968439010499762
sg167
g177
sg160
I4
sg169
F1.4199460757989035
sg170
g174
sbag1
(g156
g3
NtRp180
(dp181
g166
F-2.9239574852321484
sg167
g177
sg160
I5
sg169
F9.0002570701253202
sg170
g174
sbag1
(g156
g3
NtRp182
(dp183
g166
F1.9772170116271455
sg167
g177
sg160
I6
sg169
F8.2417965142211322
sg170
g174
sbag1
(g156
g3
NtRp184
(dp185
g166
F-3.2419749967648186
sg167
g177
sg160
I7
sg169
F9.0080721446757703
sg170
g174
sbag1
(g156
g3
NtRp186
(dp187
g166
F0.56443364588217082
sg167
g177
sg160
I8
sg169
F2.1121555883667771
sg170
g174
sbag1
(g156
g3
NtRp188
(dp189
g166
F-0.12726669095789256
sg167
g177
sg160
I9
sg169
F3.886750272014329
sg170
g174
sbag1
(g156
g3
NtRp190
(dp191
g166
F3.9746532133604204
sg167
g177
sg160
I10
sg169
F0.013466910186412061
sg170
g174
sbag1
(g156
g3
NtRp192
(dp193
g166
F0.33329155738071725
sg167
g177
sg160
I11
sg169
F10.141449944632042
sg170
g174
sbag1
(g156
g3
NtRp194
(dp195
g166
F1.6550590958572708
sg167
g177
sg160
I12
sg169
F2.0857228645081847
sg170
g174
sbag1
(g156
g3
NtRp196
(dp197
g166
F-1.796110910538778
sg167
g177
sg160
I13
sg169
F4.9408908047927653
sg170
g174
sbag1
(g156
g3
NtRp198
(dp199
g166
F-3.7943172146458299
sg167
g177
sg160
I14
sg169
F6.8674427175013477
sg170
g174
sbag1
(g156
g3
NtRp200
(dp201
g166
F-0.61990086784785059
sg167
g177
sg160
I15
sg169
F7.0513595463380874
sg170
g174
sbag1
(g156
g3
NtRp202
(dp203
g166
F-1.9103250657564383
sg167
g177
sg160
I16
sg169
F3.9817753791067889
sg170
g174
sbag1
(g156
g3
NtRp204
(dp205
g166
I0
sg167
g177
sg160
I17
sg169
F4.9242730000000003
sg170
g174
sbasb.