ccopy_reg
_reconstructor
p1
(cneat.chromosome
Chromosome
p2
c__builtin__
object
p3
NtRp4
(dp5
S'species_id'
p6
I29
sS'_connection_genes'
p7
(dp8
(I1
I2
tp9
g1
(cneat.genome
ConnectionGene
p10
g3
NtRp11
(dp12
S'_ConnectionGene__weight'
p13
F-12.413669332961609
sS'_ConnectionGene__in'
p14
I1
sS'_ConnectionGene__enabled'
p15
I01
sS'_ConnectionGene__out'
p16
I2
sS'_ConnectionGene__innov_number'
p17
I1
sbs(I3
I2
tp18
g1
(g10
g3
NtRp19
(dp20
g13
F-1.2621556217825693
sg14
I3
sg15
I00
sg16
I2
sg17
I4
sbs(I1
I3
tp21
g1
(g10
g3
NtRp22
(dp23
g13
F7.8092296601977127
sg14
I1
sg15
I00
sg16
I3
sg17
I3
sbs(I3
I3
tp24
g1
(g10
g3
NtRp25
(dp26
g13
F14.703947940910107
sg14
I3
sg15
I01
sg16
I3
sg17
I8
sbs(I5
I6
tp27
g1
(g10
g3
NtRp28
(dp29
g13
F-1.5974170283192586
sg14
I5
sg15
I01
sg16
I6
sg17
I25
sbs(I1
I4
tp30
g1
(g10
g3
NtRp31
(dp32
g13
F15.985651629387124
sg14
I1
sg15
I01
sg16
I4
sg17
I6
sbs(I6
I2
tp33
g1
(g10
g3
NtRp34
(dp35
g13
F-7.7082316454024866
sg14
I6
sg15
I01
sg16
I2
sg17
I18
sbs(I4
I3
tp36
g1
(g10
g3
NtRp37
(dp38
g13
F10.708151098034129
sg14
I4
sg15
I01
sg16
I3
sg17
I10
sbs(I3
I5
tp39
g1
(g10
g3
NtRp40
(dp41
g13
F13.188321623684601
sg14
I3
sg15
I01
sg16
I5
sg17
I12
sbs(I5
I2
tp42
g1
(g10
g3
NtRp43
(dp44
g13
F-12.517577430579102
sg14
I5
sg15
I01
sg16
I2
sg17
I21
sbs(I2
I4
tp45
g1
(g10
g3
NtRp46
(dp47
g13
F-8.1333824303618858
sg14
I2
sg15
I01
sg16
I4
sg17
I16
sbs(I5
I3
tp48
g1
(g10
g3
NtRp49
(dp50
g13
F4.559508493256204
sg14
I5
sg15
I01
sg16
I3
sg17
I15
sbssS'_input_nodes'
p51
I1
sS'_output_nodes'
p52
I1
sS'_node_gene_type'
p53
cneat.genome
NodeGene
p54
sS'_conn_gene_type'
p55
g10
sS'fitness'
p56
F0.99866358634236618
sS'parent2_id'
p57
I3800
sS'_id'
p58
I3855
sS'parent1_id'
p59
I3800
sS'_node_genes'
p60
(lp61
g1
(g54
g3
NtRp62
(dp63
S'_bias'
p64
I0
sS'_type'
p65
S'INPUT'
p66
sg58
I1
sS'_response'
p67
F4.9242730000000003
sS'_activation_type'
p68
Nsbag1
(g54
g3
NtRp69
(dp70
g64
F-2.1220126810805797
sg65
S'OUTPUT'
p71
sg58
I2
sg67
F4.9866497227722286
sg68
S'tanh'
p72
sbag1
(g54
g3
NtRp73
(dp74
g64
F1.2703675173411972
sg65
S'HIDDEN'
p75
sg58
I3
sg67
F2.8559681745641847
sg68
g72
sbag1
(g54
g3
NtRp76
(dp77
g64
F0.75113587117337111
sg65
g75
sg58
I4
sg67
F8.8359794694653111
sg68
g72
sbag1
(g54
g3
NtRp78
(dp79
g64
F0.28476161767549779
sg65
g75
sg58
I5
sg67
F4.4139020543481866
sg68
g72
sbag1
(g54
g3
NtRp80
(dp81
g64
F-0.38675346989622955
sg65
g75
sg58
I6
sg67
F4.9242730000000003
sg68
g72
sbasb.