ccopy_reg
_reconstructor
p1
(cneat.chromosome
Chromosome
p2
c__builtin__
object
p3
NtRp4
(dp5
S'species_id'
p6
I67
sS'_connection_genes'
p7
(dp8
(I7
I3
tp9
g1
(cneat.genome
ConnectionGene
p10
g3
NtRp11
(dp12
S'_ConnectionGene__weight'
p13
F17.225402859863312
sS'_ConnectionGene__in'
p14
I7
sS'_ConnectionGene__enabled'
p15
I01
sS'_ConnectionGene__out'
p16
I3
sS'_ConnectionGene__innov_number'
p17
I36
sbs(I1
I3
tp18
g1
(g10
g3
NtRp19
(dp20
g13
F-11.417462810140233
sg14
I1
sg15
I01
sg16
I3
sg17
I3
sbs(I5
I9
tp21
g1
(g10
g3
NtRp22
(dp23
g13
F0.3332835135354133
sg14
I5
sg15
I01
sg16
I9
sg17
I100
sbs(I3
I2
tp24
g1
(g10
g3
NtRp25
(dp26
g13
F14.90768636738275
sg14
I3
sg15
I01
sg16
I2
sg17
I4
sbs(I3
I7
tp27
g1
(g10
g3
NtRp28
(dp29
g13
F-10.801583649870681
sg14
I3
sg15
I01
sg16
I7
sg17
I49
sbs(I1
I2
tp30
g1
(g10
g3
NtRp31
(dp32
g13
F-24.847126070291349
sg14
I1
sg15
I01
sg16
I2
sg17
I1
sbs(I12
I2
tp33
g1
(g10
g3
NtRp34
(dp35
g13
F26.104020519483402
sg14
I12
sg15
I01
sg16
I2
sg17
I104
sbs(I4
I9
tp36
g1
(g10
g3
NtRp37
(dp38
g13
F8.0493078167105363
sg14
I4
sg15
I01
sg16
I9
sg17
I57
sbs(I3
I3
tp39
g1
(g10
g3
NtRp40
(dp41
g13
F-7.1501406351634786
sg14
I3
sg15
I01
sg16
I3
sg17
I8
sbs(I2
I9
tp42
g1
(g10
g3
NtRp43
(dp44
g13
F0.29282770820239756
sg14
I2
sg15
I01
sg16
I9
sg17
I144
sbs(I3
I10
tp45
g1
(g10
g3
NtRp46
(dp47
g13
F-0.45064942420121623
sg14
I3
sg15
I01
sg16
I10
sg17
I76
sbs(I4
I4
tp48
g1
(g10
g3
NtRp49
(dp50
g13
F-6.3133908417153854
sg14
I4
sg15
I00
sg16
I4
sg17
I11
sbs(I10
I12
tp51
g1
(g10
g3
NtRp52
(dp53
g13
F-5.8383261895124852
sg14
I10
sg15
I01
sg16
I12
sg17
I111
sbs(I4
I8
tp54
g1
(g10
g3
NtRp55
(dp56
g13
F-8.7609657515362116
sg14
I4
sg15
I01
sg16
I8
sg17
I38
sbs(I4
I11
tp57
g1
(g10
g3
NtRp58
(dp59
g13
F1.9146289072729725
sg14
I4
sg15
I01
sg16
I11
sg17
I86
sbs(I3
I6
tp60
g1
(g10
g3
NtRp61
(dp62
g13
F-4.9850913139961044
sg14
I3
sg15
I01
sg16
I6
sg17
I22
sbs(I5
I4
tp63
g1
(g10
g3
NtRp64
(dp65
g13
F0.81628920274193817
sg14
I5
sg15
I01
sg16
I4
sg17
I13
sbs(I6
I6
tp66
g1
(g10
g3
NtRp67
(dp68
g13
F-3.522648052051303
sg14
I6
sg15
I01
sg16
I6
sg17
I37
sbs(I5
I11
tp69
g1
(g10
g3
NtRp70
(dp71
g13
F0.2454928186401184
sg14
I5
sg15
I01
sg16
I11
sg17
I90
sbs(I9
I3
tp72
g1
(g10
g3
NtRp73
(dp74
g13
F-19.685972509340655
sg14
I9
sg15
I01
sg16
I3
sg17
I60
sbs(I2
I3
tp75
g1
(g10
g3
NtRp76
(dp77
g13
F9.7692626183358584
sg14
I2
sg15
I01
sg16
I3
sg17
I5
sbs(I1
I9
tp78
g1
(g10
g3
NtRp79
(dp80
g13
F13.161627327490056
sg14
I1
sg15
I01
sg16
I9
sg17
I47
sbs(I6
I5
tp81
g1
(g10
g3
NtRp82
(dp83
g13
F-15.975729718648157
sg14
I6
sg15
I01
sg16
I5
sg17
I28
sbs(I3
I5
tp84
g1
(g10
g3
NtRp85
(dp86
g13
F21.666073774194253
sg14
I3
sg15
I01
sg16
I5
sg17
I12
sbs(I10
I5
tp87
g1
(g10
g3
NtRp88
(dp89
g13
F2.4940901055109199
sg14
I10
sg15
I01
sg16
I5
sg17
I79
sbs(I9
I2
tp90
g1
(g10
g3
NtRp91
(dp92
g13
F5.0344403088487537
sg14
I9
sg15
I01
sg16
I2
sg17
I48
sbs(I9
I9
tp93
g1
(g10
g3
NtRp94
(dp95
g13
F4.3494633943437222
sg14
I9
sg15
I01
sg16
I9
sg17
I73
sbs(I11
I8
tp96
g1
(g10
g3
NtRp97
(dp98
g13
F-2.070706929013582
sg14
I11
sg15
I01
sg16
I8
sg17
I91
sbs(I4
I3
tp99
g1
(g10
g3
NtRp100
(dp101
g13
F-5.5461086421214763
sg14
I4
sg15
I01
sg16
I3
sg17
I10
sbs(I8
I4
tp102
g1
(g10
g3
NtRp103
(dp104
g13
F9.4405644081136391
sg14
I8
sg15
I01
sg16
I4
sg17
I41
sbs(I5
I2
tp105
g1
(g10
g3
NtRp106
(dp107
g13
F-21.886478395980472
sg14
I5
sg15
I01
sg16
I2
sg17
I21
sbs(I2
I4
tp108
g1
(g10
g3
NtRp109
(dp110
g13
F22.188760335054635
sg14
I2
sg15
I01
sg16
I4
sg17
I16
sbs(I10
I2
tp111
g1
(g10
g3
NtRp112
(dp113
g13
F30
sg14
I10
sg15
I01
sg16
I2
sg17
I66
sbssS'_input_nodes'
p114
I1
sS'_output_nodes'
p115
I1
sS'_node_gene_type'
p116
cneat.genome
NodeGene
p117
sS'_conn_gene_type'
p118
g10
sS'fitness'
p119
F0.99197965619209683
sS'parent2_id'
p120
I10024
sS'_id'
p121
I10063
sS'parent1_id'
p122
I10024
sS'_node_genes'
p123
(lp124
g1
(g117
g3
NtRp125
(dp126
S'_bias'
p127
I0
sS'_type'
p128
S'INPUT'
p129
sg121
I1
sS'_response'
p130
F4.9242730000000003
sS'_activation_type'
p131
Nsbag1
(g117
g3
NtRp132
(dp133
g127
F0.90948536970822647
sg128
S'OUTPUT'
p134
sg121
I2
sg130
F4.3995356167204598
sg131
S'tanh'
p135
sbag1
(g117
g3
NtRp136
(dp137
g127
F-2.0759086356991387
sg128
S'HIDDEN'
p138
sg121
I3
sg130
F6.408363924982174
sg131
g135
sbag1
(g117
g3
NtRp139
(dp140
g127
F1.7434417819346497
sg128
g138
sg121
I4
sg130
F0.47504376647943436
sg131
g135
sbag1
(g117
g3
NtRp141
(dp142
g127
F-2.7590332573819119
sg128
g138
sg121
I5
sg130
F5.9315715284375905
sg131
g135
sbag1
(g117
g3
NtRp143
(dp144
g127
F0.043380242727448323
sg128
g138
sg121
I6
sg130
F10.103781203216039
sg131
g135
sbag1
(g117
g3
NtRp145
(dp146
g127
F-0.63554780315241555
sg128
g138
sg121
I7
sg130
F9.9348258434879515
sg131
g135
sbag1
(g117
g3
NtRp147
(dp148
g127
F-4.7950346300696367
sg128
g138
sg121
I8
sg130
F2.9059093808643253
sg131
g135
sbag1
(g117
g3
NtRp149
(dp150
g127
F2.1951551407455741
sg128
g138
sg121
I9
sg130
F3.0997610585143924
sg131
g135
sbag1
(g117
g3
NtRp151
(dp152
g127
F1.0029005184581745
sg128
g138
sg121
I10
sg130
F3.438365805640561
sg131
g135
sbag1
(g117
g3
NtRp153
(dp154
g127
F-0.38916974434082008
sg128
g138
sg121
I11
sg130
F5.2315097376779445
sg131
g135
sbag1
(g117
g3
NtRp155
(dp156
g127
F-0.24337357113618574
sg128
g138
sg121
I12
sg130
F5.1088111866233401
sg131
g135
sbasb.