ccopy_reg
_reconstructor
p1
(cneat.chromosome
Chromosome
p2
c__builtin__
object
p3
NtRp4
(dp5
S'species_id'
p6
I51
sS'_connection_genes'
p7
(dp8
(I1
I3
tp9
g1
(cneat.genome
ConnectionGene
p10
g3
NtRp11
(dp12
S'_ConnectionGene__weight'
p13
F22.754864781775535
sS'_ConnectionGene__in'
p14
I1
sS'_ConnectionGene__enabled'
p15
I00
sS'_ConnectionGene__out'
p16
I3
sS'_ConnectionGene__innov_number'
p17
I3
sbs(I5
I6
tp18
g1
(g10
g3
NtRp19
(dp20
g13
F-8.985114364657445
sg14
I5
sg15
I01
sg16
I6
sg17
I25
sbs(I8
I9
tp21
g1
(g10
g3
NtRp22
(dp23
g13
F1.9014773996079919
sg14
I8
sg15
I01
sg16
I9
sg17
I61
sbs(I6
I2
tp24
g1
(g10
g3
NtRp25
(dp26
g13
F23.637481084222483
sg14
I6
sg15
I00
sg16
I2
sg17
I18
sbs(I7
I2
tp27
g1
(g10
g3
NtRp28
(dp29
g13
F-2.0602037408217138
sg14
I7
sg15
I01
sg16
I2
sg17
I31
sbs(I1
I2
tp30
g1
(g10
g3
NtRp31
(dp32
g13
F-21.853658092378961
sg14
I1
sg15
I01
sg16
I2
sg17
I1
sbs(I6
I7
tp33
g1
(g10
g3
NtRp34
(dp35
g13
F-6.0547447754389108
sg14
I6
sg15
I01
sg16
I7
sg17
I34
sbs(I3
I3
tp36
g1
(g10
g3
NtRp37
(dp38
g13
F29.154946823729162
sg14
I3
sg15
I01
sg16
I3
sg17
I8
sbs(I5
I8
tp39
g1
(g10
g3
NtRp40
(dp41
g13
F-4.1221157613239532
sg14
I5
sg15
I01
sg16
I8
sg17
I45
sbs(I3
I6
tp42
g1
(g10
g3
NtRp43
(dp44
g13
F0.32594658647648556
sg14
I3
sg15
I01
sg16
I6
sg17
I22
sbs(I3
I5
tp45
g1
(g10
g3
NtRp46
(dp47
g13
F12.369030493814604
sg14
I3
sg15
I01
sg16
I5
sg17
I12
sbs(I3
I2
tp48
g1
(g10
g3
NtRp49
(dp50
g13
F10.648964366528986
sg14
I3
sg15
I01
sg16
I2
sg17
I4
sbs(I8
I2
tp51
g1
(g10
g3
NtRp52
(dp53
g13
F-27.753921526200109
sg14
I8
sg15
I00
sg16
I2
sg17
I46
sbs(I1
I4
tp54
g1
(g10
g3
NtRp55
(dp56
g13
F13.269582838673362
sg14
I1
sg15
I01
sg16
I4
sg17
I6
sbs(I9
I10
tp57
g1
(g10
g3
NtRp58
(dp59
g13
F14.550356553463169
sg14
I9
sg15
I01
sg16
I10
sg17
I84
sbs(I3
I9
tp60
g1
(g10
g3
NtRp61
(dp62
g13
F-8.8333533293658171
sg14
I3
sg15
I01
sg16
I9
sg17
I62
sbs(I4
I9
tp63
g1
(g10
g3
NtRp64
(dp65
g13
F7.4468931147438528
sg14
I4
sg15
I01
sg16
I9
sg17
I57
sbs(I5
I3
tp66
g1
(g10
g3
NtRp67
(dp68
g13
F3.651507084868395
sg14
I5
sg15
I01
sg16
I3
sg17
I15
sbs(I10
I5
tp69
g1
(g10
g3
NtRp70
(dp71
g13
F1.5976812642076821
sg14
I10
sg15
I01
sg16
I5
sg17
I79
sbs(I9
I2
tp72
g1
(g10
g3
NtRp73
(dp74
g13
F-12.933248670926087
sg14
I9
sg15
I00
sg16
I2
sg17
I48
sbs(I4
I3
tp75
g1
(g10
g3
NtRp76
(dp77
g13
F14.682375122886652
sg14
I4
sg15
I01
sg16
I3
sg17
I10
sbs(I5
I2
tp78
g1
(g10
g3
NtRp79
(dp80
g13
F-28.661618311207071
sg14
I5
sg15
I00
sg16
I2
sg17
I21
sbs(I2
I4
tp81
g1
(g10
g3
NtRp82
(dp83
g13
F-4.5051927936572156
sg14
I2
sg15
I01
sg16
I4
sg17
I16
sbs(I10
I2
tp84
g1
(g10
g3
NtRp85
(dp86
g13
F-12.320516636339322
sg14
I10
sg15
I01
sg16
I2
sg17
I66
sbssS'_input_nodes'
p87
I1
sS'_output_nodes'
p88
I1
sS'_node_gene_type'
p89
cneat.genome
NodeGene
p90
sS'_conn_gene_type'
p91
g10
sS'fitness'
p92
F0.99071499573878608
sS'parent2_id'
p93
I7762
sS'_id'
p94
I7805
sS'parent1_id'
p95
I7762
sS'_node_genes'
p96
(lp97
g1
(g90
g3
NtRp98
(dp99
S'_bias'
p100
I0
sS'_type'
p101
S'INPUT'
p102
sg94
I1
sS'_response'
p103
F4.9242730000000003
sS'_activation_type'
p104
Nsbag1
(g90
g3
NtRp105
(dp106
g100
F-7.6129327453752813
sg101
S'OUTPUT'
p107
sg94
I2
sg103
F4.9488801009099994
sg104
S'tanh'
p108
sbag1
(g90
g3
NtRp109
(dp110
g100
F1.5712892109806655
sg101
S'HIDDEN'
p111
sg94
I3
sg103
F5.3474070295991876
sg104
g108
sbag1
(g90
g3
NtRp112
(dp113
g100
F-0.17205418488644567
sg101
g111
sg94
I4
sg103
F8.6096303317310348
sg104
g108
sbag1
(g90
g3
NtRp114
(dp115
g100
F2.6628187849892662
sg101
g111
sg94
I5
sg103
F5.5641040155968478
sg104
g108
sbag1
(g90
g3
NtRp116
(dp117
g100
F1.0798242803452862
sg101
g111
sg94
I6
sg103
F3.3153700959106871
sg104
g108
sbag1
(g90
g3
NtRp118
(dp119
g100
F0.50566730746119881
sg101
g111
sg94
I7
sg103
F5.2524407258464327
sg104
g108
sbag1
(g90
g3
NtRp120
(dp121
g100
F0.0073750085575695623
sg101
g111
sg94
I8
sg103
F5.7176883875839071
sg104
g108
sbag1
(g90
g3
NtRp122
(dp123
g100
F3.4556554677628011
sg101
g111
sg94
I9
sg103
F3.4230115427011834
sg104
g108
sbag1
(g90
g3
NtRp124
(dp125
g100
F0.65877764590523202
sg101
g111
sg94
I10
sg103
F4.8692837876790511
sg104
g108
sbasb.