ccopy_reg
_reconstructor
p1
(cneat.chromosome
Chromosome
p2
c__builtin__
object
p3
NtRp4
(dp5
S'species_id'
p6
I67
sS'_connection_genes'
p7
(dp8
(I7
I3
tp9
g1
(cneat.genome
ConnectionGene
p10
g3
NtRp11
(dp12
S'_ConnectionGene__weight'
p13
F19.360075496732286
sS'_ConnectionGene__in'
p14
I7
sS'_ConnectionGene__enabled'
p15
I01
sS'_ConnectionGene__out'
p16
I3
sS'_ConnectionGene__innov_number'
p17
I36
sbs(I1
I3
tp18
g1
(g10
g3
NtRp19
(dp20
g13
F-13.662275695502693
sg14
I1
sg15
I01
sg16
I3
sg17
I3
sbs(I5
I9
tp21
g1
(g10
g3
NtRp22
(dp23
g13
F-2.3759980872727242
sg14
I5
sg15
I01
sg16
I9
sg17
I100
sbs(I5
I4
tp24
g1
(g10
g3
NtRp25
(dp26
g13
F-0.46188487067212791
sg14
I5
sg15
I01
sg16
I4
sg17
I13
sbs(I3
I7
tp27
g1
(g10
g3
NtRp28
(dp29
g13
F-11.392782767887358
sg14
I3
sg15
I01
sg16
I7
sg17
I49
sbs(I5
I8
tp30
g1
(g10
g3
NtRp31
(dp32
g13
F0.42830440692986593
sg14
I5
sg15
I01
sg16
I8
sg17
I45
sbs(I1
I2
tp33
g1
(g10
g3
NtRp34
(dp35
g13
F-24.816478488323082
sg14
I1
sg15
I01
sg16
I2
sg17
I1
sbs(I12
I2
tp36
g1
(g10
g3
NtRp37
(dp38
g13
F25.542871208397649
sg14
I12
sg15
I01
sg16
I2
sg17
I104
sbs(I4
I9
tp39
g1
(g10
g3
NtRp40
(dp41
g13
F10.23872418553621
sg14
I4
sg15
I01
sg16
I9
sg17
I57
sbs(I3
I3
tp42
g1
(g10
g3
NtRp43
(dp44
g13
F-5.2914542591825526
sg14
I3
sg15
I01
sg16
I3
sg17
I8
sbs(I2
I9
tp45
g1
(g10
g3
NtRp46
(dp47
g13
F-1.3335921670334545
sg14
I2
sg15
I01
sg16
I9
sg17
I144
sbs(I3
I10
tp48
g1
(g10
g3
NtRp49
(dp50
g13
F-1.3869355354026367
sg14
I3
sg15
I01
sg16
I10
sg17
I76
sbs(I4
I4
tp51
g1
(g10
g3
NtRp52
(dp53
g13
F-6.2711696036892945
sg14
I4
sg15
I00
sg16
I4
sg17
I11
sbs(I10
I12
tp54
g1
(g10
g3
NtRp55
(dp56
g13
F-3.0435234557423803
sg14
I10
sg15
I01
sg16
I12
sg17
I111
sbs(I4
I8
tp57
g1
(g10
g3
NtRp58
(dp59
g13
F-6.7569400225644962
sg14
I4
sg15
I01
sg16
I8
sg17
I38
sbs(I6
I5
tp60
g1
(g10
g3
NtRp61
(dp62
g13
F-15.62212978078699
sg14
I6
sg15
I01
sg16
I5
sg17
I28
sbs(I3
I6
tp63
g1
(g10
g3
NtRp64
(dp65
g13
F-5.9172471687184194
sg14
I3
sg15
I01
sg16
I6
sg17
I22
sbs(I3
I2
tp66
g1
(g10
g3
NtRp67
(dp68
g13
F14.90768636738275
sg14
I3
sg15
I01
sg16
I2
sg17
I4
sbs(I6
I6
tp69
g1
(g10
g3
NtRp70
(dp71
g13
F-4.0402782616681039
sg14
I6
sg15
I01
sg16
I6
sg17
I37
sbs(I5
I11
tp72
g1
(g10
g3
NtRp73
(dp74
g13
F4.5217466106842004
sg14
I5
sg15
I01
sg16
I11
sg17
I90
sbs(I9
I3
tp75
g1
(g10
g3
NtRp76
(dp77
g13
F-19.520241989917508
sg14
I9
sg15
I01
sg16
I3
sg17
I60
sbs(I2
I3
tp78
g1
(g10
g3
NtRp79
(dp80
g13
F11.000736685820279
sg14
I2
sg15
I01
sg16
I3
sg17
I5
sbs(I1
I9
tp81
g1
(g10
g3
NtRp82
(dp83
g13
F11.618366311104543
sg14
I1
sg15
I01
sg16
I9
sg17
I47
sbs(I4
I11
tp84
g1
(g10
g3
NtRp85
(dp86
g13
F2.3129374215614105
sg14
I4
sg15
I01
sg16
I11
sg17
I86
sbs(I3
I5
tp87
g1
(g10
g3
NtRp88
(dp89
g13
F24.460549943708536
sg14
I3
sg15
I01
sg16
I5
sg17
I12
sbs(I10
I5
tp90
g1
(g10
g3
NtRp91
(dp92
g13
F-0.31765846949316912
sg14
I10
sg15
I01
sg16
I5
sg17
I79
sbs(I9
I2
tp93
g1
(g10
g3
NtRp94
(dp95
g13
F3.9328150460236575
sg14
I9
sg15
I01
sg16
I2
sg17
I48
sbs(I9
I9
tp96
g1
(g10
g3
NtRp97
(dp98
g13
F5.3227820044432459
sg14
I9
sg15
I01
sg16
I9
sg17
I73
sbs(I11
I8
tp99
g1
(g10
g3
NtRp100
(dp101
g13
F-4.0558408148495966
sg14
I11
sg15
I01
sg16
I8
sg17
I91
sbs(I4
I3
tp102
g1
(g10
g3
NtRp103
(dp104
g13
F-3.8779835998276977
sg14
I4
sg15
I01
sg16
I3
sg17
I10
sbs(I10
I2
tp105
g1
(g10
g3
NtRp106
(dp107
g13
F30
sg14
I10
sg15
I01
sg16
I2
sg17
I66
sbs(I5
I2
tp108
g1
(g10
g3
NtRp109
(dp110
g13
F-22.430080144453857
sg14
I5
sg15
I01
sg16
I2
sg17
I21
sbs(I2
I4
tp111
g1
(g10
g3
NtRp112
(dp113
g13
F22.357653498932951
sg14
I2
sg15
I01
sg16
I4
sg17
I16
sbs(I8
I4
tp114
g1
(g10
g3
NtRp115
(dp116
g13
F8.3949813391108901
sg14
I8
sg15
I01
sg16
I4
sg17
I41
sbssS'_input_nodes'
p117
I1
sS'_output_nodes'
p118
I1
sS'_node_gene_type'
p119
cneat.genome
NodeGene
p120
sS'_conn_gene_type'
p121
g10
sS'fitness'
p122
F0.98473262659054173
sS'parent2_id'
p123
I10196
sS'_id'
p124
I10239
sS'parent1_id'
p125
I10196
sS'_node_genes'
p126
(lp127
g1
(g120
g3
NtRp128
(dp129
S'_bias'
p130
I0
sS'_type'
p131
S'INPUT'
p132
sg124
I1
sS'_response'
p133
F4.9242730000000003
sS'_activation_type'
p134
Nsbag1
(g120
g3
NtRp135
(dp136
g130
F0.90948536970822647
sg131
S'OUTPUT'
p137
sg124
I2
sg133
F4.2219155285937324
sg134
S'tanh'
p138
sbag1
(g120
g3
NtRp139
(dp140
g130
F-2.0759086356991387
sg131
S'HIDDEN'
p141
sg124
I3
sg133
F5.6628364978576124
sg134
g138
sbag1
(g120
g3
NtRp142
(dp143
g130
F1.7434417819346497
sg131
g141
sg124
I4
sg133
F0.47504376647943436
sg134
g138
sbag1
(g120
g3
NtRp144
(dp145
g130
F-1.9097315236891752
sg131
g141
sg124
I5
sg133
F5.2281586332190981
sg134
g138
sbag1
(g120
g3
NtRp146
(dp147
g130
F0.54919224395389898
sg131
g141
sg124
I6
sg133
F10.103781203216039
sg134
g138
sbag1
(g120
g3
NtRp148
(dp149
g130
F-0.63554780315241555
sg131
g141
sg124
I7
sg133
F11.047737021037065
sg134
g138
sbag1
(g120
g3
NtRp150
(dp151
g130
F-3.7583293969900651
sg131
g141
sg124
I8
sg133
F2.9059093808643253
sg134
g138
sbag1
(g120
g3
NtRp152
(dp153
g130
F1.0436263390439833
sg131
g141
sg124
I9
sg133
F3.0997610585143924
sg134
g138
sbag1
(g120
g3
NtRp154
(dp155
g130
F1.0029005184581745
sg131
g141
sg124
I10
sg133
F3.438365805640561
sg134
g138
sbag1
(g120
g3
NtRp156
(dp157
g130
F-0.38916974434082008
sg131
g141
sg124
I11
sg133
F5.2315097376779445
sg134
g138
sbag1
(g120
g3
NtRp158
(dp159
g130
F0.80016490113476624
sg131
g141
sg124
I12
sg133
F5.1088111866233401
sg134
g138
sbasb.