ccopy_reg
_reconstructor
p1
(cneat.chromosome
Chromosome
p2
c__builtin__
object
p3
NtRp4
(dp5
S'species_id'
p6
I130
sS'_connection_genes'
p7
(dp8
(I7
I3
tp9
g1
(cneat.genome
ConnectionGene
p10
g3
NtRp11
(dp12
S'_ConnectionGene__weight'
p13
F16.541063111953587
sS'_ConnectionGene__in'
p14
I7
sS'_ConnectionGene__enabled'
p15
I01
sS'_ConnectionGene__out'
p16
I3
sS'_ConnectionGene__innov_number'
p17
I36
sbs(I1
I3
tp18
g1
(g10
g3
NtRp19
(dp20
g13
F-25.630330913840627
sg14
I1
sg15
I01
sg16
I3
sg17
I3
sbs(I5
I9
tp21
g1
(g10
g3
NtRp22
(dp23
g13
F-3.9800361303303111
sg14
I5
sg15
I01
sg16
I9
sg17
I100
sbs(I16
I9
tp24
g1
(g10
g3
NtRp25
(dp26
g13
F16.045499032367736
sg14
I16
sg15
I01
sg16
I9
sg17
I236
sbs(I3
I13
tp27
g1
(g10
g3
NtRp28
(dp29
g13
F22.42389538613342
sg14
I3
sg15
I01
sg16
I13
sg17
I107
sbs(I5
I4
tp30
g1
(g10
g3
NtRp31
(dp32
g13
F0.57289832252183337
sg14
I5
sg15
I01
sg16
I4
sg17
I13
sbs(I9
I9
tp33
g1
(g10
g3
NtRp34
(dp35
g13
F14.751328668938417
sg14
I9
sg15
I01
sg16
I9
sg17
I73
sbs(I2
I12
tp36
g1
(g10
g3
NtRp37
(dp38
g13
F6.9387128580262871
sg14
I2
sg15
I01
sg16
I12
sg17
I135
sbs(I7
I11
tp39
g1
(g10
g3
NtRp40
(dp41
g13
F-20.85325628310596
sg14
I7
sg15
I01
sg16
I11
sg17
I92
sbs(I3
I7
tp42
g1
(g10
g3
NtRp43
(dp44
g13
F17.434855881174322
sg14
I3
sg15
I00
sg16
I7
sg17
I49
sbs(I14
I9
tp45
g1
(g10
g3
NtRp46
(dp47
g13
F16.131563193018387
sg14
I14
sg15
I01
sg16
I9
sg17
I130
sbs(I5
I8
tp48
g1
(g10
g3
NtRp49
(dp50
g13
F20.251305427805804
sg14
I5
sg15
I01
sg16
I8
sg17
I45
sbs(I1
I2
tp51
g1
(g10
g3
NtRp52
(dp53
g13
F-16.316983512013778
sg14
I1
sg15
I01
sg16
I2
sg17
I1
sbs(I12
I2
tp54
g1
(g10
g3
NtRp55
(dp56
g13
F14.61751070289581
sg14
I12
sg15
I01
sg16
I2
sg17
I104
sbs(I4
I9
tp57
g1
(g10
g3
NtRp58
(dp59
g13
F-3.5284257119699118
sg14
I4
sg15
I01
sg16
I9
sg17
I57
sbs(I3
I3
tp60
g1
(g10
g3
NtRp61
(dp62
g13
F1.4258073884900426
sg14
I3
sg15
I01
sg16
I3
sg17
I8
sbs(I2
I9
tp63
g1
(g10
g3
NtRp64
(dp65
g13
F28.253269811511455
sg14
I2
sg15
I01
sg16
I9
sg17
I144
sbs(I3
I10
tp66
g1
(g10
g3
NtRp67
(dp68
g13
F4.7024272967383371
sg14
I3
sg15
I01
sg16
I10
sg17
I76
sbs(I4
I4
tp69
g1
(g10
g3
NtRp70
(dp71
g13
F11.776017963146339
sg14
I4
sg15
I00
sg16
I4
sg17
I11
sbs(I10
I12
tp72
g1
(g10
g3
NtRp73
(dp74
g13
F-29.435291576762605
sg14
I10
sg15
I01
sg16
I12
sg17
I111
sbs(I17
I2
tp75
g1
(g10
g3
NtRp76
(dp77
g13
F-11.195057504827091
sg14
I17
sg15
I01
sg16
I2
sg17
I202
sbs(I13
I7
tp78
g1
(g10
g3
NtRp79
(dp80
g13
F-6.7309208966869205
sg14
I13
sg15
I01
sg16
I7
sg17
I108
sbs(I9
I17
tp81
g1
(g10
g3
NtRp82
(dp83
g13
F-2.0938669791228999
sg14
I9
sg15
I01
sg16
I17
sg17
I258
sbs(I18
I9
tp84
g1
(g10
g3
NtRp85
(dp86
g13
F-11.946136798593155
sg14
I18
sg15
I01
sg16
I9
sg17
I268
sbs(I2
I2
tp87
g1
(g10
g3
NtRp88
(dp89
g13
F6.8093420490112022
sg14
I2
sg15
I01
sg16
I2
sg17
I2
sbs(I15
I4
tp90
g1
(g10
g3
NtRp91
(dp92
g13
F11.767427289326905
sg14
I15
sg15
I01
sg16
I4
sg17
I173
sbs(I10
I2
tp93
g1
(g10
g3
NtRp94
(dp95
g13
F23.666129394708772
sg14
I10
sg15
I01
sg16
I2
sg17
I66
sbs(I15
I12
tp96
g1
(g10
g3
NtRp97
(dp98
g13
F-9.9377058693690472
sg14
I15
sg15
I01
sg16
I12
sg17
I159
sbs(I3
I2
tp99
g1
(g10
g3
NtRp100
(dp101
g13
F11.139143266671773
sg14
I3
sg15
I01
sg16
I2
sg17
I4
sbs(I6
I6
tp102
g1
(g10
g3
NtRp103
(dp104
g13
F10.75185907431001
sg14
I6
sg15
I01
sg16
I6
sg17
I37
sbs(I12
I14
tp105
g1
(g10
g3
NtRp106
(dp107
g13
F-4.4060849974418232
sg14
I12
sg15
I01
sg16
I14
sg17
I131
sbs(I5
I11
tp108
g1
(g10
g3
NtRp109
(dp110
g13
F16.730561975618485
sg14
I5
sg15
I01
sg16
I11
sg17
I90
sbs(I9
I3
tp111
g1
(g10
g3
NtRp112
(dp113
g13
F-20.698092397099781
sg14
I9
sg15
I01
sg16
I3
sg17
I60
sbs(I9
I16
tp114
g1
(g10
g3
NtRp115
(dp116
g13
F18.2708623019371
sg14
I9
sg15
I01
sg16
I16
sg17
I240
sbs(I2
I3
tp117
g1
(g10
g3
NtRp118
(dp119
g13
F-4.5050941955723385
sg14
I2
sg15
I01
sg16
I3
sg17
I5
sbs(I1
I9
tp120
g1
(g10
g3
NtRp121
(dp122
g13
F15.036576041743837
sg14
I1
sg15
I01
sg16
I9
sg17
I47
sbs(I4
I2
tp123
g1
(g10
g3
NtRp124
(dp125
g13
F-30
sg14
I4
sg15
I01
sg16
I2
sg17
I7
sbs(I14
I2
tp126
g1
(g10
g3
NtRp127
(dp128
g13
F10.667811706264203
sg14
I14
sg15
I01
sg16
I2
sg17
I125
sbs(I4
I11
tp129
g1
(g10
g3
NtRp130
(dp131
g13
F-24.506945826415411
sg14
I4
sg15
I01
sg16
I11
sg17
I86
sbs(I3
I5
tp132
g1
(g10
g3
NtRp133
(dp134
g13
F3.1684335940097057
sg14
I3
sg15
I01
sg16
I5
sg17
I12
sbs(I10
I5
tp135
g1
(g10
g3
NtRp136
(dp137
g13
F18.598808157396466
sg14
I10
sg15
I01
sg16
I5
sg17
I79
sbs(I6
I5
tp138
g1
(g10
g3
NtRp139
(dp140
g13
F-20.084298988793567
sg14
I6
sg15
I01
sg16
I5
sg17
I28
sbs(I9
I2
tp141
g1
(g10
g3
NtRp142
(dp143
g13
F1.4035683572318978
sg14
I9
sg15
I00
sg16
I2
sg17
I48
sbs(I7
I14
tp144
g1
(g10
g3
NtRp145
(dp146
g13
F-13.502732783622726
sg14
I7
sg15
I01
sg16
I14
sg17
I162
sbs(I19
I2
tp147
g1
(g10
g3
NtRp148
(dp149
g13
F22.686560591936466
sg14
I19
sg15
I01
sg16
I2
sg17
I245
sbs(I12
I19
tp150
g1
(g10
g3
NtRp151
(dp152
g13
F5.0226619041661387
sg14
I12
sg15
I01
sg16
I19
sg17
I284
sbs(I3
I6
tp153
g1
(g10
g3
NtRp154
(dp155
g13
F-23.391616539773139
sg14
I3
sg15
I01
sg16
I6
sg17
I22
sbs(I18
I7
tp156
g1
(g10
g3
NtRp157
(dp158
g13
F4.6112403996880085
sg14
I18
sg15
I01
sg16
I7
sg17
I272
sbs(I11
I8
tp159
g1
(g10
g3
NtRp160
(dp161
g13
F14.579991599527865
sg14
I11
sg15
I01
sg16
I8
sg17
I91
sbs(I13
I18
tp162
g1
(g10
g3
NtRp163
(dp164
g13
F5.5419070520287876
sg14
I13
sg15
I01
sg16
I18
sg17
I271
sbs(I4
I3
tp165
g1
(g10
g3
NtRp166
(dp167
g13
F-8.1964865788612755
sg14
I4
sg15
I01
sg16
I3
sg17
I10
sbs(I2
I15
tp168
g1
(g10
g3
NtRp169
(dp170
g13
F-6.7209105613217517
sg14
I2
sg15
I01
sg16
I15
sg17
I172
sbs(I13
I9
tp171
g1
(g10
g3
NtRp172
(dp173
g13
F-3.3782160723737942
sg14
I13
sg15
I01
sg16
I9
sg17
I137
sbs(I4
I8
tp174
g1
(g10
g3
NtRp175
(dp176
g13
F-5.7138541868326529
sg14
I4
sg15
I01
sg16
I8
sg17
I38
sbs(I5
I2
tp177
g1
(g10
g3
NtRp178
(dp179
g13
F-6.6362134844051059
sg14
I5
sg15
I01
sg16
I2
sg17
I21
sbs(I2
I4
tp180
g1
(g10
g3
NtRp181
(dp182
g13
F30
sg14
I2
sg15
I01
sg16
I4
sg17
I16
sbs(I11
I6
tp183
g1
(g10
g3
NtRp184
(dp185
g13
F-3.7442221553000548
sg14
I11
sg15
I01
sg16
I6
sg17
I110
sbs(I8
I4
tp186
g1
(g10
g3
NtRp187
(dp188
g13
F6.2528496380470298
sg14
I8
sg15
I01
sg16
I4
sg17
I41
sbssS'_input_nodes'
p189
I1
sS'_output_nodes'
p190
I1
sS'_node_gene_type'
p191
cneat.genome
NodeGene
p192
sS'_conn_gene_type'
p193
g10
sS'fitness'
p194
F0.99895384273805232
sS'parent2_id'
p195
I18495
sS'_id'
p196
I18543
sS'parent1_id'
p197
I18495
sS'_node_genes'
p198
(lp199
g1
(g192
g3
NtRp200
(dp201
S'_bias'
p202
I0
sS'_type'
p203
S'INPUT'
p204
sg196
I1
sS'_response'
p205
F4.9242730000000003
sS'_activation_type'
p206
Nsbag1
(g192
g3
NtRp207
(dp208
g202
F-0.44804928086401363
sg203
S'OUTPUT'
p209
sg196
I2
sg205
F10.166121921725484
sg206
S'tanh'
p210
sbag1
(g192
g3
NtRp211
(dp212
g202
F-4.4676158328723083
sg203
S'HIDDEN'
p213
sg196
I3
sg205
F7.8637447356358576
sg206
g210
sbag1
(g192
g3
NtRp214
(dp215
g202
F2.4345263793574685
sg203
g213
sg196
I4
sg205
F-3.0171039266941042
sg206
g210
sbag1
(g192
g3
NtRp216
(dp217
g202
F-2.8383599581251944
sg203
g213
sg196
I5
sg205
F7.0886734569698282
sg206
g210
sbag1
(g192
g3
NtRp218
(dp219
g202
F-0.10414295328904023
sg203
g213
sg196
I6
sg205
F10.885140979842324
sg206
g210
sbag1
(g192
g3
NtRp220
(dp221
g202
F1.414092621593491
sg203
g213
sg196
I7
sg205
F10.793183173754169
sg206
g210
sbag1
(g192
g3
NtRp222
(dp223
g202
F-0.33266179040781968
sg203
g213
sg196
I8
sg205
F3.8243757291658689
sg206
g210
sbag1
(g192
g3
NtRp224
(dp225
g202
F3.3645799304696333
sg203
g213
sg196
I9
sg205
F0.88307653421135579
sg206
g210
sbag1
(g192
g3
NtRp226
(dp227
g202
F3.924564884410453
sg203
g213
sg196
I10
sg205
F4.6941428540011501
sg206
g210
sbag1
(g192
g3
NtRp228
(dp229
g202
F-4.8515796607268555
sg203
g213
sg196
I11
sg205
F9.892114359681079
sg206
g210
sbag1
(g192
g3
NtRp230
(dp231
g202
F2.8652817007437226
sg203
g213
sg196
I12
sg205
F7.3360493724017388
sg206
g210
sbag1
(g192
g3
NtRp232
(dp233
g202
F1.9165459183037259
sg203
g213
sg196
I13
sg205
F2.292469042365759
sg206
g210
sbag1
(g192
g3
NtRp234
(dp235
g202
F1.4141886184287711
sg203
g213
sg196
I14
sg205
F5.1137757900263781
sg206
g210
sbag1
(g192
g3
NtRp236
(dp237
g202
F-0.2733138792865506
sg203
g213
sg196
I15
sg205
F11.289598120167298
sg206
g210
sbag1
(g192
g3
NtRp238
(dp239
g202
F-1.9535116759490363
sg203
g213
sg196
I16
sg205
F7.5846438575719874
sg206
g210
sbag1
(g192
g3
NtRp240
(dp241
g202
F-1.1897273026426742
sg203
g213
sg196
I17
sg205
F1.946414191325889
sg206
g210
sbag1
(g192
g3
NtRp242
(dp243
g202
F0.60874691457602303
sg203
g213
sg196
I18
sg205
F4.0633780650361855
sg206
g210
sbag1
(g192
g3
NtRp244
(dp245
g202
F2.2523386370352556
sg203
g213
sg196
I19
sg205
F4.9638647523247181
sg206
g210
sbasb.