ccopy_reg
_reconstructor
p1
(cneat.chromosome
Chromosome
p2
c__builtin__
object
p3
NtRp4
(dp5
S'species_id'
p6
I152
sS'_connection_genes'
p7
(dp8
(I7
I3
tp9
g1
(cneat.genome
ConnectionGene
p10
g3
NtRp11
(dp12
S'_ConnectionGene__weight'
p13
F26.365745072598401
sS'_ConnectionGene__in'
p14
I7
sS'_ConnectionGene__enabled'
p15
I01
sS'_ConnectionGene__out'
p16
I3
sS'_ConnectionGene__innov_number'
p17
I36
sbs(I1
I3
tp18
g1
(g10
g3
NtRp19
(dp20
g13
F-17.864804656372232
sg14
I1
sg15
I01
sg16
I3
sg17
I3
sbs(I5
I9
tp21
g1
(g10
g3
NtRp22
(dp23
g13
F-7.8016481267630358
sg14
I5
sg15
I01
sg16
I9
sg17
I100
sbs(I16
I9
tp24
g1
(g10
g3
NtRp25
(dp26
g13
F14.727534087482921
sg14
I16
sg15
I01
sg16
I9
sg17
I236
sbs(I11
I8
tp27
g1
(g10
g3
NtRp28
(dp29
g13
F12.539613512570076
sg14
I11
sg15
I01
sg16
I8
sg17
I91
sbs(I3
I13
tp30
g1
(g10
g3
NtRp31
(dp32
g13
F29.813121072298106
sg14
I3
sg15
I01
sg16
I13
sg17
I107
sbs(I5
I4
tp33
g1
(g10
g3
NtRp34
(dp35
g13
F9.0582285213543088
sg14
I5
sg15
I01
sg16
I4
sg17
I13
sbs(I21
I9
tp36
g1
(g10
g3
NtRp37
(dp38
g13
F-3.5550954736916696
sg14
I21
sg15
I01
sg16
I9
sg17
I377
sbs(I22
I9
tp39
g1
(g10
g3
NtRp40
(dp41
g13
F26.845130247295916
sg14
I22
sg15
I01
sg16
I9
sg17
I358
sbs(I18
I19
tp42
g1
(g10
g3
NtRp43
(dp44
g13
F-1.1397811858619922
sg14
I18
sg15
I01
sg16
I19
sg17
I456
sbs(I2
I12
tp45
g1
(g10
g3
NtRp46
(dp47
g13
F-13.979326381598799
sg14
I2
sg15
I01
sg16
I12
sg17
I135
sbs(I7
I11
tp48
g1
(g10
g3
NtRp49
(dp50
g13
F-21.393337578207539
sg14
I7
sg15
I01
sg16
I11
sg17
I92
sbs(I3
I7
tp51
g1
(g10
g3
NtRp52
(dp53
g13
F17.133209435622433
sg14
I3
sg15
I00
sg16
I7
sg17
I49
sbs(I14
I9
tp54
g1
(g10
g3
NtRp55
(dp56
g13
F19.478547933090812
sg14
I14
sg15
I01
sg16
I9
sg17
I130
sbs(I23
I7
tp57
g1
(g10
g3
NtRp58
(dp59
g13
F-4.9873990121757528
sg14
I23
sg15
I01
sg16
I7
sg17
I466
sbs(I5
I8
tp60
g1
(g10
g3
NtRp61
(dp62
g13
F15.028628030264491
sg14
I5
sg15
I01
sg16
I8
sg17
I45
sbs(I1
I2
tp63
g1
(g10
g3
NtRp64
(dp65
g13
F-13.344927821508252
sg14
I1
sg15
I01
sg16
I2
sg17
I1
sbs(I12
I2
tp66
g1
(g10
g3
NtRp67
(dp68
g13
F23.399772794780201
sg14
I12
sg15
I01
sg16
I2
sg17
I104
sbs(I4
I9
tp69
g1
(g10
g3
NtRp70
(dp71
g13
F-20.063682079813308
sg14
I4
sg15
I01
sg16
I9
sg17
I57
sbs(I3
I3
tp72
g1
(g10
g3
NtRp73
(dp74
g13
F-12.067411413718455
sg14
I3
sg15
I01
sg16
I3
sg17
I8
sbs(I2
I9
tp75
g1
(g10
g3
NtRp76
(dp77
g13
F23.800697145084072
sg14
I2
sg15
I01
sg16
I9
sg17
I144
sbs(I3
I10
tp78
g1
(g10
g3
NtRp79
(dp80
g13
F23.511438258412614
sg14
I3
sg15
I01
sg16
I10
sg17
I76
sbs(I4
I4
tp81
g1
(g10
g3
NtRp82
(dp83
g13
F5.5227845925046832
sg14
I4
sg15
I01
sg16
I4
sg17
I11
sbs(I10
I12
tp84
g1
(g10
g3
NtRp85
(dp86
g13
F2.5706090189139559
sg14
I10
sg15
I01
sg16
I12
sg17
I111
sbs(I17
I2
tp87
g1
(g10
g3
NtRp88
(dp89
g13
F-6.3649783004380733
sg14
I17
sg15
I01
sg16
I2
sg17
I202
sbs(I4
I8
tp90
g1
(g10
g3
NtRp91
(dp92
g13
F-13.555042758825476
sg14
I4
sg15
I01
sg16
I8
sg17
I38
sbs(I13
I7
tp93
g1
(g10
g3
NtRp94
(dp95
g13
F-18.815683820420624
sg14
I13
sg15
I01
sg16
I7
sg17
I108
sbs(I9
I17
tp96
g1
(g10
g3
NtRp97
(dp98
g13
F11.806255290039747
sg14
I9
sg15
I01
sg16
I17
sg17
I258
sbs(I18
I9
tp99
g1
(g10
g3
NtRp100
(dp101
g13
F-4.8020199537108263
sg14
I18
sg15
I00
sg16
I9
sg17
I268
sbs(I2
I2
tp102
g1
(g10
g3
NtRp103
(dp104
g13
F3.7928368115628865
sg14
I2
sg15
I01
sg16
I2
sg17
I2
sbs(I15
I4
tp105
g1
(g10
g3
NtRp106
(dp107
g13
F0.82607383537516554
sg14
I15
sg15
I01
sg16
I4
sg17
I173
sbs(I15
I19
tp108
g1
(g10
g3
NtRp109
(dp110
g13
F1.6354432309855924
sg14
I15
sg15
I01
sg16
I19
sg17
I345
sbs(I10
I2
tp111
g1
(g10
g3
NtRp112
(dp113
g13
F9.8195697982623233
sg14
I10
sg15
I01
sg16
I2
sg17
I66
sbs(I15
I12
tp114
g1
(g10
g3
NtRp115
(dp116
g13
F13.893179406705181
sg14
I15
sg15
I01
sg16
I12
sg17
I159
sbs(I3
I2
tp117
g1
(g10
g3
NtRp118
(dp119
g13
F26.686825322804218
sg14
I3
sg15
I01
sg16
I2
sg17
I4
sbs(I6
I6
tp120
g1
(g10
g3
NtRp121
(dp122
g13
F15.846711902451423
sg14
I6
sg15
I01
sg16
I6
sg17
I37
sbs(I12
I14
tp123
g1
(g10
g3
NtRp124
(dp125
g13
F-18.295463562956634
sg14
I12
sg15
I01
sg16
I14
sg17
I131
sbs(I5
I11
tp126
g1
(g10
g3
NtRp127
(dp128
g13
F-11.012521357434917
sg14
I5
sg15
I01
sg16
I11
sg17
I90
sbs(I9
I3
tp129
g1
(g10
g3
NtRp130
(dp131
g13
F-20.167083379400857
sg14
I9
sg15
I01
sg16
I3
sg17
I60
sbs(I9
I16
tp132
g1
(g10
g3
NtRp133
(dp134
g13
F23.213777463849251
sg14
I9
sg15
I01
sg16
I16
sg17
I240
sbs(I1
I19
tp135
g1
(g10
g3
NtRp136
(dp137
g13
F-10.813620327989856
sg14
I1
sg15
I01
sg16
I19
sg17
I304
sbs(I2
I3
tp138
g1
(g10
g3
NtRp139
(dp140
g13
F8.484606957954524
sg14
I2
sg15
I01
sg16
I3
sg17
I5
sbs(I1
I9
tp141
g1
(g10
g3
NtRp142
(dp143
g13
F28.197620789788317
sg14
I1
sg15
I00
sg16
I9
sg17
I47
sbs(I20
I5
tp144
g1
(g10
g3
NtRp145
(dp146
g13
F-29.641741537549674
sg14
I20
sg15
I01
sg16
I5
sg17
I342
sbs(I4
I2
tp147
g1
(g10
g3
NtRp148
(dp149
g13
F-28.594055057510925
sg14
I4
sg15
I01
sg16
I2
sg17
I7
sbs(I18
I21
tp150
g1
(g10
g3
NtRp151
(dp152
g13
F0.11649684923009151
sg14
I18
sg15
I01
sg16
I21
sg17
I448
sbs(I14
I2
tp153
g1
(g10
g3
NtRp154
(dp155
g13
F-4.9294306001852091
sg14
I14
sg15
I01
sg16
I2
sg17
I125
sbs(I4
I11
tp156
g1
(g10
g3
NtRp157
(dp158
g13
F-17.442065854122319
sg14
I4
sg15
I01
sg16
I11
sg17
I86
sbs(I3
I5
tp159
g1
(g10
g3
NtRp160
(dp161
g13
F22.087058900135563
sg14
I3
sg15
I01
sg16
I5
sg17
I12
sbs(I10
I5
tp162
g1
(g10
g3
NtRp163
(dp164
g13
F23.544918714098948
sg14
I10
sg15
I01
sg16
I5
sg17
I79
sbs(I19
I9
tp165
g1
(g10
g3
NtRp166
(dp167
g13
F20.059091455567916
sg14
I19
sg15
I01
sg16
I9
sg17
I290
sbs(I1
I22
tp168
g1
(g10
g3
NtRp169
(dp170
g13
F4.654898844131413
sg14
I1
sg15
I01
sg16
I22
sg17
I461
sbs(I9
I2
tp171
g1
(g10
g3
NtRp172
(dp173
g13
F-13.915340087645834
sg14
I9
sg15
I00
sg16
I2
sg17
I48
sbs(I7
I14
tp174
g1
(g10
g3
NtRp175
(dp176
g13
F-12.346987742648961
sg14
I7
sg15
I01
sg16
I14
sg17
I162
sbs(I9
I9
tp177
g1
(g10
g3
NtRp178
(dp179
g13
F21.681467999580647
sg14
I9
sg15
I00
sg16
I9
sg17
I73
sbs(I3
I6
tp180
g1
(g10
g3
NtRp181
(dp182
g13
F-23.037637835886194
sg14
I3
sg15
I01
sg16
I6
sg17
I22
sbs(I18
I7
tp183
g1
(g10
g3
NtRp184
(dp185
g13
F-3.1601982787312375
sg14
I18
sg15
I00
sg16
I7
sg17
I272
sbs(I6
I20
tp186
g1
(g10
g3
NtRp187
(dp188
g13
F-7.6230110315121502
sg14
I6
sg15
I01
sg16
I20
sg17
I341
sbs(I18
I23
tp189
g1
(g10
g3
NtRp190
(dp191
g13
F0.30311097869897785
sg14
I18
sg15
I01
sg16
I23
sg17
I465
sbs(I13
I18
tp192
g1
(g10
g3
NtRp193
(dp194
g13
F-1.2330087475681439
sg14
I13
sg15
I01
sg16
I18
sg17
I271
sbs(I4
I3
tp195
g1
(g10
g3
NtRp196
(dp197
g13
F14.08137362226298
sg14
I4
sg15
I01
sg16
I3
sg17
I10
sbs(I2
I15
tp198
g1
(g10
g3
NtRp199
(dp200
g13
F8.2970730724946051
sg14
I2
sg15
I01
sg16
I15
sg17
I172
sbs(I6
I5
tp201
g1
(g10
g3
NtRp202
(dp203
g13
F-26.371862299316813
sg14
I6
sg15
I00
sg16
I5
sg17
I28
sbs(I9
I19
tp204
g1
(g10
g3
NtRp205
(dp206
g13
F15.994975905521331
sg14
I9
sg15
I01
sg16
I19
sg17
I312
sbs(I5
I2
tp207
g1
(g10
g3
NtRp208
(dp209
g13
F-9.4069016477772625
sg14
I5
sg15
I01
sg16
I2
sg17
I21
sbs(I2
I4
tp210
g1
(g10
g3
NtRp211
(dp212
g13
F23.875766588581232
sg14
I2
sg15
I01
sg16
I4
sg17
I16
sbs(I11
I6
tp213
g1
(g10
g3
NtRp214
(dp215
g13
F-28.146163004668715
sg14
I11
sg15
I01
sg16
I6
sg17
I110
sbs(I8
I4
tp216
g1
(g10
g3
NtRp217
(dp218
g13
F22.262974012922236
sg14
I8
sg15
I01
sg16
I4
sg17
I41
sbssS'_input_nodes'
p219
I1
sS'_output_nodes'
p220
I1
sS'_node_gene_type'
p221
cneat.genome
NodeGene
p222
sS'_conn_gene_type'
p223
g10
sS'fitness'
p224
F0.97773753109757144
sS'parent2_id'
p225
I22021
sS'_id'
p226
I22064
sS'parent1_id'
p227
I22021
sS'_node_genes'
p228
(lp229
g1
(g222
g3
NtRp230
(dp231
S'_bias'
p232
I0
sS'_type'
p233
S'INPUT'
p234
sg226
I1
sS'_response'
p235
F4.9242730000000003
sS'_activation_type'
p236
Nsbag1
(g222
g3
NtRp237
(dp238
g232
F0.6925880718967713
sg233
S'OUTPUT'
p239
sg226
I2
sg235
F10.11431519214617
sg236
S'tanh'
p240
sbag1
(g222
g3
NtRp241
(dp242
g232
F-5.5991821625523794
sg233
S'HIDDEN'
p243
sg226
I3
sg235
F6.1449776318473255
sg236
g240
sbag1
(g222
g3
NtRp244
(dp245
g232
F0.62588741742251375
sg233
g243
sg226
I4
sg235
F-2.9807203774193392
sg236
g240
sbag1
(g222
g3
NtRp246
(dp247
g232
F-6.9072431777628429
sg233
g243
sg226
I5
sg235
F7.1064796508365919
sg236
g240
sbag1
(g222
g3
NtRp248
(dp249
g232
F2.5213717076538216
sg233
g243
sg226
I6
sg235
F11.532459552469467
sg236
g240
sbag1
(g222
g3
NtRp250
(dp251
g232
F-2.2805108566756935
sg233
g243
sg226
I7
sg235
F13.424620636618011
sg236
g240
sbag1
(g222
g3
NtRp252
(dp253
g232
F-2.3475129341113226
sg233
g243
sg226
I8
sg235
F3.4499145430839544
sg236
g240
sbag1
(g222
g3
NtRp254
(dp255
g232
F-0.32552539413871839
sg233
g243
sg226
I9
sg235
F-0.46660278976631864
sg236
g240
sbag1
(g222
g3
NtRp256
(dp257
g232
F9.4002995333074431
sg233
g243
sg226
I10
sg235
F1.6339364739638667
sg236
g240
sbag1
(g222
g3
NtRp258
(dp259
g232
F-7.7827231814733935
sg233
g243
sg226
I11
sg235
F10.116144783451338
sg236
g240
sbag1
(g222
g3
NtRp260
(dp261
g232
F1.187619394148862
sg233
g243
sg226
I12
sg235
F6.9168965062427139
sg236
g240
sbag1
(g222
g3
NtRp262
(dp263
g232
F3.3855658005127789
sg233
g243
sg226
I13
sg235
F4.5695795650524191
sg236
g240
sbag1
(g222
g3
NtRp264
(dp265
g232
F-2.0864197537561999
sg233
g243
sg226
I14
sg235
F4.7055816721162422
sg236
g240
sbag1
(g222
g3
NtRp266
(dp267
g232
F-3.5989297552380854
sg233
g243
sg226
I15
sg235
F14.28795731181998
sg236
g240
sbag1
(g222
g3
NtRp268
(dp269
g232
F1.7401814071846817
sg233
g243
sg226
I16
sg235
F10.212947948477733
sg236
g240
sbag1
(g222
g3
NtRp270
(dp271
g232
F1.4513074959750345
sg233
g243
sg226
I17
sg235
F2.5263012589762663
sg236
g240
sbag1
(g222
g3
NtRp272
(dp273
g232
F4.4713932512721453
sg233
g243
sg226
I18
sg235
F2.7486048588606398
sg236
g240
sbag1
(g222
g3
NtRp274
(dp275
g232
F0.36706591290833923
sg233
g243
sg226
I19
sg235
F7.094335223625734
sg236
g240
sbag1
(g222
g3
NtRp276
(dp277
g232
F1.0910972948376978
sg233
g243
sg226
I20
sg235
F2.2727091822581209
sg236
g240
sbag1
(g222
g3
NtRp278
(dp279
g232
I0
sg233
g243
sg226
I21
sg235
F5.4736798525811983
sg236
g240
sbag1
(g222
g3
NtRp280
(dp281
g232
F0.37404114826665558
sg233
g243
sg226
I22
sg235
F5.4138071063975648
sg236
g240
sbag1
(g222
g3
NtRp282
(dp283
g232
I0
sg233
g243
sg226
I23
sg235
F4.9242730000000003
sg236
g240
sbasb.