ccopy_reg
_reconstructor
p1
(cneat.chromosome
Chromosome
p2
c__builtin__
object
p3
NtRp4
(dp5
S'species_id'
p6
I68
sS'_connection_genes'
p7
(dp8
(I7
I3
tp9
g1
(cneat.genome
ConnectionGene
p10
g3
NtRp11
(dp12
S'_ConnectionGene__weight'
p13
F25.072547627817496
sS'_ConnectionGene__in'
p14
I7
sS'_ConnectionGene__enabled'
p15
I01
sS'_ConnectionGene__out'
p16
I3
sS'_ConnectionGene__innov_number'
p17
I36
sbs(I6
I9
tp18
g1
(g10
g3
NtRp19
(dp20
g13
F-3.0931467342758969
sg14
I6
sg15
I01
sg16
I9
sg17
I81
sbs(I1
I3
tp21
g1
(g10
g3
NtRp22
(dp23
g13
F-10.088094628020198
sg14
I1
sg15
I01
sg16
I3
sg17
I3
sbs(I5
I9
tp24
g1
(g10
g3
NtRp25
(dp26
g13
F2.2912685865171447
sg14
I5
sg15
I01
sg16
I9
sg17
I100
sbs(I5
I4
tp27
g1
(g10
g3
NtRp28
(dp29
g13
F5.0249457276861147
sg14
I5
sg15
I01
sg16
I4
sg17
I13
sbs(I3
I7
tp30
g1
(g10
g3
NtRp31
(dp32
g13
F-8.7191990709532021
sg14
I3
sg15
I01
sg16
I7
sg17
I49
sbs(I12
I9
tp33
g1
(g10
g3
NtRp34
(dp35
g13
F-0.13124827704025877
sg14
I12
sg15
I01
sg16
I9
sg17
I109
sbs(I1
I2
tp36
g1
(g10
g3
NtRp37
(dp38
g13
F-24.588933949500394
sg14
I1
sg15
I01
sg16
I2
sg17
I1
sbs(I4
I9
tp39
g1
(g10
g3
NtRp40
(dp41
g13
F16.061089131268364
sg14
I4
sg15
I01
sg16
I9
sg17
I57
sbs(I3
I3
tp42
g1
(g10
g3
NtRp43
(dp44
g13
F-17.435436167184822
sg14
I3
sg15
I01
sg16
I3
sg17
I8
sbs(I3
I10
tp45
g1
(g10
g3
NtRp46
(dp47
g13
F10.427338857781159
sg14
I3
sg15
I01
sg16
I10
sg17
I76
sbs(I6
I6
tp48
g1
(g10
g3
NtRp49
(dp50
g13
F-2.9773607412155974
sg14
I6
sg15
I01
sg16
I6
sg17
I37
sbs(I4
I4
tp51
g1
(g10
g3
NtRp52
(dp53
g13
F1.0090365915255699
sg14
I4
sg15
I00
sg16
I4
sg17
I11
sbs(I4
I8
tp54
g1
(g10
g3
NtRp55
(dp56
g13
F-1.7146202027012178
sg14
I4
sg15
I00
sg16
I8
sg17
I38
sbs(I4
I11
tp57
g1
(g10
g3
NtRp58
(dp59
g13
F5.4703430525696968
sg14
I4
sg15
I01
sg16
I11
sg17
I86
sbs(I3
I6
tp60
g1
(g10
g3
NtRp61
(dp62
g13
F-9.896529808088129
sg14
I3
sg15
I01
sg16
I6
sg17
I22
sbs(I3
I2
tp63
g1
(g10
g3
NtRp64
(dp65
g13
F17.124448217187275
sg14
I3
sg15
I00
sg16
I2
sg17
I4
sbs(I9
I3
tp66
g1
(g10
g3
NtRp67
(dp68
g13
F-10.393556430733646
sg14
I9
sg15
I01
sg16
I3
sg17
I60
sbs(I2
I3
tp69
g1
(g10
g3
NtRp70
(dp71
g13
F-1.951417666069645
sg14
I2
sg15
I01
sg16
I3
sg17
I5
sbs(I1
I9
tp72
g1
(g10
g3
NtRp73
(dp74
g13
F5.6094575723427909
sg14
I1
sg15
I01
sg16
I9
sg17
I47
sbs(I6
I5
tp75
g1
(g10
g3
NtRp76
(dp77
g13
F-6.1922613388111944
sg14
I6
sg15
I01
sg16
I5
sg17
I28
sbs(I3
I5
tp78
g1
(g10
g3
NtRp79
(dp80
g13
F5.6791982806578911
sg14
I3
sg15
I01
sg16
I5
sg17
I12
sbs(I10
I5
tp81
g1
(g10
g3
NtRp82
(dp83
g13
F6.4841047682230561
sg14
I10
sg15
I01
sg16
I5
sg17
I79
sbs(I9
I2
tp84
g1
(g10
g3
NtRp85
(dp86
g13
F-1.4968838835289837
sg14
I9
sg15
I01
sg16
I2
sg17
I48
sbs(I9
I9
tp87
g1
(g10
g3
NtRp88
(dp89
g13
F-0.77896425129790337
sg14
I9
sg15
I00
sg16
I9
sg17
I73
sbs(I11
I8
tp90
g1
(g10
g3
NtRp91
(dp92
g13
F1.6013461004630043
sg14
I11
sg15
I01
sg16
I8
sg17
I91
sbs(I4
I3
tp93
g1
(g10
g3
NtRp94
(dp95
g13
F-7.3412054208059185
sg14
I4
sg15
I01
sg16
I3
sg17
I10
sbs(I10
I2
tp96
g1
(g10
g3
NtRp97
(dp98
g13
F26.868150640526981
sg14
I10
sg15
I01
sg16
I2
sg17
I66
sbs(I5
I2
tp99
g1
(g10
g3
NtRp100
(dp101
g13
F-13.990911938753293
sg14
I5
sg15
I01
sg16
I2
sg17
I21
sbs(I2
I4
tp102
g1
(g10
g3
NtRp103
(dp104
g13
F25.088117644090541
sg14
I2
sg15
I01
sg16
I4
sg17
I16
sbs(I9
I12
tp105
g1
(g10
g3
NtRp106
(dp107
g13
F2.3439127449332
sg14
I9
sg15
I01
sg16
I12
sg17
I127
sbs(I8
I4
tp108
g1
(g10
g3
NtRp109
(dp110
g13
F-0.80176474388874619
sg14
I8
sg15
I01
sg16
I4
sg17
I41
sbssS'_input_nodes'
p111
I1
sS'_output_nodes'
p112
I1
sS'_node_gene_type'
p113
cneat.genome
NodeGene
p114
sS'_conn_gene_type'
p115
g10
sS'fitness'
p116
F0.97866305581178326
sS'parent2_id'
p117
I10250
sS'_id'
p118
I10293
sS'parent1_id'
p119
I10249
sS'_node_genes'
p120
(lp121
g1
(g114
g3
NtRp122
(dp123
S'_bias'
p124
I0
sS'_type'
p125
S'INPUT'
p126
sg118
I1
sS'_response'
p127
F4.9242730000000003
sS'_activation_type'
p128
Nsbag1
(g114
g3
NtRp129
(dp130
g124
F-0.49587313125699251
sg125
S'OUTPUT'
p131
sg118
I2
sg127
F2.8726965767916637
sg128
S'tanh'
p132
sbag1
(g114
g3
NtRp133
(dp134
g124
F-2.4622198646338527
sg125
S'HIDDEN'
p135
sg118
I3
sg127
F6.827897704597258
sg128
g132
sbag1
(g114
g3
NtRp136
(dp137
g124
F2.2173957717313293
sg125
g135
sg118
I4
sg127
F1.7603847771677579
sg128
g132
sbag1
(g114
g3
NtRp138
(dp139
g124
F-3.1467974997492449
sg125
g135
sg118
I5
sg127
F6.0984984258169739
sg128
g132
sbag1
(g114
g3
NtRp140
(dp141
g124
F0.28013101916674066
sg125
g135
sg118
I6
sg127
F10.434095335900416
sg128
g132
sbag1
(g114
g3
NtRp142
(dp143
g124
F-0.69945808017123523
sg125
g135
sg118
I7
sg127
F11.189284485387791
sg128
g132
sbag1
(g114
g3
NtRp144
(dp145
g124
F-3.4573859029726917
sg125
g135
sg118
I8
sg127
F3.6249641938785406
sg128
g132
sbag1
(g114
g3
NtRp146
(dp147
g124
F1.9607390260756583
sg125
g135
sg118
I9
sg127
F2.1720031337417027
sg128
g132
sbag1
(g114
g3
NtRp148
(dp149
g124
F2.9962373209903035
sg125
g135
sg118
I10
sg127
F3.340718904350191
sg128
g132
sbag1
(g114
g3
NtRp150
(dp151
g124
F-0.080064889561863042
sg125
g135
sg118
I11
sg127
F5.8434376824697658
sg128
g132
sbag1
(g114
g3
NtRp152
(dp153
g124
F-0.55900290596867941
sg125
g135
sg118
I12
sg127
F2.9564549466081722
sg128
g132
sbasb.