ccopy_reg
_reconstructor
p1
(cneat.chromosome
Chromosome
p2
c__builtin__
object
p3
NtRp4
(dp5
S'species_id'
p6
I113
sS'_connection_genes'
p7
(dp8
(I5
I9
tp9
g1
(cneat.genome
ConnectionGene
p10
g3
NtRp11
(dp12
S'_ConnectionGene__weight'
p13
F-0.23064352179519565
sS'_ConnectionGene__in'
p14
I5
sS'_ConnectionGene__enabled'
p15
I01
sS'_ConnectionGene__out'
p16
I9
sS'_ConnectionGene__innov_number'
p17
I100
sbs(I1
I3
tp18
g1
(g10
g3
NtRp19
(dp20
g13
F-14.785582656920901
sg14
I1
sg15
I01
sg16
I3
sg17
I3
sbs(I7
I3
tp21
g1
(g10
g3
NtRp22
(dp23
g13
F27.052078897362541
sg14
I7
sg15
I01
sg16
I3
sg17
I36
sbs(I11
I2
tp24
g1
(g10
g3
NtRp25
(dp26
g13
F22.11150268908159
sg14
I11
sg15
I01
sg16
I2
sg17
I89
sbs(I3
I2
tp27
g1
(g10
g3
NtRp28
(dp29
g13
F9.8044654129729434
sg14
I3
sg15
I01
sg16
I2
sg17
I4
sbs(I10
I15
tp30
g1
(g10
g3
NtRp31
(dp32
g13
F3.6035726356628772
sg14
I10
sg15
I01
sg16
I15
sg17
I169
sbs(I11
I8
tp33
g1
(g10
g3
NtRp34
(dp35
g13
F-15.702936801871559
sg14
I11
sg15
I01
sg16
I8
sg17
I91
sbs(I13
I8
tp36
g1
(g10
g3
NtRp37
(dp38
g13
F-7.093696883261531
sg14
I13
sg15
I01
sg16
I8
sg17
I177
sbs(I4
I2
tp39
g1
(g10
g3
NtRp40
(dp41
g13
F-3.3996553276080874
sg14
I4
sg15
I01
sg16
I2
sg17
I7
sbs(I3
I7
tp42
g1
(g10
g3
NtRp43
(dp44
g13
F-6.3241105796286634
sg14
I3
sg15
I01
sg16
I7
sg17
I49
sbs(I1
I11
tp45
g1
(g10
g3
NtRp46
(dp47
g13
F-7.7823950512367635
sg14
I1
sg15
I01
sg16
I11
sg17
I88
sbs(I5
I8
tp48
g1
(g10
g3
NtRp49
(dp50
g13
F2.6101070187998037
sg14
I5
sg15
I01
sg16
I8
sg17
I45
sbs(I1
I2
tp51
g1
(g10
g3
NtRp52
(dp53
g13
F-18.557362680686808
sg14
I1
sg15
I01
sg16
I2
sg17
I1
sbs(I10
I8
tp54
g1
(g10
g3
NtRp55
(dp56
g13
F9.0531782008802821
sg14
I10
sg15
I01
sg16
I8
sg17
I164
sbs(I15
I5
tp57
g1
(g10
g3
NtRp58
(dp59
g13
F-14.713822032609812
sg14
I15
sg15
I01
sg16
I5
sg17
I147
sbs(I4
I9
tp60
g1
(g10
g3
NtRp61
(dp62
g13
F-6.2114220179008175
sg14
I4
sg15
I01
sg16
I9
sg17
I57
sbs(I3
I3
tp63
g1
(g10
g3
NtRp64
(dp65
g13
F13.818307645104596
sg14
I3
sg15
I01
sg16
I3
sg17
I8
sbs(I2
I9
tp66
g1
(g10
g3
NtRp67
(dp68
g13
F-6.0727981452522624
sg14
I2
sg15
I01
sg16
I9
sg17
I144
sbs(I13
I3
tp69
g1
(g10
g3
NtRp70
(dp71
g13
F28.237450174343586
sg14
I13
sg15
I00
sg16
I3
sg17
I117
sbs(I3
I10
tp72
g1
(g10
g3
NtRp73
(dp74
g13
F-18.766470567471902
sg14
I3
sg15
I01
sg16
I10
sg17
I76
sbs(I4
I4
tp75
g1
(g10
g3
NtRp76
(dp77
g13
F-4.6453778859768384
sg14
I4
sg15
I01
sg16
I4
sg17
I11
sbs(I10
I12
tp78
g1
(g10
g3
NtRp79
(dp80
g13
F-5.2024879280894272
sg14
I10
sg15
I01
sg16
I12
sg17
I111
sbs(I4
I8
tp81
g1
(g10
g3
NtRp82
(dp83
g13
F5.3815134213580738
sg14
I4
sg15
I01
sg16
I8
sg17
I38
sbs(I2
I13
tp84
g1
(g10
g3
NtRp85
(dp86
g13
F2.9127553177574215
sg14
I2
sg15
I01
sg16
I13
sg17
I176
sbs(I4
I11
tp87
g1
(g10
g3
NtRp88
(dp89
g13
F-3.0047956653682428
sg14
I4
sg15
I01
sg16
I11
sg17
I86
sbs(I3
I6
tp90
g1
(g10
g3
NtRp91
(dp92
g13
F-6.4718740832241153
sg14
I3
sg15
I01
sg16
I6
sg17
I22
sbs(I2
I2
tp93
g1
(g10
g3
NtRp94
(dp95
g13
F21.049397450871005
sg14
I2
sg15
I01
sg16
I2
sg17
I2
sbs(I3
I5
tp96
g1
(g10
g3
NtRp97
(dp98
g13
F28.881435299207613
sg14
I3
sg15
I01
sg16
I5
sg17
I12
sbs(I5
I4
tp99
g1
(g10
g3
NtRp100
(dp101
g13
F8.3420186748132892
sg14
I5
sg15
I01
sg16
I4
sg17
I13
sbs(I6
I6
tp102
g1
(g10
g3
NtRp103
(dp104
g13
F-6.9092330811094849
sg14
I6
sg15
I01
sg16
I6
sg17
I37
sbs(I5
I11
tp105
g1
(g10
g3
NtRp106
(dp107
g13
F10.553333047237754
sg14
I5
sg15
I01
sg16
I11
sg17
I90
sbs(I9
I3
tp108
g1
(g10
g3
NtRp109
(dp110
g13
F-30
sg14
I9
sg15
I01
sg16
I3
sg17
I60
sbs(I2
I3
tp111
g1
(g10
g3
NtRp112
(dp113
g13
F20.352103177619142
sg14
I2
sg15
I01
sg16
I3
sg17
I5
sbs(I1
I9
tp114
g1
(g10
g3
NtRp115
(dp116
g13
F18.324796589576248
sg14
I1
sg15
I01
sg16
I9
sg17
I47
sbs(I6
I12
tp117
g1
(g10
g3
NtRp118
(dp119
g13
F3.4019238067187283
sg14
I6
sg15
I01
sg16
I12
sg17
I288
sbs(I6
I5
tp120
g1
(g10
g3
NtRp121
(dp122
g13
F-22.747632455781655
sg14
I6
sg15
I01
sg16
I5
sg17
I28
sbs(I5
I3
tp123
g1
(g10
g3
NtRp124
(dp125
g13
F3.0261279930198031
sg14
I5
sg15
I01
sg16
I3
sg17
I15
sbs(I10
I5
tp126
g1
(g10
g3
NtRp127
(dp128
g13
F4.7014190753766156
sg14
I10
sg15
I01
sg16
I5
sg17
I79
sbs(I12
I2
tp129
g1
(g10
g3
NtRp130
(dp131
g13
F12.278106873817153
sg14
I12
sg15
I01
sg16
I2
sg17
I104
sbs(I13
I14
tp132
g1
(g10
g3
NtRp133
(dp134
g13
F-2.9318249555879521
sg14
I13
sg15
I01
sg16
I14
sg17
I189
sbs(I9
I9
tp135
g1
(g10
g3
NtRp136
(dp137
g13
F9.7879992858777207
sg14
I9
sg15
I01
sg16
I9
sg17
I73
sbs(I9
I2
tp138
g1
(g10
g3
NtRp139
(dp140
g13
F-9.3744682756215063
sg14
I9
sg15
I01
sg16
I2
sg17
I48
sbs(I12
I4
tp141
g1
(g10
g3
NtRp142
(dp143
g13
F-3.1840554153311675
sg14
I12
sg15
I01
sg16
I4
sg17
I115
sbs(I4
I3
tp144
g1
(g10
g3
NtRp145
(dp146
g13
F-11.433577693761114
sg14
I4
sg15
I01
sg16
I3
sg17
I10
sbs(I14
I3
tp147
g1
(g10
g3
NtRp148
(dp149
g13
F29.340480541004741
sg14
I14
sg15
I01
sg16
I3
sg17
I132
sbs(I8
I4
tp150
g1
(g10
g3
NtRp151
(dp152
g13
F-4.2989715438442566
sg14
I8
sg15
I01
sg16
I4
sg17
I41
sbs(I5
I2
tp153
g1
(g10
g3
NtRp154
(dp155
g13
F10.682669378742128
sg14
I5
sg15
I01
sg16
I2
sg17
I21
sbs(I2
I4
tp156
g1
(g10
g3
NtRp157
(dp158
g13
F11.704360262820423
sg14
I2
sg15
I01
sg16
I4
sg17
I16
sbs(I10
I2
tp159
g1
(g10
g3
NtRp160
(dp161
g13
F28.212422285200859
sg14
I10
sg15
I01
sg16
I2
sg17
I66
sbssS'_input_nodes'
p162
I1
sS'_output_nodes'
p163
I1
sS'_node_gene_type'
p164
cneat.genome
NodeGene
p165
sS'_conn_gene_type'
p166
g10
sS'fitness'
p167
F0.99930702796922977
sS'parent2_id'
p168
I17070
sS'_id'
p169
I17114
sS'parent1_id'
p170
I17070
sS'_node_genes'
p171
(lp172
g1
(g165
g3
NtRp173
(dp174
S'_bias'
p175
I0
sS'_type'
p176
S'INPUT'
p177
sg169
I1
sS'_response'
p178
F4.9242730000000003
sS'_activation_type'
p179
Nsbag1
(g165
g3
NtRp180
(dp181
g175
F-1.6307937524267286
sg176
S'OUTPUT'
p182
sg169
I2
sg178
F3.7107150848097414
sg179
S'tanh'
p183
sbag1
(g165
g3
NtRp184
(dp185
g175
F-2.9074281193126783
sg176
S'HIDDEN'
p186
sg169
I3
sg178
F4.1275726356627294
sg179
g183
sbag1
(g165
g3
NtRp187
(dp188
g175
F3.7224135092802655
sg176
g186
sg169
I4
sg178
F4.7156353956668289
sg179
g183
sbag1
(g165
g3
NtRp189
(dp190
g175
F-2.2386007597600646
sg176
g186
sg169
I5
sg178
F8.1961607046421854
sg179
g183
sbag1
(g165
g3
NtRp191
(dp192
g175
F4.1318971237319291
sg176
g186
sg169
I6
sg178
F10.198218351542002
sg179
g183
sbag1
(g165
g3
NtRp193
(dp194
g175
F-1.9057216449439514
sg176
g186
sg169
I7
sg178
F14.5408825432076
sg179
g183
sbag1
(g165
g3
NtRp195
(dp196
g175
F-5.5746193168345375
sg176
g186
sg169
I8
sg178
F3.3799198118098932
sg179
g183
sbag1
(g165
g3
NtRp197
(dp198
g175
F2.2979764527401594
sg176
g186
sg169
I9
sg178
F9.0196291061408953
sg179
g183
sbag1
(g165
g3
NtRp199
(dp200
g175
F-1.1711411603775053
sg176
g186
sg169
I10
sg178
F4.7685802448385335
sg179
g183
sbag1
(g165
g3
NtRp201
(dp202
g175
F0.49476363983668437
sg176
g186
sg169
I11
sg178
F5.5617421413634647
sg179
g183
sbag1
(g165
g3
NtRp203
(dp204
g175
F-0.26257074962543697
sg176
g186
sg169
I12
sg178
F10.56574374174876
sg179
g183
sbag1
(g165
g3
NtRp205
(dp206
g175
F0.43739173723512703
sg176
g186
sg169
I13
sg178
F6.2923927414542877
sg179
g183
sbag1
(g165
g3
NtRp207
(dp208
g175
F0.13950112463768072
sg176
g186
sg169
I14
sg178
F2.0662569918384457
sg179
g183
sbag1
(g165
g3
NtRp209
(dp210
g175
F-0.98025183222556578
sg176
g186
sg169
I15
sg178
F4.3695307643857344
sg179
g183
sbasb.