ccopy_reg
_reconstructor
p1
(cneat.chromosome
Chromosome
p2
c__builtin__
object
p3
NtRp4
(dp5
S'species_id'
p6
I90
sS'_connection_genes'
p7
(dp8
(I7
I3
tp9
g1
(cneat.genome
ConnectionGene
p10
g3
NtRp11
(dp12
S'_ConnectionGene__weight'
p13
F25.170173160266597
sS'_ConnectionGene__in'
p14
I7
sS'_ConnectionGene__enabled'
p15
I01
sS'_ConnectionGene__out'
p16
I3
sS'_ConnectionGene__innov_number'
p17
I36
sbs(I1
I3
tp18
g1
(g10
g3
NtRp19
(dp20
g13
F-4.2322498524092778
sg14
I1
sg15
I01
sg16
I3
sg17
I3
sbs(I5
I9
tp21
g1
(g10
g3
NtRp22
(dp23
g13
F10.957396266111797
sg14
I5
sg15
I01
sg16
I9
sg17
I100
sbs(I11
I2
tp24
g1
(g10
g3
NtRp25
(dp26
g13
F3.8159804669992918
sg14
I11
sg15
I01
sg16
I2
sg17
I89
sbs(I5
I4
tp27
g1
(g10
g3
NtRp28
(dp29
g13
F8.5274418759828272
sg14
I5
sg15
I01
sg16
I4
sg17
I13
sbs(I11
I8
tp30
g1
(g10
g3
NtRp31
(dp32
g13
F-15.51591099181903
sg14
I11
sg15
I01
sg16
I8
sg17
I91
sbs(I13
I8
tp33
g1
(g10
g3
NtRp34
(dp35
g13
F-2.2324719714486596
sg14
I13
sg15
I01
sg16
I8
sg17
I177
sbs(I3
I7
tp36
g1
(g10
g3
NtRp37
(dp38
g13
F-13.028521719685685
sg14
I3
sg15
I01
sg16
I7
sg17
I49
sbs(I1
I11
tp39
g1
(g10
g3
NtRp40
(dp41
g13
F-2.7756732453604926
sg14
I1
sg15
I01
sg16
I11
sg17
I88
sbs(I5
I8
tp42
g1
(g10
g3
NtRp43
(dp44
g13
F5.0387221943556932
sg14
I5
sg15
I01
sg16
I8
sg17
I45
sbs(I1
I2
tp45
g1
(g10
g3
NtRp46
(dp47
g13
F-17.048981897110906
sg14
I1
sg15
I01
sg16
I2
sg17
I1
sbs(I12
I2
tp48
g1
(g10
g3
NtRp49
(dp50
g13
F30
sg14
I12
sg15
I01
sg16
I2
sg17
I104
sbs(I4
I9
tp51
g1
(g10
g3
NtRp52
(dp53
g13
F-14.257084877281981
sg14
I4
sg15
I01
sg16
I9
sg17
I57
sbs(I3
I3
tp54
g1
(g10
g3
NtRp55
(dp56
g13
F-1.0187205339739436
sg14
I3
sg15
I01
sg16
I3
sg17
I8
sbs(I2
I9
tp57
g1
(g10
g3
NtRp58
(dp59
g13
F-1.4847860134860209
sg14
I2
sg15
I01
sg16
I9
sg17
I144
sbs(I13
I3
tp60
g1
(g10
g3
NtRp61
(dp62
g13
F19.631272022691242
sg14
I13
sg15
I00
sg16
I3
sg17
I117
sbs(I3
I10
tp63
g1
(g10
g3
NtRp64
(dp65
g13
F-17.897554157353248
sg14
I3
sg15
I01
sg16
I10
sg17
I76
sbs(I4
I4
tp66
g1
(g10
g3
NtRp67
(dp68
g13
F6.93924027537975
sg14
I4
sg15
I00
sg16
I4
sg17
I11
sbs(I10
I12
tp69
g1
(g10
g3
NtRp70
(dp71
g13
F-8.0359734160412746
sg14
I10
sg15
I01
sg16
I12
sg17
I111
sbs(I4
I8
tp72
g1
(g10
g3
NtRp73
(dp74
g13
F8.5205587714899895
sg14
I4
sg15
I01
sg16
I8
sg17
I38
sbs(I2
I13
tp75
g1
(g10
g3
NtRp76
(dp77
g13
F2.4339374148762296
sg14
I2
sg15
I01
sg16
I13
sg17
I176
sbs(I6
I5
tp78
g1
(g10
g3
NtRp79
(dp80
g13
F-25.551761499477053
sg14
I6
sg15
I01
sg16
I5
sg17
I28
sbs(I3
I6
tp81
g1
(g10
g3
NtRp82
(dp83
g13
F-3.6466128877064481
sg14
I3
sg15
I01
sg16
I6
sg17
I22
sbs(I2
I2
tp84
g1
(g10
g3
NtRp85
(dp86
g13
F-3.3501823038062879
sg14
I2
sg15
I01
sg16
I2
sg17
I2
sbs(I5
I3
tp87
g1
(g10
g3
NtRp88
(dp89
g13
F-5.7841659496675195
sg14
I5
sg15
I01
sg16
I3
sg17
I15
sbs(I3
I2
tp90
g1
(g10
g3
NtRp91
(dp92
g13
F12.044615686115845
sg14
I3
sg15
I01
sg16
I2
sg17
I4
sbs(I6
I6
tp93
g1
(g10
g3
NtRp94
(dp95
g13
F-12.65887165863362
sg14
I6
sg15
I01
sg16
I6
sg17
I37
sbs(I5
I11
tp96
g1
(g10
g3
NtRp97
(dp98
g13
F29.690000816520957
sg14
I5
sg15
I01
sg16
I11
sg17
I90
sbs(I9
I3
tp99
g1
(g10
g3
NtRp100
(dp101
g13
F-27.452656974384393
sg14
I9
sg15
I01
sg16
I3
sg17
I60
sbs(I2
I3
tp102
g1
(g10
g3
NtRp103
(dp104
g13
F14.719387599103463
sg14
I2
sg15
I01
sg16
I3
sg17
I5
sbs(I1
I9
tp105
g1
(g10
g3
NtRp106
(dp107
g13
F21.26734028010689
sg14
I1
sg15
I01
sg16
I9
sg17
I47
sbs(I4
I2
tp108
g1
(g10
g3
NtRp109
(dp110
g13
F-5.9799977011475853
sg14
I4
sg15
I01
sg16
I2
sg17
I7
sbs(I4
I11
tp111
g1
(g10
g3
NtRp112
(dp113
g13
F3.3677342000650428
sg14
I4
sg15
I01
sg16
I11
sg17
I86
sbs(I3
I5
tp114
g1
(g10
g3
NtRp115
(dp116
g13
F22.70847739832546
sg14
I3
sg15
I01
sg16
I5
sg17
I12
sbs(I10
I5
tp117
g1
(g10
g3
NtRp118
(dp119
g13
F14.763605061726338
sg14
I10
sg15
I01
sg16
I5
sg17
I79
sbs(I13
I14
tp120
g1
(g10
g3
NtRp121
(dp122
g13
F-4.7479486861673807
sg14
I13
sg15
I01
sg16
I14
sg17
I189
sbs(I9
I9
tp123
g1
(g10
g3
NtRp124
(dp125
g13
F5.4342675023877076
sg14
I9
sg15
I01
sg16
I9
sg17
I73
sbs(I9
I2
tp126
g1
(g10
g3
NtRp127
(dp128
g13
F-6.0245073231296491
sg14
I9
sg15
I01
sg16
I2
sg17
I48
sbs(I12
I4
tp129
g1
(g10
g3
NtRp130
(dp131
g13
F-1.8168144318448451
sg14
I12
sg15
I01
sg16
I4
sg17
I115
sbs(I4
I3
tp132
g1
(g10
g3
NtRp133
(dp134
g13
F-14.209016458819145
sg14
I4
sg15
I01
sg16
I3
sg17
I10
sbs(I14
I3
tp135
g1
(g10
g3
NtRp136
(dp137
g13
F10.958525797183228
sg14
I14
sg15
I01
sg16
I3
sg17
I132
sbs(I10
I2
tp138
g1
(g10
g3
NtRp139
(dp140
g13
F26.934742584953195
sg14
I10
sg15
I01
sg16
I2
sg17
I66
sbs(I5
I2
tp141
g1
(g10
g3
NtRp142
(dp143
g13
F-7.5364414964894371
sg14
I5
sg15
I01
sg16
I2
sg17
I21
sbs(I2
I4
tp144
g1
(g10
g3
NtRp145
(dp146
g13
F9.6646359947806708
sg14
I2
sg15
I01
sg16
I4
sg17
I16
sbs(I8
I4
tp147
g1
(g10
g3
NtRp148
(dp149
g13
F1.2239989123904123
sg14
I8
sg15
I01
sg16
I4
sg17
I41
sbssS'_input_nodes'
p150
I1
sS'_output_nodes'
p151
I1
sS'_node_gene_type'
p152
cneat.genome
NodeGene
p153
sS'_conn_gene_type'
p154
g10
sS'fitness'
p155
F0.9822040640040669
sS'parent2_id'
p156
I13359
sS'_id'
p157
I13401
sS'parent1_id'
p158
I13359
sS'_node_genes'
p159
(lp160
g1
(g153
g3
NtRp161
(dp162
S'_bias'
p163
I0
sS'_type'
p164
S'INPUT'
p165
sg157
I1
sS'_response'
p166
F4.9242730000000003
sS'_activation_type'
p167
Nsbag1
(g153
g3
NtRp168
(dp169
g163
F-0.25593356703691605
sg164
S'OUTPUT'
p170
sg157
I2
sg166
F5.8687737741058994
sg167
S'tanh'
p171
sbag1
(g153
g3
NtRp172
(dp173
g163
F-2.665954032594835
sg164
S'HIDDEN'
p174
sg157
I3
sg166
F6.8309534154659195
sg167
g171
sbag1
(g153
g3
NtRp175
(dp176
g163
F2.4028451664338881
sg164
g174
sg157
I4
sg166
F1.0021806520971668
sg167
g171
sbag1
(g153
g3
NtRp177
(dp178
g163
F-2.5258868310409444
sg164
g174
sg157
I5
sg166
F7.0752981436418461
sg167
g171
sbag1
(g153
g3
NtRp179
(dp180
g163
F2.7425375138941899
sg164
g174
sg157
I6
sg166
F10.482824213545527
sg167
g171
sbag1
(g153
g3
NtRp181
(dp182
g163
F-2.9214384185373379
sg164
g174
sg157
I7
sg166
F11.79759477982239
sg167
g171
sbag1
(g153
g3
NtRp183
(dp184
g163
F-3.8130078016472035
sg164
g174
sg157
I8
sg166
F2.8120906570334521
sg167
g171
sbag1
(g153
g3
NtRp185
(dp186
g163
F3.0431802708629307
sg164
g174
sg157
I9
sg166
F3.5730199170433021
sg167
g171
sbag1
(g153
g3
NtRp187
(dp188
g163
F-2.2426136329824526
sg164
g174
sg157
I10
sg166
F4.1182148180283651
sg167
g171
sbag1
(g153
g3
NtRp189
(dp190
g163
F-2.3730349215097735
sg164
g174
sg157
I11
sg166
F6.0102530621421302
sg167
g171
sbag1
(g153
g3
NtRp191
(dp192
g163
F0.39079782060342028
sg164
g174
sg157
I12
sg166
F8.2786320888218423
sg167
g171
sbag1
(g153
g3
NtRp193
(dp194
g163
F0.6630357292019442
sg164
g174
sg157
I13
sg166
F5.596574076041839
sg167
g171
sbag1
(g153
g3
NtRp195
(dp196
g163
F-0.032870780034294715
sg164
g174
sg157
I14
sg166
F4.5548876866102255
sg167
g171
sbasb.