ccopy_reg
_reconstructor
p1
(cneat.chromosome
Chromosome
p2
c__builtin__
object
p3
NtRp4
(dp5
S'species_id'
p6
I51
sS'_connection_genes'
p7
(dp8
(I1
I3
tp9
g1
(cneat.genome
ConnectionGene
p10
g3
NtRp11
(dp12
S'_ConnectionGene__weight'
p13
F27.11703909419202
sS'_ConnectionGene__in'
p14
I1
sS'_ConnectionGene__enabled'
p15
I00
sS'_ConnectionGene__out'
p16
I3
sS'_ConnectionGene__innov_number'
p17
I3
sbs(I5
I6
tp18
g1
(g10
g3
NtRp19
(dp20
g13
F-10.014203244816226
sg14
I5
sg15
I01
sg16
I6
sg17
I25
sbs(I8
I9
tp21
g1
(g10
g3
NtRp22
(dp23
g13
F1.014874433493463
sg14
I8
sg15
I01
sg16
I9
sg17
I61
sbs(I6
I2
tp24
g1
(g10
g3
NtRp25
(dp26
g13
F26.196065731333331
sg14
I6
sg15
I00
sg16
I2
sg17
I18
sbs(I7
I2
tp27
g1
(g10
g3
NtRp28
(dp29
g13
F0.56814116808888637
sg14
I7
sg15
I01
sg16
I2
sg17
I31
sbs(I1
I2
tp30
g1
(g10
g3
NtRp31
(dp32
g13
F-21.659059708179516
sg14
I1
sg15
I01
sg16
I2
sg17
I1
sbs(I6
I7
tp33
g1
(g10
g3
NtRp34
(dp35
g13
F-9.7880459096680053
sg14
I6
sg15
I01
sg16
I7
sg17
I34
sbs(I3
I3
tp36
g1
(g10
g3
NtRp37
(dp38
g13
F25.137146673010204
sg14
I3
sg15
I01
sg16
I3
sg17
I8
sbs(I5
I8
tp39
g1
(g10
g3
NtRp40
(dp41
g13
F-10.306786836406841
sg14
I5
sg15
I01
sg16
I8
sg17
I45
sbs(I3
I6
tp42
g1
(g10
g3
NtRp43
(dp44
g13
F-1.9847263150386056
sg14
I3
sg15
I01
sg16
I6
sg17
I22
sbs(I3
I5
tp45
g1
(g10
g3
NtRp46
(dp47
g13
F5.8617064451286272
sg14
I3
sg15
I01
sg16
I5
sg17
I12
sbs(I3
I2
tp48
g1
(g10
g3
NtRp49
(dp50
g13
F6.5343170318047532
sg14
I3
sg15
I01
sg16
I2
sg17
I4
sbs(I8
I2
tp51
g1
(g10
g3
NtRp52
(dp53
g13
F-27.359051389110533
sg14
I8
sg15
I00
sg16
I2
sg17
I46
sbs(I1
I4
tp54
g1
(g10
g3
NtRp55
(dp56
g13
F13.756512834465992
sg14
I1
sg15
I01
sg16
I4
sg17
I6
sbs(I9
I10
tp57
g1
(g10
g3
NtRp58
(dp59
g13
F22.103239970936468
sg14
I9
sg15
I01
sg16
I10
sg17
I84
sbs(I3
I9
tp60
g1
(g10
g3
NtRp61
(dp62
g13
F-10.920585796389048
sg14
I3
sg15
I01
sg16
I9
sg17
I62
sbs(I4
I9
tp63
g1
(g10
g3
NtRp64
(dp65
g13
F-0.50808658259636874
sg14
I4
sg15
I01
sg16
I9
sg17
I57
sbs(I5
I3
tp66
g1
(g10
g3
NtRp67
(dp68
g13
F1.6644634076357443
sg14
I5
sg15
I01
sg16
I3
sg17
I15
sbs(I10
I5
tp69
g1
(g10
g3
NtRp70
(dp71
g13
F4.3624960578774195
sg14
I10
sg15
I01
sg16
I5
sg17
I79
sbs(I9
I2
tp72
g1
(g10
g3
NtRp73
(dp74
g13
F-17.986027548175372
sg14
I9
sg15
I00
sg16
I2
sg17
I48
sbs(I4
I3
tp75
g1
(g10
g3
NtRp76
(dp77
g13
F17.474025084606016
sg14
I4
sg15
I01
sg16
I3
sg17
I10
sbs(I5
I2
tp78
g1
(g10
g3
NtRp79
(dp80
g13
F-30
sg14
I5
sg15
I00
sg16
I2
sg17
I21
sbs(I2
I4
tp81
g1
(g10
g3
NtRp82
(dp83
g13
F-5.2599973006313094
sg14
I2
sg15
I01
sg16
I4
sg17
I16
sbs(I10
I2
tp84
g1
(g10
g3
NtRp85
(dp86
g13
F-17.732780630303093
sg14
I10
sg15
I01
sg16
I2
sg17
I66
sbssS'_input_nodes'
p87
I1
sS'_output_nodes'
p88
I1
sS'_node_gene_type'
p89
cneat.genome
NodeGene
p90
sS'_conn_gene_type'
p91
g10
sS'fitness'
p92
F0.98594356488768176
sS'parent2_id'
p93
I8114
sS'_id'
p94
I8119
sS'parent1_id'
p95
I8114
sS'_node_genes'
p96
(lp97
g1
(g90
g3
NtRp98
(dp99
S'_bias'
p100
I0
sS'_type'
p101
S'INPUT'
p102
sg94
I1
sS'_response'
p103
F4.9242730000000003
sS'_activation_type'
p104
Nsbag1
(g90
g3
NtRp105
(dp106
g100
F-7.2742111206804729
sg101
S'OUTPUT'
p107
sg94
I2
sg103
F4.9488801009099994
sg104
S'tanh'
p108
sbag1
(g90
g3
NtRp109
(dp110
g100
F1.8668684667310786
sg101
S'HIDDEN'
p111
sg94
I3
sg103
F5.3474070295991876
sg104
g108
sbag1
(g90
g3
NtRp112
(dp113
g100
F-0.29512499847891643
sg101
g111
sg94
I4
sg103
F8.6096303317310348
sg104
g108
sbag1
(g90
g3
NtRp114
(dp115
g100
F2.6628187849892662
sg101
g111
sg94
I5
sg103
F5.49341953909948
sg104
g108
sbag1
(g90
g3
NtRp116
(dp117
g100
F0.3750906491829949
sg101
g111
sg94
I6
sg103
F2.8569138388177695
sg104
g108
sbag1
(g90
g3
NtRp118
(dp119
g100
F0.96472716864976049
sg101
g111
sg94
I7
sg103
F6.2773868234753376
sg104
g108
sbag1
(g90
g3
NtRp120
(dp121
g100
F-0.0081989190130453624
sg101
g111
sg94
I8
sg103
F5.6470146862547148
sg104
g108
sbag1
(g90
g3
NtRp122
(dp123
g100
F3.4556554677628011
sg101
g111
sg94
I9
sg103
F2.7207001858381887
sg104
g108
sbag1
(g90
g3
NtRp124
(dp125
g100
F0.65877764590523202
sg101
g111
sg94
I10
sg103
F5.7718032088887767
sg104
g108
sbasb.