ccopy_reg
_reconstructor
p1
(cneat.chromosome
Chromosome
p2
c__builtin__
object
p3
NtRp4
(dp5
S'species_id'
p6
I38
sS'_connection_genes'
p7
(dp8
(I1
I2
tp9
g1
(cneat.genome
ConnectionGene
p10
g3
NtRp11
(dp12
S'_ConnectionGene__weight'
p13
F-11.372196677090663
sS'_ConnectionGene__in'
p14
I1
sS'_ConnectionGene__enabled'
p15
I01
sS'_ConnectionGene__out'
p16
I2
sS'_ConnectionGene__innov_number'
p17
I1
sbs(I3
I2
tp18
g1
(g10
g3
NtRp19
(dp20
g13
F8.3868680501358828
sg14
I3
sg15
I01
sg16
I2
sg17
I4
sbs(I1
I3
tp21
g1
(g10
g3
NtRp22
(dp23
g13
F3.1371633691266885
sg14
I1
sg15
I00
sg16
I3
sg17
I3
sbs(I3
I3
tp24
g1
(g10
g3
NtRp25
(dp26
g13
F18.766361683705863
sg14
I3
sg15
I01
sg16
I3
sg17
I8
sbs(I5
I6
tp27
g1
(g10
g3
NtRp28
(dp29
g13
F0.15330990742743955
sg14
I5
sg15
I01
sg16
I6
sg17
I25
sbs(I9
I3
tp30
g1
(g10
g3
NtRp31
(dp32
g13
F6.5792366907487967
sg14
I9
sg15
I01
sg16
I3
sg17
I60
sbs(I8
I3
tp33
g1
(g10
g3
NtRp34
(dp35
g13
F-1.232029180255326
sg14
I8
sg15
I00
sg16
I3
sg17
I39
sbs(I1
I4
tp36
g1
(g10
g3
NtRp37
(dp38
g13
F15.849272124099153
sg14
I1
sg15
I01
sg16
I4
sg17
I6
sbs(I8
I9
tp39
g1
(g10
g3
NtRp40
(dp41
g13
F-2.2141280112813919
sg14
I8
sg15
I01
sg16
I9
sg17
I61
sbs(I7
I5
tp42
g1
(g10
g3
NtRp43
(dp44
g13
F6.1973354334980995
sg14
I7
sg15
I01
sg16
I5
sg17
I50
sbs(I5
I3
tp45
g1
(g10
g3
NtRp46
(dp47
g13
F5.7662111107584009
sg14
I5
sg15
I01
sg16
I3
sg17
I15
sbs(I7
I2
tp48
g1
(g10
g3
NtRp49
(dp50
g13
F-10.997628355824331
sg14
I7
sg15
I01
sg16
I2
sg17
I31
sbs(I4
I3
tp51
g1
(g10
g3
NtRp52
(dp53
g13
F21.08257855646908
sg14
I4
sg15
I01
sg16
I3
sg17
I10
sbs(I6
I2
tp54
g1
(g10
g3
NtRp55
(dp56
g13
F1.3932055636843867
sg14
I6
sg15
I01
sg16
I2
sg17
I18
sbs(I3
I7
tp57
g1
(g10
g3
NtRp58
(dp59
g13
F-5.3041431892109729
sg14
I3
sg15
I01
sg16
I7
sg17
I49
sbs(I3
I5
tp60
g1
(g10
g3
NtRp61
(dp62
g13
F19.029536644555623
sg14
I3
sg15
I00
sg16
I5
sg17
I12
sbs(I5
I2
tp63
g1
(g10
g3
NtRp64
(dp65
g13
F-28.137291505346933
sg14
I5
sg15
I01
sg16
I2
sg17
I21
sbs(I2
I4
tp66
g1
(g10
g3
NtRp67
(dp68
g13
F0.81396062026939164
sg14
I2
sg15
I01
sg16
I4
sg17
I16
sbs(I5
I8
tp69
g1
(g10
g3
NtRp70
(dp71
g13
F-0.46525295874064465
sg14
I5
sg15
I01
sg16
I8
sg17
I45
sbs(I8
I2
tp72
g1
(g10
g3
NtRp73
(dp74
g13
F-21.563157183999838
sg14
I8
sg15
I01
sg16
I2
sg17
I46
sbssS'_input_nodes'
p75
I1
sS'_output_nodes'
p76
I1
sS'_node_gene_type'
p77
cneat.genome
NodeGene
p78
sS'_conn_gene_type'
p79
g10
sS'fitness'
p80
F0.99154291038673881
sS'parent2_id'
p81
I5351
sS'_id'
p82
I5390
sS'parent1_id'
p83
I5351
sS'_node_genes'
p84
(lp85
g1
(g78
g3
NtRp86
(dp87
S'_bias'
p88
I0
sS'_type'
p89
S'INPUT'
p90
sg82
I1
sS'_response'
p91
F4.9242730000000003
sS'_activation_type'
p92
Nsbag1
(g78
g3
NtRp93
(dp94
g88
F-2.7959085727630799
sg89
S'OUTPUT'
p95
sg82
I2
sg91
F5.6564624914001707
sg92
S'tanh'
p96
sbag1
(g78
g3
NtRp97
(dp98
g88
F1.2410503802451203
sg89
S'HIDDEN'
p99
sg82
I3
sg91
F1.7270132828539384
sg92
g96
sbag1
(g78
g3
NtRp100
(dp101
g88
F-0.8684488122173657
sg89
g99
sg82
I4
sg91
F9.1737419849559849
sg92
g96
sbag1
(g78
g3
NtRp102
(dp103
g88
F0.86645024477989119
sg89
g99
sg82
I5
sg91
F5.2060944843922377
sg92
g96
sbag1
(g78
g3
NtRp104
(dp105
g88
F0.30932335372368736
sg89
g99
sg82
I6
sg91
F4.3561672392356252
sg92
g96
sbag1
(g78
g3
NtRp106
(dp107
g88
F-0.10887303454023567
sg89
g99
sg82
I7
sg91
F5.1857678718366991
sg92
g96
sbag1
(g78
g3
NtRp108
(dp109
g88
F0.68309825464215013
sg89
g99
sg82
I8
sg91
F6.179855604025942
sg92
g96
sbag1
(g78
g3
NtRp110
(dp111
g88
F0.29716199488336137
sg89
g99
sg82
I9
sg91
F4.9242730000000003
sg92
g96
sbasb.