ccopy_reg
_reconstructor
p1
(cneat.chromosome
Chromosome
p2
c__builtin__
object
p3
NtRp4
(dp5
S'species_id'
p6
I123
sS'_connection_genes'
p7
(dp8
(I7
I3
tp9
g1
(cneat.genome
ConnectionGene
p10
g3
NtRp11
(dp12
S'_ConnectionGene__weight'
p13
F30
sS'_ConnectionGene__in'
p14
I7
sS'_ConnectionGene__enabled'
p15
I01
sS'_ConnectionGene__out'
p16
I3
sS'_ConnectionGene__innov_number'
p17
I36
sbs(I1
I3
tp18
g1
(g10
g3
NtRp19
(dp20
g13
F-28.243957345767264
sg14
I1
sg15
I01
sg16
I3
sg17
I3
sbs(I5
I9
tp21
g1
(g10
g3
NtRp22
(dp23
g13
F3.0961473212396342
sg14
I5
sg15
I01
sg16
I9
sg17
I100
sbs(I16
I9
tp24
g1
(g10
g3
NtRp25
(dp26
g13
F19.719625306948867
sg14
I16
sg15
I01
sg16
I9
sg17
I236
sbs(I3
I13
tp27
g1
(g10
g3
NtRp28
(dp29
g13
F30
sg14
I3
sg15
I01
sg16
I13
sg17
I107
sbs(I5
I4
tp30
g1
(g10
g3
NtRp31
(dp32
g13
F-1.4420053288645689
sg14
I5
sg15
I01
sg16
I4
sg17
I13
sbs(I9
I9
tp33
g1
(g10
g3
NtRp34
(dp35
g13
F18.019248428940895
sg14
I9
sg15
I01
sg16
I9
sg17
I73
sbs(I2
I12
tp36
g1
(g10
g3
NtRp37
(dp38
g13
F4.5125836055828872
sg14
I2
sg15
I01
sg16
I12
sg17
I135
sbs(I7
I11
tp39
g1
(g10
g3
NtRp40
(dp41
g13
F-13.953025731336984
sg14
I7
sg15
I01
sg16
I11
sg17
I92
sbs(I3
I7
tp42
g1
(g10
g3
NtRp43
(dp44
g13
F11.538289176092297
sg14
I3
sg15
I00
sg16
I7
sg17
I49
sbs(I14
I9
tp45
g1
(g10
g3
NtRp46
(dp47
g13
F11.338933789983338
sg14
I14
sg15
I01
sg16
I9
sg17
I130
sbs(I5
I8
tp48
g1
(g10
g3
NtRp49
(dp50
g13
F19.837476131442976
sg14
I5
sg15
I01
sg16
I8
sg17
I45
sbs(I1
I2
tp51
g1
(g10
g3
NtRp52
(dp53
g13
F-17.526693525517778
sg14
I1
sg15
I01
sg16
I2
sg17
I1
sbs(I12
I2
tp54
g1
(g10
g3
NtRp55
(dp56
g13
F19.567719871082421
sg14
I12
sg15
I01
sg16
I2
sg17
I104
sbs(I4
I9
tp57
g1
(g10
g3
NtRp58
(dp59
g13
F-5.4474688739432633
sg14
I4
sg15
I01
sg16
I9
sg17
I57
sbs(I3
I3
tp60
g1
(g10
g3
NtRp61
(dp62
g13
F-1.415096573723696
sg14
I3
sg15
I01
sg16
I3
sg17
I8
sbs(I2
I9
tp63
g1
(g10
g3
NtRp64
(dp65
g13
F21.084089918151779
sg14
I2
sg15
I01
sg16
I9
sg17
I144
sbs(I3
I10
tp66
g1
(g10
g3
NtRp67
(dp68
g13
F10.217971375814669
sg14
I3
sg15
I01
sg16
I10
sg17
I76
sbs(I4
I4
tp69
g1
(g10
g3
NtRp70
(dp71
g13
F2.4541032024224632
sg14
I4
sg15
I00
sg16
I4
sg17
I11
sbs(I10
I12
tp72
g1
(g10
g3
NtRp73
(dp74
g13
F-27.136400892378415
sg14
I10
sg15
I01
sg16
I12
sg17
I111
sbs(I17
I2
tp75
g1
(g10
g3
NtRp76
(dp77
g13
F-8.0080921055753294
sg14
I17
sg15
I01
sg16
I2
sg17
I202
sbs(I13
I7
tp78
g1
(g10
g3
NtRp79
(dp80
g13
F-13.624761313278766
sg14
I13
sg15
I01
sg16
I7
sg17
I108
sbs(I9
I17
tp81
g1
(g10
g3
NtRp82
(dp83
g13
F1.0859504638576292
sg14
I9
sg15
I01
sg16
I17
sg17
I258
sbs(I18
I9
tp84
g1
(g10
g3
NtRp85
(dp86
g13
F-0.23913965061730291
sg14
I18
sg15
I01
sg16
I9
sg17
I268
sbs(I2
I2
tp87
g1
(g10
g3
NtRp88
(dp89
g13
F3.9140523617197713
sg14
I2
sg15
I01
sg16
I2
sg17
I2
sbs(I15
I4
tp90
g1
(g10
g3
NtRp91
(dp92
g13
F6.8491724102232814
sg14
I15
sg15
I01
sg16
I4
sg17
I173
sbs(I10
I2
tp93
g1
(g10
g3
NtRp94
(dp95
g13
F21.913139900142085
sg14
I10
sg15
I01
sg16
I2
sg17
I66
sbs(I15
I12
tp96
g1
(g10
g3
NtRp97
(dp98
g13
F-8.4618044706948172
sg14
I15
sg15
I01
sg16
I12
sg17
I159
sbs(I3
I2
tp99
g1
(g10
g3
NtRp100
(dp101
g13
F9.8533297103621553
sg14
I3
sg15
I01
sg16
I2
sg17
I4
sbs(I6
I6
tp102
g1
(g10
g3
NtRp103
(dp104
g13
F6.2792302497295704
sg14
I6
sg15
I01
sg16
I6
sg17
I37
sbs(I12
I14
tp105
g1
(g10
g3
NtRp106
(dp107
g13
F-2.8253030154774792
sg14
I12
sg15
I01
sg16
I14
sg17
I131
sbs(I5
I11
tp108
g1
(g10
g3
NtRp109
(dp110
g13
F1.5789928240061286
sg14
I5
sg15
I01
sg16
I11
sg17
I90
sbs(I9
I3
tp111
g1
(g10
g3
NtRp112
(dp113
g13
F-24.985566053752098
sg14
I9
sg15
I01
sg16
I3
sg17
I60
sbs(I9
I16
tp114
g1
(g10
g3
NtRp115
(dp116
g13
F19.55504835845224
sg14
I9
sg15
I01
sg16
I16
sg17
I240
sbs(I2
I3
tp117
g1
(g10
g3
NtRp118
(dp119
g13
F3.4648719736642271
sg14
I2
sg15
I01
sg16
I3
sg17
I5
sbs(I1
I9
tp120
g1
(g10
g3
NtRp121
(dp122
g13
F18.075413557588703
sg14
I1
sg15
I01
sg16
I9
sg17
I47
sbs(I4
I2
tp123
g1
(g10
g3
NtRp124
(dp125
g13
F-29.162378938940659
sg14
I4
sg15
I01
sg16
I2
sg17
I7
sbs(I14
I2
tp126
g1
(g10
g3
NtRp127
(dp128
g13
F9.3159060193529921
sg14
I14
sg15
I01
sg16
I2
sg17
I125
sbs(I4
I11
tp129
g1
(g10
g3
NtRp130
(dp131
g13
F-27.021119374993326
sg14
I4
sg15
I01
sg16
I11
sg17
I86
sbs(I3
I5
tp132
g1
(g10
g3
NtRp133
(dp134
g13
F8.3793593572718912
sg14
I3
sg15
I01
sg16
I5
sg17
I12
sbs(I10
I5
tp135
g1
(g10
g3
NtRp136
(dp137
g13
F15.01373285917319
sg14
I10
sg15
I01
sg16
I5
sg17
I79
sbs(I6
I5
tp138
g1
(g10
g3
NtRp139
(dp140
g13
F-19.171169349729382
sg14
I6
sg15
I01
sg16
I5
sg17
I28
sbs(I9
I2
tp141
g1
(g10
g3
NtRp142
(dp143
g13
F-2.9725694116835801
sg14
I9
sg15
I00
sg16
I2
sg17
I48
sbs(I7
I14
tp144
g1
(g10
g3
NtRp145
(dp146
g13
F-5.3956347510692719
sg14
I7
sg15
I01
sg16
I14
sg17
I162
sbs(I19
I2
tp147
g1
(g10
g3
NtRp148
(dp149
g13
F23.300308512991453
sg14
I19
sg15
I01
sg16
I2
sg17
I245
sbs(I12
I19
tp150
g1
(g10
g3
NtRp151
(dp152
g13
F1.854003121982982
sg14
I12
sg15
I01
sg16
I19
sg17
I284
sbs(I3
I6
tp153
g1
(g10
g3
NtRp154
(dp155
g13
F-23.671639398588241
sg14
I3
sg15
I01
sg16
I6
sg17
I22
sbs(I18
I7
tp156
g1
(g10
g3
NtRp157
(dp158
g13
F-0.34028267673256701
sg14
I18
sg15
I01
sg16
I7
sg17
I272
sbs(I11
I8
tp159
g1
(g10
g3
NtRp160
(dp161
g13
F12.195175372117616
sg14
I11
sg15
I01
sg16
I8
sg17
I91
sbs(I13
I18
tp162
g1
(g10
g3
NtRp163
(dp164
g13
F9.035666071340545
sg14
I13
sg15
I01
sg16
I18
sg17
I271
sbs(I4
I3
tp165
g1
(g10
g3
NtRp166
(dp167
g13
F7.617328493385644
sg14
I4
sg15
I01
sg16
I3
sg17
I10
sbs(I2
I15
tp168
g1
(g10
g3
NtRp169
(dp170
g13
F1.777016668606608
sg14
I2
sg15
I01
sg16
I15
sg17
I172
sbs(I4
I8
tp171
g1
(g10
g3
NtRp172
(dp173
g13
F-6.802661233754991
sg14
I4
sg15
I01
sg16
I8
sg17
I38
sbs(I5
I2
tp174
g1
(g10
g3
NtRp175
(dp176
g13
F-4.0360439106347128
sg14
I5
sg15
I01
sg16
I2
sg17
I21
sbs(I2
I4
tp177
g1
(g10
g3
NtRp178
(dp179
g13
F22.871528945513823
sg14
I2
sg15
I01
sg16
I4
sg17
I16
sbs(I11
I6
tp180
g1
(g10
g3
NtRp181
(dp182
g13
F-3.5458492418331766
sg14
I11
sg15
I01
sg16
I6
sg17
I110
sbs(I8
I4
tp183
g1
(g10
g3
NtRp184
(dp185
g13
F16.3526332168361
sg14
I8
sg15
I01
sg16
I4
sg17
I41
sbssS'_input_nodes'
p186
I1
sS'_output_nodes'
p187
I1
sS'_node_gene_type'
p188
cneat.genome
NodeGene
p189
sS'_conn_gene_type'
p190
g10
sS'fitness'
p191
F0.98449483494955581
sS'parent2_id'
p192
I17505
sS'_id'
p193
I17547
sS'parent1_id'
p194
I17505
sS'_node_genes'
p195
(lp196
g1
(g189
g3
NtRp197
(dp198
S'_bias'
p199
I0
sS'_type'
p200
S'INPUT'
p201
sg193
I1
sS'_response'
p202
F4.9242730000000003
sS'_activation_type'
p203
Nsbag1
(g189
g3
NtRp204
(dp205
g199
F0.28044549827087301
sg200
S'OUTPUT'
p206
sg193
I2
sg202
F9.9646265290391796
sg203
S'tanh'
p207
sbag1
(g189
g3
NtRp208
(dp209
g199
F-4.4676158328723083
sg200
S'HIDDEN'
p210
sg193
I3
sg202
F6.221966160067554
sg203
g207
sbag1
(g189
g3
NtRp211
(dp212
g199
F2.2067042873248526
sg200
g210
sg193
I4
sg202
F-2.1032598206005031
sg203
g207
sbag1
(g189
g3
NtRp213
(dp214
g199
F-2.9110915641337489
sg200
g210
sg193
I5
sg202
F6.6500979537051013
sg203
g207
sbag1
(g189
g3
NtRp215
(dp216
g199
F-0.079210954788691446
sg200
g210
sg193
I6
sg202
F10.56557803234635
sg203
g207
sbag1
(g189
g3
NtRp217
(dp218
g199
F0.42000584547182007
sg200
g210
sg193
I7
sg202
F11.603679308521153
sg203
g207
sbag1
(g189
g3
NtRp219
(dp220
g199
F-0.32150595352422384
sg200
g210
sg193
I8
sg202
F3.4496627301659712
sg203
g207
sbag1
(g189
g3
NtRp221
(dp222
g199
F2.9063872722423967
sg200
g210
sg193
I9
sg202
F-0.056801313244108864
sg203
g207
sbag1
(g189
g3
NtRp223
(dp224
g199
F4.783285077300671
sg200
g210
sg193
I10
sg202
F2.9176259349227713
sg203
g207
sbag1
(g189
g3
NtRp225
(dp226
g199
F-4.1102677056642989
sg200
g210
sg193
I11
sg202
F9.7812757342893146
sg203
g207
sbag1
(g189
g3
NtRp227
(dp228
g199
F2.4145699813957902
sg200
g210
sg193
I12
sg202
F7.5076385053033761
sg203
g207
sbag1
(g189
g3
NtRp229
(dp230
g199
F1.1321653295966461
sg200
g210
sg193
I13
sg202
F3.2407675719221727
sg203
g207
sbag1
(g189
g3
NtRp231
(dp232
g199
F1.1174822437419945
sg200
g210
sg193
I14
sg202
F4.9835416125549523
sg203
g207
sbag1
(g189
g3
NtRp233
(dp234
g199
F-0.88690051374101198
sg200
g210
sg193
I15
sg202
F12.364840402676638
sg203
g207
sbag1
(g189
g3
NtRp235
(dp236
g199
F-2.7472914623486826
sg200
g210
sg193
I16
sg202
F6.8240486533106282
sg203
g207
sbag1
(g189
g3
NtRp237
(dp238
g199
F-1.1345859950809392
sg200
g210
sg193
I17
sg202
F2.5405134946242014
sg203
g207
sbag1
(g189
g3
NtRp239
(dp240
g199
F1.493471463259765
sg200
g210
sg193
I18
sg202
F4.0266096954795731
sg203
g207
sbag1
(g189
g3
NtRp241
(dp242
g199
I0
sg200
g210
sg193
I19
sg202
F4.9242730000000003
sg203
g207
sbasb.