ccopy_reg
_reconstructor
p1
(cneat.chromosome
Chromosome
p2
c__builtin__
object
p3
NtRp4
(dp5
S'species_id'
p6
I51
sS'_connection_genes'
p7
(dp8
(I1
I3
tp9
g1
(cneat.genome
ConnectionGene
p10
g3
NtRp11
(dp12
S'_ConnectionGene__weight'
p13
F21.672848921812122
sS'_ConnectionGene__in'
p14
I1
sS'_ConnectionGene__enabled'
p15
I00
sS'_ConnectionGene__out'
p16
I3
sS'_ConnectionGene__innov_number'
p17
I3
sbs(I5
I6
tp18
g1
(g10
g3
NtRp19
(dp20
g13
F-5.8617892026747027
sg14
I5
sg15
I01
sg16
I6
sg17
I25
sbs(I8
I9
tp21
g1
(g10
g3
NtRp22
(dp23
g13
F0.13171341914349077
sg14
I8
sg15
I01
sg16
I9
sg17
I61
sbs(I6
I2
tp24
g1
(g10
g3
NtRp25
(dp26
g13
F22.621364028022143
sg14
I6
sg15
I00
sg16
I2
sg17
I18
sbs(I7
I2
tp27
g1
(g10
g3
NtRp28
(dp29
g13
F-5.8981964843763137
sg14
I7
sg15
I01
sg16
I2
sg17
I31
sbs(I1
I2
tp30
g1
(g10
g3
NtRp31
(dp32
g13
F-18.112485963425858
sg14
I1
sg15
I01
sg16
I2
sg17
I1
sbs(I6
I7
tp33
g1
(g10
g3
NtRp34
(dp35
g13
F-5.0703078540766642
sg14
I6
sg15
I01
sg16
I7
sg17
I34
sbs(I3
I3
tp36
g1
(g10
g3
NtRp37
(dp38
g13
F30
sg14
I3
sg15
I01
sg16
I3
sg17
I8
sbs(I5
I8
tp39
g1
(g10
g3
NtRp40
(dp41
g13
F-2.4368358937059789
sg14
I5
sg15
I01
sg16
I8
sg17
I45
sbs(I3
I5
tp42
g1
(g10
g3
NtRp43
(dp44
g13
F9.7766013041925586
sg14
I3
sg15
I01
sg16
I5
sg17
I12
sbs(I3
I2
tp45
g1
(g10
g3
NtRp46
(dp47
g13
F9.8496303326042938
sg14
I3
sg15
I01
sg16
I2
sg17
I4
sbs(I8
I2
tp48
g1
(g10
g3
NtRp49
(dp50
g13
F-29.152230650983331
sg14
I8
sg15
I00
sg16
I2
sg17
I46
sbs(I1
I4
tp51
g1
(g10
g3
NtRp52
(dp53
g13
F13.717158300271162
sg14
I1
sg15
I01
sg16
I4
sg17
I6
sbs(I9
I10
tp54
g1
(g10
g3
NtRp55
(dp56
g13
F16.375759384359764
sg14
I9
sg15
I01
sg16
I10
sg17
I84
sbs(I3
I9
tp57
g1
(g10
g3
NtRp58
(dp59
g13
F-5.8238647228880041
sg14
I3
sg15
I01
sg16
I9
sg17
I62
sbs(I4
I9
tp60
g1
(g10
g3
NtRp61
(dp62
g13
F3.0144225015491366
sg14
I4
sg15
I01
sg16
I9
sg17
I57
sbs(I5
I3
tp63
g1
(g10
g3
NtRp64
(dp65
g13
F2.4421075104129235
sg14
I5
sg15
I01
sg16
I3
sg17
I15
sbs(I10
I5
tp66
g1
(g10
g3
NtRp67
(dp68
g13
F-3.3915259003813203
sg14
I10
sg15
I01
sg16
I5
sg17
I79
sbs(I9
I2
tp69
g1
(g10
g3
NtRp70
(dp71
g13
F-12.871519418378245
sg14
I9
sg15
I00
sg16
I2
sg17
I48
sbs(I4
I3
tp72
g1
(g10
g3
NtRp73
(dp74
g13
F15.987962102057143
sg14
I4
sg15
I01
sg16
I3
sg17
I10
sbs(I5
I2
tp75
g1
(g10
g3
NtRp76
(dp77
g13
F-30
sg14
I5
sg15
I00
sg16
I2
sg17
I21
sbs(I2
I4
tp78
g1
(g10
g3
NtRp79
(dp80
g13
F-6.6854166670140955
sg14
I2
sg15
I01
sg16
I4
sg17
I16
sbs(I10
I2
tp81
g1
(g10
g3
NtRp82
(dp83
g13
F-16.326247425236268
sg14
I10
sg15
I01
sg16
I2
sg17
I66
sbssS'_input_nodes'
p84
I1
sS'_output_nodes'
p85
I1
sS'_node_gene_type'
p86
cneat.genome
NodeGene
p87
sS'_conn_gene_type'
p88
g10
sS'fitness'
p89
F0.99885073853244333
sS'parent2_id'
p90
I7538
sS'_id'
p91
I7582
sS'parent1_id'
p92
I7538
sS'_node_genes'
p93
(lp94
g1
(g87
g3
NtRp95
(dp96
S'_bias'
p97
I0
sS'_type'
p98
S'INPUT'
p99
sg91
I1
sS'_response'
p100
F4.9242730000000003
sS'_activation_type'
p101
Nsbag1
(g87
g3
NtRp102
(dp103
g97
F-6.8664008055279604
sg98
S'OUTPUT'
p104
sg91
I2
sg100
F6.5029819301276648
sg101
S'tanh'
p105
sbag1
(g87
g3
NtRp106
(dp107
g97
F1.5712892109806655
sg98
S'HIDDEN'
p108
sg91
I3
sg100
F5.3474070295991876
sg101
g105
sbag1
(g87
g3
NtRp109
(dp110
g97
F-0.17205418488644567
sg98
g108
sg91
I4
sg100
F8.6039492831565383
sg101
g105
sbag1
(g87
g3
NtRp111
(dp112
g97
F2.6628187849892662
sg98
g108
sg91
I5
sg100
F5.5641040155968478
sg101
g105
sbag1
(g87
g3
NtRp113
(dp114
g97
F1.0798242803452862
sg98
g108
sg91
I6
sg100
F3.0506057619504454
sg101
g105
sbag1
(g87
g3
NtRp115
(dp116
g97
F1.6446665269133738
sg98
g108
sg91
I7
sg100
F5.2524407258464327
sg101
g105
sbag1
(g87
g3
NtRp117
(dp118
g97
F-0.90677618826820472
sg98
g108
sg91
I8
sg100
F5.3152000863524487
sg101
g105
sbag1
(g87
g3
NtRp119
(dp120
g97
F3.4556554677628011
sg98
g108
sg91
I9
sg100
F3.4230115427011834
sg101
g105
sbag1
(g87
g3
NtRp121
(dp122
g97
F0.32551264359902565
sg98
g108
sg91
I10
sg100
F5.4438137298760383
sg101
g105
sbasb.