ccopy_reg
_reconstructor
p1
(cneat.chromosome
Chromosome
p2
c__builtin__
object
p3
NtRp4
(dp5
S'species_id'
p6
I96
sS'_connection_genes'
p7
(dp8
(I7
I3
tp9
g1
(cneat.genome
ConnectionGene
p10
g3
NtRp11
(dp12
S'_ConnectionGene__weight'
p13
F29.896671854183314
sS'_ConnectionGene__in'
p14
I7
sS'_ConnectionGene__enabled'
p15
I01
sS'_ConnectionGene__out'
p16
I3
sS'_ConnectionGene__innov_number'
p17
I36
sbs(I6
I9
tp18
g1
(g10
g3
NtRp19
(dp20
g13
F-18.353743824335872
sg14
I6
sg15
I01
sg16
I9
sg17
I81
sbs(I1
I3
tp21
g1
(g10
g3
NtRp22
(dp23
g13
F4.6365794552563013
sg14
I1
sg15
I01
sg16
I3
sg17
I3
sbs(I8
I13
tp24
g1
(g10
g3
NtRp25
(dp26
g13
F-0.35935440012981745
sg14
I8
sg15
I01
sg16
I13
sg17
I197
sbs(I5
I9
tp27
g1
(g10
g3
NtRp28
(dp29
g13
F6.7721189604766527
sg14
I5
sg15
I01
sg16
I9
sg17
I100
sbs(I13
I4
tp30
g1
(g10
g3
NtRp31
(dp32
g13
F-2.5658001411974714
sg14
I13
sg15
I01
sg16
I4
sg17
I163
sbs(I5
I4
tp33
g1
(g10
g3
NtRp34
(dp35
g13
F3.5472791795901739
sg14
I5
sg15
I01
sg16
I4
sg17
I13
sbs(I3
I7
tp36
g1
(g10
g3
NtRp37
(dp38
g13
F-0.70609900866793507
sg14
I3
sg15
I01
sg16
I7
sg17
I49
sbs(I12
I9
tp39
g1
(g10
g3
NtRp40
(dp41
g13
F14.586506043112585
sg14
I12
sg15
I01
sg16
I9
sg17
I109
sbs(I9
I2
tp42
g1
(g10
g3
NtRp43
(dp44
g13
F-7.995617991529981
sg14
I9
sg15
I01
sg16
I2
sg17
I48
sbs(I1
I2
tp45
g1
(g10
g3
NtRp46
(dp47
g13
F-13.134911549584679
sg14
I1
sg15
I01
sg16
I2
sg17
I1
sbs(I4
I9
tp48
g1
(g10
g3
NtRp49
(dp50
g13
F30
sg14
I4
sg15
I01
sg16
I9
sg17
I57
sbs(I3
I3
tp51
g1
(g10
g3
NtRp52
(dp53
g13
F-20.89362165396334
sg14
I3
sg15
I01
sg16
I3
sg17
I8
sbs(I9
I15
tp54
g1
(g10
g3
NtRp55
(dp56
g13
F-6.9510141225255069
sg14
I9
sg15
I01
sg16
I15
sg17
I219
sbs(I3
I10
tp57
g1
(g10
g3
NtRp58
(dp59
g13
F22.149909733511933
sg14
I3
sg15
I01
sg16
I10
sg17
I76
sbs(I4
I8
tp60
g1
(g10
g3
NtRp61
(dp62
g13
F16.909858955788742
sg14
I4
sg15
I01
sg16
I8
sg17
I38
sbs(I4
I4
tp63
g1
(g10
g3
NtRp64
(dp65
g13
F1.0347159813815359
sg14
I4
sg15
I01
sg16
I4
sg17
I11
sbs(I6
I5
tp66
g1
(g10
g3
NtRp67
(dp68
g13
F-14.607073473888244
sg14
I6
sg15
I01
sg16
I5
sg17
I28
sbs(I3
I6
tp69
g1
(g10
g3
NtRp70
(dp71
g13
F-15.751753165431696
sg14
I3
sg15
I01
sg16
I6
sg17
I22
sbs(I14
I14
tp72
g1
(g10
g3
NtRp73
(dp74
g13
F-1.030928269545117
sg14
I14
sg15
I01
sg16
I14
sg17
I184
sbs(I15
I12
tp75
g1
(g10
g3
NtRp76
(dp77
g13
F-0.022664253262458356
sg14
I15
sg15
I01
sg16
I12
sg17
I159
sbs(I3
I2
tp78
g1
(g10
g3
NtRp79
(dp80
g13
F25.591749043465615
sg14
I3
sg15
I00
sg16
I2
sg17
I4
sbs(I6
I6
tp81
g1
(g10
g3
NtRp82
(dp83
g13
F-6.304476374262018
sg14
I6
sg15
I01
sg16
I6
sg17
I37
sbs(I15
I3
tp84
g1
(g10
g3
NtRp85
(dp86
g13
F1.8018169015664867
sg14
I15
sg15
I01
sg16
I3
sg17
I182
sbs(I9
I3
tp87
g1
(g10
g3
NtRp88
(dp89
g13
F9.7092627415408082
sg14
I9
sg15
I00
sg16
I3
sg17
I60
sbs(I2
I3
tp90
g1
(g10
g3
NtRp91
(dp92
g13
F-7.5318442770933212
sg14
I2
sg15
I01
sg16
I3
sg17
I5
sbs(I1
I9
tp93
g1
(g10
g3
NtRp94
(dp95
g13
F17.132474736567488
sg14
I1
sg15
I01
sg16
I9
sg17
I47
sbs(I14
I2
tp96
g1
(g10
g3
NtRp97
(dp98
g13
F26.964718814010958
sg14
I14
sg15
I01
sg16
I2
sg17
I125
sbs(I4
I11
tp99
g1
(g10
g3
NtRp100
(dp101
g13
F-5.022138503429403
sg14
I4
sg15
I01
sg16
I11
sg17
I86
sbs(I3
I5
tp102
g1
(g10
g3
NtRp103
(dp104
g13
F30
sg14
I3
sg15
I01
sg16
I5
sg17
I12
sbs(I10
I5
tp105
g1
(g10
g3
NtRp106
(dp107
g13
F3.841637341189247
sg14
I10
sg15
I01
sg16
I5
sg17
I79
sbs(I6
I8
tp108
g1
(g10
g3
NtRp109
(dp110
g13
F-1.7898927360207078
sg14
I6
sg15
I01
sg16
I8
sg17
I51
sbs(I11
I8
tp111
g1
(g10
g3
NtRp112
(dp113
g13
F16.33909609769805
sg14
I11
sg15
I01
sg16
I8
sg17
I91
sbs(I9
I9
tp114
g1
(g10
g3
NtRp115
(dp116
g13
F-0.68440021036795295
sg14
I9
sg15
I00
sg16
I9
sg17
I73
sbs(I13
I14
tp117
g1
(g10
g3
NtRp118
(dp119
g13
F-5.249728515829533
sg14
I13
sg15
I01
sg16
I14
sg17
I189
sbs(I10
I14
tp120
g1
(g10
g3
NtRp121
(dp122
g13
F12.492160612175091
sg14
I10
sg15
I01
sg16
I14
sg17
I145
sbs(I4
I3
tp123
g1
(g10
g3
NtRp124
(dp125
g13
F0.28886179441030091
sg14
I4
sg15
I01
sg16
I3
sg17
I10
sbs(I10
I2
tp126
g1
(g10
g3
NtRp127
(dp128
g13
F24.585544584262625
sg14
I10
sg15
I00
sg16
I2
sg17
I66
sbs(I5
I2
tp129
g1
(g10
g3
NtRp130
(dp131
g13
F-2.9182506367947321
sg14
I5
sg15
I01
sg16
I2
sg17
I21
sbs(I2
I4
tp132
g1
(g10
g3
NtRp133
(dp134
g13
F17.992638925580472
sg14
I2
sg15
I01
sg16
I4
sg17
I16
sbs(I9
I12
tp135
g1
(g10
g3
NtRp136
(dp137
g13
F0.77556031498932865
sg14
I9
sg15
I01
sg16
I12
sg17
I127
sbs(I8
I4
tp138
g1
(g10
g3
NtRp139
(dp140
g13
F10.000869094900647
sg14
I8
sg15
I01
sg16
I4
sg17
I41
sbssS'_input_nodes'
p141
I1
sS'_output_nodes'
p142
I1
sS'_node_gene_type'
p143
cneat.genome
NodeGene
p144
sS'_conn_gene_type'
p145
g10
sS'fitness'
p146
F0.97430389675889917
sS'parent2_id'
p147
I13823
sS'_id'
p148
I13869
sS'parent1_id'
p149
I13823
sS'_node_genes'
p150
(lp151
g1
(g144
g3
NtRp152
(dp153
S'_bias'
p154
I0
sS'_type'
p155
S'INPUT'
p156
sg148
I1
sS'_response'
p157
F4.9242730000000003
sS'_activation_type'
p158
Nsbag1
(g144
g3
NtRp159
(dp160
g154
F0.98261035638164129
sg155
S'OUTPUT'
p161
sg148
I2
sg157
F5.3270153547130352
sg158
S'tanh'
p162
sbag1
(g144
g3
NtRp163
(dp164
g154
F-3.9656341468026852
sg155
S'HIDDEN'
p165
sg148
I3
sg157
F4.8509831291717793
sg158
g162
sbag1
(g144
g3
NtRp166
(dp167
g154
F4.8553991608076394
sg155
g165
sg148
I4
sg157
F1.5294882815425976
sg158
g162
sbag1
(g144
g3
NtRp168
(dp169
g154
F-3.0686256851905043
sg155
g165
sg148
I5
sg157
F8.6896377787454373
sg158
g162
sbag1
(g144
g3
NtRp170
(dp171
g154
F0.56493614694503635
sg155
g165
sg148
I6
sg157
F8.1400738427550774
sg158
g162
sbag1
(g144
g3
NtRp172
(dp173
g154
F-3.5256880159124564
sg155
g165
sg148
I7
sg157
F9.0383618657809848
sg158
g162
sbag1
(g144
g3
NtRp174
(dp175
g154
F-1.5252033835031762
sg155
g165
sg148
I8
sg157
F1.8592966375430409
sg158
g162
sbag1
(g144
g3
NtRp176
(dp177
g154
F-0.049491455059011868
sg155
g165
sg148
I9
sg157
F3.7301258778214899
sg158
g162
sbag1
(g144
g3
NtRp178
(dp179
g154
F4.1141126976286033
sg155
g165
sg148
I10
sg157
F3.0887556396816827
sg158
g162
sbag1
(g144
g3
NtRp180
(dp181
g154
F2.5746209709423371
sg155
g165
sg148
I11
sg157
F7.4544670848961854
sg158
g162
sbag1
(g144
g3
NtRp182
(dp183
g154
F1.1192790535653212
sg155
g165
sg148
I12
sg157
F5.0547528203988694
sg158
g162
sbag1
(g144
g3
NtRp184
(dp185
g154
F-1.0218037937935311
sg155
g165
sg148
I13
sg157
F5.0190434684805467
sg158
g162
sbag1
(g144
g3
NtRp186
(dp187
g154
F-2.3819351052204087
sg155
g165
sg148
I14
sg157
F6.4891735380593909
sg158
g162
sbag1
(g144
g3
NtRp188
(dp189
g154
F0.016028598872156768
sg155
g165
sg148
I15
sg157
F5.8476111616863049
sg158
g162
sbasb.