ccopy_reg
_reconstructor
p1
(cneat.chromosome
Chromosome
p2
c__builtin__
object
p3
NtRp4
(dp5
S'species_id'
p6
I52
sS'_connection_genes'
p7
(dp8
(I7
I3
tp9
g1
(cneat.genome
ConnectionGene
p10
g3
NtRp11
(dp12
S'_ConnectionGene__weight'
p13
F14.128274569826061
sS'_ConnectionGene__in'
p14
I7
sS'_ConnectionGene__enabled'
p15
I01
sS'_ConnectionGene__out'
p16
I3
sS'_ConnectionGene__innov_number'
p17
I36
sbs(I1
I3
tp18
g1
(g10
g3
NtRp19
(dp20
g13
F-12.268681016661439
sg14
I1
sg15
I01
sg16
I3
sg17
I3
sbs(I5
I9
tp21
g1
(g10
g3
NtRp22
(dp23
g13
F-1.3773550773791239
sg14
I5
sg15
I01
sg16
I9
sg17
I100
sbs(I3
I2
tp24
g1
(g10
g3
NtRp25
(dp26
g13
F15.5011909058684
sg14
I3
sg15
I00
sg16
I2
sg17
I4
sbs(I3
I7
tp27
g1
(g10
g3
NtRp28
(dp29
g13
F-3.3267156993486258
sg14
I3
sg15
I01
sg16
I7
sg17
I49
sbs(I1
I2
tp30
g1
(g10
g3
NtRp31
(dp32
g13
F-25.023045441946213
sg14
I1
sg15
I01
sg16
I2
sg17
I1
sbs(I4
I9
tp33
g1
(g10
g3
NtRp34
(dp35
g13
F3.6996874538486431
sg14
I4
sg15
I01
sg16
I9
sg17
I57
sbs(I3
I3
tp36
g1
(g10
g3
NtRp37
(dp38
g13
F-11.624739506117361
sg14
I3
sg15
I01
sg16
I3
sg17
I8
sbs(I3
I10
tp39
g1
(g10
g3
NtRp40
(dp41
g13
F7.8135511987626378
sg14
I3
sg15
I01
sg16
I10
sg17
I76
sbs(I6
I6
tp42
g1
(g10
g3
NtRp43
(dp44
g13
F2.2909085116708297
sg14
I6
sg15
I01
sg16
I6
sg17
I37
sbs(I4
I4
tp45
g1
(g10
g3
NtRp46
(dp47
g13
F-3.3049690841055486
sg14
I4
sg15
I00
sg16
I4
sg17
I11
sbs(I4
I8
tp48
g1
(g10
g3
NtRp49
(dp50
g13
F-0.036252662820331349
sg14
I4
sg15
I01
sg16
I8
sg17
I38
sbs(I3
I6
tp51
g1
(g10
g3
NtRp52
(dp53
g13
F-2.2822219328471522
sg14
I3
sg15
I01
sg16
I6
sg17
I22
sbs(I5
I4
tp54
g1
(g10
g3
NtRp55
(dp56
g13
F9.0480392713488538
sg14
I5
sg15
I01
sg16
I4
sg17
I13
sbs(I9
I3
tp57
g1
(g10
g3
NtRp58
(dp59
g13
F-17.346023726185386
sg14
I9
sg15
I01
sg16
I3
sg17
I60
sbs(I2
I3
tp60
g1
(g10
g3
NtRp61
(dp62
g13
F4.6277210222805909
sg14
I2
sg15
I01
sg16
I3
sg17
I5
sbs(I1
I9
tp63
g1
(g10
g3
NtRp64
(dp65
g13
F3.309464622171244
sg14
I1
sg15
I01
sg16
I9
sg17
I47
sbs(I6
I5
tp66
g1
(g10
g3
NtRp67
(dp68
g13
F-10.024380765287107
sg14
I6
sg15
I01
sg16
I5
sg17
I28
sbs(I3
I5
tp69
g1
(g10
g3
NtRp70
(dp71
g13
F5.7848198697529396
sg14
I3
sg15
I01
sg16
I5
sg17
I12
sbs(I10
I5
tp72
g1
(g10
g3
NtRp73
(dp74
g13
F1.2255422119323036
sg14
I10
sg15
I01
sg16
I5
sg17
I79
sbs(I9
I2
tp75
g1
(g10
g3
NtRp76
(dp77
g13
F11.461801221810861
sg14
I9
sg15
I01
sg16
I2
sg17
I48
sbs(I9
I9
tp78
g1
(g10
g3
NtRp79
(dp80
g13
F2.9170470379224671
sg14
I9
sg15
I01
sg16
I9
sg17
I73
sbs(I4
I3
tp81
g1
(g10
g3
NtRp82
(dp83
g13
F0.036719908212203389
sg14
I4
sg15
I01
sg16
I3
sg17
I10
sbs(I8
I4
tp84
g1
(g10
g3
NtRp85
(dp86
g13
F-1.3880220075970393
sg14
I8
sg15
I01
sg16
I4
sg17
I41
sbs(I5
I2
tp87
g1
(g10
g3
NtRp88
(dp89
g13
F-1.4182440385314998
sg14
I5
sg15
I01
sg16
I2
sg17
I21
sbs(I2
I4
tp90
g1
(g10
g3
NtRp91
(dp92
g13
F30
sg14
I2
sg15
I01
sg16
I4
sg17
I16
sbs(I10
I2
tp93
g1
(g10
g3
NtRp94
(dp95
g13
F18.696569335785721
sg14
I10
sg15
I01
sg16
I2
sg17
I66
sbssS'_input_nodes'
p96
I1
sS'_output_nodes'
p97
I1
sS'_node_gene_type'
p98
cneat.genome
NodeGene
p99
sS'_conn_gene_type'
p100
g10
sS'fitness'
p101
F0.9937342491194886
sS'parent2_id'
p102
I8127
sS'_id'
p103
I8178
sS'parent1_id'
p104
I8127
sS'_node_genes'
p105
(lp106
g1
(g99
g3
NtRp107
(dp108
S'_bias'
p109
I0
sS'_type'
p110
S'INPUT'
p111
sg103
I1
sS'_response'
p112
F4.9242730000000003
sS'_activation_type'
p113
Nsbag1
(g99
g3
NtRp114
(dp115
g109
F1.1955543463519414
sg110
S'OUTPUT'
p116
sg103
I2
sg112
F3.5478273535223912
sg113
S'tanh'
p117
sbag1
(g99
g3
NtRp118
(dp119
g109
F-1.8911111204449038
sg110
S'HIDDEN'
p120
sg103
I3
sg112
F3.8128611358067905
sg113
g117
sbag1
(g99
g3
NtRp121
(dp122
g109
F1.5571072673210677
sg110
g120
sg103
I4
sg112
F1.8131202199522218
sg113
g117
sbag1
(g99
g3
NtRp123
(dp124
g109
F-3.7528485638337896
sg110
g120
sg103
I5
sg112
F5.8314790652383106
sg113
g117
sbag1
(g99
g3
NtRp125
(dp126
g109
F0.11145546681616603
sg110
g120
sg103
I6
sg112
F9.8409556738797885
sg113
g117
sbag1
(g99
g3
NtRp127
(dp128
g109
F-2.3740830590868729
sg110
g120
sg103
I7
sg112
F9.8882985317341703
sg113
g117
sbag1
(g99
g3
NtRp129
(dp130
g109
F-2.6662822392005765
sg110
g120
sg103
I8
sg112
F3.3797429234081595
sg113
g117
sbag1
(g99
g3
NtRp131
(dp132
g109
F2.8200571943052744
sg110
g120
sg103
I9
sg112
F2.7930941118977146
sg113
g117
sbag1
(g99
g3
NtRp133
(dp134
g109
F1.2452894285381004
sg110
g120
sg103
I10
sg112
F3.2305662099649188
sg113
g117
sbasb.