ccopy_reg
_reconstructor
p1
(cneat.chromosome
Chromosome
p2
c__builtin__
object
p3
NtRp4
(dp5
S'species_id'
p6
I46
sS'_connection_genes'
p7
(dp8
(I7
I3
tp9
g1
(cneat.genome
ConnectionGene
p10
g3
NtRp11
(dp12
S'_ConnectionGene__weight'
p13
F-2.0674147059618928
sS'_ConnectionGene__in'
p14
I7
sS'_ConnectionGene__enabled'
p15
I01
sS'_ConnectionGene__out'
p16
I3
sS'_ConnectionGene__innov_number'
p17
I36
sbs(I1
I3
tp18
g1
(g10
g3
NtRp19
(dp20
g13
F-1.071572343599811
sg14
I1
sg15
I01
sg16
I3
sg17
I3
sbs(I6
I6
tp21
g1
(g10
g3
NtRp22
(dp23
g13
F-1.7716442347103212
sg14
I6
sg15
I01
sg16
I6
sg17
I37
sbs(I5
I4
tp24
g1
(g10
g3
NtRp25
(dp26
g13
F-2.8030472930467463
sg14
I5
sg15
I01
sg16
I4
sg17
I13
sbs(I3
I7
tp27
g1
(g10
g3
NtRp28
(dp29
g13
F11.845626256792389
sg14
I3
sg15
I01
sg16
I7
sg17
I49
sbs(I1
I2
tp30
g1
(g10
g3
NtRp31
(dp32
g13
F-12.33540685918603
sg14
I1
sg15
I01
sg16
I2
sg17
I1
sbs(I3
I3
tp33
g1
(g10
g3
NtRp34
(dp35
g13
F-7.9254990361499917
sg14
I3
sg15
I01
sg16
I3
sg17
I8
sbs(I4
I4
tp36
g1
(g10
g3
NtRp37
(dp38
g13
F5.8990584678238438
sg14
I4
sg15
I00
sg16
I4
sg17
I11
sbs(I4
I8
tp39
g1
(g10
g3
NtRp40
(dp41
g13
F-7.2132099527451947
sg14
I4
sg15
I01
sg16
I8
sg17
I38
sbs(I3
I6
tp42
g1
(g10
g3
NtRp43
(dp44
g13
F-7.3397117219852595
sg14
I3
sg15
I01
sg16
I6
sg17
I22
sbs(I3
I2
tp45
g1
(g10
g3
NtRp46
(dp47
g13
F14.662596927016768
sg14
I3
sg15
I00
sg16
I2
sg17
I4
sbs(I9
I10
tp48
g1
(g10
g3
NtRp49
(dp50
g13
F2.4149769236233891
sg14
I9
sg15
I01
sg16
I10
sg17
I84
sbs(I3
I9
tp51
g1
(g10
g3
NtRp52
(dp53
g13
F1.3583068020640701
sg14
I3
sg15
I01
sg16
I9
sg17
I62
sbs(I2
I3
tp54
g1
(g10
g3
NtRp55
(dp56
g13
F6.8831855682286518
sg14
I2
sg15
I00
sg16
I3
sg17
I5
sbs(I6
I5
tp57
g1
(g10
g3
NtRp58
(dp59
g13
F-5.9351880192840287
sg14
I6
sg15
I01
sg16
I5
sg17
I28
sbs(I3
I5
tp60
g1
(g10
g3
NtRp61
(dp62
g13
F-0.43628843845072318
sg14
I3
sg15
I01
sg16
I5
sg17
I12
sbs(I9
I2
tp63
g1
(g10
g3
NtRp64
(dp65
g13
F13.947098902856627
sg14
I9
sg15
I00
sg16
I2
sg17
I48
sbs(I4
I3
tp66
g1
(g10
g3
NtRp67
(dp68
g13
F14.429169933845731
sg14
I4
sg15
I01
sg16
I3
sg17
I10
sbs(I8
I4
tp69
g1
(g10
g3
NtRp70
(dp71
g13
F4.3574857811699248
sg14
I8
sg15
I01
sg16
I4
sg17
I41
sbs(I5
I2
tp72
g1
(g10
g3
NtRp73
(dp74
g13
F6.6892424279231575
sg14
I5
sg15
I01
sg16
I2
sg17
I21
sbs(I2
I4
tp75
g1
(g10
g3
NtRp76
(dp77
g13
F15.821574765231349
sg14
I2
sg15
I01
sg16
I4
sg17
I16
sbs(I10
I2
tp78
g1
(g10
g3
NtRp79
(dp80
g13
F11.006834448028966
sg14
I10
sg15
I01
sg16
I2
sg17
I66
sbssS'_input_nodes'
p81
I1
sS'_output_nodes'
p82
I1
sS'_node_gene_type'
p83
cneat.genome
NodeGene
p84
sS'_conn_gene_type'
p85
g10
sS'fitness'
p86
F0.98281724899809164
sS'parent2_id'
p87
I6760
sS'_id'
p88
I6801
sS'parent1_id'
p89
I6760
sS'_node_genes'
p90
(lp91
g1
(g84
g3
NtRp92
(dp93
S'_bias'
p94
I0
sS'_type'
p95
S'INPUT'
p96
sg88
I1
sS'_response'
p97
F4.9242730000000003
sS'_activation_type'
p98
Nsbag1
(g84
g3
NtRp99
(dp100
g94
F1.9783659949404477
sg95
S'OUTPUT'
p101
sg88
I2
sg97
F4.3419283378756628
sg98
S'tanh'
p102
sbag1
(g84
g3
NtRp103
(dp104
g94
F-0.98561305165191726
sg95
S'HIDDEN'
p105
sg88
I3
sg97
F2.6311749998288159
sg98
g102
sbag1
(g84
g3
NtRp106
(dp107
g94
F0.57528426786733866
sg95
g105
sg88
I4
sg97
F5.1410906789684363
sg98
g102
sbag1
(g84
g3
NtRp108
(dp109
g94
F-1.1634862155493391
sg95
g105
sg88
I5
sg97
F4.8442045643380807
sg98
g102
sbag1
(g84
g3
NtRp110
(dp111
g94
F0.65007898763037375
sg95
g105
sg88
I6
sg97
F6.4101650392315346
sg98
g102
sbag1
(g84
g3
NtRp112
(dp113
g94
F-2.1619510485880875
sg95
g105
sg88
I7
sg97
F6.0881358501778067
sg98
g102
sbag1
(g84
g3
NtRp114
(dp115
g94
F-0.50224606810917882
sg95
g105
sg88
I8
sg97
F5.1968735297188138
sg98
g102
sbag1
(g84
g3
NtRp116
(dp117
g94
F-0.91717158474752547
sg95
g105
sg88
I9
sg97
F4.7472571894320437
sg98
g102
sbag1
(g84
g3
NtRp118
(dp119
g94
F0.99236526389205915
sg95
g105
sg88
I10
sg97
F5.181997850628755
sg98
g102
sbasb.