ccopy_reg
_reconstructor
p1
(cneat.chromosome
Chromosome
p2
c__builtin__
object
p3
NtRp4
(dp5
S'species_id'
p6
I127
sS'_connection_genes'
p7
(dp8
(I7
I3
tp9
g1
(cneat.genome
ConnectionGene
p10
g3
NtRp11
(dp12
S'_ConnectionGene__weight'
p13
F23.420971521225887
sS'_ConnectionGene__in'
p14
I7
sS'_ConnectionGene__enabled'
p15
I01
sS'_ConnectionGene__out'
p16
I3
sS'_ConnectionGene__innov_number'
p17
I36
sbs(I1
I3
tp18
g1
(g10
g3
NtRp19
(dp20
g13
F-26.290134682255474
sg14
I1
sg15
I01
sg16
I3
sg17
I3
sbs(I5
I9
tp21
g1
(g10
g3
NtRp22
(dp23
g13
F-5.8589388826213407
sg14
I5
sg15
I01
sg16
I9
sg17
I100
sbs(I11
I2
tp24
g1
(g10
g3
NtRp25
(dp26
g13
F12.236454813721258
sg14
I11
sg15
I01
sg16
I2
sg17
I89
sbs(I5
I4
tp27
g1
(g10
g3
NtRp28
(dp29
g13
F-10.723762378192495
sg14
I5
sg15
I01
sg16
I4
sg17
I13
sbs(I10
I15
tp30
g1
(g10
g3
NtRp31
(dp32
g13
F7.872379229974948
sg14
I10
sg15
I01
sg16
I15
sg17
I169
sbs(I3
I7
tp33
g1
(g10
g3
NtRp34
(dp35
g13
F-15.693790404251624
sg14
I3
sg15
I01
sg16
I7
sg17
I49
sbs(I1
I11
tp36
g1
(g10
g3
NtRp37
(dp38
g13
F4.4275755204060836
sg14
I1
sg15
I01
sg16
I11
sg17
I88
sbs(I5
I8
tp39
g1
(g10
g3
NtRp40
(dp41
g13
F11.728698482930483
sg14
I5
sg15
I01
sg16
I8
sg17
I45
sbs(I1
I2
tp42
g1
(g10
g3
NtRp43
(dp44
g13
F-8.9440604568754321
sg14
I1
sg15
I01
sg16
I2
sg17
I1
sbs(I12
I2
tp45
g1
(g10
g3
NtRp46
(dp47
g13
F8.8072984401697489
sg14
I12
sg15
I01
sg16
I2
sg17
I104
sbs(I13
I12
tp48
g1
(g10
g3
NtRp49
(dp50
g13
F11.56359272875488
sg14
I13
sg15
I00
sg16
I12
sg17
I291
sbs(I4
I9
tp51
g1
(g10
g3
NtRp52
(dp53
g13
F19.973762292279599
sg14
I4
sg15
I01
sg16
I9
sg17
I57
sbs(I3
I3
tp54
g1
(g10
g3
NtRp55
(dp56
g13
F2.6661967457568165
sg14
I3
sg15
I01
sg16
I3
sg17
I8
sbs(I2
I9
tp57
g1
(g10
g3
NtRp58
(dp59
g13
F-6.8218695462037537
sg14
I2
sg15
I01
sg16
I9
sg17
I144
sbs(I13
I3
tp60
g1
(g10
g3
NtRp61
(dp62
g13
F21.772171846682404
sg14
I13
sg15
I01
sg16
I3
sg17
I117
sbs(I3
I10
tp63
g1
(g10
g3
NtRp64
(dp65
g13
F-18.282632238532219
sg14
I3
sg15
I01
sg16
I10
sg17
I76
sbs(I4
I8
tp66
g1
(g10
g3
NtRp67
(dp68
g13
F9.0312229146517531
sg14
I4
sg15
I01
sg16
I8
sg17
I38
sbs(I10
I12
tp69
g1
(g10
g3
NtRp70
(dp71
g13
F-19.851659802669232
sg14
I10
sg15
I01
sg16
I12
sg17
I111
sbs(I13
I16
tp72
g1
(g10
g3
NtRp73
(dp74
g13
F1.5205290125718567
sg14
I13
sg15
I01
sg16
I16
sg17
I191
sbs(I2
I13
tp75
g1
(g10
g3
NtRp76
(dp77
g13
F5.3871251706559029
sg14
I2
sg15
I01
sg16
I13
sg17
I176
sbs(I4
I11
tp78
g1
(g10
g3
NtRp79
(dp80
g13
F7.0105153177495634
sg14
I4
sg15
I01
sg16
I11
sg17
I86
sbs(I3
I6
tp81
g1
(g10
g3
NtRp82
(dp83
g13
F-15.62097862993263
sg14
I3
sg15
I01
sg16
I6
sg17
I22
sbs(I2
I2
tp84
g1
(g10
g3
NtRp85
(dp86
g13
F-13.021337076141952
sg14
I2
sg15
I01
sg16
I2
sg17
I2
sbs(I3
I5
tp87
g1
(g10
g3
NtRp88
(dp89
g13
F27.43200911421118
sg14
I3
sg15
I01
sg16
I5
sg17
I12
sbs(I3
I2
tp90
g1
(g10
g3
NtRp91
(dp92
g13
F13.42919871649184
sg14
I3
sg15
I01
sg16
I2
sg17
I4
sbs(I6
I6
tp93
g1
(g10
g3
NtRp94
(dp95
g13
F-0.82652084972989404
sg14
I6
sg15
I01
sg16
I6
sg17
I37
sbs(I7
I10
tp96
g1
(g10
g3
NtRp97
(dp98
g13
F21.270592604070149
sg14
I7
sg15
I01
sg16
I10
sg17
I78
sbs(I5
I11
tp99
g1
(g10
g3
NtRp100
(dp101
g13
F26.573328313310562
sg14
I5
sg15
I01
sg16
I11
sg17
I90
sbs(I9
I3
tp102
g1
(g10
g3
NtRp103
(dp104
g13
F-29.141635446697705
sg14
I9
sg15
I01
sg16
I3
sg17
I60
sbs(I4
I4
tp105
g1
(g10
g3
NtRp106
(dp107
g13
F-27.538470885834045
sg14
I4
sg15
I00
sg16
I4
sg17
I11
sbs(I2
I3
tp108
g1
(g10
g3
NtRp109
(dp110
g13
F19.030059684372286
sg14
I2
sg15
I01
sg16
I3
sg17
I5
sbs(I1
I9
tp111
g1
(g10
g3
NtRp112
(dp113
g13
F22.837893191286902
sg14
I1
sg15
I01
sg16
I9
sg17
I47
sbs(I16
I12
tp114
g1
(g10
g3
NtRp115
(dp116
g13
F5.6332510494629506
sg14
I16
sg15
I01
sg16
I12
sg17
I242
sbs(I4
I2
tp117
g1
(g10
g3
NtRp118
(dp119
g13
F-6.7983558864960925
sg14
I4
sg15
I01
sg16
I2
sg17
I7
sbs(I6
I5
tp120
g1
(g10
g3
NtRp121
(dp122
g13
F-26.07732946194232
sg14
I6
sg15
I01
sg16
I5
sg17
I28
sbs(I5
I3
tp123
g1
(g10
g3
NtRp124
(dp125
g13
F-1.9389198273329251
sg14
I5
sg15
I01
sg16
I3
sg17
I15
sbs(I2
I7
tp126
g1
(g10
g3
NtRp127
(dp128
g13
F-16.721842473763399
sg14
I2
sg15
I01
sg16
I7
sg17
I42
sbs(I10
I5
tp129
g1
(g10
g3
NtRp130
(dp131
g13
F15.343007819718053
sg14
I10
sg15
I01
sg16
I5
sg17
I79
sbs(I15
I2
tp132
g1
(g10
g3
NtRp133
(dp134
g13
F-4.8950691592940903
sg14
I15
sg15
I01
sg16
I2
sg17
I150
sbs(I9
I2
tp135
g1
(g10
g3
NtRp136
(dp137
g13
F4.7634847996012546
sg14
I9
sg15
I01
sg16
I2
sg17
I48
sbs(I4
I15
tp138
g1
(g10
g3
NtRp139
(dp140
g13
F-3.4609837453389067
sg14
I4
sg15
I01
sg16
I15
sg17
I217
sbs(I9
I9
tp141
g1
(g10
g3
NtRp142
(dp143
g13
F1.360081762698097
sg14
I9
sg15
I01
sg16
I9
sg17
I73
sbs(I5
I14
tp144
g1
(g10
g3
NtRp145
(dp146
g13
F27.660798729873314
sg14
I5
sg15
I01
sg16
I14
sg17
I122
sbs(I11
I8
tp147
g1
(g10
g3
NtRp148
(dp149
g13
F11.168450160124447
sg14
I11
sg15
I01
sg16
I8
sg17
I91
sbs(I12
I4
tp150
g1
(g10
g3
NtRp151
(dp152
g13
F-8.331147642028931
sg14
I12
sg15
I01
sg16
I4
sg17
I115
sbs(I4
I3
tp153
g1
(g10
g3
NtRp154
(dp155
g13
F-20.789686786689273
sg14
I4
sg15
I01
sg16
I3
sg17
I10
sbs(I14
I3
tp156
g1
(g10
g3
NtRp157
(dp158
g13
F22.34815258497839
sg14
I14
sg15
I01
sg16
I3
sg17
I132
sbs(I13
I9
tp159
g1
(g10
g3
NtRp160
(dp161
g13
F14.196313119897182
sg14
I13
sg15
I01
sg16
I9
sg17
I137
sbs(I10
I2
tp162
g1
(g10
g3
NtRp163
(dp164
g13
F4.0808240228988426
sg14
I10
sg15
I01
sg16
I2
sg17
I66
sbs(I5
I2
tp165
g1
(g10
g3
NtRp166
(dp167
g13
F10.297039068189795
sg14
I5
sg15
I01
sg16
I2
sg17
I21
sbs(I2
I4
tp168
g1
(g10
g3
NtRp169
(dp170
g13
F0.38618951636033905
sg14
I2
sg15
I01
sg16
I4
sg17
I16
sbs(I8
I4
tp171
g1
(g10
g3
NtRp172
(dp173
g13
F-10.004194830225007
sg14
I8
sg15
I01
sg16
I4
sg17
I41
sbssS'_input_nodes'
p174
I1
sS'_output_nodes'
p175
I1
sS'_node_gene_type'
p176
cneat.genome
NodeGene
p177
sS'_conn_gene_type'
p178
g10
sS'fitness'
p179
F0.9745396067678046
sS'parent2_id'
p180
I18751
sS'_id'
p181
I18792
sS'parent1_id'
p182
I18751
sS'_node_genes'
p183
(lp184
g1
(g177
g3
NtRp185
(dp186
S'_bias'
p187
I0
sS'_type'
p188
S'INPUT'
p189
sg181
I1
sS'_response'
p190
F4.9242730000000003
sS'_activation_type'
p191
Nsbag1
(g177
g3
NtRp192
(dp193
g187
F-0.89986038383916322
sg188
S'OUTPUT'
p194
sg181
I2
sg190
F5.4791523528670041
sg191
S'tanh'
p195
sbag1
(g177
g3
NtRp196
(dp197
g187
F-4.4682547128505687
sg188
S'HIDDEN'
p198
sg181
I3
sg190
F3.7325554986716831
sg191
g195
sbag1
(g177
g3
NtRp199
(dp200
g187
F0.58769092978260384
sg188
g198
sg181
I4
sg190
F-2.2576893567011092
sg191
g195
sbag1
(g177
g3
NtRp201
(dp202
g187
F-3.0200413447845262
sg188
g198
sg181
I5
sg190
F3.478241365801531
sg191
g195
sbag1
(g177
g3
NtRp203
(dp204
g187
F3.289754525781265
sg188
g198
sg181
I6
sg190
F6.1715095771601005
sg191
g195
sbag1
(g177
g3
NtRp205
(dp206
g187
F-0.21108740022415307
sg188
g198
sg181
I7
sg190
F9.4675903157413721
sg191
g195
sbag1
(g177
g3
NtRp207
(dp208
g187
F-3.0570986271321647
sg188
g198
sg181
I8
sg190
F4.0873219851048548
sg191
g195
sbag1
(g177
g3
NtRp209
(dp210
g187
F4.7658363080263619
sg188
g198
sg181
I9
sg190
F2.4329611628166452
sg191
g195
sbag1
(g177
g3
NtRp211
(dp212
g187
F-0.17598101485984247
sg188
g198
sg181
I10
sg190
F4.3465683970142885
sg191
g195
sbag1
(g177
g3
NtRp213
(dp214
g187
F-2.340213234343421
sg188
g198
sg181
I11
sg190
F4.6721292851180642
sg191
g195
sbag1
(g177
g3
NtRp215
(dp216
g187
F1.1388893368645281
sg188
g198
sg181
I12
sg190
F8.8971525575749375
sg191
g195
sbag1
(g177
g3
NtRp217
(dp218
g187
F-1.7526615357281434
sg188
g198
sg181
I13
sg190
F9.3505688994016047
sg191
g195
sbag1
(g177
g3
NtRp219
(dp220
g187
F3.3844548404072361
sg188
g198
sg181
I14
sg190
F6.8099620418008717
sg191
g195
sbag1
(g177
g3
NtRp221
(dp222
g187
F1.1418456694183456
sg188
g198
sg181
I15
sg190
F2.1891864189638812
sg191
g195
sbag1
(g177
g3
NtRp223
(dp224
g187
I0
sg188
g198
sg181
I16
sg190
F4.9242730000000003
sg191
g195
sbasb.