ccopy_reg
_reconstructor
p1
(cneat.chromosome
Chromosome
p2
c__builtin__
object
p3
NtRp4
(dp5
S'species_id'
p6
I74
sS'_connection_genes'
p7
(dp8
(I1
I3
tp9
g1
(cneat.genome
ConnectionGene
p10
g3
NtRp11
(dp12
S'_ConnectionGene__weight'
p13
F19.65964183907926
sS'_ConnectionGene__in'
p14
I1
sS'_ConnectionGene__enabled'
p15
I01
sS'_ConnectionGene__out'
p16
I3
sS'_ConnectionGene__innov_number'
p17
I3
sbs(I5
I6
tp18
g1
(g10
g3
NtRp19
(dp20
g13
F-7.4171893867417644
sg14
I5
sg15
I01
sg16
I6
sg17
I25
sbs(I11
I2
tp21
g1
(g10
g3
NtRp22
(dp23
g13
F-18.579173185690081
sg14
I11
sg15
I01
sg16
I2
sg17
I89
sbs(I8
I9
tp24
g1
(g10
g3
NtRp25
(dp26
g13
F-7.3201417977639025
sg14
I8
sg15
I01
sg16
I9
sg17
I61
sbs(I6
I2
tp27
g1
(g10
g3
NtRp28
(dp29
g13
F-7.7634639355100816
sg14
I6
sg15
I01
sg16
I2
sg17
I18
sbs(I16
I14
tp30
g1
(g10
g3
NtRp31
(dp32
g13
F1.7152714613711866
sg14
I16
sg15
I01
sg16
I14
sg17
I194
sbs(I3
I7
tp33
g1
(g10
g3
NtRp34
(dp35
g13
F-20.365971428666107
sg14
I3
sg15
I01
sg16
I7
sg17
I49
sbs(I7
I2
tp36
g1
(g10
g3
NtRp37
(dp38
g13
F-6.6484949640831381
sg14
I7
sg15
I01
sg16
I2
sg17
I31
sbs(I1
I2
tp39
g1
(g10
g3
NtRp40
(dp41
g13
F-20.864987641699823
sg14
I1
sg15
I01
sg16
I2
sg17
I1
sbs(I6
I7
tp42
g1
(g10
g3
NtRp43
(dp44
g13
F4.0247784842258891
sg14
I6
sg15
I01
sg16
I7
sg17
I34
sbs(I3
I3
tp45
g1
(g10
g3
NtRp46
(dp47
g13
F16.84143834352011
sg14
I3
sg15
I01
sg16
I3
sg17
I8
sbs(I8
I10
tp48
g1
(g10
g3
NtRp49
(dp50
g13
F7.0620616117127719
sg14
I8
sg15
I01
sg16
I10
sg17
I65
sbs(I13
I7
tp51
g1
(g10
g3
NtRp52
(dp53
g13
F-29.860257634539813
sg14
I13
sg15
I01
sg16
I7
sg17
I108
sbs(I3
I14
tp54
g1
(g10
g3
NtRp55
(dp56
g13
F-9.7160905352603866
sg14
I3
sg15
I00
sg16
I14
sg17
I133
sbs(I3
I16
tp57
g1
(g10
g3
NtRp58
(dp59
g13
F-0.41338709849269328
sg14
I3
sg15
I01
sg16
I16
sg17
I193
sbs(I5
I3
tp60
g1
(g10
g3
NtRp61
(dp62
g13
F30
sg14
I5
sg15
I01
sg16
I3
sg17
I15
sbs(I12
I3
tp63
g1
(g10
g3
NtRp64
(dp65
g13
F7.8709149074813531
sg14
I12
sg15
I00
sg16
I3
sg17
I106
sbs(I3
I2
tp66
g1
(g10
g3
NtRp67
(dp68
g13
F-6.2550601351698356
sg14
I3
sg15
I00
sg16
I2
sg17
I4
sbs(I8
I2
tp69
g1
(g10
g3
NtRp70
(dp71
g13
F-16.542410320203299
sg14
I8
sg15
I01
sg16
I2
sg17
I46
sbs(I3
I13
tp72
g1
(g10
g3
NtRp73
(dp74
g13
F8.0817032346980131
sg14
I3
sg15
I01
sg16
I13
sg17
I107
sbs(I15
I3
tp75
g1
(g10
g3
NtRp76
(dp77
g13
F8.0639630853582744
sg14
I15
sg15
I01
sg16
I3
sg17
I182
sbs(I8
I11
tp78
g1
(g10
g3
NtRp79
(dp80
g13
F8.4800330956300805
sg14
I8
sg15
I01
sg16
I11
sg17
I98
sbs(I9
I3
tp81
g1
(g10
g3
NtRp82
(dp83
g13
F-8.8770681447912132
sg14
I9
sg15
I01
sg16
I3
sg17
I60
sbs(I12
I15
tp84
g1
(g10
g3
NtRp85
(dp86
g13
F3.1395226875061901
sg14
I12
sg15
I01
sg16
I15
sg17
I185
sbs(I1
I4
tp87
g1
(g10
g3
NtRp88
(dp89
g13
F17.587185975803166
sg14
I1
sg15
I01
sg16
I4
sg17
I6
sbs(I2
I10
tp90
g1
(g10
g3
NtRp91
(dp92
g13
F-19.794626054924073
sg14
I2
sg15
I01
sg16
I10
sg17
I69
sbs(I7
I5
tp93
g1
(g10
g3
NtRp94
(dp95
g13
F6.0228784069940042
sg14
I7
sg15
I01
sg16
I5
sg17
I50
sbs(I3
I12
tp96
g1
(g10
g3
NtRp97
(dp98
g13
F22.180827645672569
sg14
I3
sg15
I01
sg16
I12
sg17
I105
sbs(I5
I8
tp99
g1
(g10
g3
NtRp100
(dp101
g13
F-5.7289053860122419
sg14
I5
sg15
I01
sg16
I8
sg17
I45
sbs(I14
I2
tp102
g1
(g10
g3
NtRp103
(dp104
g13
F-15.771001757133714
sg14
I14
sg15
I01
sg16
I2
sg17
I125
sbs(I3
I5
tp105
g1
(g10
g3
NtRp106
(dp107
g13
F20.775632216008741
sg14
I3
sg15
I01
sg16
I5
sg17
I12
sbs(I8
I3
tp108
g1
(g10
g3
NtRp109
(dp110
g13
F9.5651258392976395
sg14
I8
sg15
I01
sg16
I3
sg17
I39
sbs(I5
I10
tp111
g1
(g10
g3
NtRp112
(dp113
g13
F-10.200374538726861
sg14
I5
sg15
I01
sg16
I10
sg17
I67
sbs(I13
I14
tp114
g1
(g10
g3
NtRp115
(dp116
g13
F-3.8467143810283781
sg14
I13
sg15
I01
sg16
I14
sg17
I189
sbs(I4
I3
tp117
g1
(g10
g3
NtRp118
(dp119
g13
F19.580585102708913
sg14
I4
sg15
I01
sg16
I3
sg17
I10
sbs(I5
I2
tp120
g1
(g10
g3
NtRp121
(dp122
g13
F-21.543213889793396
sg14
I5
sg15
I01
sg16
I2
sg17
I21
sbs(I2
I4
tp123
g1
(g10
g3
NtRp124
(dp125
g13
F-13.72678760200014
sg14
I2
sg15
I01
sg16
I4
sg17
I16
sbs(I10
I2
tp126
g1
(g10
g3
NtRp127
(dp128
g13
F-27.985984070358104
sg14
I10
sg15
I01
sg16
I2
sg17
I66
sbssS'_input_nodes'
p129
I1
sS'_output_nodes'
p130
I1
sS'_node_gene_type'
p131
cneat.genome
NodeGene
p132
sS'_conn_gene_type'
p133
g10
sS'fitness'
p134
F0.96144891623280693
sS'parent2_id'
p135
I11040
sS'_id'
p136
I11119
sS'parent1_id'
p137
I11040
sS'_node_genes'
p138
(lp139
g1
(g132
g3
NtRp140
(dp141
S'_bias'
p142
I0
sS'_type'
p143
S'INPUT'
p144
sg136
I1
sS'_response'
p145
F4.9242730000000003
sS'_activation_type'
p146
Nsbag1
(g132
g3
NtRp147
(dp148
g142
F-2.7042319080345649
sg143
S'OUTPUT'
p149
sg136
I2
sg145
F2.2554446719945216
sg146
S'tanh'
p150
sbag1
(g132
g3
NtRp151
(dp152
g142
F1.8690971379336578
sg143
S'HIDDEN'
p153
sg136
I3
sg145
F-2.5160231804118345
sg146
g150
sbag1
(g132
g3
NtRp154
(dp155
g142
F-3.9355813933846902
sg143
g153
sg136
I4
sg145
F8.6591359251321052
sg146
g150
sbag1
(g132
g3
NtRp156
(dp157
g142
F2.2944429094907632
sg143
g153
sg136
I5
sg145
F6.0442506378801486
sg146
g150
sbag1
(g132
g3
NtRp158
(dp159
g142
F-3.6920898331998409
sg143
g153
sg136
I6
sg145
F3.3775463645814461
sg146
g150
sbag1
(g132
g3
NtRp160
(dp161
g142
F-2.6071823512452057
sg143
g153
sg136
I7
sg145
F5.5561292596279728
sg146
g150
sbag1
(g132
g3
NtRp162
(dp163
g142
F3.8973558054081203
sg143
g153
sg136
I8
sg145
F3.1381793096528692
sg146
g150
sbag1
(g132
g3
NtRp164
(dp165
g142
F1.4675342229977231
sg143
g153
sg136
I9
sg145
F3.3904688551717901
sg146
g150
sbag1
(g132
g3
NtRp166
(dp167
g142
F-1.7772221674627147
sg143
g153
sg136
I10
sg145
F1.5708388334759573
sg146
g150
sbag1
(g132
g3
NtRp168
(dp169
g142
F0.34902157817342194
sg143
g153
sg136
I11
sg145
F6.4815338926353601
sg146
g150
sbag1
(g132
g3
NtRp170
(dp171
g142
F-1.5092981656943407
sg143
g153
sg136
I12
sg145
F6.5534016096919245
sg146
g150
sbag1
(g132
g3
NtRp172
(dp173
g142
F-0.67576230030524476
sg143
g153
sg136
I13
sg145
F3.4878055553219722
sg146
g150
sbag1
(g132
g3
NtRp174
(dp175
g142
F1.2106250011531166
sg143
g153
sg136
I14
sg145
F4.1337683961185334
sg146
g150
sbag1
(g132
g3
NtRp176
(dp177
g142
F0.52763254114678138
sg143
g153
sg136
I15
sg145
F5.9236065928425958
sg146
g150
sbag1
(g132
g3
NtRp178
(dp179
g142
I0
sg143
g153
sg136
I16
sg145
F4.9242730000000003
sg146
g150
sbasb.