ccopy_reg
_reconstructor
p1
(cneat.chromosome
Chromosome
p2
c__builtin__
object
p3
NtRp4
(dp5
S'species_id'
p6
I21
sS'_connection_genes'
p7
(dp8
(I1
I2
tp9
g1
(cneat.genome
ConnectionGene
p10
g3
NtRp11
(dp12
S'_ConnectionGene__weight'
p13
F-4.8803895855829529
sS'_ConnectionGene__in'
p14
I1
sS'_ConnectionGene__enabled'
p15
I01
sS'_ConnectionGene__out'
p16
I2
sS'_ConnectionGene__innov_number'
p17
I1
sbs(I3
I2
tp18
g1
(g10
g3
NtRp19
(dp20
g13
F0.85251304795248206
sg14
I3
sg15
I00
sg16
I2
sg17
I4
sbs(I1
I3
tp21
g1
(g10
g3
NtRp22
(dp23
g13
F17.359900261373721
sg14
I1
sg15
I00
sg16
I3
sg17
I3
sbs(I3
I3
tp24
g1
(g10
g3
NtRp25
(dp26
g13
F10.14084970524131
sg14
I3
sg15
I01
sg16
I3
sg17
I8
sbs(I1
I4
tp27
g1
(g10
g3
NtRp28
(dp29
g13
F7.3786865563701154
sg14
I1
sg15
I01
sg16
I4
sg17
I6
sbs(I2
I6
tp30
g1
(g10
g3
NtRp31
(dp32
g13
F0.067338366437231595
sg14
I2
sg15
I01
sg16
I6
sg17
I17
sbs(I3
I6
tp33
g1
(g10
g3
NtRp34
(dp35
g13
F6.0824741079328364
sg14
I3
sg15
I01
sg16
I6
sg17
I22
sbs(I6
I2
tp36
g1
(g10
g3
NtRp37
(dp38
g13
F-10.272632851898777
sg14
I6
sg15
I01
sg16
I2
sg17
I18
sbs(I4
I3
tp39
g1
(g10
g3
NtRp40
(dp41
g13
F17.100318529721545
sg14
I4
sg15
I01
sg16
I3
sg17
I10
sbs(I5
I2
tp42
g1
(g10
g3
NtRp43
(dp44
g13
F-0.29925906748384046
sg14
I5
sg15
I01
sg16
I2
sg17
I21
sbs(I3
I5
tp45
g1
(g10
g3
NtRp46
(dp47
g13
F9.9341124531320268
sg14
I3
sg15
I01
sg16
I5
sg17
I12
sbssS'_input_nodes'
p48
I1
sS'_output_nodes'
p49
I1
sS'_node_gene_type'
p50
cneat.genome
NodeGene
p51
sS'_conn_gene_type'
p52
g10
sS'fitness'
p53
F0.983462058905333
sS'parent2_id'
p54
I3137
sS'_id'
p55
I3175
sS'parent1_id'
p56
I3137
sS'_node_genes'
p57
(lp58
g1
(g51
g3
NtRp59
(dp60
S'_bias'
p61
I0
sS'_type'
p62
S'INPUT'
p63
sg55
I1
sS'_response'
p64
F4.9242730000000003
sS'_activation_type'
p65
Nsbag1
(g51
g3
NtRp66
(dp67
g61
F-1.4026028017911976
sg62
S'OUTPUT'
p68
sg55
I2
sg64
F4.4845191564655797
sg65
S'tanh'
p69
sbag1
(g51
g3
NtRp70
(dp71
g61
F0.27501222381123802
sg62
S'HIDDEN'
p72
sg55
I3
sg64
F4.508646834145198
sg65
g69
sbag1
(g51
g3
NtRp73
(dp74
g61
F-1.0495152862004322
sg62
g72
sg55
I4
sg64
F9.6823017828314768
sg65
g69
sbag1
(g51
g3
NtRp75
(dp76
g61
F0.34002708971524825
sg62
g72
sg55
I5
sg64
F5.1257305388827987
sg65
g69
sbag1
(g51
g3
NtRp77
(dp78
g61
F-0.15199951153084834
sg62
g72
sg55
I6
sg64
F4.7214562519287213
sg65
g69
sbasb.