ccopy_reg
_reconstructor
p1
(cneat.chromosome
Chromosome
p2
c__builtin__
object
p3
NtRp4
(dp5
S'species_id'
p6
I63
sS'_connection_genes'
p7
(dp8
(I1
I3
tp9
g1
(cneat.genome
ConnectionGene
p10
g3
NtRp11
(dp12
S'_ConnectionGene__weight'
p13
F15.394663683957161
sS'_ConnectionGene__in'
p14
I1
sS'_ConnectionGene__enabled'
p15
I01
sS'_ConnectionGene__out'
p16
I3
sS'_ConnectionGene__innov_number'
p17
I3
sbs(I5
I6
tp18
g1
(g10
g3
NtRp19
(dp20
g13
F-11.372676810756378
sg14
I5
sg15
I01
sg16
I6
sg17
I25
sbs(I11
I2
tp21
g1
(g10
g3
NtRp22
(dp23
g13
F-20.426306345050929
sg14
I11
sg15
I01
sg16
I2
sg17
I89
sbs(I8
I9
tp24
g1
(g10
g3
NtRp25
(dp26
g13
F2.2974968042709394
sg14
I8
sg15
I01
sg16
I9
sg17
I61
sbs(I6
I2
tp27
g1
(g10
g3
NtRp28
(dp29
g13
F-3.5515710113400725
sg14
I6
sg15
I01
sg16
I2
sg17
I18
sbs(I3
I7
tp30
g1
(g10
g3
NtRp31
(dp32
g13
F-9.894464309348967
sg14
I3
sg15
I01
sg16
I7
sg17
I49
sbs(I5
I8
tp33
g1
(g10
g3
NtRp34
(dp35
g13
F-11.771390347359574
sg14
I5
sg15
I01
sg16
I8
sg17
I45
sbs(I1
I2
tp36
g1
(g10
g3
NtRp37
(dp38
g13
F-12.46842046658919
sg14
I1
sg15
I01
sg16
I2
sg17
I1
sbs(I3
I3
tp39
g1
(g10
g3
NtRp40
(dp41
g13
F22.090043481553217
sg14
I3
sg15
I00
sg16
I3
sg17
I8
sbs(I8
I10
tp42
g1
(g10
g3
NtRp43
(dp44
g13
F-1.2188797990016691
sg14
I8
sg15
I01
sg16
I10
sg17
I65
sbs(I13
I7
tp45
g1
(g10
g3
NtRp46
(dp47
g13
F-3.4029012398444243
sg14
I13
sg15
I01
sg16
I7
sg17
I108
sbs(I7
I2
tp48
g1
(g10
g3
NtRp49
(dp50
g13
F-13.932268395368606
sg14
I7
sg15
I01
sg16
I2
sg17
I31
sbs(I5
I3
tp51
g1
(g10
g3
NtRp52
(dp53
g13
F15.325195083801422
sg14
I5
sg15
I01
sg16
I3
sg17
I15
sbs(I12
I3
tp54
g1
(g10
g3
NtRp55
(dp56
g13
F18.898351215938412
sg14
I12
sg15
I01
sg16
I3
sg17
I106
sbs(I3
I2
tp57
g1
(g10
g3
NtRp58
(dp59
g13
F-13.110715565836189
sg14
I3
sg15
I01
sg16
I2
sg17
I4
sbs(I8
I2
tp60
g1
(g10
g3
NtRp61
(dp62
g13
F-20.944480908673153
sg14
I8
sg15
I01
sg16
I2
sg17
I46
sbs(I3
I13
tp63
g1
(g10
g3
NtRp64
(dp65
g13
F-4.8008537438132883
sg14
I3
sg15
I01
sg16
I13
sg17
I107
sbs(I8
I11
tp66
g1
(g10
g3
NtRp67
(dp68
g13
F9.8304285424449436
sg14
I8
sg15
I01
sg16
I11
sg17
I98
sbs(I9
I3
tp69
g1
(g10
g3
NtRp70
(dp71
g13
F-7.0366292662890526
sg14
I9
sg15
I01
sg16
I3
sg17
I60
sbs(I1
I4
tp72
g1
(g10
g3
NtRp73
(dp74
g13
F2.5544872058653985
sg14
I1
sg15
I01
sg16
I4
sg17
I6
sbs(I2
I10
tp75
g1
(g10
g3
NtRp76
(dp77
g13
F-7.2413402994610383
sg14
I2
sg15
I01
sg16
I10
sg17
I69
sbs(I7
I5
tp78
g1
(g10
g3
NtRp79
(dp80
g13
F5.2558219305615319
sg14
I7
sg15
I01
sg16
I5
sg17
I50
sbs(I12
I11
tp81
g1
(g10
g3
NtRp82
(dp83
g13
F-5.165463645859167
sg14
I12
sg15
I01
sg16
I11
sg17
I140
sbs(I3
I12
tp84
g1
(g10
g3
NtRp85
(dp86
g13
F11.882706733458756
sg14
I3
sg15
I01
sg16
I12
sg17
I105
sbs(I3
I5
tp87
g1
(g10
g3
NtRp88
(dp89
g13
F20.121575104889658
sg14
I3
sg15
I01
sg16
I5
sg17
I12
sbs(I8
I3
tp90
g1
(g10
g3
NtRp91
(dp92
g13
F0.45580605683824116
sg14
I8
sg15
I01
sg16
I3
sg17
I39
sbs(I5
I10
tp93
g1
(g10
g3
NtRp94
(dp95
g13
F-5.369137207581784
sg14
I5
sg15
I01
sg16
I10
sg17
I67
sbs(I11
I3
tp96
g1
(g10
g3
NtRp97
(dp98
g13
F0.8561384381051329
sg14
I11
sg15
I01
sg16
I3
sg17
I97
sbs(I4
I3
tp99
g1
(g10
g3
NtRp100
(dp101
g13
F29.087267983816801
sg14
I4
sg15
I01
sg16
I3
sg17
I10
sbs(I5
I2
tp102
g1
(g10
g3
NtRp103
(dp104
g13
F-22.309230639535851
sg14
I5
sg15
I01
sg16
I2
sg17
I21
sbs(I2
I4
tp105
g1
(g10
g3
NtRp106
(dp107
g13
F-13.888644671454008
sg14
I2
sg15
I01
sg16
I4
sg17
I16
sbs(I10
I2
tp108
g1
(g10
g3
NtRp109
(dp110
g13
F-29.138417740278374
sg14
I10
sg15
I01
sg16
I2
sg17
I66
sbssS'_input_nodes'
p111
I1
sS'_output_nodes'
p112
I1
sS'_node_gene_type'
p113
cneat.genome
NodeGene
p114
sS'_conn_gene_type'
p115
g10
sS'fitness'
p116
F0.95382739181732723
sS'parent2_id'
p117
I9145
sS'_id'
p118
I9190
sS'parent1_id'
p119
I9145
sS'_node_genes'
p120
(lp121
g1
(g114
g3
NtRp122
(dp123
S'_bias'
p124
I0
sS'_type'
p125
S'INPUT'
p126
sg118
I1
sS'_response'
p127
F4.9242730000000003
sS'_activation_type'
p128
Nsbag1
(g114
g3
NtRp129
(dp130
g124
F-1.7554821777798748
sg125
S'OUTPUT'
p131
sg118
I2
sg127
F4.983395110008332
sg128
S'tanh'
p132
sbag1
(g114
g3
NtRp133
(dp134
g124
F1.2607229791675612
sg125
S'HIDDEN'
p135
sg118
I3
sg127
F-2.4585126919732456
sg128
g132
sbag1
(g114
g3
NtRp136
(dp137
g124
F-1.6556808786153299
sg125
g135
sg118
I4
sg127
F9.8449818280549728
sg128
g132
sbag1
(g114
g3
NtRp138
(dp139
g124
F-0.18122928448487696
sg125
g135
sg118
I5
sg127
F6.3024586652918675
sg128
g132
sbag1
(g114
g3
NtRp140
(dp141
g124
F0.0067548367023289035
sg125
g135
sg118
I6
sg127
F1.4460255382697071
sg128
g132
sbag1
(g114
g3
NtRp142
(dp143
g124
F-4.1239592917826178
sg125
g135
sg118
I7
sg127
F2.312604219233795
sg128
g132
sbag1
(g114
g3
NtRp144
(dp145
g124
F3.3420762661828096
sg125
g135
sg118
I8
sg127
F4.9110179316026006
sg128
g132
sbag1
(g114
g3
NtRp146
(dp147
g124
F1.5913110358109859
sg125
g135
sg118
I9
sg127
F5.8373551016609975
sg128
g132
sbag1
(g114
g3
NtRp148
(dp149
g124
F-0.53243655074787621
sg125
g135
sg118
I10
sg127
F3.3860334640892038
sg128
g132
sbag1
(g114
g3
NtRp150
(dp151
g124
F-0.095459393041312124
sg125
g135
sg118
I11
sg127
F6.0409298610396398
sg128
g132
sbag1
(g114
g3
NtRp152
(dp153
g124
F-1.0491869528190183
sg125
g135
sg118
I12
sg127
F5.9301070162549436
sg128
g132
sbag1
(g114
g3
NtRp154
(dp155
g124
F-0.66253303452040491
sg125
g135
sg118
I13
sg127
F4.6221415961689933
sg128
g132
sbasb.