ccopy_reg
_reconstructor
p1
(cneat.chromosome
Chromosome
p2
c__builtin__
object
p3
NtRp4
(dp5
S'species_id'
p6
I101
sS'_connection_genes'
p7
(dp8
(I7
I3
tp9
g1
(cneat.genome
ConnectionGene
p10
g3
NtRp11
(dp12
S'_ConnectionGene__weight'
p13
F29.647348611369011
sS'_ConnectionGene__in'
p14
I7
sS'_ConnectionGene__enabled'
p15
I01
sS'_ConnectionGene__out'
p16
I3
sS'_ConnectionGene__innov_number'
p17
I36
sbs(I6
I9
tp18
g1
(g10
g3
NtRp19
(dp20
g13
F-22.415117818747106
sg14
I6
sg15
I01
sg16
I9
sg17
I81
sbs(I1
I3
tp21
g1
(g10
g3
NtRp22
(dp23
g13
F2.9167776770434273
sg14
I1
sg15
I01
sg16
I3
sg17
I3
sbs(I8
I13
tp24
g1
(g10
g3
NtRp25
(dp26
g13
F-1.9923883610249264
sg14
I8
sg15
I00
sg16
I13
sg17
I197
sbs(I5
I9
tp27
g1
(g10
g3
NtRp28
(dp29
g13
F8.3141924495101271
sg14
I5
sg15
I01
sg16
I9
sg17
I100
sbs(I13
I4
tp30
g1
(g10
g3
NtRp31
(dp32
g13
F-8.1225071494559913
sg14
I13
sg15
I01
sg16
I4
sg17
I163
sbs(I3
I2
tp33
g1
(g10
g3
NtRp34
(dp35
g13
F29.754087140070194
sg14
I3
sg15
I00
sg16
I2
sg17
I4
sbs(I11
I8
tp36
g1
(g10
g3
NtRp37
(dp38
g13
F17.04252103040827
sg14
I11
sg15
I01
sg16
I8
sg17
I91
sbs(I3
I7
tp39
g1
(g10
g3
NtRp40
(dp41
g13
F-4.6077356836728676
sg14
I3
sg15
I01
sg16
I7
sg17
I49
sbs(I12
I9
tp42
g1
(g10
g3
NtRp43
(dp44
g13
F17.041881735769564
sg14
I12
sg15
I01
sg16
I9
sg17
I109
sbs(I1
I2
tp45
g1
(g10
g3
NtRp46
(dp47
g13
F-19.586579471595382
sg14
I1
sg15
I01
sg16
I2
sg17
I1
sbs(I4
I9
tp48
g1
(g10
g3
NtRp49
(dp50
g13
F30
sg14
I4
sg15
I01
sg16
I9
sg17
I57
sbs(I3
I3
tp51
g1
(g10
g3
NtRp52
(dp53
g13
F-13.56946420161699
sg14
I3
sg15
I01
sg16
I3
sg17
I8
sbs(I9
I15
tp54
g1
(g10
g3
NtRp55
(dp56
g13
F-0.0071984521707086913
sg14
I9
sg15
I01
sg16
I15
sg17
I219
sbs(I3
I10
tp57
g1
(g10
g3
NtRp58
(dp59
g13
F12.078867158343678
sg14
I3
sg15
I01
sg16
I10
sg17
I76
sbs(I4
I8
tp60
g1
(g10
g3
NtRp61
(dp62
g13
F17.466919803825306
sg14
I4
sg15
I01
sg16
I8
sg17
I38
sbs(I4
I4
tp63
g1
(g10
g3
NtRp64
(dp65
g13
F1.7846023736191037
sg14
I4
sg15
I01
sg16
I4
sg17
I11
sbs(I4
I11
tp66
g1
(g10
g3
NtRp67
(dp68
g13
F-8.4228244390242217
sg14
I4
sg15
I01
sg16
I11
sg17
I86
sbs(I3
I6
tp69
g1
(g10
g3
NtRp70
(dp71
g13
F-17.141369034603741
sg14
I3
sg15
I01
sg16
I6
sg17
I22
sbs(I14
I14
tp72
g1
(g10
g3
NtRp73
(dp74
g13
F-1.538086989722818
sg14
I14
sg15
I01
sg16
I14
sg17
I184
sbs(I15
I12
tp75
g1
(g10
g3
NtRp76
(dp77
g13
F5.2998953027062061
sg14
I15
sg15
I01
sg16
I12
sg17
I159
sbs(I5
I4
tp78
g1
(g10
g3
NtRp79
(dp80
g13
F9.1975811478904532
sg14
I5
sg15
I01
sg16
I4
sg17
I13
sbs(I6
I6
tp81
g1
(g10
g3
NtRp82
(dp83
g13
F-5.2045300610382732
sg14
I6
sg15
I01
sg16
I6
sg17
I37
sbs(I15
I3
tp84
g1
(g10
g3
NtRp85
(dp86
g13
F3.4293594792330562
sg14
I15
sg15
I01
sg16
I3
sg17
I182
sbs(I9
I3
tp87
g1
(g10
g3
NtRp88
(dp89
g13
F9.3160996265670946
sg14
I9
sg15
I00
sg16
I3
sg17
I60
sbs(I4
I16
tp90
g1
(g10
g3
NtRp91
(dp92
g13
F-3.0159393053284411
sg14
I4
sg15
I01
sg16
I16
sg17
I209
sbs(I2
I3
tp93
g1
(g10
g3
NtRp94
(dp95
g13
F-7.1498802443733105
sg14
I2
sg15
I01
sg16
I3
sg17
I5
sbs(I1
I9
tp96
g1
(g10
g3
NtRp97
(dp98
g13
F21.902075778503512
sg14
I1
sg15
I01
sg16
I9
sg17
I47
sbs(I14
I2
tp99
g1
(g10
g3
NtRp100
(dp101
g13
F28.113005989755731
sg14
I14
sg15
I01
sg16
I2
sg17
I125
sbs(I6
I5
tp102
g1
(g10
g3
NtRp103
(dp104
g13
F-9.0738186254228594
sg14
I6
sg15
I01
sg16
I5
sg17
I28
sbs(I3
I5
tp105
g1
(g10
g3
NtRp106
(dp107
g13
F29.033543339933342
sg14
I3
sg15
I01
sg16
I5
sg17
I12
sbs(I10
I5
tp108
g1
(g10
g3
NtRp109
(dp110
g13
F6.895429562807232
sg14
I10
sg15
I01
sg16
I5
sg17
I79
sbs(I6
I8
tp111
g1
(g10
g3
NtRp112
(dp113
g13
F6.9167583737253935
sg14
I6
sg15
I01
sg16
I8
sg17
I51
sbs(I13
I14
tp114
g1
(g10
g3
NtRp115
(dp116
g13
F1.1462268773963962
sg14
I13
sg15
I01
sg16
I14
sg17
I189
sbs(I16
I8
tp117
g1
(g10
g3
NtRp118
(dp119
g13
F17.131878581140658
sg14
I16
sg15
I01
sg16
I8
sg17
I237
sbs(I9
I9
tp120
g1
(g10
g3
NtRp121
(dp122
g13
F-10.118398468720999
sg14
I9
sg15
I00
sg16
I9
sg17
I73
sbs(I9
I2
tp123
g1
(g10
g3
NtRp124
(dp125
g13
F-11.617091468361549
sg14
I9
sg15
I01
sg16
I2
sg17
I48
sbs(I10
I14
tp126
g1
(g10
g3
NtRp127
(dp128
g13
F9.9063535343038716
sg14
I10
sg15
I01
sg16
I14
sg17
I145
sbs(I4
I3
tp129
g1
(g10
g3
NtRp130
(dp131
g13
F-8.4371604604283217
sg14
I4
sg15
I01
sg16
I3
sg17
I10
sbs(I8
I4
tp132
g1
(g10
g3
NtRp133
(dp134
g13
F12.286315859570699
sg14
I8
sg15
I01
sg16
I4
sg17
I41
sbs(I5
I2
tp135
g1
(g10
g3
NtRp136
(dp137
g13
F-3.5936210896954282
sg14
I5
sg15
I01
sg16
I2
sg17
I21
sbs(I2
I4
tp138
g1
(g10
g3
NtRp139
(dp140
g13
F19.200607747403069
sg14
I2
sg15
I01
sg16
I4
sg17
I16
sbs(I9
I12
tp141
g1
(g10
g3
NtRp142
(dp143
g13
F2.6895929624737898
sg14
I9
sg15
I01
sg16
I12
sg17
I127
sbs(I10
I2
tp144
g1
(g10
g3
NtRp145
(dp146
g13
F23.514227574885695
sg14
I10
sg15
I00
sg16
I2
sg17
I66
sbssS'_input_nodes'
p147
I1
sS'_output_nodes'
p148
I1
sS'_node_gene_type'
p149
cneat.genome
NodeGene
p150
sS'_conn_gene_type'
p151
g10
sS'fitness'
p152
F0.97291292158337472
sS'parent2_id'
p153
I14565
sS'_id'
p154
I14618
sS'parent1_id'
p155
I14565
sS'_node_genes'
p156
(lp157
g1
(g150
g3
NtRp158
(dp159
S'_bias'
p160
I0
sS'_type'
p161
S'INPUT'
p162
sg154
I1
sS'_response'
p163
F4.9242730000000003
sS'_activation_type'
p164
Nsbag1
(g150
g3
NtRp165
(dp166
g160
F0.98261035638164129
sg161
S'OUTPUT'
p167
sg154
I2
sg163
F5.0134261847561383
sg164
S'tanh'
p168
sbag1
(g150
g3
NtRp169
(dp170
g160
F-3.7450382942788156
sg161
S'HIDDEN'
p171
sg154
I3
sg163
F5.1753906183068956
sg164
g168
sbag1
(g150
g3
NtRp172
(dp173
g160
F4.8290184576392541
sg161
g171
sg154
I4
sg163
F1.5294882815425976
sg164
g168
sbag1
(g150
g3
NtRp174
(dp175
g160
F-3.2742296949387311
sg161
g171
sg154
I5
sg163
F9.4922440188656214
sg164
g168
sbag1
(g150
g3
NtRp176
(dp177
g160
F0.61658941812177215
sg161
g171
sg154
I6
sg163
F8.058444899474539
sg164
g168
sbag1
(g150
g3
NtRp178
(dp179
g160
F-3.6636916660271281
sg161
g171
sg154
I7
sg163
F9.4154013305900168
sg164
g168
sbag1
(g150
g3
NtRp180
(dp181
g160
F-0.10419462339159247
sg161
g171
sg154
I8
sg163
F2.3525517227715649
sg164
g168
sbag1
(g150
g3
NtRp182
(dp183
g160
F-0.19536636655341411
sg161
g171
sg154
I9
sg163
F4.3928612601244446
sg164
g168
sbag1
(g150
g3
NtRp184
(dp185
g160
F4.4592339687573448
sg161
g171
sg154
I10
sg163
F3.4416042053935612
sg164
g168
sbag1
(g150
g3
NtRp186
(dp187
g160
F1.2825730134024727
sg161
g171
sg154
I11
sg163
F8.0156463429359981
sg164
g168
sbag1
(g150
g3
NtRp188
(dp189
g160
F0.98639591045168851
sg161
g171
sg154
I12
sg163
F4.7186414841777218
sg164
g168
sbag1
(g150
g3
NtRp190
(dp191
g160
F-0.68800654810540285
sg161
g171
sg154
I13
sg163
F5.1139620628811748
sg164
g168
sbag1
(g150
g3
NtRp192
(dp193
g160
F-2.5853094113920161
sg161
g171
sg154
I14
sg163
F6.7620140835282703
sg164
g168
sbag1
(g150
g3
NtRp194
(dp195
g160
F0.078316107187722112
sg161
g171
sg154
I15
sg163
F5.8880389212150934
sg164
g168
sbag1
(g150
g3
NtRp196
(dp197
g160
F-1.224236078802674
sg161
g171
sg154
I16
sg163
F4.736892982151172
sg164
g168
sbasb.