ccopy_reg
_reconstructor
p1
(cneat.chromosome
Chromosome
p2
c__builtin__
object
p3
NtRp4
(dp5
S'species_id'
p6
I22
sS'_connection_genes'
p7
(dp8
(I4
I7
tp9
g1
(cneat.genome
ConnectionGene
p10
g3
NtRp11
(dp12
S'_ConnectionGene__weight'
p13
F-3.7505097506144378
sS'_ConnectionGene__in'
p14
I4
sS'_ConnectionGene__enabled'
p15
I01
sS'_ConnectionGene__out'
p16
I7
sS'_ConnectionGene__innov_number'
p17
I9
sbs(I5
I6
tp18
g1
(g10
g3
NtRp19
(dp20
g13
F2.9516096758828128
sg14
I5
sg15
I01
sg16
I6
sg17
I5
sbs(I4
I12
tp21
g1
(g10
g3
NtRp22
(dp23
g13
F1.253132734330227
sg14
I4
sg15
I01
sg16
I12
sg17
I71
sbs(I1
I6
tp24
g1
(g10
g3
NtRp25
(dp26
g13
F-2.9760824214673631
sg14
I1
sg15
I00
sg16
I6
sg17
I1
sbs(I3
I7
tp27
g1
(g10
g3
NtRp28
(dp29
g13
F-2.2640873216938227
sg14
I3
sg15
I01
sg16
I7
sg17
I8
sbs(I7
I11
tp30
g1
(g10
g3
NtRp31
(dp32
g13
F-1.3477621939690567
sg14
I7
sg15
I01
sg16
I11
sg17
I52
sbs(I13
I7
tp33
g1
(g10
g3
NtRp34
(dp35
g13
F0.4626448945735806
sg14
I13
sg15
I01
sg16
I7
sg17
I74
sbs(I7
I10
tp36
g1
(g10
g3
NtRp37
(dp38
g13
F5.082933921789726
sg14
I7
sg15
I01
sg16
I10
sg17
I36
sbs(I8
I6
tp39
g1
(g10
g3
NtRp40
(dp41
g13
F1.887727025397711
sg14
I8
sg15
I01
sg16
I6
sg17
I14
sbs(I10
I9
tp42
g1
(g10
g3
NtRp43
(dp44
g13
F1.0065624684738639
sg14
I10
sg15
I01
sg16
I9
sg17
I37
sbs(I9
I7
tp45
g1
(g10
g3
NtRp46
(dp47
g13
F3.1357628958401036
sg14
I9
sg15
I00
sg16
I7
sg17
I22
sbs(I2
I6
tp48
g1
(g10
g3
NtRp49
(dp50
g13
F0.77511930450128963
sg14
I2
sg15
I01
sg16
I6
sg17
I2
sbs(I3
I6
tp51
g1
(g10
g3
NtRp52
(dp53
g13
F-6.8848537205778664
sg14
I3
sg15
I01
sg16
I6
sg17
I3
sbs(I11
I9
tp54
g1
(g10
g3
NtRp55
(dp56
g13
F0.1732375738437506
sg14
I11
sg15
I01
sg16
I9
sg17
I40
sbs(I3
I9
tp57
g1
(g10
g3
NtRp58
(dp59
g13
F0.32015135343500584
sg14
I3
sg15
I01
sg16
I9
sg17
I21
sbs(I12
I11
tp60
g1
(g10
g3
NtRp61
(dp62
g13
F-2.7217910481657239
sg14
I12
sg15
I01
sg16
I11
sg17
I72
sbs(I4
I11
tp63
g1
(g10
g3
NtRp64
(dp65
g13
F0.17836848972547314
sg14
I4
sg15
I00
sg16
I11
sg17
I44
sbs(I7
I9
tp66
g1
(g10
g3
NtRp67
(dp68
g13
F8.3871745732271119
sg14
I7
sg15
I00
sg16
I9
sg17
I29
sbs(I2
I7
tp69
g1
(g10
g3
NtRp70
(dp71
g13
F1.3269972946789772
sg14
I2
sg15
I01
sg16
I7
sg17
I7
sbs(I9
I13
tp72
g1
(g10
g3
NtRp73
(dp74
g13
F1.3479920983956521
sg14
I9
sg15
I01
sg16
I13
sg17
I73
sbs(I4
I6
tp75
g1
(g10
g3
NtRp76
(dp77
g13
F-8.5596109994622616
sg14
I4
sg15
I01
sg16
I6
sg17
I4
sbs(I10
I10
tp78
g1
(g10
g3
NtRp79
(dp80
g13
F-0.010697839440510226
sg14
I10
sg15
I01
sg16
I10
sg17
I46
sbs(I5
I7
tp81
g1
(g10
g3
NtRp82
(dp83
g13
F-12.913990152976602
sg14
I5
sg15
I01
sg16
I7
sg17
I10
sbs(I3
I8
tp84
g1
(g10
g3
NtRp85
(dp86
g13
F-10.046612317248924
sg14
I3
sg15
I01
sg16
I8
sg17
I33
sbs(I1
I8
tp87
g1
(g10
g3
NtRp88
(dp89
g13
F5.8819674656508161
sg14
I1
sg15
I01
sg16
I8
sg17
I13
sbs(I1
I7
tp90
g1
(g10
g3
NtRp91
(dp92
g13
F-3.9559225592425387
sg14
I1
sg15
I01
sg16
I7
sg17
I6
sbssS'_input_nodes'
p93
I5
sS'_output_nodes'
p94
I2
sS'_node_gene_type'
p95
cneat.genome
NodeGene
p96
sS'_conn_gene_type'
p97
g10
sS'fitness'
p98
F0.28076395859988879
sS'parent2_id'
p99
I1955
sS'_id'
p100
I2007
sS'parent1_id'
p101
I1955
sS'_node_genes'
p102
(lp103
g1
(g96
g3
NtRp104
(dp105
S'_bias'
p106
I0
sS'_type'
p107
S'INPUT'
p108
sg100
I1
sS'_response'
p109
F4.9242730000000003
sS'_activation_type'
p110
Nsbag1
(g96
g3
NtRp111
(dp112
g106
I0
sg107
g108
sg100
I2
sg109
F4.9242730000000003
sg110
Nsbag1
(g96
g3
NtRp113
(dp114
g106
I0
sg107
g108
sg100
I3
sg109
F4.9242730000000003
sg110
Nsbag1
(g96
g3
NtRp115
(dp116
g106
I0
sg107
g108
sg100
I4
sg109
F4.9242730000000003
sg110
Nsbag1
(g96
g3
NtRp117
(dp118
g106
I0
sg107
g108
sg100
I5
sg109
F4.9242730000000003
sg110
Nsbag1
(g96
g3
NtRp119
(dp120
g106
F-1.934699062945761
sg107
S'OUTPUT'
p121
sg100
I6
sg109
F6.4547990043127399
sg110
S'exp'
p122
sbag1
(g96
g3
NtRp123
(dp124
g106
F0.19566211223859875
sg107
g121
sg100
I7
sg109
F6.0005848429983697
sg110
g122
sbag1
(g96
g3
NtRp125
(dp126
g106
F-0.83485962431859784
sg107
S'HIDDEN'
p127
sg100
I8
sg109
F3.9641505111178166
sg110
g122
sbag1
(g96
g3
NtRp128
(dp129
g106
F0.70828666393382278
sg107
g127
sg100
I9
sg109
F5.706510801514888
sg110
g122
sbag1
(g96
g3
NtRp130
(dp131
g106
F-0.97293885569511662
sg107
g127
sg100
I10
sg109
F3.6662036093225625
sg110
g122
sbag1
(g96
g3
NtRp132
(dp133
g106
F-0.48383392296549821
sg107
g127
sg100
I11
sg109
F3.4719843802870667
sg110
g122
sbag1
(g96
g3
NtRp134
(dp135
g106
I0
sg107
g127
sg100
I12
sg109
F4.767235011565699
sg110
g122
sbag1
(g96
g3
NtRp136
(dp137
g106
I0
sg107
g127
sg100
I13
sg109
F5.2074203874223945
sg110
g122
sbasb.