ccopy_reg
_reconstructor
p1
(cneat.chromosome
Chromosome
p2
c__builtin__
object
p3
NtRp4
(dp5
S'species_id'
p6
I2
sS'_connection_genes'
p7
(dp8
(I2
I7
tp9
g1
(cneat.genome
ConnectionGene
p10
g3
NtRp11
(dp12
S'_ConnectionGene__weight'
p13
F0.14293689492496331
sS'_ConnectionGene__in'
p14
I2
sS'_ConnectionGene__enabled'
p15
I01
sS'_ConnectionGene__out'
p16
I7
sS'_ConnectionGene__innov_number'
p17
I7
sbs(I8
I6
tp18
g1
(g10
g3
NtRp19
(dp20
g13
F-2.7889834138136913
sg14
I8
sg15
I01
sg16
I6
sg17
I14
sbs(I4
I7
tp21
g1
(g10
g3
NtRp22
(dp23
g13
F0.019452364437033687
sg14
I4
sg15
I01
sg16
I7
sg17
I9
sbs(I2
I6
tp24
g1
(g10
g3
NtRp25
(dp26
g13
F-4.0623540662175879
sg14
I2
sg15
I01
sg16
I6
sg17
I2
sbs(I4
I6
tp27
g1
(g10
g3
NtRp28
(dp29
g13
F-1.6278915156517526
sg14
I4
sg15
I01
sg16
I6
sg17
I4
sbs(I5
I6
tp30
g1
(g10
g3
NtRp31
(dp32
g13
F0.79308836104302438
sg14
I5
sg15
I01
sg16
I6
sg17
I5
sbs(I5
I7
tp33
g1
(g10
g3
NtRp34
(dp35
g13
F-1.1232603439819937
sg14
I5
sg15
I01
sg16
I7
sg17
I10
sbs(I1
I8
tp36
g1
(g10
g3
NtRp37
(dp38
g13
F2.1998966405000879
sg14
I1
sg15
I01
sg16
I8
sg17
I13
sbs(I1
I6
tp39
g1
(g10
g3
NtRp40
(dp41
g13
F2.1671808066564648
sg14
I1
sg15
I00
sg16
I6
sg17
I1
sbs(I3
I6
tp42
g1
(g10
g3
NtRp43
(dp44
g13
F0.62661194092872763
sg14
I3
sg15
I01
sg16
I6
sg17
I3
sbs(I1
I7
tp45
g1
(g10
g3
NtRp46
(dp47
g13
F0.85522768700631902
sg14
I1
sg15
I01
sg16
I7
sg17
I6
sbs(I3
I7
tp48
g1
(g10
g3
NtRp49
(dp50
g13
F-0.54427986449221122
sg14
I3
sg15
I01
sg16
I7
sg17
I8
sbs(I5
I8
tp51
g1
(g10
g3
NtRp52
(dp53
g13
F0.11643258596853179
sg14
I5
sg15
I01
sg16
I8
sg17
I17
sbssS'_input_nodes'
p54
I5
sS'_output_nodes'
p55
I2
sS'_node_gene_type'
p56
cneat.genome
NodeGene
p57
sS'_conn_gene_type'
p58
g10
sS'fitness'
p59
F0.801117127173123
sS'parent2_id'
p60
I131
sS'_id'
p61
I175
sS'parent1_id'
p62
I131
sS'_node_genes'
p63
(lp64
g1
(g57
g3
NtRp65
(dp66
S'_bias'
p67
I0
sS'_type'
p68
S'INPUT'
p69
sg61
I1
sS'_response'
p70
F4.9242730000000003
sS'_activation_type'
p71
Nsbag1
(g57
g3
NtRp72
(dp73
g67
I0
sg68
g69
sg61
I2
sg70
F4.9242730000000003
sg71
Nsbag1
(g57
g3
NtRp74
(dp75
g67
I0
sg68
g69
sg61
I3
sg70
F4.9242730000000003
sg71
Nsbag1
(g57
g3
NtRp76
(dp77
g67
I0
sg68
g69
sg61
I4
sg70
F4.9242730000000003
sg71
Nsbag1
(g57
g3
NtRp78
(dp79
g67
I0
sg68
g69
sg61
I5
sg70
F4.9242730000000003
sg71
Nsbag1
(g57
g3
NtRp80
(dp81
g67
F0.40779050245409548
sg68
S'OUTPUT'
p82
sg61
I6
sg70
F4.9242730000000003
sg71
S'exp'
p83
sbag1
(g57
g3
NtRp84
(dp85
g67
I0
sg68
g82
sg61
I7
sg70
F4.2705351524676196
sg71
g83
sbag1
(g57
g3
NtRp86
(dp87
g67
I0
sg68
S'HIDDEN'
p88
sg61
I8
sg70
F4.9242730000000003
sg71
g83
sbasb.