ccopy_reg
_reconstructor
p1
(cneat.chromosome
Chromosome
p2
c__builtin__
object
p3
NtRp4
(dp5
S'species_id'
p6
I21
sS'_connection_genes'
p7
(dp8
(I4
I7
tp9
g1
(cneat.genome
ConnectionGene
p10
g3
NtRp11
(dp12
S'_ConnectionGene__weight'
p13
F-8.6186238478054431
sS'_ConnectionGene__in'
p14
I4
sS'_ConnectionGene__enabled'
p15
I01
sS'_ConnectionGene__out'
p16
I7
sS'_ConnectionGene__innov_number'
p17
I9
sbs(I5
I6
tp18
g1
(g10
g3
NtRp19
(dp20
g13
F-1.292761734345871
sg14
I5
sg15
I01
sg16
I6
sg17
I5
sbs(I1
I6
tp21
g1
(g10
g3
NtRp22
(dp23
g13
F1.9643474524745419
sg14
I1
sg15
I00
sg16
I6
sg17
I1
sbs(I3
I7
tp24
g1
(g10
g3
NtRp25
(dp26
g13
F7.5132929707290561
sg14
I3
sg15
I01
sg16
I7
sg17
I8
sbs(I7
I11
tp27
g1
(g10
g3
NtRp28
(dp29
g13
F-4.1096691518020991
sg14
I7
sg15
I01
sg16
I11
sg17
I52
sbs(I6
I10
tp30
g1
(g10
g3
NtRp31
(dp32
g13
F-0.75478534691183197
sg14
I6
sg15
I01
sg16
I10
sg17
I67
sbs(I3
I6
tp33
g1
(g10
g3
NtRp34
(dp35
g13
F-21.933529853195679
sg14
I3
sg15
I01
sg16
I6
sg17
I3
sbs(I8
I6
tp36
g1
(g10
g3
NtRp37
(dp38
g13
F-1.9362746951270582
sg14
I8
sg15
I01
sg16
I6
sg17
I14
sbs(I10
I9
tp39
g1
(g10
g3
NtRp40
(dp41
g13
F0.86945622180500015
sg14
I10
sg15
I01
sg16
I9
sg17
I37
sbs(I9
I7
tp42
g1
(g10
g3
NtRp43
(dp44
g13
F-2.0336852520612076
sg14
I9
sg15
I01
sg16
I7
sg17
I22
sbs(I2
I6
tp45
g1
(g10
g3
NtRp46
(dp47
g13
F-5.1948613209278429
sg14
I2
sg15
I01
sg16
I6
sg17
I2
sbs(I7
I10
tp48
g1
(g10
g3
NtRp49
(dp50
g13
F4.5774217343813239
sg14
I7
sg15
I01
sg16
I10
sg17
I36
sbs(I11
I9
tp51
g1
(g10
g3
NtRp52
(dp53
g13
F7.2875301958522387
sg14
I11
sg15
I01
sg16
I9
sg17
I40
sbs(I3
I9
tp54
g1
(g10
g3
NtRp55
(dp56
g13
F4.254797371044587
sg14
I3
sg15
I01
sg16
I9
sg17
I21
sbs(I4
I11
tp57
g1
(g10
g3
NtRp58
(dp59
g13
F0.72319549076663681
sg14
I4
sg15
I01
sg16
I11
sg17
I44
sbs(I7
I9
tp60
g1
(g10
g3
NtRp61
(dp62
g13
F10.361525395802831
sg14
I7
sg15
I01
sg16
I9
sg17
I29
sbs(I2
I7
tp63
g1
(g10
g3
NtRp64
(dp65
g13
F-11.586553943078227
sg14
I2
sg15
I01
sg16
I7
sg17
I7
sbs(I11
I7
tp66
g1
(g10
g3
NtRp67
(dp68
g13
F-0.14543200573608028
sg14
I11
sg15
I01
sg16
I7
sg17
I45
sbs(I4
I6
tp69
g1
(g10
g3
NtRp70
(dp71
g13
F-9.2094766151494269
sg14
I4
sg15
I01
sg16
I6
sg17
I4
sbs(I10
I10
tp72
g1
(g10
g3
NtRp73
(dp74
g13
F-9.8012342602463356
sg14
I10
sg15
I01
sg16
I10
sg17
I46
sbs(I5
I7
tp75
g1
(g10
g3
NtRp76
(dp77
g13
F-20.998828921755113
sg14
I5
sg15
I01
sg16
I7
sg17
I10
sbs(I3
I8
tp78
g1
(g10
g3
NtRp79
(dp80
g13
F-5.0684892580232583
sg14
I3
sg15
I01
sg16
I8
sg17
I33
sbs(I1
I8
tp81
g1
(g10
g3
NtRp82
(dp83
g13
F-2.128226204330482
sg14
I1
sg15
I01
sg16
I8
sg17
I13
sbs(I1
I7
tp84
g1
(g10
g3
NtRp85
(dp86
g13
F-1.0092761088775957
sg14
I1
sg15
I01
sg16
I7
sg17
I6
sbssS'_input_nodes'
p87
I5
sS'_output_nodes'
p88
I2
sS'_node_gene_type'
p89
cneat.genome
NodeGene
p90
sS'_conn_gene_type'
p91
g10
sS'fitness'
p92
F0.21172266453098582
sS'parent2_id'
p93
I2601
sS'_id'
p94
I2650
sS'parent1_id'
p95
I2601
sS'_node_genes'
p96
(lp97
g1
(g90
g3
NtRp98
(dp99
S'_bias'
p100
I0
sS'_type'
p101
S'INPUT'
p102
sg94
I1
sS'_response'
p103
F4.9242730000000003
sS'_activation_type'
p104
Nsbag1
(g90
g3
NtRp105
(dp106
g100
I0
sg101
g102
sg94
I2
sg103
F4.9242730000000003
sg104
Nsbag1
(g90
g3
NtRp107
(dp108
g100
I0
sg101
g102
sg94
I3
sg103
F4.9242730000000003
sg104
Nsbag1
(g90
g3
NtRp109
(dp110
g100
I0
sg101
g102
sg94
I4
sg103
F4.9242730000000003
sg104
Nsbag1
(g90
g3
NtRp111
(dp112
g100
I0
sg101
g102
sg94
I5
sg103
F4.9242730000000003
sg104
Nsbag1
(g90
g3
NtRp113
(dp114
g100
F-1.5759179937469632
sg101
S'OUTPUT'
p115
sg94
I6
sg103
F7.0232495033920976
sg104
S'exp'
p116
sbag1
(g90
g3
NtRp117
(dp118
g100
F-0.1652354520154275
sg101
g115
sg94
I7
sg103
F4.4344717477812834
sg104
g116
sbag1
(g90
g3
NtRp119
(dp120
g100
F-0.87803618076365464
sg101
S'HIDDEN'
p121
sg94
I8
sg103
F5.7028977504800356
sg104
g116
sbag1
(g90
g3
NtRp122
(dp123
g100
F0.85030715487013842
sg101
g121
sg94
I9
sg103
F4.7808075937576557
sg104
g116
sbag1
(g90
g3
NtRp124
(dp125
g100
F-1.0169118914811146
sg101
g121
sg94
I10
sg103
F3.6357230092120245
sg104
g116
sbag1
(g90
g3
NtRp126
(dp127
g100
F-0.55985241914183292
sg101
g121
sg94
I11
sg103
F5.5054134523129949
sg104
g116
sbasb.