ccopy_reg
_reconstructor
p1
(cneat.chromosome
Chromosome
p2
c__builtin__
object
p3
NtRp4
(dp5
S'species_id'
p6
I15
sS'_connection_genes'
p7
(dp8
(I2
I7
tp9
g1
(cneat.genome
ConnectionGene
p10
g3
NtRp11
(dp12
S'_ConnectionGene__weight'
p13
F17.350484743551277
sS'_ConnectionGene__in'
p14
I2
sS'_ConnectionGene__enabled'
p15
I01
sS'_ConnectionGene__out'
p16
I7
sS'_ConnectionGene__innov_number'
p17
I7
sbs(I5
I9
tp18
g1
(g10
g3
NtRp19
(dp20
g13
F-1.6376986383326397
sg14
I5
sg15
I01
sg16
I9
sg17
I27
sbs(I4
I7
tp21
g1
(g10
g3
NtRp22
(dp23
g13
F-12.102882509753018
sg14
I4
sg15
I01
sg16
I7
sg17
I9
sbs(I2
I6
tp24
g1
(g10
g3
NtRp25
(dp26
g13
F-18.890733708792197
sg14
I2
sg15
I01
sg16
I6
sg17
I2
sbs(I5
I10
tp27
g1
(g10
g3
NtRp28
(dp29
g13
F-1.514739635697548
sg14
I5
sg15
I01
sg16
I10
sg17
I41
sbs(I4
I6
tp30
g1
(g10
g3
NtRp31
(dp32
g13
F-9.3278176637247583
sg14
I4
sg15
I01
sg16
I6
sg17
I4
sbs(I5
I6
tp33
g1
(g10
g3
NtRp34
(dp35
g13
F-2.9537737824768442
sg14
I5
sg15
I01
sg16
I6
sg17
I5
sbs(I9
I8
tp36
g1
(g10
g3
NtRp37
(dp38
g13
F-0.65439269074471218
sg14
I9
sg15
I01
sg16
I8
sg17
I25
sbs(I5
I7
tp39
g1
(g10
g3
NtRp40
(dp41
g13
F-20.780443618537969
sg14
I5
sg15
I01
sg16
I7
sg17
I10
sbs(I10
I6
tp42
g1
(g10
g3
NtRp43
(dp44
g13
F3.7791842412982737
sg14
I10
sg15
I01
sg16
I6
sg17
I35
sbs(I1
I8
tp45
g1
(g10
g3
NtRp46
(dp47
g13
F-0.83323441049561764
sg14
I1
sg15
I01
sg16
I8
sg17
I13
sbs(I1
I6
tp48
g1
(g10
g3
NtRp49
(dp50
g13
F1.4926199616660321
sg14
I1
sg15
I00
sg16
I6
sg17
I1
sbs(I11
I6
tp51
g1
(g10
g3
NtRp52
(dp53
g13
F-1.1052909655760592
sg14
I11
sg15
I01
sg16
I6
sg17
I49
sbs(I3
I6
tp54
g1
(g10
g3
NtRp55
(dp56
g13
F-1.9494018245113942
sg14
I3
sg15
I01
sg16
I6
sg17
I3
sbs(I1
I7
tp57
g1
(g10
g3
NtRp58
(dp59
g13
F-2.0251652586004703
sg14
I1
sg15
I01
sg16
I7
sg17
I6
sbs(I8
I6
tp60
g1
(g10
g3
NtRp61
(dp62
g13
F1.1643493571819437
sg14
I8
sg15
I01
sg16
I6
sg17
I14
sbs(I3
I7
tp63
g1
(g10
g3
NtRp64
(dp65
g13
F10.630868674315327
sg14
I3
sg15
I01
sg16
I7
sg17
I8
sbs(I8
I11
tp66
g1
(g10
g3
NtRp67
(dp68
g13
F-1.7914423119481493
sg14
I8
sg15
I01
sg16
I11
sg17
I58
sbs(I5
I8
tp69
g1
(g10
g3
NtRp70
(dp71
g13
F12.367585963584229
sg14
I5
sg15
I01
sg16
I8
sg17
I17
sbs(I11
I11
tp72
g1
(g10
g3
NtRp73
(dp74
g13
F-2.1311122757089853
sg14
I11
sg15
I01
sg16
I11
sg17
I70
sbssS'_input_nodes'
p75
I5
sS'_output_nodes'
p76
I2
sS'_node_gene_type'
p77
cneat.genome
NodeGene
p78
sS'_conn_gene_type'
p79
g10
sS'fitness'
p80
F0.26232324602001367
sS'parent2_id'
p81
I2071
sS'_id'
p82
I2124
sS'parent1_id'
p83
I2071
sS'_node_genes'
p84
(lp85
g1
(g78
g3
NtRp86
(dp87
S'_bias'
p88
I0
sS'_type'
p89
S'INPUT'
p90
sg82
I1
sS'_response'
p91
F4.9242730000000003
sS'_activation_type'
p92
Nsbag1
(g78
g3
NtRp93
(dp94
g88
I0
sg89
g90
sg82
I2
sg91
F4.9242730000000003
sg92
Nsbag1
(g78
g3
NtRp95
(dp96
g88
I0
sg89
g90
sg82
I3
sg91
F4.9242730000000003
sg92
Nsbag1
(g78
g3
NtRp97
(dp98
g88
I0
sg89
g90
sg82
I4
sg91
F4.9242730000000003
sg92
Nsbag1
(g78
g3
NtRp99
(dp100
g88
I0
sg89
g90
sg82
I5
sg91
F4.9242730000000003
sg92
Nsbag1
(g78
g3
NtRp101
(dp102
g88
F-0.13865844446595885
sg89
S'OUTPUT'
p103
sg82
I6
sg91
F6.7198271791797035
sg92
S'exp'
p104
sbag1
(g78
g3
NtRp105
(dp106
g88
F0.32777965958900018
sg89
g103
sg82
I7
sg91
F5.5670038855263888
sg92
g104
sbag1
(g78
g3
NtRp107
(dp108
g88
F0.43721928546364763
sg89
S'HIDDEN'
p109
sg82
I8
sg91
F4.9149360232306387
sg92
g104
sbag1
(g78
g3
NtRp110
(dp111
g88
F1.0281584442552427
sg89
g109
sg82
I9
sg91
F5.7823960541246633
sg92
g104
sbag1
(g78
g3
NtRp112
(dp113
g88
I0
sg89
g109
sg82
I10
sg91
F5.6460702490657226
sg92
g104
sbag1
(g78
g3
NtRp114
(dp115
g88
F-1.6284816398572626
sg89
g109
sg82
I11
sg91
F5.035336605641282
sg92
g104
sbasb.