ccopy_reg
_reconstructor
p1
(cneat.chromosome
Chromosome
p2
c__builtin__
object
p3
NtRp4
(dp5
S'species_id'
p6
I35
sS'_connection_genes'
p7
(dp8
(I4
I7
tp9
g1
(cneat.genome
ConnectionGene
p10
g3
NtRp11
(dp12
S'_ConnectionGene__weight'
p13
F-17.011412438742486
sS'_ConnectionGene__in'
p14
I4
sS'_ConnectionGene__enabled'
p15
I01
sS'_ConnectionGene__out'
p16
I7
sS'_ConnectionGene__innov_number'
p17
I9
sbs(I5
I6
tp18
g1
(g10
g3
NtRp19
(dp20
g13
F-0.8936745836058213
sg14
I5
sg15
I01
sg16
I6
sg17
I5
sbs(I1
I6
tp21
g1
(g10
g3
NtRp22
(dp23
g13
F0.41348170071126356
sg14
I1
sg15
I00
sg16
I6
sg17
I1
sbs(I3
I7
tp24
g1
(g10
g3
NtRp25
(dp26
g13
F5.0104317603189754
sg14
I3
sg15
I01
sg16
I7
sg17
I8
sbs(I7
I11
tp27
g1
(g10
g3
NtRp28
(dp29
g13
F-13.564101206904597
sg14
I7
sg15
I01
sg16
I11
sg17
I52
sbs(I6
I10
tp30
g1
(g10
g3
NtRp31
(dp32
g13
F11.816108733215058
sg14
I6
sg15
I01
sg16
I10
sg17
I67
sbs(I3
I6
tp33
g1
(g10
g3
NtRp34
(dp35
g13
F-21.585851476934341
sg14
I3
sg15
I01
sg16
I6
sg17
I3
sbs(I8
I6
tp36
g1
(g10
g3
NtRp37
(dp38
g13
F3.2414303105800353
sg14
I8
sg15
I01
sg16
I6
sg17
I14
sbs(I12
I7
tp39
g1
(g10
g3
NtRp40
(dp41
g13
F6.3920221659353436
sg14
I12
sg15
I01
sg16
I7
sg17
I64
sbs(I10
I9
tp42
g1
(g10
g3
NtRp43
(dp44
g13
F0.3573758307955564
sg14
I10
sg15
I01
sg16
I9
sg17
I37
sbs(I9
I7
tp45
g1
(g10
g3
NtRp46
(dp47
g13
F-4.8279480193161701
sg14
I9
sg15
I01
sg16
I7
sg17
I22
sbs(I2
I6
tp48
g1
(g10
g3
NtRp49
(dp50
g13
F-9.5694442710648744
sg14
I2
sg15
I01
sg16
I6
sg17
I2
sbs(I7
I10
tp51
g1
(g10
g3
NtRp52
(dp53
g13
F3.009256593373232
sg14
I7
sg15
I01
sg16
I10
sg17
I36
sbs(I8
I11
tp54
g1
(g10
g3
NtRp55
(dp56
g13
F-0.68257227584903879
sg14
I8
sg15
I01
sg16
I11
sg17
I58
sbs(I11
I9
tp57
g1
(g10
g3
NtRp58
(dp59
g13
F4.2484348959734204
sg14
I11
sg15
I01
sg16
I9
sg17
I40
sbs(I3
I9
tp60
g1
(g10
g3
NtRp61
(dp62
g13
F-13.074713662144196
sg14
I3
sg15
I01
sg16
I9
sg17
I21
sbs(I4
I11
tp63
g1
(g10
g3
NtRp64
(dp65
g13
F-5.9634801197010336
sg14
I4
sg15
I01
sg16
I11
sg17
I44
sbs(I7
I9
tp66
g1
(g10
g3
NtRp67
(dp68
g13
F9.9865536359775682
sg14
I7
sg15
I01
sg16
I9
sg17
I29
sbs(I2
I7
tp69
g1
(g10
g3
NtRp70
(dp71
g13
F-6.8684183942031769
sg14
I2
sg15
I01
sg16
I7
sg17
I7
sbs(I11
I7
tp72
g1
(g10
g3
NtRp73
(dp74
g13
F-7.2620797830863424
sg14
I11
sg15
I01
sg16
I7
sg17
I45
sbs(I5
I10
tp75
g1
(g10
g3
NtRp76
(dp77
g13
F-5.7747882610083927
sg14
I5
sg15
I01
sg16
I10
sg17
I41
sbs(I4
I6
tp78
g1
(g10
g3
NtRp79
(dp80
g13
F-2.2199231770301262
sg14
I4
sg15
I01
sg16
I6
sg17
I4
sbs(I1
I12
tp81
g1
(g10
g3
NtRp82
(dp83
g13
F-5.3345092543539359
sg14
I1
sg15
I01
sg16
I12
sg17
I68
sbs(I10
I10
tp84
g1
(g10
g3
NtRp85
(dp86
g13
F-21.546671361488531
sg14
I10
sg15
I01
sg16
I10
sg17
I46
sbs(I5
I7
tp87
g1
(g10
g3
NtRp88
(dp89
g13
F-21.397118284369395
sg14
I5
sg15
I01
sg16
I7
sg17
I10
sbs(I3
I8
tp90
g1
(g10
g3
NtRp91
(dp92
g13
F-5.5109662742421825
sg14
I3
sg15
I01
sg16
I8
sg17
I33
sbs(I1
I8
tp93
g1
(g10
g3
NtRp94
(dp95
g13
F-4.5990159059594609
sg14
I1
sg15
I01
sg16
I8
sg17
I13
sbs(I1
I7
tp96
g1
(g10
g3
NtRp97
(dp98
g13
F-5.0596166426535554
sg14
I1
sg15
I00
sg16
I7
sg17
I6
sbssS'_input_nodes'
p99
I5
sS'_output_nodes'
p100
I2
sS'_node_gene_type'
p101
cneat.genome
NodeGene
p102
sS'_conn_gene_type'
p103
g10
sS'fitness'
p104
F0.13968122554357734
sS'parent2_id'
p105
I4754
sS'_id'
p106
I4806
sS'parent1_id'
p107
I4753
sS'_node_genes'
p108
(lp109
g1
(g102
g3
NtRp110
(dp111
S'_bias'
p112
I0
sS'_type'
p113
S'INPUT'
p114
sg106
I1
sS'_response'
p115
F4.9242730000000003
sS'_activation_type'
p116
Nsbag1
(g102
g3
NtRp117
(dp118
g112
I0
sg113
g114
sg106
I2
sg115
F4.9242730000000003
sg116
Nsbag1
(g102
g3
NtRp119
(dp120
g112
I0
sg113
g114
sg106
I3
sg115
F4.9242730000000003
sg116
Nsbag1
(g102
g3
NtRp121
(dp122
g112
I0
sg113
g114
sg106
I4
sg115
F4.9242730000000003
sg116
Nsbag1
(g102
g3
NtRp123
(dp124
g112
I0
sg113
g114
sg106
I5
sg115
F4.9242730000000003
sg116
Nsbag1
(g102
g3
NtRp125
(dp126
g112
F-3.1064883689916809
sg113
S'OUTPUT'
p127
sg106
I6
sg115
F8.6357329715824154
sg116
S'exp'
p128
sbag1
(g102
g3
NtRp129
(dp130
g112
F0.31293904998901856
sg113
g127
sg106
I7
sg115
F4.4923502663318198
sg116
g128
sbag1
(g102
g3
NtRp131
(dp132
g112
F0.75254777363965042
sg113
S'HIDDEN'
p133
sg106
I8
sg115
F5.1468485612419661
sg116
g128
sbag1
(g102
g3
NtRp134
(dp135
g112
F0.041473538105139429
sg113
g133
sg106
I9
sg115
F2.2916092431779811
sg116
g128
sbag1
(g102
g3
NtRp136
(dp137
g112
F-2.9492405554708547
sg113
g133
sg106
I10
sg115
F3.6242792065164049
sg116
g128
sbag1
(g102
g3
NtRp138
(dp139
g112
F0.53368517365198609
sg113
g133
sg106
I11
sg115
F5.9708476990200703
sg116
g128
sbag1
(g102
g3
NtRp140
(dp141
g112
F2.2249885213868605
sg113
g133
sg106
I12
sg115
F3.7103077756009215
sg116
g128
sbasb.