ccopy_reg
_reconstructor
p1
(cneat.chromosome
Chromosome
p2
c__builtin__
object
p3
NtRp4
(dp5
S'species_id'
p6
I2
sS'_connection_genes'
p7
(dp8
(I2
I7
tp9
g1
(cneat.genome
ConnectionGene
p10
g3
NtRp11
(dp12
S'_ConnectionGene__weight'
p13
F2.6368984886946665
sS'_ConnectionGene__in'
p14
I2
sS'_ConnectionGene__enabled'
p15
I01
sS'_ConnectionGene__out'
p16
I7
sS'_ConnectionGene__innov_number'
p17
I7
sbs(I5
I9
tp18
g1
(g10
g3
NtRp19
(dp20
g13
F2.2771199738134591
sg14
I5
sg15
I01
sg16
I9
sg17
I27
sbs(I4
I7
tp21
g1
(g10
g3
NtRp22
(dp23
g13
F-7.7976519942185138
sg14
I4
sg15
I01
sg16
I7
sg17
I9
sbs(I2
I6
tp24
g1
(g10
g3
NtRp25
(dp26
g13
F-8.1456397465996417
sg14
I2
sg15
I01
sg16
I6
sg17
I2
sbs(I3
I7
tp27
g1
(g10
g3
NtRp28
(dp29
g13
F4.5931663484661041
sg14
I3
sg15
I01
sg16
I7
sg17
I8
sbs(I4
I6
tp30
g1
(g10
g3
NtRp31
(dp32
g13
F-0.51122091736089703
sg14
I4
sg15
I01
sg16
I6
sg17
I4
sbs(I5
I6
tp33
g1
(g10
g3
NtRp34
(dp35
g13
F1.4398629230599129
sg14
I5
sg15
I01
sg16
I6
sg17
I5
sbs(I9
I8
tp36
g1
(g10
g3
NtRp37
(dp38
g13
F3.6107016901270512
sg14
I9
sg15
I01
sg16
I8
sg17
I25
sbs(I5
I7
tp39
g1
(g10
g3
NtRp40
(dp41
g13
F-1.9562739489696002
sg14
I5
sg15
I01
sg16
I7
sg17
I10
sbs(I1
I8
tp42
g1
(g10
g3
NtRp43
(dp44
g13
F5.4672584319509987
sg14
I1
sg15
I01
sg16
I8
sg17
I13
sbs(I1
I6
tp45
g1
(g10
g3
NtRp46
(dp47
g13
F-2.529597898224226
sg14
I1
sg15
I00
sg16
I6
sg17
I1
sbs(I3
I6
tp48
g1
(g10
g3
NtRp49
(dp50
g13
F-2.4932422435782091
sg14
I3
sg15
I01
sg16
I6
sg17
I3
sbs(I1
I7
tp51
g1
(g10
g3
NtRp52
(dp53
g13
F2.3873113906248844
sg14
I1
sg15
I01
sg16
I7
sg17
I6
sbs(I8
I6
tp54
g1
(g10
g3
NtRp55
(dp56
g13
F1.3204836084718639
sg14
I8
sg15
I01
sg16
I6
sg17
I14
sbs(I5
I8
tp57
g1
(g10
g3
NtRp58
(dp59
g13
F1.4926180793926416
sg14
I5
sg15
I00
sg16
I8
sg17
I17
sbssS'_input_nodes'
p60
I5
sS'_output_nodes'
p61
I2
sS'_node_gene_type'
p62
cneat.genome
NodeGene
p63
sS'_conn_gene_type'
p64
g10
sS'fitness'
p65
F0.18633713046323225
sS'parent2_id'
p66
I464
sS'_id'
p67
I517
sS'parent1_id'
p68
I464
sS'_node_genes'
p69
(lp70
g1
(g63
g3
NtRp71
(dp72
S'_bias'
p73
I0
sS'_type'
p74
S'INPUT'
p75
sg67
I1
sS'_response'
p76
F4.9242730000000003
sS'_activation_type'
p77
Nsbag1
(g63
g3
NtRp78
(dp79
g73
I0
sg74
g75
sg67
I2
sg76
F4.9242730000000003
sg77
Nsbag1
(g63
g3
NtRp80
(dp81
g73
I0
sg74
g75
sg67
I3
sg76
F4.9242730000000003
sg77
Nsbag1
(g63
g3
NtRp82
(dp83
g73
I0
sg74
g75
sg67
I4
sg76
F4.9242730000000003
sg77
Nsbag1
(g63
g3
NtRp84
(dp85
g73
I0
sg74
g75
sg67
I5
sg76
F4.9242730000000003
sg77
Nsbag1
(g63
g3
NtRp86
(dp87
g73
F-0.94934097096780479
sg74
S'OUTPUT'
p88
sg67
I6
sg76
F5.9705794583320699
sg77
S'exp'
p89
sbag1
(g63
g3
NtRp90
(dp91
g73
F-0.18199593420497495
sg74
g88
sg67
I7
sg76
F5.5670038855263888
sg77
g89
sbag1
(g63
g3
NtRp92
(dp93
g73
F0.54531438779770558
sg74
S'HIDDEN'
p94
sg67
I8
sg76
F4.9019712942964127
sg77
g89
sbag1
(g63
g3
NtRp95
(dp96
g73
F-0.39142350712889851
sg74
g94
sg67
I9
sg76
F5.6587867612511751
sg77
g89
sbasb.