ccopy_reg
_reconstructor
p1
(cneat.chromosome
Chromosome
p2
c__builtin__
object
p3
NtRp4
(dp5
S'species_id'
p6
I28
sS'_connection_genes'
p7
(dp8
(I4
I7
tp9
g1
(cneat.genome
ConnectionGene
p10
g3
NtRp11
(dp12
S'_ConnectionGene__weight'
p13
F-15.996550956680792
sS'_ConnectionGene__in'
p14
I4
sS'_ConnectionGene__enabled'
p15
I01
sS'_ConnectionGene__out'
p16
I7
sS'_ConnectionGene__innov_number'
p17
I9
sbs(I5
I6
tp18
g1
(g10
g3
NtRp19
(dp20
g13
F-7.0714104588503508
sg14
I5
sg15
I01
sg16
I6
sg17
I5
sbs(I1
I6
tp21
g1
(g10
g3
NtRp22
(dp23
g13
F-0.77744745025042805
sg14
I1
sg15
I00
sg16
I6
sg17
I1
sbs(I3
I7
tp24
g1
(g10
g3
NtRp25
(dp26
g13
F5.7972496054324463
sg14
I3
sg15
I01
sg16
I7
sg17
I8
sbs(I7
I11
tp27
g1
(g10
g3
NtRp28
(dp29
g13
F-4.2153486711110206
sg14
I7
sg15
I01
sg16
I11
sg17
I52
sbs(I6
I10
tp30
g1
(g10
g3
NtRp31
(dp32
g13
F6.0046914313629332
sg14
I6
sg15
I01
sg16
I10
sg17
I67
sbs(I7
I10
tp33
g1
(g10
g3
NtRp34
(dp35
g13
F3.8078897556370457
sg14
I7
sg15
I01
sg16
I10
sg17
I36
sbs(I8
I6
tp36
g1
(g10
g3
NtRp37
(dp38
g13
F-0.73406405641494621
sg14
I8
sg15
I01
sg16
I6
sg17
I14
sbs(I10
I9
tp39
g1
(g10
g3
NtRp40
(dp41
g13
F1.4351316005408323
sg14
I10
sg15
I01
sg16
I9
sg17
I37
sbs(I9
I7
tp42
g1
(g10
g3
NtRp43
(dp44
g13
F-7.596442756296705
sg14
I9
sg15
I01
sg16
I7
sg17
I22
sbs(I2
I6
tp45
g1
(g10
g3
NtRp46
(dp47
g13
F-8.3865285236340448
sg14
I2
sg15
I01
sg16
I6
sg17
I2
sbs(I3
I6
tp48
g1
(g10
g3
NtRp49
(dp50
g13
F-19.845224069887891
sg14
I3
sg15
I01
sg16
I6
sg17
I3
sbs(I12
I7
tp51
g1
(g10
g3
NtRp52
(dp53
g13
F6.6117303710599424
sg14
I12
sg15
I01
sg16
I7
sg17
I64
sbs(I11
I9
tp54
g1
(g10
g3
NtRp55
(dp56
g13
F2.6397397578900343
sg14
I11
sg15
I01
sg16
I9
sg17
I40
sbs(I3
I9
tp57
g1
(g10
g3
NtRp58
(dp59
g13
F-11.08528215917096
sg14
I3
sg15
I01
sg16
I9
sg17
I21
sbs(I4
I11
tp60
g1
(g10
g3
NtRp61
(dp62
g13
F-5.8202397097246665
sg14
I4
sg15
I01
sg16
I11
sg17
I44
sbs(I7
I9
tp63
g1
(g10
g3
NtRp64
(dp65
g13
F10.944860212950305
sg14
I7
sg15
I01
sg16
I9
sg17
I29
sbs(I2
I7
tp66
g1
(g10
g3
NtRp67
(dp68
g13
F-1.2615088065266917
sg14
I2
sg15
I01
sg16
I7
sg17
I7
sbs(I11
I7
tp69
g1
(g10
g3
NtRp70
(dp71
g13
F-2.188688017100346
sg14
I11
sg15
I01
sg16
I7
sg17
I45
sbs(I5
I10
tp72
g1
(g10
g3
NtRp73
(dp74
g13
F0.2004754562349218
sg14
I5
sg15
I01
sg16
I10
sg17
I41
sbs(I4
I6
tp75
g1
(g10
g3
NtRp76
(dp77
g13
F-6.3828689388507902
sg14
I4
sg15
I01
sg16
I6
sg17
I4
sbs(I1
I12
tp78
g1
(g10
g3
NtRp79
(dp80
g13
F-0.83011337938839047
sg14
I1
sg15
I01
sg16
I12
sg17
I68
sbs(I10
I10
tp81
g1
(g10
g3
NtRp82
(dp83
g13
F-18.374374280873429
sg14
I10
sg15
I01
sg16
I10
sg17
I46
sbs(I5
I7
tp84
g1
(g10
g3
NtRp85
(dp86
g13
F-19.10241869759097
sg14
I5
sg15
I01
sg16
I7
sg17
I10
sbs(I3
I8
tp87
g1
(g10
g3
NtRp88
(dp89
g13
F-7.0642103417438138
sg14
I3
sg15
I01
sg16
I8
sg17
I33
sbs(I1
I8
tp90
g1
(g10
g3
NtRp91
(dp92
g13
F-1.699072687482444
sg14
I1
sg15
I01
sg16
I8
sg17
I13
sbs(I1
I7
tp93
g1
(g10
g3
NtRp94
(dp95
g13
F-2.0723705178748157
sg14
I1
sg15
I00
sg16
I7
sg17
I6
sbssS'_input_nodes'
p96
I5
sS'_output_nodes'
p97
I2
sS'_node_gene_type'
p98
cneat.genome
NodeGene
p99
sS'_conn_gene_type'
p100
g10
sS'fitness'
p101
F0.094153659502907078
sS'parent2_id'
p102
I4266
sS'_id'
p103
I4309
sS'parent1_id'
p104
I4266
sS'_node_genes'
p105
(lp106
g1
(g99
g3
NtRp107
(dp108
S'_bias'
p109
I0
sS'_type'
p110
S'INPUT'
p111
sg103
I1
sS'_response'
p112
F4.9242730000000003
sS'_activation_type'
p113
Nsbag1
(g99
g3
NtRp114
(dp115
g109
I0
sg110
g111
sg103
I2
sg112
F4.9242730000000003
sg113
Nsbag1
(g99
g3
NtRp116
(dp117
g109
I0
sg110
g111
sg103
I3
sg112
F4.9242730000000003
sg113
Nsbag1
(g99
g3
NtRp118
(dp119
g109
I0
sg110
g111
sg103
I4
sg112
F4.9242730000000003
sg113
Nsbag1
(g99
g3
NtRp120
(dp121
g109
I0
sg110
g111
sg103
I5
sg112
F4.9242730000000003
sg113
Nsbag1
(g99
g3
NtRp122
(dp123
g109
F-2.7264303011250499
sg110
S'OUTPUT'
p124
sg103
I6
sg112
F8.9728727146308014
sg113
S'exp'
p125
sbag1
(g99
g3
NtRp126
(dp127
g109
F0.31293904998901856
sg110
g124
sg103
I7
sg112
F4.1090510764200312
sg113
g125
sbag1
(g99
g3
NtRp128
(dp129
g109
F0.96816188896108635
sg110
S'HIDDEN'
p130
sg103
I8
sg112
F5.1468485612419661
sg113
g125
sbag1
(g99
g3
NtRp131
(dp132
g109
F-0.63857760781473893
sg110
g130
sg103
I9
sg112
F2.2916092431779811
sg113
g125
sbag1
(g99
g3
NtRp133
(dp134
g109
F-1.6189518705891537
sg110
g130
sg103
I10
sg112
F3.6242792065164049
sg113
g125
sbag1
(g99
g3
NtRp135
(dp136
g109
F-0.18644096312791392
sg110
g130
sg103
I11
sg112
F6.2545543418451484
sg113
g125
sbag1
(g99
g3
NtRp137
(dp138
g109
F0.97387322380651753
sg110
g130
sg103
I12
sg112
F4.4752213024315202
sg113
g125
sbasb.