ccopy_reg
_reconstructor
p1
(cneat.chromosome
Chromosome
p2
c__builtin__
object
p3
NtRp4
(dp5
S'species_id'
p6
I33
sS'_connection_genes'
p7
(dp8
(I4
I7
tp9
g1
(cneat.genome
ConnectionGene
p10
g3
NtRp11
(dp12
S'_ConnectionGene__weight'
p13
F-4.4042610191831963
sS'_ConnectionGene__in'
p14
I4
sS'_ConnectionGene__enabled'
p15
I01
sS'_ConnectionGene__out'
p16
I7
sS'_ConnectionGene__innov_number'
p17
I9
sbs(I8
I7
tp18
g1
(g10
g3
NtRp19
(dp20
g13
F-3.117134195877477
sg14
I8
sg15
I01
sg16
I7
sg17
I12
sbs(I5
I6
tp21
g1
(g10
g3
NtRp22
(dp23
g13
F-0.71617351267611973
sg14
I5
sg15
I01
sg16
I6
sg17
I5
sbs(I6
I9
tp24
g1
(g10
g3
NtRp25
(dp26
g13
F-13.628078782825947
sg14
I6
sg15
I01
sg16
I9
sg17
I56
sbs(I4
I12
tp27
g1
(g10
g3
NtRp28
(dp29
g13
F-4.1292850249540702
sg14
I4
sg15
I01
sg16
I12
sg17
I71
sbs(I1
I6
tp30
g1
(g10
g3
NtRp31
(dp32
g13
F-0.52533892471060861
sg14
I1
sg15
I01
sg16
I6
sg17
I1
sbs(I3
I7
tp33
g1
(g10
g3
NtRp34
(dp35
g13
F5.6639666404091074
sg14
I3
sg15
I01
sg16
I7
sg17
I8
sbs(I7
I11
tp36
g1
(g10
g3
NtRp37
(dp38
g13
F-1.2733134381198599
sg14
I7
sg15
I01
sg16
I11
sg17
I52
sbs(I14
I9
tp39
g1
(g10
g3
NtRp40
(dp41
g13
F-5.7701446010037039
sg14
I14
sg15
I01
sg16
I9
sg17
I90
sbs(I16
I7
tp42
g1
(g10
g3
NtRp43
(dp44
g13
F-17.052619448998744
sg14
I16
sg15
I01
sg16
I7
sg17
I125
sbs(I1
I16
tp45
g1
(g10
g3
NtRp46
(dp47
g13
F-7.203856638438042
sg14
I1
sg15
I01
sg16
I16
sg17
I124
sbs(I1
I8
tp48
g1
(g10
g3
NtRp49
(dp50
g13
F12.733788375973413
sg14
I1
sg15
I01
sg16
I8
sg17
I13
sbs(I13
I7
tp51
g1
(g10
g3
NtRp52
(dp53
g13
F1.1133728985606797
sg14
I13
sg15
I01
sg16
I7
sg17
I74
sbs(I7
I10
tp54
g1
(g10
g3
NtRp55
(dp56
g13
F26.814237737879356
sg14
I7
sg15
I01
sg16
I10
sg17
I36
sbs(I8
I6
tp57
g1
(g10
g3
NtRp58
(dp59
g13
F22.842920175252203
sg14
I8
sg15
I01
sg16
I6
sg17
I14
sbs(I10
I9
tp60
g1
(g10
g3
NtRp61
(dp62
g13
F-12.906301535676723
sg14
I10
sg15
I01
sg16
I9
sg17
I37
sbs(I9
I7
tp63
g1
(g10
g3
NtRp64
(dp65
g13
F3.9224758860107585
sg14
I9
sg15
I00
sg16
I7
sg17
I22
sbs(I7
I14
tp66
g1
(g10
g3
NtRp67
(dp68
g13
F-6.7893293410614097
sg14
I7
sg15
I01
sg16
I14
sg17
I88
sbs(I2
I6
tp69
g1
(g10
g3
NtRp70
(dp71
g13
F-3.8076304420987963
sg14
I2
sg15
I01
sg16
I6
sg17
I2
sbs(I3
I6
tp72
g1
(g10
g3
NtRp73
(dp74
g13
F-18.259431813602639
sg14
I3
sg15
I01
sg16
I6
sg17
I3
sbs(I11
I9
tp75
g1
(g10
g3
NtRp76
(dp77
g13
F-6.7791033474887357
sg14
I11
sg15
I01
sg16
I9
sg17
I40
sbs(I3
I9
tp78
g1
(g10
g3
NtRp79
(dp80
g13
F-18.612222574087575
sg14
I3
sg15
I01
sg16
I9
sg17
I21
sbs(I12
I11
tp81
g1
(g10
g3
NtRp82
(dp83
g13
F2.1464029904161182
sg14
I12
sg15
I01
sg16
I11
sg17
I72
sbs(I4
I11
tp84
g1
(g10
g3
NtRp85
(dp86
g13
F-7.8810004624767576
sg14
I4
sg15
I00
sg16
I11
sg17
I44
sbs(I7
I9
tp87
g1
(g10
g3
NtRp88
(dp89
g13
F-14.657535046113519
sg14
I7
sg15
I01
sg16
I9
sg17
I29
sbs(I2
I7
tp90
g1
(g10
g3
NtRp91
(dp92
g13
F5.8118598441964
sg14
I2
sg15
I01
sg16
I7
sg17
I7
sbs(I9
I13
tp93
g1
(g10
g3
NtRp94
(dp95
g13
F-0.53883790989675306
sg14
I9
sg15
I01
sg16
I13
sg17
I73
sbs(I4
I6
tp96
g1
(g10
g3
NtRp97
(dp98
g13
F0.64681804214143024
sg14
I4
sg15
I01
sg16
I6
sg17
I4
sbs(I10
I10
tp99
g1
(g10
g3
NtRp100
(dp101
g13
F-7.8461511029339883
sg14
I10
sg15
I01
sg16
I10
sg17
I46
sbs(I11
I8
tp102
g1
(g10
g3
NtRp103
(dp104
g13
F4.571832152422842
sg14
I11
sg15
I01
sg16
I8
sg17
I51
sbs(I4
I15
tp105
g1
(g10
g3
NtRp106
(dp107
g13
F-4.5995401889390095
sg14
I4
sg15
I01
sg16
I15
sg17
I114
sbs(I5
I7
tp108
g1
(g10
g3
NtRp109
(dp110
g13
F-3.9221923132635919
sg14
I5
sg15
I01
sg16
I7
sg17
I10
sbs(I9
I9
tp111
g1
(g10
g3
NtRp112
(dp113
g13
F1.2311532991225362
sg14
I9
sg15
I01
sg16
I9
sg17
I55
sbs(I3
I8
tp114
g1
(g10
g3
NtRp115
(dp116
g13
F-7.4236378173642663
sg14
I3
sg15
I01
sg16
I8
sg17
I33
sbs(I13
I14
tp117
g1
(g10
g3
NtRp118
(dp119
g13
F-0.44863945909599201
sg14
I13
sg15
I01
sg16
I14
sg17
I98
sbs(I15
I6
tp120
g1
(g10
g3
NtRp121
(dp122
g13
F-1.1107463160369926
sg14
I15
sg15
I01
sg16
I6
sg17
I93
sbs(I1
I7
tp123
g1
(g10
g3
NtRp124
(dp125
g13
F-17.74032003355612
sg14
I1
sg15
I00
sg16
I7
sg17
I6
sbssS'_input_nodes'
p126
I5
sS'_output_nodes'
p127
I2
sS'_node_gene_type'
p128
cneat.genome
NodeGene
p129
sS'_conn_gene_type'
p130
g10
sS'fitness'
p131
F0.061217048409410967
sS'parent2_id'
p132
I5044
sS'_id'
p133
I5093
sS'parent1_id'
p134
I5044
sS'_node_genes'
p135
(lp136
g1
(g129
g3
NtRp137
(dp138
S'_bias'
p139
I0
sS'_type'
p140
S'INPUT'
p141
sg133
I1
sS'_response'
p142
F4.9242730000000003
sS'_activation_type'
p143
Nsbag1
(g129
g3
NtRp144
(dp145
g139
I0
sg140
g141
sg133
I2
sg142
F4.9242730000000003
sg143
Nsbag1
(g129
g3
NtRp146
(dp147
g139
I0
sg140
g141
sg133
I3
sg142
F4.9242730000000003
sg143
Nsbag1
(g129
g3
NtRp148
(dp149
g139
I0
sg140
g141
sg133
I4
sg142
F4.9242730000000003
sg143
Nsbag1
(g129
g3
NtRp150
(dp151
g139
I0
sg140
g141
sg133
I5
sg142
F4.9242730000000003
sg143
Nsbag1
(g129
g3
NtRp152
(dp153
g139
F-1.1778552323450906
sg140
S'OUTPUT'
p154
sg133
I6
sg142
F7.7585745718619963
sg143
S'exp'
p155
sbag1
(g129
g3
NtRp156
(dp157
g139
F0.56881472902029284
sg140
g154
sg133
I7
sg142
F5.7627507271597889
sg143
g155
sbag1
(g129
g3
NtRp158
(dp159
g139
F-1.9934686813498437
sg140
S'HIDDEN'
p160
sg133
I8
sg142
F1.6987638286520168
sg143
g155
sbag1
(g129
g3
NtRp161
(dp162
g139
F0.92385278282871952
sg140
g160
sg133
I9
sg142
F6.7482223772432226
sg143
g155
sbag1
(g129
g3
NtRp163
(dp164
g139
F-1.1303106289429912
sg140
g160
sg133
I10
sg142
F0.95523298144193791
sg143
g155
sbag1
(g129
g3
NtRp165
(dp166
g139
F-1.1313591942774737
sg140
g160
sg133
I11
sg142
F1.3642933190924473
sg143
g155
sbag1
(g129
g3
NtRp167
(dp168
g139
F-2.955029268462587
sg140
g160
sg133
I12
sg142
F2.2052491001740213
sg143
g155
sbag1
(g129
g3
NtRp169
(dp170
g139
F-0.99791281468572546
sg140
g160
sg133
I13
sg142
F7.6418132214669789
sg143
g155
sbag1
(g129
g3
NtRp171
(dp172
g139
F0.36573814246844216
sg140
g160
sg133
I14
sg142
F4.6245904323771185
sg143
g155
sbag1
(g129
g3
NtRp173
(dp174
g139
F-1.2302067044453555
sg140
g160
sg133
I15
sg142
F5.0460166831486069
sg143
g155
sbag1
(g129
g3
NtRp175
(dp176
g139
F0.8292523153546435
sg140
g160
sg133
I16
sg142
F5.3820930237481281
sg143
g155
sbasb.