ccopy_reg
_reconstructor
p1
(cneat.chromosome
Chromosome
p2
c__builtin__
object
p3
NtRp4
(dp5
S'species_id'
p6
I7
sS'_connection_genes'
p7
(dp8
(I2
I7
tp9
g1
(cneat.genome
ConnectionGene
p10
g3
NtRp11
(dp12
S'_ConnectionGene__weight'
p13
F-1.3191613400902478
sS'_ConnectionGene__in'
p14
I2
sS'_ConnectionGene__enabled'
p15
I01
sS'_ConnectionGene__out'
p16
I7
sS'_ConnectionGene__innov_number'
p17
I7
sbs(I4
I7
tp18
g1
(g10
g3
NtRp19
(dp20
g13
F12.843861147478467
sg14
I4
sg15
I01
sg16
I7
sg17
I9
sbs(I2
I6
tp21
g1
(g10
g3
NtRp22
(dp23
g13
F6.5583507843345048
sg14
I2
sg15
I01
sg16
I6
sg17
I2
sbs(I3
I7
tp24
g1
(g10
g3
NtRp25
(dp26
g13
F-0.0068967344305206346
sg14
I3
sg15
I01
sg16
I7
sg17
I8
sbs(I4
I6
tp27
g1
(g10
g3
NtRp28
(dp29
g13
F-2.0196658436828678
sg14
I4
sg15
I01
sg16
I6
sg17
I4
sbs(I5
I6
tp30
g1
(g10
g3
NtRp31
(dp32
g13
F10.331913266362513
sg14
I5
sg15
I01
sg16
I6
sg17
I5
sbs(I7
I6
tp33
g1
(g10
g3
NtRp34
(dp35
g13
F0.46030131612885572
sg14
I7
sg15
I01
sg16
I6
sg17
I16
sbs(I5
I7
tp36
g1
(g10
g3
NtRp37
(dp38
g13
F-1.5403528928185766
sg14
I5
sg15
I01
sg16
I7
sg17
I10
sbs(I1
I8
tp39
g1
(g10
g3
NtRp40
(dp41
g13
F-8.9805200391767084
sg14
I1
sg15
I01
sg16
I8
sg17
I13
sbs(I1
I6
tp42
g1
(g10
g3
NtRp43
(dp44
g13
F-16.491376107014005
sg14
I1
sg15
I00
sg16
I6
sg17
I1
sbs(I1
I9
tp45
g1
(g10
g3
NtRp46
(dp47
g13
F-8.4632723525391036
sg14
I1
sg15
I01
sg16
I9
sg17
I24
sbs(I3
I6
tp48
g1
(g10
g3
NtRp49
(dp50
g13
F0.049074702239854995
sg14
I3
sg15
I01
sg16
I6
sg17
I3
sbs(I1
I7
tp51
g1
(g10
g3
NtRp52
(dp53
g13
F-6.5340295250326026
sg14
I1
sg15
I01
sg16
I7
sg17
I6
sbs(I8
I6
tp54
g1
(g10
g3
NtRp55
(dp56
g13
F1.0443354883176443
sg14
I8
sg15
I01
sg16
I6
sg17
I14
sbs(I9
I6
tp57
g1
(g10
g3
NtRp58
(dp59
g13
F-4.2402678910369822
sg14
I9
sg15
I01
sg16
I6
sg17
I28
sbs(I5
I8
tp60
g1
(g10
g3
NtRp61
(dp62
g13
F-0.34683866838268917
sg14
I5
sg15
I01
sg16
I8
sg17
I17
sbs(I9
I7
tp63
g1
(g10
g3
NtRp64
(dp65
g13
F0.20834352924624733
sg14
I9
sg15
I01
sg16
I7
sg17
I22
sbssS'_input_nodes'
p66
I5
sS'_output_nodes'
p67
I2
sS'_node_gene_type'
p68
cneat.genome
NodeGene
p69
sS'_conn_gene_type'
p70
g10
sS'fitness'
p71
F0.083394076519130111
sS'parent2_id'
p72
I1096
sS'_id'
p73
I1144
sS'parent1_id'
p74
I1085
sS'_node_genes'
p75
(lp76
g1
(g69
g3
NtRp77
(dp78
S'_bias'
p79
I0
sS'_type'
p80
S'INPUT'
p81
sg73
I1
sS'_response'
p82
F4.9242730000000003
sS'_activation_type'
p83
Nsbag1
(g69
g3
NtRp84
(dp85
g79
I0
sg80
g81
sg73
I2
sg82
F4.9242730000000003
sg83
Nsbag1
(g69
g3
NtRp86
(dp87
g79
I0
sg80
g81
sg73
I3
sg82
F4.9242730000000003
sg83
Nsbag1
(g69
g3
NtRp88
(dp89
g79
I0
sg80
g81
sg73
I4
sg82
F4.9242730000000003
sg83
Nsbag1
(g69
g3
NtRp90
(dp91
g79
I0
sg80
g81
sg73
I5
sg82
F4.9242730000000003
sg83
Nsbag1
(g69
g3
NtRp92
(dp93
g79
F-2.0900253292962598
sg80
S'OUTPUT'
p94
sg73
I6
sg82
F3.6406455309410113
sg83
S'exp'
p95
sbag1
(g69
g3
NtRp96
(dp97
g79
F-0.64399082621798687
sg80
g94
sg73
I7
sg82
F4.7458426248604031
sg83
g95
sbag1
(g69
g3
NtRp98
(dp99
g79
I0
sg80
S'HIDDEN'
p100
sg73
I8
sg82
F5.1658516701109614
sg83
g95
sbag1
(g69
g3
NtRp101
(dp102
g79
I0
sg80
g100
sg73
I9
sg82
F4.0430087964178263
sg83
g95
sbasb.