ccopy_reg
_reconstructor
p1
(cneat.chromosome
Chromosome
p2
c__builtin__
object
p3
NtRp4
(dp5
S'species_id'
p6
I10
sS'_connection_genes'
p7
(dp8
(I2
I7
tp9
g1
(cneat.genome
ConnectionGene
p10
g3
NtRp11
(dp12
S'_ConnectionGene__weight'
p13
F-0.62865459544761926
sS'_ConnectionGene__in'
p14
I2
sS'_ConnectionGene__enabled'
p15
I01
sS'_ConnectionGene__out'
p16
I7
sS'_ConnectionGene__innov_number'
p17
I7
sbs(I8
I6
tp18
g1
(g10
g3
NtRp19
(dp20
g13
F2.4264530218556546
sg14
I8
sg15
I01
sg16
I6
sg17
I14
sbs(I4
I7
tp21
g1
(g10
g3
NtRp22
(dp23
g13
F-3.8676911066102111
sg14
I4
sg15
I01
sg16
I7
sg17
I9
sbs(I2
I6
tp24
g1
(g10
g3
NtRp25
(dp26
g13
F-3.8461343040303646
sg14
I2
sg15
I01
sg16
I6
sg17
I2
sbs(I4
I6
tp27
g1
(g10
g3
NtRp28
(dp29
g13
F-10.325648930864521
sg14
I4
sg15
I01
sg16
I6
sg17
I4
sbs(I5
I6
tp30
g1
(g10
g3
NtRp31
(dp32
g13
F5.6927171421268969
sg14
I5
sg15
I01
sg16
I6
sg17
I5
sbs(I5
I7
tp33
g1
(g10
g3
NtRp34
(dp35
g13
F-9.6018387606717965
sg14
I5
sg15
I01
sg16
I7
sg17
I10
sbs(I1
I7
tp36
g1
(g10
g3
NtRp37
(dp38
g13
F-4.6088399134416269
sg14
I1
sg15
I01
sg16
I7
sg17
I6
sbs(I3
I8
tp39
g1
(g10
g3
NtRp40
(dp41
g13
F-10.13129263360134
sg14
I3
sg15
I01
sg16
I8
sg17
I33
sbs(I1
I8
tp42
g1
(g10
g3
NtRp43
(dp44
g13
F2.9789698250337562
sg14
I1
sg15
I01
sg16
I8
sg17
I13
sbs(I3
I9
tp45
g1
(g10
g3
NtRp46
(dp47
g13
F-1.7454179293538292
sg14
I3
sg15
I01
sg16
I9
sg17
I21
sbs(I1
I6
tp48
g1
(g10
g3
NtRp49
(dp50
g13
F-1.2297935735893502
sg14
I1
sg15
I00
sg16
I6
sg17
I1
sbs(I3
I6
tp51
g1
(g10
g3
NtRp52
(dp53
g13
F-6.9247490343996958
sg14
I3
sg15
I01
sg16
I6
sg17
I3
sbs(I7
I10
tp54
g1
(g10
g3
NtRp55
(dp56
g13
F5.2125950073575407
sg14
I7
sg15
I01
sg16
I10
sg17
I36
sbs(I3
I7
tp57
g1
(g10
g3
NtRp58
(dp59
g13
F-4.5749404206259534
sg14
I3
sg15
I01
sg16
I7
sg17
I8
sbs(I9
I7
tp60
g1
(g10
g3
NtRp61
(dp62
g13
F-1.6957840011329139
sg14
I9
sg15
I01
sg16
I7
sg17
I22
sbs(I10
I9
tp63
g1
(g10
g3
NtRp64
(dp65
g13
F7.5740722965101845
sg14
I10
sg15
I01
sg16
I9
sg17
I37
sbs(I7
I9
tp66
g1
(g10
g3
NtRp67
(dp68
g13
F4.7727299303021748
sg14
I7
sg15
I00
sg16
I9
sg17
I29
sbssS'_input_nodes'
p69
I5
sS'_output_nodes'
p70
I2
sS'_node_gene_type'
p71
cneat.genome
NodeGene
p72
sS'_conn_gene_type'
p73
g10
sS'fitness'
p74
F0.22952890471307566
sS'parent2_id'
p75
I1344
sS'_id'
p76
I1395
sS'parent1_id'
p77
I1344
sS'_node_genes'
p78
(lp79
g1
(g72
g3
NtRp80
(dp81
S'_bias'
p82
I0
sS'_type'
p83
S'INPUT'
p84
sg76
I1
sS'_response'
p85
F4.9242730000000003
sS'_activation_type'
p86
Nsbag1
(g72
g3
NtRp87
(dp88
g82
I0
sg83
g84
sg76
I2
sg85
F4.9242730000000003
sg86
Nsbag1
(g72
g3
NtRp89
(dp90
g82
I0
sg83
g84
sg76
I3
sg85
F4.9242730000000003
sg86
Nsbag1
(g72
g3
NtRp91
(dp92
g82
I0
sg83
g84
sg76
I4
sg85
F4.9242730000000003
sg86
Nsbag1
(g72
g3
NtRp93
(dp94
g82
I0
sg83
g84
sg76
I5
sg85
F4.9242730000000003
sg86
Nsbag1
(g72
g3
NtRp95
(dp96
g82
F-2.1939816760223518
sg83
S'OUTPUT'
p97
sg76
I6
sg85
F5.7111235738932766
sg86
S'exp'
p98
sbag1
(g72
g3
NtRp99
(dp100
g82
F0.13077309024483863
sg83
g97
sg76
I7
sg85
F6.0005848429983697
sg86
g98
sbag1
(g72
g3
NtRp101
(dp102
g82
F-0.2008866153294406
sg83
S'HIDDEN'
p103
sg76
I8
sg85
F4.6742943087927955
sg86
g98
sbag1
(g72
g3
NtRp104
(dp105
g82
F0.46267592402835767
sg83
g103
sg76
I9
sg85
F6.8749469178452438
sg86
g98
sbag1
(g72
g3
NtRp106
(dp107
g82
F-0.25679659728593929
sg83
g103
sg76
I10
sg85
F5.5023773498293922
sg86
g98
sbasb.