ccopy_reg
_reconstructor
p1
(cneat.chromosome
Chromosome
p2
c__builtin__
object
p3
NtRp4
(dp5
S'species_id'
p6
I32
sS'_connection_genes'
p7
(dp8
(I4
I7
tp9
g1
(cneat.genome
ConnectionGene
p10
g3
NtRp11
(dp12
S'_ConnectionGene__weight'
p13
F0.78907396331092339
sS'_ConnectionGene__in'
p14
I4
sS'_ConnectionGene__enabled'
p15
I01
sS'_ConnectionGene__out'
p16
I7
sS'_ConnectionGene__innov_number'
p17
I9
sbs(I8
I7
tp18
g1
(g10
g3
NtRp19
(dp20
g13
F-0.55258801926631074
sg14
I8
sg15
I01
sg16
I7
sg17
I12
sbs(I5
I6
tp21
g1
(g10
g3
NtRp22
(dp23
g13
F5.9650333764137375
sg14
I5
sg15
I01
sg16
I6
sg17
I5
sbs(I4
I12
tp24
g1
(g10
g3
NtRp25
(dp26
g13
F-1.6570805412647012
sg14
I4
sg15
I01
sg16
I12
sg17
I71
sbs(I1
I6
tp27
g1
(g10
g3
NtRp28
(dp29
g13
F0.7219980006926745
sg14
I1
sg15
I00
sg16
I6
sg17
I1
sbs(I3
I7
tp30
g1
(g10
g3
NtRp31
(dp32
g13
F14.343721592473109
sg14
I3
sg15
I01
sg16
I7
sg17
I8
sbs(I7
I11
tp33
g1
(g10
g3
NtRp34
(dp35
g13
F-4.6122333180866271
sg14
I7
sg15
I01
sg16
I11
sg17
I52
sbs(I14
I9
tp36
g1
(g10
g3
NtRp37
(dp38
g13
F-3.5843477701339639
sg14
I14
sg15
I01
sg16
I9
sg17
I90
sbs(I13
I7
tp39
g1
(g10
g3
NtRp40
(dp41
g13
F4.9872750083120101
sg14
I13
sg15
I01
sg16
I7
sg17
I74
sbs(I7
I10
tp42
g1
(g10
g3
NtRp43
(dp44
g13
F9.8879920318184809
sg14
I7
sg15
I01
sg16
I10
sg17
I36
sbs(I8
I6
tp45
g1
(g10
g3
NtRp46
(dp47
g13
F12.675483376483816
sg14
I8
sg15
I01
sg16
I6
sg17
I14
sbs(I10
I9
tp48
g1
(g10
g3
NtRp49
(dp50
g13
F-9.3177323931322036
sg14
I10
sg15
I01
sg16
I9
sg17
I37
sbs(I9
I7
tp51
g1
(g10
g3
NtRp52
(dp53
g13
F9.7680073246197825
sg14
I9
sg15
I00
sg16
I7
sg17
I22
sbs(I7
I14
tp54
g1
(g10
g3
NtRp55
(dp56
g13
F0.32632415746829935
sg14
I7
sg15
I01
sg16
I14
sg17
I88
sbs(I2
I6
tp57
g1
(g10
g3
NtRp58
(dp59
g13
F0.73341818370869505
sg14
I2
sg15
I01
sg16
I6
sg17
I2
sbs(I3
I6
tp60
g1
(g10
g3
NtRp61
(dp62
g13
F-13.742241565377812
sg14
I3
sg15
I01
sg16
I6
sg17
I3
sbs(I11
I9
tp63
g1
(g10
g3
NtRp64
(dp65
g13
F1.9288611473359731
sg14
I11
sg15
I01
sg16
I9
sg17
I40
sbs(I3
I9
tp66
g1
(g10
g3
NtRp67
(dp68
g13
F-6.6732556024333975
sg14
I3
sg15
I01
sg16
I9
sg17
I21
sbs(I12
I11
tp69
g1
(g10
g3
NtRp70
(dp71
g13
F-1.8944678428786994
sg14
I12
sg15
I01
sg16
I11
sg17
I72
sbs(I4
I11
tp72
g1
(g10
g3
NtRp73
(dp74
g13
F3.5963634365014223
sg14
I4
sg15
I00
sg16
I11
sg17
I44
sbs(I7
I9
tp75
g1
(g10
g3
NtRp76
(dp77
g13
F2.0952097586143452
sg14
I7
sg15
I00
sg16
I9
sg17
I29
sbs(I2
I7
tp78
g1
(g10
g3
NtRp79
(dp80
g13
F-2.5268813109429176
sg14
I2
sg15
I01
sg16
I7
sg17
I7
sbs(I9
I13
tp81
g1
(g10
g3
NtRp82
(dp83
g13
F5.72976313164527
sg14
I9
sg15
I01
sg16
I13
sg17
I73
sbs(I4
I6
tp84
g1
(g10
g3
NtRp85
(dp86
g13
F-6.7687802833654915
sg14
I4
sg15
I01
sg16
I6
sg17
I4
sbs(I10
I10
tp87
g1
(g10
g3
NtRp88
(dp89
g13
F-6.3010101189120995
sg14
I10
sg15
I01
sg16
I10
sg17
I46
sbs(I11
I8
tp90
g1
(g10
g3
NtRp91
(dp92
g13
F9.5443264985795402
sg14
I11
sg15
I01
sg16
I8
sg17
I51
sbs(I5
I7
tp93
g1
(g10
g3
NtRp94
(dp95
g13
F-4.3662660335424723
sg14
I5
sg15
I01
sg16
I7
sg17
I10
sbs(I3
I8
tp96
g1
(g10
g3
NtRp97
(dp98
g13
F-12.385640201634249
sg14
I3
sg15
I01
sg16
I8
sg17
I33
sbs(I13
I14
tp99
g1
(g10
g3
NtRp100
(dp101
g13
F-1.7064503907520612
sg14
I13
sg15
I01
sg16
I14
sg17
I98
sbs(I1
I8
tp102
g1
(g10
g3
NtRp103
(dp104
g13
F6.7851244474520218
sg14
I1
sg15
I01
sg16
I8
sg17
I13
sbs(I1
I7
tp105
g1
(g10
g3
NtRp106
(dp107
g13
F-13.698424463961487
sg14
I1
sg15
I01
sg16
I7
sg17
I6
sbssS'_input_nodes'
p108
I5
sS'_output_nodes'
p109
I2
sS'_node_gene_type'
p110
cneat.genome
NodeGene
p111
sS'_conn_gene_type'
p112
g10
sS'fitness'
p113
F0.03501170684246558
sS'parent2_id'
p114
I3496
sS'_id'
p115
I3543
sS'parent1_id'
p116
I3496
sS'_node_genes'
p117
(lp118
g1
(g111
g3
NtRp119
(dp120
S'_bias'
p121
I0
sS'_type'
p122
S'INPUT'
p123
sg115
I1
sS'_response'
p124
F4.9242730000000003
sS'_activation_type'
p125
Nsbag1
(g111
g3
NtRp126
(dp127
g121
I0
sg122
g123
sg115
I2
sg124
F4.9242730000000003
sg125
Nsbag1
(g111
g3
NtRp128
(dp129
g121
I0
sg122
g123
sg115
I3
sg124
F4.9242730000000003
sg125
Nsbag1
(g111
g3
NtRp130
(dp131
g121
I0
sg122
g123
sg115
I4
sg124
F4.9242730000000003
sg125
Nsbag1
(g111
g3
NtRp132
(dp133
g121
I0
sg122
g123
sg115
I5
sg124
F4.9242730000000003
sg125
Nsbag1
(g111
g3
NtRp134
(dp135
g121
F-2.5225578067100574
sg122
S'OUTPUT'
p136
sg115
I6
sg124
F5.9861035239167704
sg125
S'exp'
p137
sbag1
(g111
g3
NtRp138
(dp139
g121
F1.1780369454818049
sg122
g136
sg115
I7
sg124
F5.3558559456325652
sg125
g137
sbag1
(g111
g3
NtRp140
(dp141
g121
F-1.414967294160792
sg122
S'HIDDEN'
p142
sg115
I8
sg124
F3.0421680084470566
sg125
g137
sbag1
(g111
g3
NtRp143
(dp144
g121
F1.0252217399740895
sg122
g142
sg115
I9
sg124
F5.4892228094454207
sg125
g137
sbag1
(g111
g3
NtRp145
(dp146
g121
F-0.75741670942025752
sg122
g142
sg115
I10
sg124
F2.0496502004487471
sg125
g137
sbag1
(g111
g3
NtRp147
(dp148
g121
F-0.69994574361674267
sg122
g142
sg115
I11
sg124
F2.2015241851591321
sg125
g137
sbag1
(g111
g3
NtRp149
(dp150
g121
F-0.59735885809582612
sg122
g142
sg115
I12
sg124
F4.687822429640085
sg125
g137
sbag1
(g111
g3
NtRp151
(dp152
g121
F-0.20358629260999717
sg122
g142
sg115
I13
sg124
F5.4681464196655671
sg125
g137
sbag1
(g111
g3
NtRp153
(dp154
g121
F-1.1251099296424236
sg122
g142
sg115
I14
sg124
F4.4551824066937771
sg125
g137
sbasb.