ccopy_reg
_reconstructor
p1
(cneat.chromosome
Chromosome
p2
c__builtin__
object
p3
NtRp4
(dp5
S'species_id'
p6
I13
sS'_connection_genes'
p7
(dp8
(I2
I7
tp9
g1
(cneat.genome
ConnectionGene
p10
g3
NtRp11
(dp12
S'_ConnectionGene__weight'
p13
F22.367110386270028
sS'_ConnectionGene__in'
p14
I2
sS'_ConnectionGene__enabled'
p15
I01
sS'_ConnectionGene__out'
p16
I7
sS'_ConnectionGene__innov_number'
p17
I7
sbs(I11
I7
tp18
g1
(g10
g3
NtRp19
(dp20
g13
F-15.662068358107945
sg14
I11
sg15
I01
sg16
I7
sg17
I45
sbs(I4
I7
tp21
g1
(g10
g3
NtRp22
(dp23
g13
F-13.39766761445056
sg14
I4
sg15
I01
sg16
I7
sg17
I9
sbs(I2
I6
tp24
g1
(g10
g3
NtRp25
(dp26
g13
F8.6546342382315427
sg14
I2
sg15
I01
sg16
I6
sg17
I2
sbs(I4
I6
tp27
g1
(g10
g3
NtRp28
(dp29
g13
F-2.57512234895928
sg14
I4
sg15
I01
sg16
I6
sg17
I4
sbs(I5
I11
tp30
g1
(g10
g3
NtRp31
(dp32
g13
F2.4449987335429135
sg14
I5
sg15
I01
sg16
I11
sg17
I48
sbs(I5
I6
tp33
g1
(g10
g3
NtRp34
(dp35
g13
F0.56449791016958217
sg14
I5
sg15
I01
sg16
I6
sg17
I5
sbs(I5
I7
tp36
g1
(g10
g3
NtRp37
(dp38
g13
F-14.594558004991431
sg14
I5
sg15
I00
sg16
I7
sg17
I10
sbs(I10
I6
tp39
g1
(g10
g3
NtRp40
(dp41
g13
F5.388394277378012
sg14
I10
sg15
I01
sg16
I6
sg17
I35
sbs(I8
I10
tp42
g1
(g10
g3
NtRp43
(dp44
g13
F-7.3839347919292813
sg14
I8
sg15
I01
sg16
I10
sg17
I47
sbs(I1
I8
tp45
g1
(g10
g3
NtRp46
(dp47
g13
F-12.816254852753747
sg14
I1
sg15
I01
sg16
I8
sg17
I13
sbs(I8
I8
tp48
g1
(g10
g3
NtRp49
(dp50
g13
F9.1372157185874858
sg14
I8
sg15
I01
sg16
I8
sg17
I30
sbs(I1
I6
tp51
g1
(g10
g3
NtRp52
(dp53
g13
F3.2301821025677775
sg14
I1
sg15
I00
sg16
I6
sg17
I1
sbs(I3
I6
tp54
g1
(g10
g3
NtRp55
(dp56
g13
F-8.9982671128057792
sg14
I3
sg15
I01
sg16
I6
sg17
I3
sbs(I1
I7
tp57
g1
(g10
g3
NtRp58
(dp59
g13
F3.9769368175643312
sg14
I1
sg15
I01
sg16
I7
sg17
I6
sbs(I8
I6
tp60
g1
(g10
g3
NtRp61
(dp62
g13
F15.916657614193737
sg14
I8
sg15
I00
sg16
I6
sg17
I14
sbs(I3
I7
tp63
g1
(g10
g3
NtRp64
(dp65
g13
F-11.577238857151137
sg14
I3
sg15
I00
sg16
I7
sg17
I8
sbs(I3
I9
tp66
g1
(g10
g3
NtRp67
(dp68
g13
F11.837406275259026
sg14
I3
sg15
I01
sg16
I9
sg17
I21
sbs(I9
I7
tp69
g1
(g10
g3
NtRp70
(dp71
g13
F-0.82888889158228118
sg14
I9
sg15
I01
sg16
I7
sg17
I22
sbs(I7
I9
tp72
g1
(g10
g3
NtRp73
(dp74
g13
F3.5145276014190285
sg14
I7
sg15
I01
sg16
I9
sg17
I29
sbssS'_input_nodes'
p75
I5
sS'_output_nodes'
p76
I2
sS'_node_gene_type'
p77
cneat.genome
NodeGene
p78
sS'_conn_gene_type'
p79
g10
sS'fitness'
p80
F0.1351878532449769
sS'parent2_id'
p81
I2268
sS'_id'
p82
I2317
sS'parent1_id'
p83
I2268
sS'_node_genes'
p84
(lp85
g1
(g78
g3
NtRp86
(dp87
S'_bias'
p88
I0
sS'_type'
p89
S'INPUT'
p90
sg82
I1
sS'_response'
p91
F4.9242730000000003
sS'_activation_type'
p92
Nsbag1
(g78
g3
NtRp93
(dp94
g88
I0
sg89
g90
sg82
I2
sg91
F4.9242730000000003
sg92
Nsbag1
(g78
g3
NtRp95
(dp96
g88
I0
sg89
g90
sg82
I3
sg91
F4.9242730000000003
sg92
Nsbag1
(g78
g3
NtRp97
(dp98
g88
I0
sg89
g90
sg82
I4
sg91
F4.9242730000000003
sg92
Nsbag1
(g78
g3
NtRp99
(dp100
g88
I0
sg89
g90
sg82
I5
sg91
F4.9242730000000003
sg92
Nsbag1
(g78
g3
NtRp101
(dp102
g88
F-0.60363226598466535
sg89
S'OUTPUT'
p103
sg82
I6
sg91
F5.6135183796844483
sg92
S'exp'
p104
sbag1
(g78
g3
NtRp105
(dp106
g88
F-1.5858769971325184
sg89
g103
sg82
I7
sg91
F8.9234631682193015
sg92
g104
sbag1
(g78
g3
NtRp107
(dp108
g88
F0.78743716914590745
sg89
S'HIDDEN'
p109
sg82
I8
sg91
F3.92084752306637
sg92
g104
sbag1
(g78
g3
NtRp110
(dp111
g88
F-0.22621586355532167
sg89
g109
sg82
I9
sg91
F5.2024928281178191
sg92
g104
sbag1
(g78
g3
NtRp112
(dp113
g88
F-3.1640335197793852
sg89
g109
sg82
I10
sg91
F3.1992852092515336
sg92
g104
sbag1
(g78
g3
NtRp114
(dp115
g88
F0.79143751881216029
sg89
g109
sg82
I11
sg91
F3.9787521435953019
sg92
g104
sbasb.