ccopy_reg
_reconstructor
p1
(cneat.chromosome
Chromosome
p2
c__builtin__
object
p3
NtRp4
(dp5
S'species_id'
p6
I27
sS'_connection_genes'
p7
(dp8
(I4
I7
tp9
g1
(cneat.genome
ConnectionGene
p10
g3
NtRp11
(dp12
S'_ConnectionGene__weight'
p13
F-20.013233808607268
sS'_ConnectionGene__in'
p14
I4
sS'_ConnectionGene__enabled'
p15
I01
sS'_ConnectionGene__out'
p16
I7
sS'_ConnectionGene__innov_number'
p17
I9
sbs(I5
I6
tp18
g1
(g10
g3
NtRp19
(dp20
g13
F-13.280367810270986
sg14
I5
sg15
I01
sg16
I6
sg17
I5
sbs(I1
I6
tp21
g1
(g10
g3
NtRp22
(dp23
g13
F-10.125774008355744
sg14
I1
sg15
I00
sg16
I6
sg17
I1
sbs(I7
I11
tp24
g1
(g10
g3
NtRp25
(dp26
g13
F-3.94367586634645
sg14
I7
sg15
I01
sg16
I11
sg17
I52
sbs(I3
I7
tp27
g1
(g10
g3
NtRp28
(dp29
g13
F-10.924669783694398
sg14
I3
sg15
I01
sg16
I7
sg17
I8
sbs(I5
I8
tp30
g1
(g10
g3
NtRp31
(dp32
g13
F-3.9614468448589628
sg14
I5
sg15
I01
sg16
I8
sg17
I17
sbs(I3
I10
tp33
g1
(g10
g3
NtRp34
(dp35
g13
F-2.5523336877508509
sg14
I3
sg15
I01
sg16
I10
sg17
I43
sbs(I7
I12
tp36
g1
(g10
g3
NtRp37
(dp38
g13
F1
sg14
I7
sg15
I01
sg16
I12
sg17
I81
sbs(I7
I10
tp39
g1
(g10
g3
NtRp40
(dp41
g13
F6.7261456828984976
sg14
I7
sg15
I00
sg16
I10
sg17
I36
sbs(I8
I6
tp42
g1
(g10
g3
NtRp43
(dp44
g13
F6.9850856516306505
sg14
I8
sg15
I01
sg16
I6
sg17
I14
sbs(I10
I9
tp45
g1
(g10
g3
NtRp46
(dp47
g13
F4.9436598475891032
sg14
I10
sg15
I01
sg16
I9
sg17
I37
sbs(I9
I7
tp48
g1
(g10
g3
NtRp49
(dp50
g13
F4.7146882943972166
sg14
I9
sg15
I01
sg16
I7
sg17
I22
sbs(I2
I6
tp51
g1
(g10
g3
NtRp52
(dp53
g13
F-13.374110084240616
sg14
I2
sg15
I00
sg16
I6
sg17
I2
sbs(I3
I6
tp54
g1
(g10
g3
NtRp55
(dp56
g13
F-15.167636310756359
sg14
I3
sg15
I01
sg16
I6
sg17
I3
sbs(I8
I11
tp57
g1
(g10
g3
NtRp58
(dp59
g13
F-0.56865787480203167
sg14
I8
sg15
I01
sg16
I11
sg17
I58
sbs(I11
I9
tp60
g1
(g10
g3
NtRp61
(dp62
g13
F-6.9413906124620501
sg14
I11
sg15
I01
sg16
I9
sg17
I40
sbs(I3
I9
tp63
g1
(g10
g3
NtRp64
(dp65
g13
F-2.1468500643717929
sg14
I3
sg15
I01
sg16
I9
sg17
I21
sbs(I12
I10
tp66
g1
(g10
g3
NtRp67
(dp68
g13
F6.7261456828984976
sg14
I12
sg15
I01
sg16
I10
sg17
I82
sbs(I7
I9
tp69
g1
(g10
g3
NtRp70
(dp71
g13
F-11.74611329774009
sg14
I7
sg15
I01
sg16
I9
sg17
I29
sbs(I2
I7
tp72
g1
(g10
g3
NtRp73
(dp74
g13
F-1.3275635273012569
sg14
I2
sg15
I01
sg16
I7
sg17
I7
sbs(I4
I6
tp75
g1
(g10
g3
NtRp76
(dp77
g13
F-22.880155409017277
sg14
I4
sg15
I01
sg16
I6
sg17
I4
sbs(I5
I7
tp78
g1
(g10
g3
NtRp79
(dp80
g13
F-15.125798869513636
sg14
I5
sg15
I01
sg16
I7
sg17
I10
sbs(I3
I8
tp81
g1
(g10
g3
NtRp82
(dp83
g13
F-8.5705861517689961
sg14
I3
sg15
I01
sg16
I8
sg17
I33
sbs(I1
I8
tp84
g1
(g10
g3
NtRp85
(dp86
g13
F-1.5352887085991425
sg14
I1
sg15
I01
sg16
I8
sg17
I13
sbs(I1
I7
tp87
g1
(g10
g3
NtRp88
(dp89
g13
F-9.7703649721476022
sg14
I1
sg15
I01
sg16
I7
sg17
I6
sbssS'_input_nodes'
p90
I5
sS'_output_nodes'
p91
I2
sS'_node_gene_type'
p92
cneat.genome
NodeGene
p93
sS'_conn_gene_type'
p94
g10
sS'fitness'
p95
F0.035190712671114822
sS'parent2_id'
p96
I4475
sS'_id'
p97
I4525
sS'parent1_id'
p98
I4475
sS'_node_genes'
p99
(lp100
g1
(g93
g3
NtRp101
(dp102
S'_bias'
p103
I0
sS'_type'
p104
S'INPUT'
p105
sg97
I1
sS'_response'
p106
F4.9242730000000003
sS'_activation_type'
p107
Nsbag1
(g93
g3
NtRp108
(dp109
g103
I0
sg104
g105
sg97
I2
sg106
F4.9242730000000003
sg107
Nsbag1
(g93
g3
NtRp110
(dp111
g103
I0
sg104
g105
sg97
I3
sg106
F4.9242730000000003
sg107
Nsbag1
(g93
g3
NtRp112
(dp113
g103
I0
sg104
g105
sg97
I4
sg106
F4.9242730000000003
sg107
Nsbag1
(g93
g3
NtRp114
(dp115
g103
I0
sg104
g105
sg97
I5
sg106
F4.9242730000000003
sg107
Nsbag1
(g93
g3
NtRp116
(dp117
g103
F-2.2127337752421998
sg104
S'OUTPUT'
p118
sg97
I6
sg106
F6.2458011062078098
sg107
S'exp'
p119
sbag1
(g93
g3
NtRp120
(dp121
g103
F-0.14155486840922099
sg104
g118
sg97
I7
sg106
F5.9296636153612114
sg107
g119
sbag1
(g93
g3
NtRp122
(dp123
g103
F-0.34234270152660518
sg104
S'HIDDEN'
p124
sg97
I8
sg106
F4.8126121652916511
sg107
g119
sbag1
(g93
g3
NtRp125
(dp126
g103
F3.2327126849125922
sg104
g124
sg97
I9
sg106
F8.9828346866896442
sg107
g119
sbag1
(g93
g3
NtRp127
(dp128
g103
F-1.7192342355975896
sg104
g124
sg97
I10
sg106
F4.6229386544787339
sg107
g119
sbag1
(g93
g3
NtRp129
(dp130
g103
F1.3549670580603437
sg104
g124
sg97
I11
sg106
F1.7884849385554298
sg107
g119
sbag1
(g93
g3
NtRp131
(dp132
g103
I0
sg104
g124
sg97
I12
sg106
F4.9242730000000003
sg107
g119
sbasb.