ccopy_reg
_reconstructor
p1
(cneat.chromosome
Chromosome
p2
c__builtin__
object
p3
NtRp4
(dp5
S'species_id'
p6
I22
sS'_connection_genes'
p7
(dp8
(I4
I7
tp9
g1
(cneat.genome
ConnectionGene
p10
g3
NtRp11
(dp12
S'_ConnectionGene__weight'
p13
F-4.5501115995071819
sS'_ConnectionGene__in'
p14
I4
sS'_ConnectionGene__enabled'
p15
I01
sS'_ConnectionGene__out'
p16
I7
sS'_ConnectionGene__innov_number'
p17
I9
sbs(I5
I6
tp18
g1
(g10
g3
NtRp19
(dp20
g13
F5.6863936066430449
sg14
I5
sg15
I01
sg16
I6
sg17
I5
sbs(I4
I12
tp21
g1
(g10
g3
NtRp22
(dp23
g13
F0.42059195164446783
sg14
I4
sg15
I01
sg16
I12
sg17
I71
sbs(I1
I6
tp24
g1
(g10
g3
NtRp25
(dp26
g13
F-4.0785089298513766
sg14
I1
sg15
I00
sg16
I6
sg17
I1
sbs(I3
I7
tp27
g1
(g10
g3
NtRp28
(dp29
g13
F-3.8541828091703403
sg14
I3
sg15
I01
sg16
I7
sg17
I8
sbs(I7
I11
tp30
g1
(g10
g3
NtRp31
(dp32
g13
F-1.2527502419617087
sg14
I7
sg15
I01
sg16
I11
sg17
I52
sbs(I13
I7
tp33
g1
(g10
g3
NtRp34
(dp35
g13
F-2.46018226578795
sg14
I13
sg15
I01
sg16
I7
sg17
I74
sbs(I7
I10
tp36
g1
(g10
g3
NtRp37
(dp38
g13
F6.9278211209629363
sg14
I7
sg15
I01
sg16
I10
sg17
I36
sbs(I8
I6
tp39
g1
(g10
g3
NtRp40
(dp41
g13
F2.351112276828998
sg14
I8
sg15
I01
sg16
I6
sg17
I14
sbs(I10
I9
tp42
g1
(g10
g3
NtRp43
(dp44
g13
F0.62522595689814897
sg14
I10
sg15
I01
sg16
I9
sg17
I37
sbs(I9
I7
tp45
g1
(g10
g3
NtRp46
(dp47
g13
F6.8207513036104732
sg14
I9
sg15
I00
sg16
I7
sg17
I22
sbs(I2
I6
tp48
g1
(g10
g3
NtRp49
(dp50
g13
F1.9829198008155009
sg14
I2
sg15
I01
sg16
I6
sg17
I2
sbs(I3
I6
tp51
g1
(g10
g3
NtRp52
(dp53
g13
F-10.98769549825187
sg14
I3
sg15
I01
sg16
I6
sg17
I3
sbs(I11
I9
tp54
g1
(g10
g3
NtRp55
(dp56
g13
F6.5165187279982568
sg14
I11
sg15
I01
sg16
I9
sg17
I40
sbs(I3
I9
tp57
g1
(g10
g3
NtRp58
(dp59
g13
F-5.0006429770759411
sg14
I3
sg15
I01
sg16
I9
sg17
I21
sbs(I12
I11
tp60
g1
(g10
g3
NtRp61
(dp62
g13
F-2.5925239347738751
sg14
I12
sg15
I01
sg16
I11
sg17
I72
sbs(I4
I11
tp63
g1
(g10
g3
NtRp64
(dp65
g13
F-0.74446272890290011
sg14
I4
sg15
I00
sg16
I11
sg17
I44
sbs(I7
I9
tp66
g1
(g10
g3
NtRp67
(dp68
g13
F8.0406395049351644
sg14
I7
sg15
I00
sg16
I9
sg17
I29
sbs(I2
I7
tp69
g1
(g10
g3
NtRp70
(dp71
g13
F5.3963940176232406
sg14
I2
sg15
I01
sg16
I7
sg17
I7
sbs(I9
I13
tp72
g1
(g10
g3
NtRp73
(dp74
g13
F-1.7126371363284154
sg14
I9
sg15
I01
sg16
I13
sg17
I73
sbs(I4
I6
tp75
g1
(g10
g3
NtRp76
(dp77
g13
F-11.528434167473906
sg14
I4
sg15
I01
sg16
I6
sg17
I4
sbs(I10
I10
tp78
g1
(g10
g3
NtRp79
(dp80
g13
F-2.6655266978024339
sg14
I10
sg15
I01
sg16
I10
sg17
I46
sbs(I11
I8
tp81
g1
(g10
g3
NtRp82
(dp83
g13
F0.77655250058768122
sg14
I11
sg15
I01
sg16
I8
sg17
I51
sbs(I5
I7
tp84
g1
(g10
g3
NtRp85
(dp86
g13
F-12.38733501066225
sg14
I5
sg15
I01
sg16
I7
sg17
I10
sbs(I3
I8
tp87
g1
(g10
g3
NtRp88
(dp89
g13
F-7.6212510382634377
sg14
I3
sg15
I01
sg16
I8
sg17
I33
sbs(I1
I8
tp90
g1
(g10
g3
NtRp91
(dp92
g13
F2.8282945319839063
sg14
I1
sg15
I01
sg16
I8
sg17
I13
sbs(I1
I7
tp93
g1
(g10
g3
NtRp94
(dp95
g13
F-4.2733608735521944
sg14
I1
sg15
I01
sg16
I7
sg17
I6
sbssS'_input_nodes'
p96
I5
sS'_output_nodes'
p97
I2
sS'_node_gene_type'
p98
cneat.genome
NodeGene
p99
sS'_conn_gene_type'
p100
g10
sS'fitness'
p101
F0.20607583211865013
sS'parent2_id'
p102
I2156
sS'_id'
p103
I2203
sS'parent1_id'
p104
I2156
sS'_node_genes'
p105
(lp106
g1
(g99
g3
NtRp107
(dp108
S'_bias'
p109
I0
sS'_type'
p110
S'INPUT'
p111
sg103
I1
sS'_response'
p112
F4.9242730000000003
sS'_activation_type'
p113
Nsbag1
(g99
g3
NtRp114
(dp115
g109
I0
sg110
g111
sg103
I2
sg112
F4.9242730000000003
sg113
Nsbag1
(g99
g3
NtRp116
(dp117
g109
I0
sg110
g111
sg103
I3
sg112
F4.9242730000000003
sg113
Nsbag1
(g99
g3
NtRp118
(dp119
g109
I0
sg110
g111
sg103
I4
sg112
F4.9242730000000003
sg113
Nsbag1
(g99
g3
NtRp120
(dp121
g109
I0
sg110
g111
sg103
I5
sg112
F4.9242730000000003
sg113
Nsbag1
(g99
g3
NtRp122
(dp123
g109
F-2.4086719864427115
sg110
S'OUTPUT'
p124
sg103
I6
sg112
F5.8828553178101721
sg113
S'exp'
p125
sbag1
(g99
g3
NtRp126
(dp127
g109
F1.1130519421030547
sg110
g124
sg103
I7
sg112
F5.6092948338865192
sg113
g125
sbag1
(g99
g3
NtRp128
(dp129
g109
F-0.83485962431859784
sg110
S'HIDDEN'
p130
sg103
I8
sg112
F3.9641505111178166
sg113
g125
sbag1
(g99
g3
NtRp131
(dp132
g109
F0.70828666393382278
sg110
g130
sg103
I9
sg112
F5.706510801514888
sg113
g125
sbag1
(g99
g3
NtRp133
(dp134
g109
F-0.97293885569511662
sg110
g130
sg103
I10
sg112
F3.6662036093225625
sg113
g125
sbag1
(g99
g3
NtRp135
(dp136
g109
F-0.48383392296549821
sg110
g130
sg103
I11
sg112
F2.9623723397359729
sg113
g125
sbag1
(g99
g3
NtRp137
(dp138
g109
F-0.77530865856523501
sg110
g130
sg103
I12
sg112
F4.702526932908575
sg113
g125
sbag1
(g99
g3
NtRp139
(dp140
g109
I0
sg110
g130
sg103
I13
sg112
F4.6356477185566298
sg113
g125
sbasb.