ccopy_reg
_reconstructor
p1
(cneat.chromosome
Chromosome
p2
c__builtin__
object
p3
NtRp4
(dp5
S'species_id'
p6
I17
sS'_connection_genes'
p7
(dp8
(I2
I7
tp9
g1
(cneat.genome
ConnectionGene
p10
g3
NtRp11
(dp12
S'_ConnectionGene__weight'
p13
F-3.3782385835621778
sS'_ConnectionGene__in'
p14
I2
sS'_ConnectionGene__enabled'
p15
I01
sS'_ConnectionGene__out'
p16
I7
sS'_ConnectionGene__innov_number'
p17
I7
sbs(I4
I7
tp18
g1
(g10
g3
NtRp19
(dp20
g13
F-18.677402401099478
sg14
I4
sg15
I01
sg16
I7
sg17
I9
sbs(I2
I6
tp21
g1
(g10
g3
NtRp22
(dp23
g13
F-9.7499981728185876
sg14
I2
sg15
I01
sg16
I6
sg17
I2
sbs(I3
I7
tp24
g1
(g10
g3
NtRp25
(dp26
g13
F2.1661493188578289
sg14
I3
sg15
I01
sg16
I7
sg17
I8
sbs(I4
I6
tp27
g1
(g10
g3
NtRp28
(dp29
g13
F-14.881962582208917
sg14
I4
sg15
I01
sg16
I6
sg17
I4
sbs(I5
I6
tp30
g1
(g10
g3
NtRp31
(dp32
g13
F-7.0509420780991086
sg14
I5
sg15
I01
sg16
I6
sg17
I5
sbs(I2
I8
tp33
g1
(g10
g3
NtRp34
(dp35
g13
F-1.3084365553241999
sg14
I2
sg15
I01
sg16
I8
sg17
I19
sbs(I5
I7
tp36
g1
(g10
g3
NtRp37
(dp38
g13
F-3.9836342339353599
sg14
I5
sg15
I01
sg16
I7
sg17
I10
sbs(I3
I6
tp39
g1
(g10
g3
NtRp40
(dp41
g13
F-2.058023596114428
sg14
I3
sg15
I01
sg16
I6
sg17
I3
sbs(I3
I8
tp42
g1
(g10
g3
NtRp43
(dp44
g13
F-4.6966020770572303
sg14
I3
sg15
I01
sg16
I8
sg17
I33
sbs(I1
I8
tp45
g1
(g10
g3
NtRp46
(dp47
g13
F-0.82806239544459115
sg14
I1
sg15
I01
sg16
I8
sg17
I13
sbs(I3
I9
tp48
g1
(g10
g3
NtRp49
(dp50
g13
F1.2919022223008017
sg14
I3
sg15
I01
sg16
I9
sg17
I21
sbs(I1
I6
tp51
g1
(g10
g3
NtRp52
(dp53
g13
F8.3505213608056046
sg14
I1
sg15
I01
sg16
I6
sg17
I1
sbs(I7
I10
tp54
g1
(g10
g3
NtRp55
(dp56
g13
F2.6074904505199807
sg14
I7
sg15
I01
sg16
I10
sg17
I36
sbs(I1
I7
tp57
g1
(g10
g3
NtRp58
(dp59
g13
F-1.0758203285567771
sg14
I1
sg15
I01
sg16
I7
sg17
I6
sbs(I8
I6
tp60
g1
(g10
g3
NtRp61
(dp62
g13
F4.5854973538572006
sg14
I8
sg15
I01
sg16
I6
sg17
I14
sbs(I7
I9
tp63
g1
(g10
g3
NtRp64
(dp65
g13
F9.2747313055062168
sg14
I7
sg15
I00
sg16
I9
sg17
I29
sbs(I10
I9
tp66
g1
(g10
g3
NtRp67
(dp68
g13
F16.727148877345115
sg14
I10
sg15
I01
sg16
I9
sg17
I37
sbs(I9
I7
tp69
g1
(g10
g3
NtRp70
(dp71
g13
F-1.2663698389682365
sg14
I9
sg15
I01
sg16
I7
sg17
I22
sbssS'_input_nodes'
p72
I5
sS'_output_nodes'
p73
I2
sS'_node_gene_type'
p74
cneat.genome
NodeGene
p75
sS'_conn_gene_type'
p76
g10
sS'fitness'
p77
F0.32743170204306399
sS'parent2_id'
p78
I2535
sS'_id'
p79
I2580
sS'parent1_id'
p80
I2535
sS'_node_genes'
p81
(lp82
g1
(g75
g3
NtRp83
(dp84
S'_bias'
p85
I0
sS'_type'
p86
S'INPUT'
p87
sg79
I1
sS'_response'
p88
F4.9242730000000003
sS'_activation_type'
p89
Nsbag1
(g75
g3
NtRp90
(dp91
g85
I0
sg86
g87
sg79
I2
sg88
F4.9242730000000003
sg89
Nsbag1
(g75
g3
NtRp92
(dp93
g85
I0
sg86
g87
sg79
I3
sg88
F4.9242730000000003
sg89
Nsbag1
(g75
g3
NtRp94
(dp95
g85
I0
sg86
g87
sg79
I4
sg88
F4.9242730000000003
sg89
Nsbag1
(g75
g3
NtRp96
(dp97
g85
I0
sg86
g87
sg79
I5
sg88
F4.9242730000000003
sg89
Nsbag1
(g75
g3
NtRp98
(dp99
g85
F-1.5294418064007385
sg86
S'OUTPUT'
p100
sg79
I6
sg88
F6.90684232449658
sg89
S'exp'
p101
sbag1
(g75
g3
NtRp102
(dp103
g85
F-0.24681892214618315
sg86
g100
sg79
I7
sg88
F6.2590567989852692
sg89
g101
sbag1
(g75
g3
NtRp104
(dp105
g85
F-1.1423506374164829
sg86
S'HIDDEN'
p106
sg79
I8
sg88
F4.8161287855697514
sg89
g101
sbag1
(g75
g3
NtRp107
(dp108
g85
F0.34999472676363519
sg86
g106
sg79
I9
sg88
F6.1482690938649993
sg89
g101
sbag1
(g75
g3
NtRp109
(dp110
g85
F-0.83570371580403635
sg86
g106
sg79
I10
sg88
F6.2211125762400368
sg89
g101
sbasb.