ccopy_reg
_reconstructor
p1
(cneat.chromosome
Chromosome
p2
c__builtin__
object
p3
NtRp4
(dp5
S'species_id'
p6
I27
sS'_connection_genes'
p7
(dp8
(I4
I7
tp9
g1
(cneat.genome
ConnectionGene
p10
g3
NtRp11
(dp12
S'_ConnectionGene__weight'
p13
F-19.073356011768869
sS'_ConnectionGene__in'
p14
I4
sS'_ConnectionGene__enabled'
p15
I01
sS'_ConnectionGene__out'
p16
I7
sS'_ConnectionGene__innov_number'
p17
I9
sbs(I5
I6
tp18
g1
(g10
g3
NtRp19
(dp20
g13
F-11.709854575479628
sg14
I5
sg15
I01
sg16
I6
sg17
I5
sbs(I1
I6
tp21
g1
(g10
g3
NtRp22
(dp23
g13
F-8.3574182878860359
sg14
I1
sg15
I00
sg16
I6
sg17
I1
sbs(I7
I11
tp24
g1
(g10
g3
NtRp25
(dp26
g13
F-4.8294864564555438
sg14
I7
sg15
I01
sg16
I11
sg17
I52
sbs(I3
I7
tp27
g1
(g10
g3
NtRp28
(dp29
g13
F-10.134399289898631
sg14
I3
sg15
I01
sg16
I7
sg17
I8
sbs(I5
I8
tp30
g1
(g10
g3
NtRp31
(dp32
g13
F-7.0751755127258127
sg14
I5
sg15
I01
sg16
I8
sg17
I17
sbs(I3
I10
tp33
g1
(g10
g3
NtRp34
(dp35
g13
F-3.9404861791580101
sg14
I3
sg15
I01
sg16
I10
sg17
I43
sbs(I3
I6
tp36
g1
(g10
g3
NtRp37
(dp38
g13
F-8.0913462147327539
sg14
I3
sg15
I01
sg16
I6
sg17
I3
sbs(I8
I6
tp39
g1
(g10
g3
NtRp40
(dp41
g13
F16.296631670338289
sg14
I8
sg15
I01
sg16
I6
sg17
I14
sbs(I10
I9
tp42
g1
(g10
g3
NtRp43
(dp44
g13
F5.0986619202621064
sg14
I10
sg15
I01
sg16
I9
sg17
I37
sbs(I9
I7
tp45
g1
(g10
g3
NtRp46
(dp47
g13
F3.4105720166163107
sg14
I9
sg15
I01
sg16
I7
sg17
I22
sbs(I2
I6
tp48
g1
(g10
g3
NtRp49
(dp50
g13
F-8.3480006169896566
sg14
I2
sg15
I00
sg16
I6
sg17
I2
sbs(I7
I10
tp51
g1
(g10
g3
NtRp52
(dp53
g13
F-1.7970959289457333
sg14
I7
sg15
I01
sg16
I10
sg17
I36
sbs(I8
I11
tp54
g1
(g10
g3
NtRp55
(dp56
g13
F-0.16066271130585674
sg14
I8
sg15
I01
sg16
I11
sg17
I58
sbs(I11
I9
tp57
g1
(g10
g3
NtRp58
(dp59
g13
F-0.96932344170000784
sg14
I11
sg15
I01
sg16
I9
sg17
I40
sbs(I3
I9
tp60
g1
(g10
g3
NtRp61
(dp62
g13
F-1.9619068600244183
sg14
I3
sg15
I01
sg16
I9
sg17
I21
sbs(I7
I9
tp63
g1
(g10
g3
NtRp64
(dp65
g13
F-2.3906205666942544
sg14
I7
sg15
I00
sg16
I9
sg17
I29
sbs(I2
I7
tp66
g1
(g10
g3
NtRp67
(dp68
g13
F0.6374619347191367
sg14
I2
sg15
I01
sg16
I7
sg17
I7
sbs(I4
I6
tp69
g1
(g10
g3
NtRp70
(dp71
g13
F-18.68477051928506
sg14
I4
sg15
I01
sg16
I6
sg17
I4
sbs(I5
I7
tp72
g1
(g10
g3
NtRp73
(dp74
g13
F-9.3823730443584878
sg14
I5
sg15
I01
sg16
I7
sg17
I10
sbs(I3
I8
tp75
g1
(g10
g3
NtRp76
(dp77
g13
F-2.5822288966772691
sg14
I3
sg15
I01
sg16
I8
sg17
I33
sbs(I1
I8
tp78
g1
(g10
g3
NtRp79
(dp80
g13
F5.2857401832807325
sg14
I1
sg15
I01
sg16
I8
sg17
I13
sbs(I1
I7
tp81
g1
(g10
g3
NtRp82
(dp83
g13
F0.041742725256764257
sg14
I1
sg15
I01
sg16
I7
sg17
I6
sbssS'_input_nodes'
p84
I5
sS'_output_nodes'
p85
I2
sS'_node_gene_type'
p86
cneat.genome
NodeGene
p87
sS'_conn_gene_type'
p88
g10
sS'fitness'
p89
F0.062568266449419152
sS'parent2_id'
p90
I3600
sS'_id'
p91
I3699
sS'parent1_id'
p92
I3603
sS'_node_genes'
p93
(lp94
g1
(g87
g3
NtRp95
(dp96
S'_bias'
p97
I0
sS'_type'
p98
S'INPUT'
p99
sg91
I1
sS'_response'
p100
F4.9242730000000003
sS'_activation_type'
p101
Nsbag1
(g87
g3
NtRp102
(dp103
g97
I0
sg98
g99
sg91
I2
sg100
F4.9242730000000003
sg101
Nsbag1
(g87
g3
NtRp104
(dp105
g97
I0
sg98
g99
sg91
I3
sg100
F4.9242730000000003
sg101
Nsbag1
(g87
g3
NtRp106
(dp107
g97
I0
sg98
g99
sg91
I4
sg100
F4.9242730000000003
sg101
Nsbag1
(g87
g3
NtRp108
(dp109
g97
I0
sg98
g99
sg91
I5
sg100
F4.9242730000000003
sg101
Nsbag1
(g87
g3
NtRp110
(dp111
g97
F-2.0197356658521333
sg98
S'OUTPUT'
p112
sg91
I6
sg100
F6.0354573714278636
sg101
S'exp'
p113
sbag1
(g87
g3
NtRp114
(dp115
g97
F1.0854974831155875
sg98
g112
sg91
I7
sg100
F5.1933569390879413
sg101
g113
sbag1
(g87
g3
NtRp116
(dp117
g97
F-0.26931157020685809
sg98
S'HIDDEN'
p118
sg91
I8
sg100
F4.5000989475052311
sg101
g113
sbag1
(g87
g3
NtRp119
(dp120
g97
F4.6446072904553457
sg98
g118
sg91
I9
sg100
F7.8873369714033625
sg101
g113
sbag1
(g87
g3
NtRp121
(dp122
g97
F-1.7028755517802103
sg98
g118
sg91
I10
sg100
F4.4123307703286061
sg101
g113
sbag1
(g87
g3
NtRp123
(dp124
g97
F-0.31201187832462141
sg98
g118
sg91
I11
sg100
F2.2405614951247359
sg101
g113
sbasb.