ccopy_reg
_reconstructor
p1
(cneat.chromosome
Chromosome
p2
c__builtin__
object
p3
NtRp4
(dp5
S'species_id'
p6
I3
sS'_connection_genes'
p7
(dp8
(I2
I7
tp9
g1
(cneat.genome
ConnectionGene
p10
g3
NtRp11
(dp12
S'_ConnectionGene__weight'
p13
F1.6753450443567077
sS'_ConnectionGene__in'
p14
I2
sS'_ConnectionGene__enabled'
p15
I01
sS'_ConnectionGene__out'
p16
I7
sS'_ConnectionGene__innov_number'
p17
I7
sbs(I4
I7
tp18
g1
(g10
g3
NtRp19
(dp20
g13
F3.719158418521253
sg14
I4
sg15
I01
sg16
I7
sg17
I9
sbs(I2
I6
tp21
g1
(g10
g3
NtRp22
(dp23
g13
F-4.5243429321355819
sg14
I2
sg15
I01
sg16
I6
sg17
I2
sbs(I4
I6
tp24
g1
(g10
g3
NtRp25
(dp26
g13
F-1.620128801274157
sg14
I4
sg15
I01
sg16
I6
sg17
I4
sbs(I5
I6
tp27
g1
(g10
g3
NtRp28
(dp29
g13
F-2.095082343787912
sg14
I5
sg15
I01
sg16
I6
sg17
I5
sbs(I5
I7
tp30
g1
(g10
g3
NtRp31
(dp32
g13
F4.2961106839119161
sg14
I5
sg15
I01
sg16
I7
sg17
I10
sbs(I1
I6
tp33
g1
(g10
g3
NtRp34
(dp35
g13
F-1.4220815631651302
sg14
I1
sg15
I00
sg16
I6
sg17
I1
sbs(I3
I6
tp36
g1
(g10
g3
NtRp37
(dp38
g13
F-2.289025259267035
sg14
I3
sg15
I01
sg16
I6
sg17
I3
sbs(I1
I7
tp39
g1
(g10
g3
NtRp40
(dp41
g13
F-2.0344111122515804
sg14
I1
sg15
I01
sg16
I7
sg17
I6
sbs(I3
I7
tp42
g1
(g10
g3
NtRp43
(dp44
g13
F-3.5847744387077634
sg14
I3
sg15
I01
sg16
I7
sg17
I8
sbssS'_input_nodes'
p45
I5
sS'_output_nodes'
p46
I2
sS'_node_gene_type'
p47
cneat.genome
NodeGene
p48
sS'_conn_gene_type'
p49
g10
sS'fitness'
p50
F0.35095902038991111
sS'parent2_id'
p51
I423
sS'_id'
p52
I471
sS'parent1_id'
p53
I423
sS'_node_genes'
p54
(lp55
g1
(g48
g3
NtRp56
(dp57
S'_bias'
p58
I0
sS'_type'
p59
S'INPUT'
p60
sg52
I1
sS'_response'
p61
F4.9242730000000003
sS'_activation_type'
p62
Nsbag1
(g48
g3
NtRp63
(dp64
g58
I0
sg59
g60
sg52
I2
sg61
F4.9242730000000003
sg62
Nsbag1
(g48
g3
NtRp65
(dp66
g58
I0
sg59
g60
sg52
I3
sg61
F4.9242730000000003
sg62
Nsbag1
(g48
g3
NtRp67
(dp68
g58
I0
sg59
g60
sg52
I4
sg61
F4.9242730000000003
sg62
Nsbag1
(g48
g3
NtRp69
(dp70
g58
I0
sg59
g60
sg52
I5
sg61
F4.9242730000000003
sg62
Nsbag1
(g48
g3
NtRp71
(dp72
g58
F0.65987030016734871
sg59
S'OUTPUT'
p73
sg52
I6
sg61
F5.2566508232378757
sg62
S'exp'
p74
sbag1
(g48
g3
NtRp75
(dp76
g58
F-0.21713743899698806
sg59
g73
sg52
I7
sg61
F5.0061813507828745
sg62
g74
sbasb.