ccopy_reg
_reconstructor
p1
(cneat.chromosome
Chromosome
p2
c__builtin__
object
p3
NtRp4
(dp5
S'species_id'
p6
I13
sS'_connection_genes'
p7
(dp8
(I2
I7
tp9
g1
(cneat.genome
ConnectionGene
p10
g3
NtRp11
(dp12
S'_ConnectionGene__weight'
p13
F11.087877524597772
sS'_ConnectionGene__in'
p14
I2
sS'_ConnectionGene__enabled'
p15
I01
sS'_ConnectionGene__out'
p16
I7
sS'_ConnectionGene__innov_number'
p17
I7
sbs(I11
I7
tp18
g1
(g10
g3
NtRp19
(dp20
g13
F-13.404425485052755
sg14
I11
sg15
I01
sg16
I7
sg17
I45
sbs(I4
I7
tp21
g1
(g10
g3
NtRp22
(dp23
g13
F-6.704630560224734
sg14
I4
sg15
I01
sg16
I7
sg17
I9
sbs(I2
I6
tp24
g1
(g10
g3
NtRp25
(dp26
g13
F5.3858634114450972
sg14
I2
sg15
I01
sg16
I6
sg17
I2
sbs(I4
I6
tp27
g1
(g10
g3
NtRp28
(dp29
g13
F-3.7094147401050499
sg14
I4
sg15
I01
sg16
I6
sg17
I4
sbs(I5
I11
tp30
g1
(g10
g3
NtRp31
(dp32
g13
F3.7178877479982715
sg14
I5
sg15
I01
sg16
I11
sg17
I48
sbs(I5
I6
tp33
g1
(g10
g3
NtRp34
(dp35
g13
F0.89517642025821376
sg14
I5
sg15
I01
sg16
I6
sg17
I5
sbs(I5
I7
tp36
g1
(g10
g3
NtRp37
(dp38
g13
F-9.7387100518366321
sg14
I5
sg15
I00
sg16
I7
sg17
I10
sbs(I10
I6
tp39
g1
(g10
g3
NtRp40
(dp41
g13
F-6.5611253259747988
sg14
I10
sg15
I01
sg16
I6
sg17
I35
sbs(I8
I10
tp42
g1
(g10
g3
NtRp43
(dp44
g13
F-4.0702852147548993
sg14
I8
sg15
I01
sg16
I10
sg17
I47
sbs(I1
I8
tp45
g1
(g10
g3
NtRp46
(dp47
g13
F-5.352033590040131
sg14
I1
sg15
I01
sg16
I8
sg17
I13
sbs(I8
I8
tp48
g1
(g10
g3
NtRp49
(dp50
g13
F11.61019885400693
sg14
I8
sg15
I01
sg16
I8
sg17
I30
sbs(I1
I6
tp51
g1
(g10
g3
NtRp52
(dp53
g13
F0.66972335037341835
sg14
I1
sg15
I00
sg16
I6
sg17
I1
sbs(I3
I6
tp54
g1
(g10
g3
NtRp55
(dp56
g13
F0.51247474108194391
sg14
I3
sg15
I01
sg16
I6
sg17
I3
sbs(I1
I7
tp57
g1
(g10
g3
NtRp58
(dp59
g13
F5.7292017812950924
sg14
I1
sg15
I01
sg16
I7
sg17
I6
sbs(I8
I6
tp60
g1
(g10
g3
NtRp61
(dp62
g13
F12.14939990682347
sg14
I8
sg15
I00
sg16
I6
sg17
I14
sbs(I3
I7
tp63
g1
(g10
g3
NtRp64
(dp65
g13
F-14.874867707111829
sg14
I3
sg15
I00
sg16
I7
sg17
I8
sbs(I3
I9
tp66
g1
(g10
g3
NtRp67
(dp68
g13
F7.4114742145620642
sg14
I3
sg15
I01
sg16
I9
sg17
I21
sbs(I9
I7
tp69
g1
(g10
g3
NtRp70
(dp71
g13
F3.1045993410802963
sg14
I9
sg15
I01
sg16
I7
sg17
I22
sbs(I7
I9
tp72
g1
(g10
g3
NtRp73
(dp74
g13
F-1.0628643853876079
sg14
I7
sg15
I01
sg16
I9
sg17
I29
sbssS'_input_nodes'
p75
I5
sS'_output_nodes'
p76
I2
sS'_node_gene_type'
p77
cneat.genome
NodeGene
p78
sS'_conn_gene_type'
p79
g10
sS'fitness'
p80
F0.13122050430687165
sS'parent2_id'
p81
I1670
sS'_id'
p82
I1718
sS'parent1_id'
p83
I1670
sS'_node_genes'
p84
(lp85
g1
(g78
g3
NtRp86
(dp87
S'_bias'
p88
I0
sS'_type'
p89
S'INPUT'
p90
sg82
I1
sS'_response'
p91
F4.9242730000000003
sS'_activation_type'
p92
Nsbag1
(g78
g3
NtRp93
(dp94
g88
I0
sg89
g90
sg82
I2
sg91
F4.9242730000000003
sg92
Nsbag1
(g78
g3
NtRp95
(dp96
g88
I0
sg89
g90
sg82
I3
sg91
F4.9242730000000003
sg92
Nsbag1
(g78
g3
NtRp97
(dp98
g88
I0
sg89
g90
sg82
I4
sg91
F4.9242730000000003
sg92
Nsbag1
(g78
g3
NtRp99
(dp100
g88
I0
sg89
g90
sg82
I5
sg91
F4.9242730000000003
sg92
Nsbag1
(g78
g3
NtRp101
(dp102
g88
F-1.0266554480028094
sg89
S'OUTPUT'
p103
sg82
I6
sg91
F5.7480685214004428
sg92
S'exp'
p104
sbag1
(g78
g3
NtRp105
(dp106
g88
F-1.5446010882656263
sg89
g103
sg82
I7
sg91
F6.926619634278639
sg92
g104
sbag1
(g78
g3
NtRp107
(dp108
g88
F0.84797809532860413
sg89
S'HIDDEN'
p109
sg82
I8
sg91
F4.5020153483481513
sg92
g104
sbag1
(g78
g3
NtRp110
(dp111
g88
F-0.57480741819224757
sg89
g109
sg82
I9
sg91
F4.0058149726977641
sg92
g104
sbag1
(g78
g3
NtRp112
(dp113
g88
F-2.5516329859331357
sg89
g109
sg82
I10
sg91
F2.877043473246419
sg92
g104
sbag1
(g78
g3
NtRp114
(dp115
g88
F-0.58193750014837842
sg89
g109
sg82
I11
sg91
F4.4380906069992374
sg92
g104
sbasb.