ccopy_reg
_reconstructor
p1
(cneat.chromosome
Chromosome
p2
c__builtin__
object
p3
NtRp4
(dp5
S'species_id'
p6
I36
sS'_connection_genes'
p7
(dp8
(I11
I16
tp9
g1
(cneat.genome
ConnectionGene
p10
g3
NtRp11
(dp12
S'_ConnectionGene__weight'
p13
F-2.7438506579453956
sS'_ConnectionGene__in'
p14
I11
sS'_ConnectionGene__enabled'
p15
I01
sS'_ConnectionGene__out'
p16
I16
sS'_ConnectionGene__innov_number'
p17
I123
sbs(I4
I7
tp18
g1
(g10
g3
NtRp19
(dp20
g13
F-3.1757041811292162
sg14
I4
sg15
I01
sg16
I7
sg17
I9
sbs(I8
I7
tp21
g1
(g10
g3
NtRp22
(dp23
g13
F3.5326279840137436
sg14
I8
sg15
I01
sg16
I7
sg17
I12
sbs(I5
I6
tp24
g1
(g10
g3
NtRp25
(dp26
g13
F2.8533642776535859
sg14
I5
sg15
I01
sg16
I6
sg17
I5
sbs(I6
I9
tp27
g1
(g10
g3
NtRp28
(dp29
g13
F-10.838009711319248
sg14
I6
sg15
I01
sg16
I9
sg17
I56
sbs(I4
I12
tp30
g1
(g10
g3
NtRp31
(dp32
g13
F-7.5340378165155144
sg14
I4
sg15
I01
sg16
I12
sg17
I71
sbs(I1
I6
tp33
g1
(g10
g3
NtRp34
(dp35
g13
F-0.89011327106141669
sg14
I1
sg15
I01
sg16
I6
sg17
I1
sbs(I3
I7
tp36
g1
(g10
g3
NtRp37
(dp38
g13
F15.15865310055848
sg14
I3
sg15
I01
sg16
I7
sg17
I8
sbs(I7
I11
tp39
g1
(g10
g3
NtRp40
(dp41
g13
F-7.6758163353513194
sg14
I7
sg15
I01
sg16
I11
sg17
I52
sbs(I14
I9
tp42
g1
(g10
g3
NtRp43
(dp44
g13
F-2.9021106240549321
sg14
I14
sg15
I01
sg16
I9
sg17
I90
sbs(I13
I13
tp45
g1
(g10
g3
NtRp46
(dp47
g13
F-0.88036712072648571
sg14
I13
sg15
I01
sg16
I13
sg17
I91
sbs(I1
I8
tp48
g1
(g10
g3
NtRp49
(dp50
g13
F6.3398387971610344
sg14
I1
sg15
I01
sg16
I8
sg17
I13
sbs(I16
I9
tp51
g1
(g10
g3
NtRp52
(dp53
g13
F-2.9781338128724375
sg14
I16
sg15
I01
sg16
I9
sg17
I119
sbs(I13
I7
tp54
g1
(g10
g3
NtRp55
(dp56
g13
F8.5351116601024017
sg14
I13
sg15
I01
sg16
I7
sg17
I74
sbs(I7
I10
tp57
g1
(g10
g3
NtRp58
(dp59
g13
F19.932146691979195
sg14
I7
sg15
I01
sg16
I10
sg17
I36
sbs(I8
I6
tp60
g1
(g10
g3
NtRp61
(dp62
g13
F19.917005875749005
sg14
I8
sg15
I01
sg16
I6
sg17
I14
sbs(I10
I9
tp63
g1
(g10
g3
NtRp64
(dp65
g13
F-9.9419049254870551
sg14
I10
sg15
I01
sg16
I9
sg17
I37
sbs(I9
I7
tp66
g1
(g10
g3
NtRp67
(dp68
g13
F1.2006159141241333
sg14
I9
sg15
I00
sg16
I7
sg17
I22
sbs(I7
I14
tp69
g1
(g10
g3
NtRp70
(dp71
g13
F-4.6182241354393554
sg14
I7
sg15
I01
sg16
I14
sg17
I88
sbs(I2
I6
tp72
g1
(g10
g3
NtRp73
(dp74
g13
F4.2959715226984763
sg14
I2
sg15
I01
sg16
I6
sg17
I2
sbs(I3
I6
tp75
g1
(g10
g3
NtRp76
(dp77
g13
F-16.443144369764244
sg14
I3
sg15
I01
sg16
I6
sg17
I3
sbs(I11
I9
tp78
g1
(g10
g3
NtRp79
(dp80
g13
F4.9861250721281207
sg14
I11
sg15
I00
sg16
I9
sg17
I40
sbs(I3
I9
tp81
g1
(g10
g3
NtRp82
(dp83
g13
F-14.947537793319974
sg14
I3
sg15
I01
sg16
I9
sg17
I21
sbs(I12
I11
tp84
g1
(g10
g3
NtRp85
(dp86
g13
F-0.41754988407827759
sg14
I12
sg15
I01
sg16
I11
sg17
I72
sbs(I4
I11
tp87
g1
(g10
g3
NtRp88
(dp89
g13
F-4.3391420169307882
sg14
I4
sg15
I00
sg16
I11
sg17
I44
sbs(I7
I9
tp90
g1
(g10
g3
NtRp91
(dp92
g13
F-7.2344056942166368
sg14
I7
sg15
I00
sg16
I9
sg17
I29
sbs(I2
I7
tp93
g1
(g10
g3
NtRp94
(dp95
g13
F-1.2243039664024158
sg14
I2
sg15
I01
sg16
I7
sg17
I7
sbs(I9
I13
tp96
g1
(g10
g3
NtRp97
(dp98
g13
F1.0254861187545883
sg14
I9
sg15
I01
sg16
I13
sg17
I73
sbs(I4
I6
tp99
g1
(g10
g3
NtRp100
(dp101
g13
F-8.2627674934783766
sg14
I4
sg15
I01
sg16
I6
sg17
I4
sbs(I10
I10
tp102
g1
(g10
g3
NtRp103
(dp104
g13
F-9.4259257394047715
sg14
I10
sg15
I01
sg16
I10
sg17
I46
sbs(I11
I8
tp105
g1
(g10
g3
NtRp106
(dp107
g13
F5.373036219436063
sg14
I11
sg15
I01
sg16
I8
sg17
I51
sbs(I4
I15
tp108
g1
(g10
g3
NtRp109
(dp110
g13
F2.0714950787656803
sg14
I4
sg15
I01
sg16
I15
sg17
I114
sbs(I5
I7
tp111
g1
(g10
g3
NtRp112
(dp113
g13
F-2.7928253568211283
sg14
I5
sg15
I01
sg16
I7
sg17
I10
sbs(I3
I8
tp114
g1
(g10
g3
NtRp115
(dp116
g13
F-14.194241121693398
sg14
I3
sg15
I01
sg16
I8
sg17
I33
sbs(I13
I14
tp117
g1
(g10
g3
NtRp118
(dp119
g13
F-0.69253821711037189
sg14
I13
sg15
I01
sg16
I14
sg17
I98
sbs(I15
I6
tp120
g1
(g10
g3
NtRp121
(dp122
g13
F-4.6674703174455967
sg14
I15
sg15
I01
sg16
I6
sg17
I93
sbs(I1
I7
tp123
g1
(g10
g3
NtRp124
(dp125
g13
F-16.359576221533036
sg14
I1
sg15
I01
sg16
I7
sg17
I6
sbssS'_input_nodes'
p126
I5
sS'_output_nodes'
p127
I2
sS'_node_gene_type'
p128
cneat.genome
NodeGene
p129
sS'_conn_gene_type'
p130
g10
sS'fitness'
p131
F0.034802026497293269
sS'parent2_id'
p132
I4666
sS'_id'
p133
I4716
sS'parent1_id'
p134
I4666
sS'_node_genes'
p135
(lp136
g1
(g129
g3
NtRp137
(dp138
S'_bias'
p139
I0
sS'_type'
p140
S'INPUT'
p141
sg133
I1
sS'_response'
p142
F4.9242730000000003
sS'_activation_type'
p143
Nsbag1
(g129
g3
NtRp144
(dp145
g139
I0
sg140
g141
sg133
I2
sg142
F4.9242730000000003
sg143
Nsbag1
(g129
g3
NtRp146
(dp147
g139
I0
sg140
g141
sg133
I3
sg142
F4.9242730000000003
sg143
Nsbag1
(g129
g3
NtRp148
(dp149
g139
I0
sg140
g141
sg133
I4
sg142
F4.9242730000000003
sg143
Nsbag1
(g129
g3
NtRp150
(dp151
g139
I0
sg140
g141
sg133
I5
sg142
F4.9242730000000003
sg143
Nsbag1
(g129
g3
NtRp152
(dp153
g139
F-0.71734342884529412
sg140
S'OUTPUT'
p154
sg133
I6
sg142
F7.4491372184081452
sg143
S'exp'
p155
sbag1
(g129
g3
NtRp156
(dp157
g139
F0.21231845811256
sg140
g154
sg133
I7
sg142
F3.4835924668854887
sg143
g155
sbag1
(g129
g3
NtRp158
(dp159
g139
F-1.3111177701679229
sg140
S'HIDDEN'
p160
sg133
I8
sg142
F2.0650577089493325
sg143
g155
sbag1
(g129
g3
NtRp161
(dp162
g139
F1.4468069544185864
sg140
g160
sg133
I9
sg142
F6.1991694897271534
sg143
g155
sbag1
(g129
g3
NtRp163
(dp164
g139
F-0.69153649862966848
sg140
g160
sg133
I10
sg142
F1.7628077765051318
sg143
g155
sbag1
(g129
g3
NtRp165
(dp166
g139
F-0.69994574361674267
sg140
g160
sg133
I11
sg142
F0.03947275834542871
sg143
g155
sbag1
(g129
g3
NtRp167
(dp168
g139
F-3.3461469064222884
sg140
g160
sg133
I12
sg142
F4.0227403007004865
sg143
g155
sbag1
(g129
g3
NtRp169
(dp170
g139
F-0.39450563686355561
sg140
g160
sg133
I13
sg142
F4.9650761332083091
sg143
g155
sbag1
(g129
g3
NtRp171
(dp172
g139
F-0.677166164028703
sg140
g160
sg133
I14
sg142
F3.2058198933584725
sg143
g155
sbag1
(g129
g3
NtRp173
(dp174
g139
F-2.6106146600598001
sg140
g160
sg133
I15
sg142
F5.4171542607337173
sg143
g155
sbag1
(g129
g3
NtRp175
(dp176
g139
F-0.22465567400982336
sg140
g160
sg133
I16
sg142
F5.8136178449945026
sg143
g155
sbasb.