ccopy_reg
_reconstructor
p1
(cneat.chromosome
Chromosome
p2
c__builtin__
object
p3
NtRp4
(dp5
S'species_id'
p6
I21
sS'_connection_genes'
p7
(dp8
(I4
I7
tp9
g1
(cneat.genome
ConnectionGene
p10
g3
NtRp11
(dp12
S'_ConnectionGene__weight'
p13
F-9.2459912633563288
sS'_ConnectionGene__in'
p14
I4
sS'_ConnectionGene__enabled'
p15
I01
sS'_ConnectionGene__out'
p16
I7
sS'_ConnectionGene__innov_number'
p17
I9
sbs(I5
I6
tp18
g1
(g10
g3
NtRp19
(dp20
g13
F3.6516292344715264
sg14
I5
sg15
I01
sg16
I6
sg17
I5
sbs(I1
I6
tp21
g1
(g10
g3
NtRp22
(dp23
g13
F-1.2791311144003334
sg14
I1
sg15
I00
sg16
I6
sg17
I1
sbs(I3
I7
tp24
g1
(g10
g3
NtRp25
(dp26
g13
F4.4185509896042472
sg14
I3
sg15
I01
sg16
I7
sg17
I8
sbs(I7
I11
tp27
g1
(g10
g3
NtRp28
(dp29
g13
F1.5615472703048103
sg14
I7
sg15
I01
sg16
I11
sg17
I52
sbs(I6
I10
tp30
g1
(g10
g3
NtRp31
(dp32
g13
F-2.5879747201352172
sg14
I6
sg15
I01
sg16
I10
sg17
I67
sbs(I7
I10
tp33
g1
(g10
g3
NtRp34
(dp35
g13
F4.6984614790378565
sg14
I7
sg15
I01
sg16
I10
sg17
I36
sbs(I8
I6
tp36
g1
(g10
g3
NtRp37
(dp38
g13
F-0.90235209269676397
sg14
I8
sg15
I01
sg16
I6
sg17
I14
sbs(I10
I9
tp39
g1
(g10
g3
NtRp40
(dp41
g13
F0.8603004585892795
sg14
I10
sg15
I01
sg16
I9
sg17
I37
sbs(I9
I7
tp42
g1
(g10
g3
NtRp43
(dp44
g13
F-4.5227968982788269
sg14
I9
sg15
I01
sg16
I7
sg17
I22
sbs(I2
I6
tp45
g1
(g10
g3
NtRp46
(dp47
g13
F-4.2495080207636216
sg14
I2
sg15
I01
sg16
I6
sg17
I2
sbs(I3
I6
tp48
g1
(g10
g3
NtRp49
(dp50
g13
F-19.461397799833954
sg14
I3
sg15
I01
sg16
I6
sg17
I3
sbs(I11
I9
tp51
g1
(g10
g3
NtRp52
(dp53
g13
F6.2300441611454476
sg14
I11
sg15
I01
sg16
I9
sg17
I40
sbs(I3
I9
tp54
g1
(g10
g3
NtRp55
(dp56
g13
F6.9483823532181903
sg14
I3
sg15
I01
sg16
I9
sg17
I21
sbs(I4
I11
tp57
g1
(g10
g3
NtRp58
(dp59
g13
F0.01480453347830224
sg14
I4
sg15
I01
sg16
I11
sg17
I44
sbs(I7
I9
tp60
g1
(g10
g3
NtRp61
(dp62
g13
F11.168503625071157
sg14
I7
sg15
I01
sg16
I9
sg17
I29
sbs(I2
I7
tp63
g1
(g10
g3
NtRp64
(dp65
g13
F-7.1110473315792584
sg14
I2
sg15
I01
sg16
I7
sg17
I7
sbs(I11
I7
tp66
g1
(g10
g3
NtRp67
(dp68
g13
F-0.9149245069709524
sg14
I11
sg15
I01
sg16
I7
sg17
I45
sbs(I4
I6
tp69
g1
(g10
g3
NtRp70
(dp71
g13
F-8.954811305317417
sg14
I4
sg15
I01
sg16
I6
sg17
I4
sbs(I10
I10
tp72
g1
(g10
g3
NtRp73
(dp74
g13
F-6.1857638238528363
sg14
I10
sg15
I01
sg16
I10
sg17
I46
sbs(I5
I7
tp75
g1
(g10
g3
NtRp76
(dp77
g13
F-16.89704809658059
sg14
I5
sg15
I01
sg16
I7
sg17
I10
sbs(I3
I8
tp78
g1
(g10
g3
NtRp79
(dp80
g13
F-7.1263832422251916
sg14
I3
sg15
I01
sg16
I8
sg17
I33
sbs(I1
I8
tp81
g1
(g10
g3
NtRp82
(dp83
g13
F3.8874215603045226
sg14
I1
sg15
I01
sg16
I8
sg17
I13
sbs(I1
I7
tp84
g1
(g10
g3
NtRp85
(dp86
g13
F-1.0148975523481767
sg14
I1
sg15
I01
sg16
I7
sg17
I6
sbssS'_input_nodes'
p87
I5
sS'_output_nodes'
p88
I2
sS'_node_gene_type'
p89
cneat.genome
NodeGene
p90
sS'_conn_gene_type'
p91
g10
sS'fitness'
p92
F0.046172851328817079
sS'parent2_id'
p93
I2348
sS'_id'
p94
I2404
sS'parent1_id'
p95
I2348
sS'_node_genes'
p96
(lp97
g1
(g90
g3
NtRp98
(dp99
S'_bias'
p100
I0
sS'_type'
p101
S'INPUT'
p102
sg94
I1
sS'_response'
p103
F4.9242730000000003
sS'_activation_type'
p104
Nsbag1
(g90
g3
NtRp105
(dp106
g100
I0
sg101
g102
sg94
I2
sg103
F4.9242730000000003
sg104
Nsbag1
(g90
g3
NtRp107
(dp108
g100
I0
sg101
g102
sg94
I3
sg103
F4.9242730000000003
sg104
Nsbag1
(g90
g3
NtRp109
(dp110
g100
I0
sg101
g102
sg94
I4
sg103
F4.9242730000000003
sg104
Nsbag1
(g90
g3
NtRp111
(dp112
g100
I0
sg101
g102
sg94
I5
sg103
F4.9242730000000003
sg104
Nsbag1
(g90
g3
NtRp113
(dp114
g100
F-2.0361450184496692
sg101
S'OUTPUT'
p115
sg94
I6
sg103
F7.0736845663339016
sg104
S'exp'
p116
sbag1
(g90
g3
NtRp117
(dp118
g100
F-0.025037171649574641
sg101
g115
sg94
I7
sg103
F5.4889379975419317
sg104
g116
sbag1
(g90
g3
NtRp119
(dp120
g100
F-0.87803618076365464
sg101
S'HIDDEN'
p121
sg94
I8
sg103
F5.5099110869552081
sg104
g116
sbag1
(g90
g3
NtRp122
(dp123
g100
F0.47353529351893991
sg101
g121
sg94
I9
sg103
F5.5071332749078437
sg104
g116
sbag1
(g90
g3
NtRp124
(dp125
g100
F-1.0899209611191967
sg101
g121
sg94
I10
sg103
F4.3353830594111535
sg104
g116
sbag1
(g90
g3
NtRp126
(dp127
g100
F-0.86763019264598684
sg101
g121
sg94
I11
sg103
F5.747534159675304
sg104
g116
sbasb.