ccopy_reg
_reconstructor
p1
(cneat.chromosome
Chromosome
p2
c__builtin__
object
p3
NtRp4
(dp5
S'species_id'
p6
I28
sS'_connection_genes'
p7
(dp8
(I4
I7
tp9
g1
(cneat.genome
ConnectionGene
p10
g3
NtRp11
(dp12
S'_ConnectionGene__weight'
p13
F-11.918106858809038
sS'_ConnectionGene__in'
p14
I4
sS'_ConnectionGene__enabled'
p15
I01
sS'_ConnectionGene__out'
p16
I7
sS'_ConnectionGene__innov_number'
p17
I9
sbs(I5
I6
tp18
g1
(g10
g3
NtRp19
(dp20
g13
F-8.1662794154555964
sg14
I5
sg15
I01
sg16
I6
sg17
I5
sbs(I1
I6
tp21
g1
(g10
g3
NtRp22
(dp23
g13
F1.2455046329310799
sg14
I1
sg15
I00
sg16
I6
sg17
I1
sbs(I3
I7
tp24
g1
(g10
g3
NtRp25
(dp26
g13
F10.390114275351594
sg14
I3
sg15
I01
sg16
I7
sg17
I8
sbs(I7
I11
tp27
g1
(g10
g3
NtRp28
(dp29
g13
F-3.3093585031071342
sg14
I7
sg15
I01
sg16
I11
sg17
I52
sbs(I6
I10
tp30
g1
(g10
g3
NtRp31
(dp32
g13
F7.7752465771776782
sg14
I6
sg15
I01
sg16
I10
sg17
I67
sbs(I3
I6
tp33
g1
(g10
g3
NtRp34
(dp35
g13
F-19.569090426966461
sg14
I3
sg15
I01
sg16
I6
sg17
I3
sbs(I8
I6
tp36
g1
(g10
g3
NtRp37
(dp38
g13
F0.52855918985040207
sg14
I8
sg15
I01
sg16
I6
sg17
I14
sbs(I10
I9
tp39
g1
(g10
g3
NtRp40
(dp41
g13
F2.4544357552737126
sg14
I10
sg15
I01
sg16
I9
sg17
I37
sbs(I9
I7
tp42
g1
(g10
g3
NtRp43
(dp44
g13
F-4.1179786728643943
sg14
I9
sg15
I01
sg16
I7
sg17
I22
sbs(I2
I6
tp45
g1
(g10
g3
NtRp46
(dp47
g13
F-7.6007358612784843
sg14
I2
sg15
I01
sg16
I6
sg17
I2
sbs(I7
I10
tp48
g1
(g10
g3
NtRp49
(dp50
g13
F4.0668718971272648
sg14
I7
sg15
I01
sg16
I10
sg17
I36
sbs(I12
I7
tp51
g1
(g10
g3
NtRp52
(dp53
g13
F7.0693393175004227
sg14
I12
sg15
I01
sg16
I7
sg17
I64
sbs(I11
I9
tp54
g1
(g10
g3
NtRp55
(dp56
g13
F0.28390453217161848
sg14
I11
sg15
I01
sg16
I9
sg17
I40
sbs(I3
I9
tp57
g1
(g10
g3
NtRp58
(dp59
g13
F-8.0252998589475197
sg14
I3
sg15
I01
sg16
I9
sg17
I21
sbs(I4
I11
tp60
g1
(g10
g3
NtRp61
(dp62
g13
F-6.729523754855248
sg14
I4
sg15
I01
sg16
I11
sg17
I44
sbs(I7
I9
tp63
g1
(g10
g3
NtRp64
(dp65
g13
F9.6909120271197438
sg14
I7
sg15
I01
sg16
I9
sg17
I29
sbs(I2
I7
tp66
g1
(g10
g3
NtRp67
(dp68
g13
F-4.758156216041475
sg14
I2
sg15
I01
sg16
I7
sg17
I7
sbs(I11
I7
tp69
g1
(g10
g3
NtRp70
(dp71
g13
F-4.5397644775483288
sg14
I11
sg15
I01
sg16
I7
sg17
I45
sbs(I5
I10
tp72
g1
(g10
g3
NtRp73
(dp74
g13
F3.1355156997406368
sg14
I5
sg15
I01
sg16
I10
sg17
I41
sbs(I4
I6
tp75
g1
(g10
g3
NtRp76
(dp77
g13
F-6.3124992331227077
sg14
I4
sg15
I01
sg16
I6
sg17
I4
sbs(I1
I12
tp78
g1
(g10
g3
NtRp79
(dp80
g13
F-1.8488240858057976
sg14
I1
sg15
I01
sg16
I12
sg17
I68
sbs(I10
I10
tp81
g1
(g10
g3
NtRp82
(dp83
g13
F-17.375328520799126
sg14
I10
sg15
I01
sg16
I10
sg17
I46
sbs(I5
I7
tp84
g1
(g10
g3
NtRp85
(dp86
g13
F-23.279813859818219
sg14
I5
sg15
I01
sg16
I7
sg17
I10
sbs(I3
I8
tp87
g1
(g10
g3
NtRp88
(dp89
g13
F-10.289636307979951
sg14
I3
sg15
I01
sg16
I8
sg17
I33
sbs(I1
I8
tp90
g1
(g10
g3
NtRp91
(dp92
g13
F1.7801001271797521
sg14
I1
sg15
I01
sg16
I8
sg17
I13
sbs(I1
I7
tp93
g1
(g10
g3
NtRp94
(dp95
g13
F-2.5007558902770923
sg14
I1
sg15
I00
sg16
I7
sg17
I6
sbssS'_input_nodes'
p96
I5
sS'_output_nodes'
p97
I2
sS'_node_gene_type'
p98
cneat.genome
NodeGene
p99
sS'_conn_gene_type'
p100
g10
sS'fitness'
p101
F0.094314172394916018
sS'parent2_id'
p102
I4109
sS'_id'
p103
I4166
sS'parent1_id'
p104
I4109
sS'_node_genes'
p105
(lp106
g1
(g99
g3
NtRp107
(dp108
S'_bias'
p109
I0
sS'_type'
p110
S'INPUT'
p111
sg103
I1
sS'_response'
p112
F4.9242730000000003
sS'_activation_type'
p113
Nsbag1
(g99
g3
NtRp114
(dp115
g109
I0
sg110
g111
sg103
I2
sg112
F4.9242730000000003
sg113
Nsbag1
(g99
g3
NtRp116
(dp117
g109
I0
sg110
g111
sg103
I3
sg112
F4.9242730000000003
sg113
Nsbag1
(g99
g3
NtRp118
(dp119
g109
I0
sg110
g111
sg103
I4
sg112
F4.9242730000000003
sg113
Nsbag1
(g99
g3
NtRp120
(dp121
g109
I0
sg110
g111
sg103
I5
sg112
F4.9242730000000003
sg113
Nsbag1
(g99
g3
NtRp122
(dp123
g109
F-2.9934655002623405
sg110
S'OUTPUT'
p124
sg103
I6
sg112
F8.9728727146308014
sg113
S'exp'
p125
sbag1
(g99
g3
NtRp126
(dp127
g109
F0.55921745651220767
sg110
g124
sg103
I7
sg112
F4.0129695037456292
sg113
g125
sbag1
(g99
g3
NtRp128
(dp129
g109
F0.96816188896108635
sg110
S'HIDDEN'
p130
sg103
I8
sg112
F4.9993032362932803
sg113
g125
sbag1
(g99
g3
NtRp131
(dp132
g109
F-1.0498049005677852
sg110
g130
sg103
I9
sg112
F2.2916092431779811
sg113
g125
sbag1
(g99
g3
NtRp133
(dp134
g109
F-1.5351061694511354
sg110
g130
sg103
I10
sg112
F3.6242792065164049
sg113
g125
sbag1
(g99
g3
NtRp135
(dp136
g109
F-0.18644096312791392
sg110
g130
sg103
I11
sg112
F5.8120006033126312
sg113
g125
sbag1
(g99
g3
NtRp137
(dp138
g109
F0.97387322380651753
sg110
g130
sg103
I12
sg112
F4.4752213024315202
sg113
g125
sbasb.