ccopy_reg
_reconstructor
p1
(cneat.chromosome
Chromosome
p2
c__builtin__
object
p3
NtRp4
(dp5
S'species_id'
p6
I21
sS'_connection_genes'
p7
(dp8
(I4
I7
tp9
g1
(cneat.genome
ConnectionGene
p10
g3
NtRp11
(dp12
S'_ConnectionGene__weight'
p13
F-5.2316254481980593
sS'_ConnectionGene__in'
p14
I4
sS'_ConnectionGene__enabled'
p15
I01
sS'_ConnectionGene__out'
p16
I7
sS'_ConnectionGene__innov_number'
p17
I9
sbs(I5
I6
tp18
g1
(g10
g3
NtRp19
(dp20
g13
F-4.2473499713625644
sg14
I5
sg15
I01
sg16
I6
sg17
I5
sbs(I1
I6
tp21
g1
(g10
g3
NtRp22
(dp23
g13
F4.9048858637002652
sg14
I1
sg15
I00
sg16
I6
sg17
I1
sbs(I3
I7
tp24
g1
(g10
g3
NtRp25
(dp26
g13
F9.821374773774096
sg14
I3
sg15
I01
sg16
I7
sg17
I8
sbs(I7
I11
tp27
g1
(g10
g3
NtRp28
(dp29
g13
F6.3690682257618239
sg14
I7
sg15
I01
sg16
I11
sg17
I52
sbs(I6
I10
tp30
g1
(g10
g3
NtRp31
(dp32
g13
F-1.402958207676176
sg14
I6
sg15
I01
sg16
I10
sg17
I67
sbs(I7
I10
tp33
g1
(g10
g3
NtRp34
(dp35
g13
F5.0606818124746251
sg14
I7
sg15
I01
sg16
I10
sg17
I36
sbs(I8
I6
tp36
g1
(g10
g3
NtRp37
(dp38
g13
F5.8053216466644741
sg14
I8
sg15
I01
sg16
I6
sg17
I14
sbs(I10
I9
tp39
g1
(g10
g3
NtRp40
(dp41
g13
F1.4771199543372524
sg14
I10
sg15
I01
sg16
I9
sg17
I37
sbs(I9
I7
tp42
g1
(g10
g3
NtRp43
(dp44
g13
F-4.4264215904143676
sg14
I9
sg15
I01
sg16
I7
sg17
I22
sbs(I2
I6
tp45
g1
(g10
g3
NtRp46
(dp47
g13
F-9.3591227702012336
sg14
I2
sg15
I01
sg16
I6
sg17
I2
sbs(I3
I6
tp48
g1
(g10
g3
NtRp49
(dp50
g13
F-17.616180471825956
sg14
I3
sg15
I01
sg16
I6
sg17
I3
sbs(I11
I9
tp51
g1
(g10
g3
NtRp52
(dp53
g13
F4.1928279627170566
sg14
I11
sg15
I01
sg16
I9
sg17
I40
sbs(I3
I9
tp54
g1
(g10
g3
NtRp55
(dp56
g13
F-1.5562103017531683
sg14
I3
sg15
I01
sg16
I9
sg17
I21
sbs(I4
I11
tp57
g1
(g10
g3
NtRp58
(dp59
g13
F-4.1730781507590367
sg14
I4
sg15
I01
sg16
I11
sg17
I44
sbs(I7
I9
tp60
g1
(g10
g3
NtRp61
(dp62
g13
F13.67626157714944
sg14
I7
sg15
I01
sg16
I9
sg17
I29
sbs(I2
I7
tp63
g1
(g10
g3
NtRp64
(dp65
g13
F-10.476789314005572
sg14
I2
sg15
I01
sg16
I7
sg17
I7
sbs(I11
I7
tp66
g1
(g10
g3
NtRp67
(dp68
g13
F0.38249919337805616
sg14
I11
sg15
I01
sg16
I7
sg17
I45
sbs(I4
I6
tp69
g1
(g10
g3
NtRp70
(dp71
g13
F-5.9653740938478386
sg14
I4
sg15
I01
sg16
I6
sg17
I4
sbs(I10
I10
tp72
g1
(g10
g3
NtRp73
(dp74
g13
F-23.145978167259276
sg14
I10
sg15
I01
sg16
I10
sg17
I46
sbs(I5
I7
tp75
g1
(g10
g3
NtRp76
(dp77
g13
F-18.812952383854
sg14
I5
sg15
I01
sg16
I7
sg17
I10
sbs(I3
I8
tp78
g1
(g10
g3
NtRp79
(dp80
g13
F-2.8375770583783817
sg14
I3
sg15
I01
sg16
I8
sg17
I33
sbs(I1
I8
tp81
g1
(g10
g3
NtRp82
(dp83
g13
F4.7918165645322324
sg14
I1
sg15
I01
sg16
I8
sg17
I13
sbs(I1
I7
tp84
g1
(g10
g3
NtRp85
(dp86
g13
F1.2669904311363516
sg14
I1
sg15
I01
sg16
I7
sg17
I6
sbssS'_input_nodes'
p87
I5
sS'_output_nodes'
p88
I2
sS'_node_gene_type'
p89
cneat.genome
NodeGene
p90
sS'_conn_gene_type'
p91
g10
sS'fitness'
p92
F0.14312136290099189
sS'parent2_id'
p93
I3138
sS'_id'
p94
I3188
sS'parent1_id'
p95
I3138
sS'_node_genes'
p96
(lp97
g1
(g90
g3
NtRp98
(dp99
S'_bias'
p100
I0
sS'_type'
p101
S'INPUT'
p102
sg94
I1
sS'_response'
p103
F4.9242730000000003
sS'_activation_type'
p104
Nsbag1
(g90
g3
NtRp105
(dp106
g100
I0
sg101
g102
sg94
I2
sg103
F4.9242730000000003
sg104
Nsbag1
(g90
g3
NtRp107
(dp108
g100
I0
sg101
g102
sg94
I3
sg103
F4.9242730000000003
sg104
Nsbag1
(g90
g3
NtRp109
(dp110
g100
I0
sg101
g102
sg94
I4
sg103
F4.9242730000000003
sg104
Nsbag1
(g90
g3
NtRp111
(dp112
g100
I0
sg101
g102
sg94
I5
sg103
F4.9242730000000003
sg104
Nsbag1
(g90
g3
NtRp113
(dp114
g100
F-3.17705154376393
sg101
S'OUTPUT'
p115
sg94
I6
sg103
F7.4441055046159272
sg104
S'exp'
p116
sbag1
(g90
g3
NtRp117
(dp118
g100
F0.22016105413530707
sg101
g115
sg94
I7
sg103
F4.4344717477812834
sg104
g116
sbag1
(g90
g3
NtRp119
(dp120
g100
F-0.27033810619431253
sg101
S'HIDDEN'
p121
sg94
I8
sg103
F5.7028977504800356
sg104
g116
sbag1
(g90
g3
NtRp122
(dp123
g100
F0.5211640304795685
sg101
g121
sg94
I9
sg103
F3.2488898249593352
sg104
g116
sbag1
(g90
g3
NtRp124
(dp125
g100
F-1.0169118914811146
sg101
g121
sg94
I10
sg103
F3.5640522636040353
sg104
g116
sbag1
(g90
g3
NtRp126
(dp127
g100
F-0.0060486837230520063
sg101
g121
sg94
I11
sg103
F5.7080802900072056
sg104
g116
sbasb.