ccopy_reg
_reconstructor
p1
(cneat.chromosome
Chromosome
p2
c__builtin__
object
p3
NtRp4
(dp5
S'species_id'
p6
I17
sS'_connection_genes'
p7
(dp8
(I2
I7
tp9
g1
(cneat.genome
ConnectionGene
p10
g3
NtRp11
(dp12
S'_ConnectionGene__weight'
p13
F-2.3027103843063528
sS'_ConnectionGene__in'
p14
I2
sS'_ConnectionGene__enabled'
p15
I01
sS'_ConnectionGene__out'
p16
I7
sS'_ConnectionGene__innov_number'
p17
I7
sbs(I4
I7
tp18
g1
(g10
g3
NtRp19
(dp20
g13
F-13.974442995503757
sg14
I4
sg15
I01
sg16
I7
sg17
I9
sbs(I2
I6
tp21
g1
(g10
g3
NtRp22
(dp23
g13
F-7.9698063914529174
sg14
I2
sg15
I01
sg16
I6
sg17
I2
sbs(I3
I7
tp24
g1
(g10
g3
NtRp25
(dp26
g13
F3.185232863136652
sg14
I3
sg15
I01
sg16
I7
sg17
I8
sbs(I4
I6
tp27
g1
(g10
g3
NtRp28
(dp29
g13
F-16.653744414285768
sg14
I4
sg15
I01
sg16
I6
sg17
I4
sbs(I5
I6
tp30
g1
(g10
g3
NtRp31
(dp32
g13
F-9.760889766909516
sg14
I5
sg15
I01
sg16
I6
sg17
I5
sbs(I2
I8
tp33
g1
(g10
g3
NtRp34
(dp35
g13
F3.8638896595910532
sg14
I2
sg15
I01
sg16
I8
sg17
I19
sbs(I5
I7
tp36
g1
(g10
g3
NtRp37
(dp38
g13
F-4.4346333660746788
sg14
I5
sg15
I01
sg16
I7
sg17
I10
sbs(I1
I7
tp39
g1
(g10
g3
NtRp40
(dp41
g13
F-4.2200329680975877
sg14
I1
sg15
I01
sg16
I7
sg17
I6
sbs(I3
I8
tp42
g1
(g10
g3
NtRp43
(dp44
g13
F-5.8915870663406844
sg14
I3
sg15
I01
sg16
I8
sg17
I33
sbs(I1
I8
tp45
g1
(g10
g3
NtRp46
(dp47
g13
F1.1290862223613922
sg14
I1
sg15
I01
sg16
I8
sg17
I13
sbs(I3
I9
tp48
g1
(g10
g3
NtRp49
(dp50
g13
F3.7751722740897624
sg14
I3
sg15
I01
sg16
I9
sg17
I21
sbs(I1
I6
tp51
g1
(g10
g3
NtRp52
(dp53
g13
F6.1813775696516089
sg14
I1
sg15
I01
sg16
I6
sg17
I1
sbs(I3
I6
tp54
g1
(g10
g3
NtRp55
(dp56
g13
F-3.2820272862979647
sg14
I3
sg15
I01
sg16
I6
sg17
I3
sbs(I7
I10
tp57
g1
(g10
g3
NtRp58
(dp59
g13
F-0.84981169333868434
sg14
I7
sg15
I01
sg16
I10
sg17
I36
sbs(I8
I6
tp60
g1
(g10
g3
NtRp61
(dp62
g13
F6.8981764092172897
sg14
I8
sg15
I01
sg16
I6
sg17
I14
sbs(I7
I9
tp63
g1
(g10
g3
NtRp64
(dp65
g13
F8.6917780363048713
sg14
I7
sg15
I00
sg16
I9
sg17
I29
sbs(I10
I9
tp66
g1
(g10
g3
NtRp67
(dp68
g13
F14.76617103009972
sg14
I10
sg15
I01
sg16
I9
sg17
I37
sbs(I9
I7
tp69
g1
(g10
g3
NtRp70
(dp71
g13
F-1.9041341569183032
sg14
I9
sg15
I01
sg16
I7
sg17
I22
sbssS'_input_nodes'
p72
I5
sS'_output_nodes'
p73
I2
sS'_node_gene_type'
p74
cneat.genome
NodeGene
p75
sS'_conn_gene_type'
p76
g10
sS'fitness'
p77
F0.41587544915975533
sS'parent2_id'
p78
I2431
sS'_id'
p79
I2486
sS'parent1_id'
p80
I2431
sS'_node_genes'
p81
(lp82
g1
(g75
g3
NtRp83
(dp84
S'_bias'
p85
I0
sS'_type'
p86
S'INPUT'
p87
sg79
I1
sS'_response'
p88
F4.9242730000000003
sS'_activation_type'
p89
Nsbag1
(g75
g3
NtRp90
(dp91
g85
I0
sg86
g87
sg79
I2
sg88
F4.9242730000000003
sg89
Nsbag1
(g75
g3
NtRp92
(dp93
g85
I0
sg86
g87
sg79
I3
sg88
F4.9242730000000003
sg89
Nsbag1
(g75
g3
NtRp94
(dp95
g85
I0
sg86
g87
sg79
I4
sg88
F4.9242730000000003
sg89
Nsbag1
(g75
g3
NtRp96
(dp97
g85
I0
sg86
g87
sg79
I5
sg88
F4.9242730000000003
sg89
Nsbag1
(g75
g3
NtRp98
(dp99
g85
F-1.5294418064007385
sg86
S'OUTPUT'
p100
sg79
I6
sg88
F6.90684232449658
sg89
S'exp'
p101
sbag1
(g75
g3
NtRp102
(dp103
g85
F-0.12114866470395658
sg86
g100
sg79
I7
sg88
F6.2590567989852692
sg89
g101
sbag1
(g75
g3
NtRp104
(dp105
g85
F-1.1423506374164829
sg86
S'HIDDEN'
p106
sg79
I8
sg88
F4.8161287855697514
sg89
g101
sbag1
(g75
g3
NtRp107
(dp108
g85
F0.34999472676363519
sg86
g106
sg79
I9
sg88
F5.7488083901795166
sg89
g101
sbag1
(g75
g3
NtRp109
(dp110
g85
F-0.47131135265118018
sg86
g106
sg79
I10
sg88
F6.2211125762400368
sg89
g101
sbasb.