ccopy_reg
_reconstructor
p1
(cneat.chromosome
Chromosome
p2
c__builtin__
object
p3
NtRp4
(dp5
S'species_id'
p6
I29
sS'_connection_genes'
p7
(dp8
(I4
I7
tp9
g1
(cneat.genome
ConnectionGene
p10
g3
NtRp11
(dp12
S'_ConnectionGene__weight'
p13
F-14.781025771099934
sS'_ConnectionGene__in'
p14
I4
sS'_ConnectionGene__enabled'
p15
I01
sS'_ConnectionGene__out'
p16
I7
sS'_ConnectionGene__innov_number'
p17
I9
sbs(I10
I11
tp18
g1
(g10
g3
NtRp19
(dp20
g13
F1.2965898897019028
sg14
I10
sg15
I01
sg16
I11
sg17
I60
sbs(I5
I6
tp21
g1
(g10
g3
NtRp22
(dp23
g13
F-7.1798003852126158
sg14
I5
sg15
I01
sg16
I6
sg17
I5
sbs(I10
I6
tp24
g1
(g10
g3
NtRp25
(dp26
g13
F5.5434898048393579
sg14
I10
sg15
I01
sg16
I6
sg17
I35
sbs(I1
I6
tp27
g1
(g10
g3
NtRp28
(dp29
g13
F3.9749352047075357
sg14
I1
sg15
I00
sg16
I6
sg17
I1
sbs(I7
I11
tp30
g1
(g10
g3
NtRp31
(dp32
g13
F0.85073240935971262
sg14
I7
sg15
I01
sg16
I11
sg17
I52
sbs(I3
I7
tp33
g1
(g10
g3
NtRp34
(dp35
g13
F-12.183005515640877
sg14
I3
sg15
I00
sg16
I7
sg17
I8
sbs(I8
I10
tp36
g1
(g10
g3
NtRp37
(dp38
g13
F-4.6689372026093183
sg14
I8
sg15
I01
sg16
I10
sg17
I47
sbs(I3
I6
tp39
g1
(g10
g3
NtRp40
(dp41
g13
F-9.3594833788801299
sg14
I3
sg15
I01
sg16
I6
sg17
I3
sbs(I8
I6
tp42
g1
(g10
g3
NtRp43
(dp44
g13
F14.272633717064068
sg14
I8
sg15
I00
sg16
I6
sg17
I14
sbs(I10
I9
tp45
g1
(g10
g3
NtRp46
(dp47
g13
F-1.2515251482132872
sg14
I10
sg15
I01
sg16
I9
sg17
I37
sbs(I9
I7
tp48
g1
(g10
g3
NtRp49
(dp50
g13
F-0.11624684643131822
sg14
I9
sg15
I01
sg16
I7
sg17
I22
sbs(I2
I6
tp51
g1
(g10
g3
NtRp52
(dp53
g13
F12.419831997874905
sg14
I2
sg15
I01
sg16
I6
sg17
I2
sbs(I5
I11
tp54
g1
(g10
g3
NtRp55
(dp56
g13
F6.5097878084126695
sg14
I5
sg15
I01
sg16
I11
sg17
I48
sbs(I12
I7
tp57
g1
(g10
g3
NtRp58
(dp59
g13
F3.5192191479809773
sg14
I12
sg15
I01
sg16
I7
sg17
I64
sbs(I11
I9
tp60
g1
(g10
g3
NtRp61
(dp62
g13
F-1.637747818455539
sg14
I11
sg15
I01
sg16
I9
sg17
I40
sbs(I3
I9
tp63
g1
(g10
g3
NtRp64
(dp65
g13
F16.053088922709819
sg14
I3
sg15
I01
sg16
I9
sg17
I21
sbs(I7
I9
tp66
g1
(g10
g3
NtRp67
(dp68
g13
F11.077386425173099
sg14
I7
sg15
I01
sg16
I9
sg17
I29
sbs(I2
I7
tp69
g1
(g10
g3
NtRp70
(dp71
g13
F19.054478635241423
sg14
I2
sg15
I01
sg16
I7
sg17
I7
sbs(I11
I7
tp72
g1
(g10
g3
NtRp73
(dp74
g13
F-14.048412580235494
sg14
I11
sg15
I01
sg16
I7
sg17
I45
sbs(I4
I6
tp75
g1
(g10
g3
NtRp76
(dp77
g13
F-1.3574828381883037
sg14
I4
sg15
I01
sg16
I6
sg17
I4
sbs(I1
I12
tp78
g1
(g10
g3
NtRp79
(dp80
g13
F3.3436315175287445
sg14
I1
sg15
I01
sg16
I12
sg17
I68
sbs(I5
I7
tp81
g1
(g10
g3
NtRp82
(dp83
g13
F-4.7184830729350811
sg14
I5
sg15
I00
sg16
I7
sg17
I10
sbs(I1
I8
tp84
g1
(g10
g3
NtRp85
(dp86
g13
F-17.098821411735155
sg14
I1
sg15
I01
sg16
I8
sg17
I13
sbs(I8
I8
tp87
g1
(g10
g3
NtRp88
(dp89
g13
F8.6850055065351235
sg14
I8
sg15
I01
sg16
I8
sg17
I30
sbs(I1
I7
tp90
g1
(g10
g3
NtRp91
(dp92
g13
F4.0702205591944409
sg14
I1
sg15
I00
sg16
I7
sg17
I6
sbssS'_input_nodes'
p93
I5
sS'_output_nodes'
p94
I2
sS'_node_gene_type'
p95
cneat.genome
NodeGene
p96
sS'_conn_gene_type'
p97
g10
sS'fitness'
p98
F0.2175254546336752
sS'parent2_id'
p99
I3569
sS'_id'
p100
I3620
sS'parent1_id'
p101
I3569
sS'_node_genes'
p102
(lp103
g1
(g96
g3
NtRp104
(dp105
S'_bias'
p106
I0
sS'_type'
p107
S'INPUT'
p108
sg100
I1
sS'_response'
p109
F4.9242730000000003
sS'_activation_type'
p110
Nsbag1
(g96
g3
NtRp111
(dp112
g106
I0
sg107
g108
sg100
I2
sg109
F4.9242730000000003
sg110
Nsbag1
(g96
g3
NtRp113
(dp114
g106
I0
sg107
g108
sg100
I3
sg109
F4.9242730000000003
sg110
Nsbag1
(g96
g3
NtRp115
(dp116
g106
I0
sg107
g108
sg100
I4
sg109
F4.9242730000000003
sg110
Nsbag1
(g96
g3
NtRp117
(dp118
g106
I0
sg107
g108
sg100
I5
sg109
F4.9242730000000003
sg110
Nsbag1
(g96
g3
NtRp119
(dp120
g106
F-0.65668477156173433
sg107
S'OUTPUT'
p121
sg100
I6
sg109
F5.6135183796844483
sg110
S'exp'
p122
sbag1
(g96
g3
NtRp123
(dp124
g106
F-0.94727139471775113
sg107
g121
sg100
I7
sg109
F8.7631965053470733
sg110
g122
sbag1
(g96
g3
NtRp125
(dp126
g106
F0.64798724986219225
sg107
S'HIDDEN'
p127
sg100
I8
sg109
F4.1409340544236004
sg110
g122
sbag1
(g96
g3
NtRp128
(dp129
g106
F-1.7793661161276093
sg107
g127
sg100
I9
sg109
F4.865438453556103
sg110
g122
sbag1
(g96
g3
NtRp130
(dp131
g106
F-3.6364590058720254
sg107
g127
sg100
I10
sg109
F2.5926653676012483
sg110
g122
sbag1
(g96
g3
NtRp132
(dp133
g106
F1.0218599049303752
sg107
g127
sg100
I11
sg109
F3.9080731601526209
sg110
g122
sbag1
(g96
g3
NtRp134
(dp135
g106
F0.098835317698080627
sg107
g127
sg100
I12
sg109
F3.79402188683799
sg110
g122
sbasb.