ccopy_reg
_reconstructor
p1
(cneat.chromosome
Chromosome
p2
c__builtin__
object
p3
NtRp4
(dp5
S'species_id'
p6
I29
sS'_connection_genes'
p7
(dp8
(I4
I7
tp9
g1
(cneat.genome
ConnectionGene
p10
g3
NtRp11
(dp12
S'_ConnectionGene__weight'
p13
F-21.170070714195344
sS'_ConnectionGene__in'
p14
I4
sS'_ConnectionGene__enabled'
p15
I01
sS'_ConnectionGene__out'
p16
I7
sS'_ConnectionGene__innov_number'
p17
I9
sbs(I10
I11
tp18
g1
(g10
g3
NtRp19
(dp20
g13
F3.1928130997018602
sg14
I10
sg15
I01
sg16
I11
sg17
I60
sbs(I5
I6
tp21
g1
(g10
g3
NtRp22
(dp23
g13
F-8.5775212387921353
sg14
I5
sg15
I01
sg16
I6
sg17
I5
sbs(I10
I6
tp24
g1
(g10
g3
NtRp25
(dp26
g13
F8.0796554341259696
sg14
I10
sg15
I01
sg16
I6
sg17
I35
sbs(I1
I6
tp27
g1
(g10
g3
NtRp28
(dp29
g13
F5.2498861317621452
sg14
I1
sg15
I00
sg16
I6
sg17
I1
sbs(I7
I11
tp30
g1
(g10
g3
NtRp31
(dp32
g13
F2.9983297768929598
sg14
I7
sg15
I01
sg16
I11
sg17
I52
sbs(I3
I7
tp33
g1
(g10
g3
NtRp34
(dp35
g13
F-11.954574722927221
sg14
I3
sg15
I00
sg16
I7
sg17
I8
sbs(I8
I10
tp36
g1
(g10
g3
NtRp37
(dp38
g13
F-4.4929699898386435
sg14
I8
sg15
I01
sg16
I10
sg17
I47
sbs(I3
I6
tp39
g1
(g10
g3
NtRp40
(dp41
g13
F-9.0208673025006441
sg14
I3
sg15
I01
sg16
I6
sg17
I3
sbs(I8
I6
tp42
g1
(g10
g3
NtRp43
(dp44
g13
F13.956339890061383
sg14
I8
sg15
I00
sg16
I6
sg17
I14
sbs(I10
I9
tp45
g1
(g10
g3
NtRp46
(dp47
g13
F0.72425092989152617
sg14
I10
sg15
I01
sg16
I9
sg17
I37
sbs(I9
I7
tp48
g1
(g10
g3
NtRp49
(dp50
g13
F2.5265514024855764
sg14
I9
sg15
I01
sg16
I7
sg17
I22
sbs(I2
I6
tp51
g1
(g10
g3
NtRp52
(dp53
g13
F11.258221250675771
sg14
I2
sg15
I01
sg16
I6
sg17
I2
sbs(I5
I11
tp54
g1
(g10
g3
NtRp55
(dp56
g13
F6.2800925122665188
sg14
I5
sg15
I01
sg16
I11
sg17
I48
sbs(I12
I7
tp57
g1
(g10
g3
NtRp58
(dp59
g13
F7.4418502405563682
sg14
I12
sg15
I01
sg16
I7
sg17
I64
sbs(I11
I9
tp60
g1
(g10
g3
NtRp61
(dp62
g13
F-2.3342445798193472
sg14
I11
sg15
I01
sg16
I9
sg17
I40
sbs(I3
I9
tp63
g1
(g10
g3
NtRp64
(dp65
g13
F14.286059535454584
sg14
I3
sg15
I01
sg16
I9
sg17
I21
sbs(I7
I9
tp66
g1
(g10
g3
NtRp67
(dp68
g13
F11.52749955375584
sg14
I7
sg15
I01
sg16
I9
sg17
I29
sbs(I2
I7
tp69
g1
(g10
g3
NtRp70
(dp71
g13
F16.46875328478643
sg14
I2
sg15
I01
sg16
I7
sg17
I7
sbs(I11
I7
tp72
g1
(g10
g3
NtRp73
(dp74
g13
F-15.990893049954622
sg14
I11
sg15
I01
sg16
I7
sg17
I45
sbs(I4
I6
tp75
g1
(g10
g3
NtRp76
(dp77
g13
F-2.9947583966469473
sg14
I4
sg15
I01
sg16
I6
sg17
I4
sbs(I1
I12
tp78
g1
(g10
g3
NtRp79
(dp80
g13
F0.089516070748899224
sg14
I1
sg15
I01
sg16
I12
sg17
I68
sbs(I5
I7
tp81
g1
(g10
g3
NtRp82
(dp83
g13
F-0.77757692695905578
sg14
I5
sg15
I00
sg16
I7
sg17
I10
sbs(I1
I8
tp84
g1
(g10
g3
NtRp85
(dp86
g13
F-17.107827527148139
sg14
I1
sg15
I01
sg16
I8
sg17
I13
sbs(I8
I8
tp87
g1
(g10
g3
NtRp88
(dp89
g13
F6.088093290669546
sg14
I8
sg15
I01
sg16
I8
sg17
I30
sbs(I1
I7
tp90
g1
(g10
g3
NtRp91
(dp92
g13
F3.9339232175500456
sg14
I1
sg15
I00
sg16
I7
sg17
I6
sbssS'_input_nodes'
p93
I5
sS'_output_nodes'
p94
I2
sS'_node_gene_type'
p95
cneat.genome
NodeGene
p96
sS'_conn_gene_type'
p97
g10
sS'fitness'
p98
F0.1809998013188496
sS'parent2_id'
p99
I3766
sS'_id'
p100
I3822
sS'parent1_id'
p101
I3766
sS'_node_genes'
p102
(lp103
g1
(g96
g3
NtRp104
(dp105
S'_bias'
p106
I0
sS'_type'
p107
S'INPUT'
p108
sg100
I1
sS'_response'
p109
F4.9242730000000003
sS'_activation_type'
p110
Nsbag1
(g96
g3
NtRp111
(dp112
g106
I0
sg107
g108
sg100
I2
sg109
F4.9242730000000003
sg110
Nsbag1
(g96
g3
NtRp113
(dp114
g106
I0
sg107
g108
sg100
I3
sg109
F4.9242730000000003
sg110
Nsbag1
(g96
g3
NtRp115
(dp116
g106
I0
sg107
g108
sg100
I4
sg109
F4.9242730000000003
sg110
Nsbag1
(g96
g3
NtRp117
(dp118
g106
I0
sg107
g108
sg100
I5
sg109
F4.9242730000000003
sg110
Nsbag1
(g96
g3
NtRp119
(dp120
g106
F-0.65668477156173433
sg107
S'OUTPUT'
p121
sg100
I6
sg109
F5.2764978282172068
sg110
S'exp'
p122
sbag1
(g96
g3
NtRp123
(dp124
g106
F-0.8614799549234029
sg107
g121
sg100
I7
sg109
F8.4941105463431814
sg110
g122
sbag1
(g96
g3
NtRp125
(dp126
g106
F0.85919799896367743
sg107
S'HIDDEN'
p127
sg100
I8
sg109
F4.6314242586546337
sg110
g122
sbag1
(g96
g3
NtRp128
(dp129
g106
F-1.6203852389207467
sg107
g127
sg100
I9
sg109
F4.865438453556103
sg110
g122
sbag1
(g96
g3
NtRp130
(dp131
g106
F-4.6397178732511772
sg107
g127
sg100
I10
sg109
F2.9624978198109888
sg110
g122
sbag1
(g96
g3
NtRp132
(dp133
g106
F1.1524662037286513
sg107
g127
sg100
I11
sg109
F4.635522343514463
sg110
g122
sbag1
(g96
g3
NtRp134
(dp135
g106
F-0.58106690343279754
sg107
g127
sg100
I12
sg109
F3.970799003701285
sg110
g122
sbasb.