ccopy_reg
_reconstructor
p1
(cneat.chromosome
Chromosome
p2
c__builtin__
object
p3
NtRp4
(dp5
S'species_id'
p6
I18
sS'_connection_genes'
p7
(dp8
(I4
I7
tp9
g1
(cneat.genome
ConnectionGene
p10
g3
NtRp11
(dp12
S'_ConnectionGene__weight'
p13
F-19.705692180431608
sS'_ConnectionGene__in'
p14
I4
sS'_ConnectionGene__enabled'
p15
I01
sS'_ConnectionGene__out'
p16
I7
sS'_ConnectionGene__innov_number'
p17
I9
sbs(I5
I6
tp18
g1
(g10
g3
NtRp19
(dp20
g13
F-6.5389960798183049
sg14
I5
sg15
I01
sg16
I6
sg17
I5
sbs(I1
I6
tp21
g1
(g10
g3
NtRp22
(dp23
g13
F-13.57469079517954
sg14
I1
sg15
I00
sg16
I6
sg17
I1
sbs(I7
I11
tp24
g1
(g10
g3
NtRp25
(dp26
g13
F-0.46035322001282752
sg14
I7
sg15
I01
sg16
I11
sg17
I52
sbs(I3
I7
tp27
g1
(g10
g3
NtRp28
(dp29
g13
F-9.0764231014723791
sg14
I3
sg15
I01
sg16
I7
sg17
I8
sbs(I5
I8
tp30
g1
(g10
g3
NtRp31
(dp32
g13
F0.93060691239272375
sg14
I5
sg15
I01
sg16
I8
sg17
I17
sbs(I3
I6
tp33
g1
(g10
g3
NtRp34
(dp35
g13
F-16.076244022048826
sg14
I3
sg15
I01
sg16
I6
sg17
I3
sbs(I8
I6
tp36
g1
(g10
g3
NtRp37
(dp38
g13
F5.1819723177123933
sg14
I8
sg15
I01
sg16
I6
sg17
I14
sbs(I10
I9
tp39
g1
(g10
g3
NtRp40
(dp41
g13
F3.5551661970981949
sg14
I10
sg15
I01
sg16
I9
sg17
I37
sbs(I9
I7
tp42
g1
(g10
g3
NtRp43
(dp44
g13
F-3.792932084488871
sg14
I9
sg15
I01
sg16
I7
sg17
I22
sbs(I2
I6
tp45
g1
(g10
g3
NtRp46
(dp47
g13
F0.015570227824047711
sg14
I2
sg15
I01
sg16
I6
sg17
I2
sbs(I7
I10
tp48
g1
(g10
g3
NtRp49
(dp50
g13
F6.5197853886630019
sg14
I7
sg15
I01
sg16
I10
sg17
I36
sbs(I8
I11
tp51
g1
(g10
g3
NtRp52
(dp53
g13
F-4.9600342024478534
sg14
I8
sg15
I01
sg16
I11
sg17
I58
sbs(I11
I9
tp54
g1
(g10
g3
NtRp55
(dp56
g13
F-0.33162687912714395
sg14
I11
sg15
I01
sg16
I9
sg17
I40
sbs(I3
I9
tp57
g1
(g10
g3
NtRp58
(dp59
g13
F-0.80600376706130561
sg14
I3
sg15
I01
sg16
I9
sg17
I21
sbs(I7
I9
tp60
g1
(g10
g3
NtRp61
(dp62
g13
F3.2616498391920579
sg14
I7
sg15
I00
sg16
I9
sg17
I29
sbs(I2
I7
tp63
g1
(g10
g3
NtRp64
(dp65
g13
F7.5144494495958813
sg14
I2
sg15
I01
sg16
I7
sg17
I7
sbs(I4
I6
tp66
g1
(g10
g3
NtRp67
(dp68
g13
F-13.058302338000011
sg14
I4
sg15
I01
sg16
I6
sg17
I4
sbs(I5
I7
tp69
g1
(g10
g3
NtRp70
(dp71
g13
F-12.40711909802611
sg14
I5
sg15
I01
sg16
I7
sg17
I10
sbs(I3
I8
tp72
g1
(g10
g3
NtRp73
(dp74
g13
F0.72140059491178588
sg14
I3
sg15
I01
sg16
I8
sg17
I33
sbs(I1
I8
tp75
g1
(g10
g3
NtRp76
(dp77
g13
F9.6719790403945272
sg14
I1
sg15
I01
sg16
I8
sg17
I13
sbs(I1
I7
tp78
g1
(g10
g3
NtRp79
(dp80
g13
F-3.9401719115345823
sg14
I1
sg15
I01
sg16
I7
sg17
I6
sbssS'_input_nodes'
p81
I5
sS'_output_nodes'
p82
I2
sS'_node_gene_type'
p83
cneat.genome
NodeGene
p84
sS'_conn_gene_type'
p85
g10
sS'fitness'
p86
F0.072095177545456107
sS'parent2_id'
p87
I2980
sS'_id'
p88
I3032
sS'parent1_id'
p89
I2980
sS'_node_genes'
p90
(lp91
g1
(g84
g3
NtRp92
(dp93
S'_bias'
p94
I0
sS'_type'
p95
S'INPUT'
p96
sg88
I1
sS'_response'
p97
F4.9242730000000003
sS'_activation_type'
p98
Nsbag1
(g84
g3
NtRp99
(dp100
g94
I0
sg95
g96
sg88
I2
sg97
F4.9242730000000003
sg98
Nsbag1
(g84
g3
NtRp101
(dp102
g94
I0
sg95
g96
sg88
I3
sg97
F4.9242730000000003
sg98
Nsbag1
(g84
g3
NtRp103
(dp104
g94
I0
sg95
g96
sg88
I4
sg97
F4.9242730000000003
sg98
Nsbag1
(g84
g3
NtRp105
(dp106
g94
I0
sg95
g96
sg88
I5
sg97
F4.9242730000000003
sg98
Nsbag1
(g84
g3
NtRp107
(dp108
g94
F-2.050958028123123
sg95
S'OUTPUT'
p109
sg88
I6
sg97
F6.5673242743694962
sg98
S'exp'
p110
sbag1
(g84
g3
NtRp111
(dp112
g94
F1.0422565075400398
sg95
g109
sg88
I7
sg97
F5.3037823027894859
sg98
g110
sbag1
(g84
g3
NtRp113
(dp114
g94
F-0.26931157020685809
sg95
S'HIDDEN'
p115
sg88
I8
sg97
F4.5056498196147965
sg98
g110
sbag1
(g84
g3
NtRp116
(dp117
g94
F4.1220665915019561
sg95
g115
sg88
I9
sg97
F7.0622540882263527
sg98
g110
sbag1
(g84
g3
NtRp118
(dp119
g94
F-1.8389332684066644
sg95
g115
sg88
I10
sg97
F4.988678377640432
sg98
g110
sbag1
(g84
g3
NtRp120
(dp121
g94
F0.4001339553493779
sg95
g115
sg88
I11
sg97
F3.3811403984160582
sg98
g110
sbasb.