ccopy_reg
_reconstructor
p1
(cneat.chromosome
Chromosome
p2
c__builtin__
object
p3
NtRp4
(dp5
S'species_id'
p6
I28
sS'_connection_genes'
p7
(dp8
(I4
I7
tp9
g1
(cneat.genome
ConnectionGene
p10
g3
NtRp11
(dp12
S'_ConnectionGene__weight'
p13
F-12.985834024593
sS'_ConnectionGene__in'
p14
I4
sS'_ConnectionGene__enabled'
p15
I01
sS'_ConnectionGene__out'
p16
I7
sS'_ConnectionGene__innov_number'
p17
I9
sbs(I5
I6
tp18
g1
(g10
g3
NtRp19
(dp20
g13
F-5.1208283651371129
sg14
I5
sg15
I01
sg16
I6
sg17
I5
sbs(I1
I6
tp21
g1
(g10
g3
NtRp22
(dp23
g13
F3.9819970475296032
sg14
I1
sg15
I00
sg16
I6
sg17
I1
sbs(I3
I7
tp24
g1
(g10
g3
NtRp25
(dp26
g13
F9.1146621701676338
sg14
I3
sg15
I01
sg16
I7
sg17
I8
sbs(I7
I11
tp27
g1
(g10
g3
NtRp28
(dp29
g13
F-3.6311295564738835
sg14
I7
sg15
I01
sg16
I11
sg17
I52
sbs(I6
I10
tp30
g1
(g10
g3
NtRp31
(dp32
g13
F2.89977074255959
sg14
I6
sg15
I01
sg16
I10
sg17
I67
sbs(I3
I6
tp33
g1
(g10
g3
NtRp34
(dp35
g13
F-23.215221253667728
sg14
I3
sg15
I01
sg16
I6
sg17
I3
sbs(I8
I6
tp36
g1
(g10
g3
NtRp37
(dp38
g13
F4.4072261495341465
sg14
I8
sg15
I01
sg16
I6
sg17
I14
sbs(I10
I9
tp39
g1
(g10
g3
NtRp40
(dp41
g13
F4.5870040070123412
sg14
I10
sg15
I01
sg16
I9
sg17
I37
sbs(I9
I7
tp42
g1
(g10
g3
NtRp43
(dp44
g13
F-3.6870851218356329
sg14
I9
sg15
I01
sg16
I7
sg17
I22
sbs(I2
I6
tp45
g1
(g10
g3
NtRp46
(dp47
g13
F-6.1515755989992673
sg14
I2
sg15
I01
sg16
I6
sg17
I2
sbs(I7
I10
tp48
g1
(g10
g3
NtRp49
(dp50
g13
F5.872085581766874
sg14
I7
sg15
I01
sg16
I10
sg17
I36
sbs(I12
I7
tp51
g1
(g10
g3
NtRp52
(dp53
g13
F5.6510742394821332
sg14
I12
sg15
I01
sg16
I7
sg17
I64
sbs(I11
I9
tp54
g1
(g10
g3
NtRp55
(dp56
g13
F4.7794890543635642
sg14
I11
sg15
I01
sg16
I9
sg17
I40
sbs(I3
I9
tp57
g1
(g10
g3
NtRp58
(dp59
g13
F-5.4165473330506737
sg14
I3
sg15
I01
sg16
I9
sg17
I21
sbs(I4
I11
tp60
g1
(g10
g3
NtRp61
(dp62
g13
F-7.2784427284781401
sg14
I4
sg15
I01
sg16
I11
sg17
I44
sbs(I7
I9
tp63
g1
(g10
g3
NtRp64
(dp65
g13
F16.693999247756647
sg14
I7
sg15
I01
sg16
I9
sg17
I29
sbs(I2
I7
tp66
g1
(g10
g3
NtRp67
(dp68
g13
F-3.7525995917095107
sg14
I2
sg15
I01
sg16
I7
sg17
I7
sbs(I11
I7
tp69
g1
(g10
g3
NtRp70
(dp71
g13
F-0.31971956283983882
sg14
I11
sg15
I01
sg16
I7
sg17
I45
sbs(I5
I10
tp72
g1
(g10
g3
NtRp73
(dp74
g13
F5.9863315632102401
sg14
I5
sg15
I01
sg16
I10
sg17
I41
sbs(I4
I6
tp75
g1
(g10
g3
NtRp76
(dp77
g13
F-9.9365473833241023
sg14
I4
sg15
I01
sg16
I6
sg17
I4
sbs(I1
I12
tp78
g1
(g10
g3
NtRp79
(dp80
g13
F0.21688035313128068
sg14
I1
sg15
I01
sg16
I12
sg17
I68
sbs(I10
I10
tp81
g1
(g10
g3
NtRp82
(dp83
g13
F-15.576800826733903
sg14
I10
sg15
I01
sg16
I10
sg17
I46
sbs(I5
I7
tp84
g1
(g10
g3
NtRp85
(dp86
g13
F-24.239916155765258
sg14
I5
sg15
I01
sg16
I7
sg17
I10
sbs(I3
I8
tp87
g1
(g10
g3
NtRp88
(dp89
g13
F-6.7675315121667552
sg14
I3
sg15
I01
sg16
I8
sg17
I33
sbs(I1
I8
tp90
g1
(g10
g3
NtRp91
(dp92
g13
F2.3933638986362515
sg14
I1
sg15
I01
sg16
I8
sg17
I13
sbs(I1
I7
tp93
g1
(g10
g3
NtRp94
(dp95
g13
F-0.80048708074730612
sg14
I1
sg15
I00
sg16
I7
sg17
I6
sbssS'_input_nodes'
p96
I5
sS'_output_nodes'
p97
I2
sS'_node_gene_type'
p98
cneat.genome
NodeGene
p99
sS'_conn_gene_type'
p100
g10
sS'fitness'
p101
F0.017348725732691438
sS'parent2_id'
p102
I3910
sS'_id'
p103
I3966
sS'parent1_id'
p104
I3910
sS'_node_genes'
p105
(lp106
g1
(g99
g3
NtRp107
(dp108
S'_bias'
p109
I0
sS'_type'
p110
S'INPUT'
p111
sg103
I1
sS'_response'
p112
F4.9242730000000003
sS'_activation_type'
p113
Nsbag1
(g99
g3
NtRp114
(dp115
g109
I0
sg110
g111
sg103
I2
sg112
F4.9242730000000003
sg113
Nsbag1
(g99
g3
NtRp116
(dp117
g109
I0
sg110
g111
sg103
I3
sg112
F4.9242730000000003
sg113
Nsbag1
(g99
g3
NtRp118
(dp119
g109
I0
sg110
g111
sg103
I4
sg112
F4.9242730000000003
sg113
Nsbag1
(g99
g3
NtRp120
(dp121
g109
I0
sg110
g111
sg103
I5
sg112
F4.9242730000000003
sg113
Nsbag1
(g99
g3
NtRp122
(dp123
g109
F-3.2607058514422143
sg110
S'OUTPUT'
p124
sg103
I6
sg112
F8.3314431607603758
sg113
S'exp'
p125
sbag1
(g99
g3
NtRp126
(dp127
g109
F0.68285070528635972
sg110
g124
sg103
I7
sg112
F4.0129695037456292
sg113
g125
sbag1
(g99
g3
NtRp128
(dp129
g109
F0.68603721992443389
sg110
S'HIDDEN'
p130
sg103
I8
sg112
F5.224546662440483
sg113
g125
sbag1
(g99
g3
NtRp131
(dp132
g109
F-1.0498049005677852
sg110
g130
sg103
I9
sg112
F2.2916092431779811
sg113
g125
sbag1
(g99
g3
NtRp133
(dp134
g109
F-1.6143639435964774
sg110
g130
sg103
I10
sg112
F3.3732335606516926
sg113
g125
sbag1
(g99
g3
NtRp135
(dp136
g109
F-0.76393350855663789
sg110
g130
sg103
I11
sg112
F5.8120006033126312
sg113
g125
sbag1
(g99
g3
NtRp137
(dp138
g109
F0.36553367502130585
sg110
g130
sg103
I12
sg112
F4.8690824968051416
sg113
g125
sbasb.