ccopy_reg
_reconstructor
p1
(cneat.chromosome
Chromosome
p2
c__builtin__
object
p3
NtRp4
(dp5
S'species_id'
p6
I19
sS'_connection_genes'
p7
(dp8
(I2
I7
tp9
g1
(cneat.genome
ConnectionGene
p10
g3
NtRp11
(dp12
S'_ConnectionGene__weight'
p13
F8.2000697404467857
sS'_ConnectionGene__in'
p14
I2
sS'_ConnectionGene__enabled'
p15
I01
sS'_ConnectionGene__out'
p16
I7
sS'_ConnectionGene__innov_number'
p17
I7
sbs(I8
I6
tp18
g1
(g10
g3
NtRp19
(dp20
g13
F-5.4079298441681498
sg14
I8
sg15
I01
sg16
I6
sg17
I14
sbs(I4
I7
tp21
g1
(g10
g3
NtRp22
(dp23
g13
F-15.499085212792696
sg14
I4
sg15
I01
sg16
I7
sg17
I9
sbs(I2
I6
tp24
g1
(g10
g3
NtRp25
(dp26
g13
F-7.690525162401503
sg14
I2
sg15
I01
sg16
I6
sg17
I2
sbs(I4
I6
tp27
g1
(g10
g3
NtRp28
(dp29
g13
F-11.321125687066289
sg14
I4
sg15
I01
sg16
I6
sg17
I4
sbs(I5
I6
tp30
g1
(g10
g3
NtRp31
(dp32
g13
F11.314414564205686
sg14
I5
sg15
I01
sg16
I6
sg17
I5
sbs(I8
I11
tp33
g1
(g10
g3
NtRp34
(dp35
g13
F1.9533776135777616
sg14
I8
sg15
I01
sg16
I11
sg17
I58
sbs(I5
I7
tp36
g1
(g10
g3
NtRp37
(dp38
g13
F-3.4901086678385012
sg14
I5
sg15
I01
sg16
I7
sg17
I10
sbs(I10
I6
tp39
g1
(g10
g3
NtRp40
(dp41
g13
F2.606728663110645
sg14
I10
sg15
I01
sg16
I6
sg17
I35
sbs(I1
I7
tp42
g1
(g10
g3
NtRp43
(dp44
g13
F3.5305720170011439
sg14
I1
sg15
I01
sg16
I7
sg17
I6
sbs(I3
I8
tp45
g1
(g10
g3
NtRp46
(dp47
g13
F-12.68173818519106
sg14
I3
sg15
I01
sg16
I8
sg17
I33
sbs(I1
I8
tp48
g1
(g10
g3
NtRp49
(dp50
g13
F10.059989642100483
sg14
I1
sg15
I01
sg16
I8
sg17
I13
sbs(I3
I9
tp51
g1
(g10
g3
NtRp52
(dp53
g13
F-7.2294418419803232
sg14
I3
sg15
I01
sg16
I9
sg17
I21
sbs(I1
I6
tp54
g1
(g10
g3
NtRp55
(dp56
g13
F0.15050793312412791
sg14
I1
sg15
I00
sg16
I6
sg17
I1
sbs(I10
I9
tp57
g1
(g10
g3
NtRp58
(dp59
g13
F17.959684516426869
sg14
I10
sg15
I01
sg16
I9
sg17
I37
sbs(I3
I6
tp60
g1
(g10
g3
NtRp61
(dp62
g13
F-6.9359821243574364
sg14
I3
sg15
I01
sg16
I6
sg17
I3
sbs(I7
I10
tp63
g1
(g10
g3
NtRp64
(dp65
g13
F6.7673227828348157
sg14
I7
sg15
I01
sg16
I10
sg17
I36
sbs(I3
I7
tp66
g1
(g10
g3
NtRp67
(dp68
g13
F-2.9520929282835828
sg14
I3
sg15
I01
sg16
I7
sg17
I8
sbs(I9
I7
tp69
g1
(g10
g3
NtRp70
(dp71
g13
F3.1783626566391741
sg14
I9
sg15
I01
sg16
I7
sg17
I22
sbs(I11
I6
tp72
g1
(g10
g3
NtRp73
(dp74
g13
F-8.3175231930257052
sg14
I11
sg15
I01
sg16
I6
sg17
I49
sbs(I7
I9
tp75
g1
(g10
g3
NtRp76
(dp77
g13
F12.513695422695886
sg14
I7
sg15
I00
sg16
I9
sg17
I29
sbssS'_input_nodes'
p78
I5
sS'_output_nodes'
p79
I2
sS'_node_gene_type'
p80
cneat.genome
NodeGene
p81
sS'_conn_gene_type'
p82
g10
sS'fitness'
p83
F0.19216147439966866
sS'parent2_id'
p84
I2894
sS'_id'
p85
I2945
sS'parent1_id'
p86
I2894
sS'_node_genes'
p87
(lp88
g1
(g81
g3
NtRp89
(dp90
S'_bias'
p91
I0
sS'_type'
p92
S'INPUT'
p93
sg85
I1
sS'_response'
p94
F4.9242730000000003
sS'_activation_type'
p95
Nsbag1
(g81
g3
NtRp96
(dp97
g91
I0
sg92
g93
sg85
I2
sg94
F4.9242730000000003
sg95
Nsbag1
(g81
g3
NtRp98
(dp99
g91
I0
sg92
g93
sg85
I3
sg94
F4.9242730000000003
sg95
Nsbag1
(g81
g3
NtRp100
(dp101
g91
I0
sg92
g93
sg85
I4
sg94
F4.9242730000000003
sg95
Nsbag1
(g81
g3
NtRp102
(dp103
g91
I0
sg92
g93
sg85
I5
sg94
F4.9242730000000003
sg95
Nsbag1
(g81
g3
NtRp104
(dp105
g91
F-2.895529480951716
sg92
S'OUTPUT'
p106
sg85
I6
sg94
F6.3043057047565005
sg95
S'exp'
p107
sbag1
(g81
g3
NtRp108
(dp109
g91
F-0.68249443180530844
sg92
g106
sg85
I7
sg94
F5.9772497974302787
sg95
g107
sbag1
(g81
g3
NtRp110
(dp111
g91
F-0.23902460035010487
sg92
S'HIDDEN'
p112
sg85
I8
sg94
F2.3138077274550621
sg95
g107
sbag1
(g81
g3
NtRp113
(dp114
g91
F-1.0312823829937294
sg92
g112
sg85
I9
sg94
F6.9072414035006107
sg95
g107
sbag1
(g81
g3
NtRp115
(dp116
g91
F-1.4947574881387939
sg92
g112
sg85
I10
sg94
F6.7540063844093057
sg95
g107
sbag1
(g81
g3
NtRp117
(dp118
g91
F0.15844556345219107
sg92
g112
sg85
I11
sg94
F5.1639658315122299
sg95
g107
sbasb.