ccopy_reg
_reconstructor
p1
(cneat.chromosome
Chromosome
p2
c__builtin__
object
p3
NtRp4
(dp5
S'species_id'
p6
I18
sS'_connection_genes'
p7
(dp8
(I2
I7
tp9
g1
(cneat.genome
ConnectionGene
p10
g3
NtRp11
(dp12
S'_ConnectionGene__weight'
p13
F2.1957923500101275
sS'_ConnectionGene__in'
p14
I2
sS'_ConnectionGene__enabled'
p15
I01
sS'_ConnectionGene__out'
p16
I7
sS'_ConnectionGene__innov_number'
p17
I7
sbs(I4
I7
tp18
g1
(g10
g3
NtRp19
(dp20
g13
F-9.1804991001752647
sg14
I4
sg15
I01
sg16
I7
sg17
I9
sbs(I2
I6
tp21
g1
(g10
g3
NtRp22
(dp23
g13
F0.33991977445787525
sg14
I2
sg15
I01
sg16
I6
sg17
I2
sbs(I3
I7
tp24
g1
(g10
g3
NtRp25
(dp26
g13
F-0.87855528339511779
sg14
I3
sg15
I01
sg16
I7
sg17
I8
sbs(I4
I6
tp27
g1
(g10
g3
NtRp28
(dp29
g13
F-9.6364490413160659
sg14
I4
sg15
I01
sg16
I6
sg17
I4
sbs(I5
I6
tp30
g1
(g10
g3
NtRp31
(dp32
g13
F-3.5860906116397118
sg14
I5
sg15
I01
sg16
I6
sg17
I5
sbs(I5
I7
tp33
g1
(g10
g3
NtRp34
(dp35
g13
F-6.1617324621562206
sg14
I5
sg15
I01
sg16
I7
sg17
I10
sbs(I7
I11
tp36
g1
(g10
g3
NtRp37
(dp38
g13
F-3.2361792027815546
sg14
I7
sg15
I01
sg16
I11
sg17
I52
sbs(I3
I8
tp39
g1
(g10
g3
NtRp40
(dp41
g13
F-9.4497948303116903
sg14
I3
sg15
I01
sg16
I8
sg17
I33
sbs(I7
I10
tp42
g1
(g10
g3
NtRp43
(dp44
g13
F9.4759055175146685
sg14
I7
sg15
I01
sg16
I10
sg17
I36
sbs(I1
I8
tp45
g1
(g10
g3
NtRp46
(dp47
g13
F7.1958233177042183
sg14
I1
sg15
I01
sg16
I8
sg17
I13
sbs(I3
I9
tp48
g1
(g10
g3
NtRp49
(dp50
g13
F0.79649876527996577
sg14
I3
sg15
I01
sg16
I9
sg17
I21
sbs(I1
I6
tp51
g1
(g10
g3
NtRp52
(dp53
g13
F-4.6257991808995556
sg14
I1
sg15
I00
sg16
I6
sg17
I1
sbs(I3
I6
tp54
g1
(g10
g3
NtRp55
(dp56
g13
F-20.858524043568966
sg14
I3
sg15
I01
sg16
I6
sg17
I3
sbs(I1
I7
tp57
g1
(g10
g3
NtRp58
(dp59
g13
F-3.3385105187795405
sg14
I1
sg15
I01
sg16
I7
sg17
I6
sbs(I8
I6
tp60
g1
(g10
g3
NtRp61
(dp62
g13
F0.86931903280420497
sg14
I8
sg15
I01
sg16
I6
sg17
I14
sbs(I7
I9
tp63
g1
(g10
g3
NtRp64
(dp65
g13
F9.8945106382325392
sg14
I7
sg15
I00
sg16
I9
sg17
I29
sbs(I11
I9
tp66
g1
(g10
g3
NtRp67
(dp68
g13
F6.8456210693953441
sg14
I11
sg15
I01
sg16
I9
sg17
I40
sbs(I10
I9
tp69
g1
(g10
g3
NtRp70
(dp71
g13
F5.1726178557753206
sg14
I10
sg15
I01
sg16
I9
sg17
I37
sbs(I9
I7
tp72
g1
(g10
g3
NtRp73
(dp74
g13
F-1.8189428632202795
sg14
I9
sg15
I01
sg16
I7
sg17
I22
sbssS'_input_nodes'
p75
I5
sS'_output_nodes'
p76
I2
sS'_node_gene_type'
p77
cneat.genome
NodeGene
p78
sS'_conn_gene_type'
p79
g10
sS'fitness'
p80
F0.063650767512672471
sS'parent2_id'
p81
I2033
sS'_id'
p82
I2086
sS'parent1_id'
p83
I2033
sS'_node_genes'
p84
(lp85
g1
(g78
g3
NtRp86
(dp87
S'_bias'
p88
I0
sS'_type'
p89
S'INPUT'
p90
sg82
I1
sS'_response'
p91
F4.9242730000000003
sS'_activation_type'
p92
Nsbag1
(g78
g3
NtRp93
(dp94
g88
I0
sg89
g90
sg82
I2
sg91
F4.9242730000000003
sg92
Nsbag1
(g78
g3
NtRp95
(dp96
g88
I0
sg89
g90
sg82
I3
sg91
F4.9242730000000003
sg92
Nsbag1
(g78
g3
NtRp97
(dp98
g88
I0
sg89
g90
sg82
I4
sg91
F4.9242730000000003
sg92
Nsbag1
(g78
g3
NtRp99
(dp100
g88
I0
sg89
g90
sg82
I5
sg91
F4.9242730000000003
sg92
Nsbag1
(g78
g3
NtRp101
(dp102
g88
F-1.6935815504746818
sg89
S'OUTPUT'
p103
sg82
I6
sg91
F5.7111235738932766
sg92
S'exp'
p104
sbag1
(g78
g3
NtRp105
(dp106
g88
F0.89455509898318963
sg89
g103
sg82
I7
sg91
F5.451869580717144
sg92
g104
sbag1
(g78
g3
NtRp107
(dp108
g88
F0.3133616382742509
sg89
S'HIDDEN'
p109
sg82
I8
sg91
F4.74806517201975
sg92
g104
sbag1
(g78
g3
NtRp110
(dp111
g88
F0.79101667829929478
sg89
g109
sg82
I9
sg91
F7.0349916732921365
sg92
g104
sbag1
(g78
g3
NtRp112
(dp113
g88
F-0.65470247829771033
sg89
g109
sg82
I10
sg91
F5.417725679950653
sg92
g104
sbag1
(g78
g3
NtRp114
(dp115
g88
F0.15807565969547263
sg89
g109
sg82
I11
sg91
F2.7727609445211789
sg92
g104
sbasb.