ccopy_reg
_reconstructor
p1
(cneat.chromosome
Chromosome
p2
c__builtin__
object
p3
NtRp4
(dp5
S'species_id'
p6
I30
sS'_connection_genes'
p7
(dp8
(I4
I7
tp9
g1
(cneat.genome
ConnectionGene
p10
g3
NtRp11
(dp12
S'_ConnectionGene__weight'
p13
F-20.385457251934145
sS'_ConnectionGene__in'
p14
I4
sS'_ConnectionGene__enabled'
p15
I01
sS'_ConnectionGene__out'
p16
I7
sS'_ConnectionGene__innov_number'
p17
I9
sbs(I5
I6
tp18
g1
(g10
g3
NtRp19
(dp20
g13
F21.164138547441716
sg14
I5
sg15
I01
sg16
I6
sg17
I5
sbs(I10
I6
tp21
g1
(g10
g3
NtRp22
(dp23
g13
F11.828231886706734
sg14
I10
sg15
I01
sg16
I6
sg17
I35
sbs(I1
I6
tp24
g1
(g10
g3
NtRp25
(dp26
g13
F-11.868730768362472
sg14
I1
sg15
I00
sg16
I6
sg17
I1
sbs(I3
I7
tp27
g1
(g10
g3
NtRp28
(dp29
g13
F-2.0573946461131039
sg14
I3
sg15
I01
sg16
I7
sg17
I8
sbs(I12
I9
tp30
g1
(g10
g3
NtRp31
(dp32
g13
F18.048232500232015
sg14
I12
sg15
I01
sg16
I9
sg17
I86
sbs(I10
I12
tp33
g1
(g10
g3
NtRp34
(dp35
g13
F0.78570863279479963
sg14
I10
sg15
I01
sg16
I12
sg17
I96
sbs(I7
I10
tp36
g1
(g10
g3
NtRp37
(dp38
g13
F11.627783386359319
sg14
I7
sg15
I01
sg16
I10
sg17
I36
sbs(I8
I6
tp39
g1
(g10
g3
NtRp40
(dp41
g13
F-6.7843335631109287
sg14
I8
sg15
I01
sg16
I6
sg17
I14
sbs(I10
I9
tp42
g1
(g10
g3
NtRp43
(dp44
g13
F14.349778450080054
sg14
I10
sg15
I01
sg16
I9
sg17
I37
sbs(I9
I7
tp45
g1
(g10
g3
NtRp46
(dp47
g13
F4.3993613099079898
sg14
I9
sg15
I01
sg16
I7
sg17
I22
sbs(I2
I6
tp48
g1
(g10
g3
NtRp49
(dp50
g13
F-7.456686310848367
sg14
I2
sg15
I01
sg16
I6
sg17
I2
sbs(I3
I6
tp51
g1
(g10
g3
NtRp52
(dp53
g13
F-4.5269471139696078
sg14
I3
sg15
I01
sg16
I6
sg17
I3
sbs(I8
I11
tp54
g1
(g10
g3
NtRp55
(dp56
g13
F4.5969524134107411
sg14
I8
sg15
I01
sg16
I11
sg17
I58
sbs(I3
I9
tp57
g1
(g10
g3
NtRp58
(dp59
g13
F-12.734993562870031
sg14
I3
sg15
I01
sg16
I9
sg17
I21
sbs(I7
I9
tp60
g1
(g10
g3
NtRp61
(dp62
g13
F9.6266114455185487
sg14
I7
sg15
I00
sg16
I9
sg17
I29
sbs(I2
I7
tp63
g1
(g10
g3
NtRp64
(dp65
g13
F10.527708467087153
sg14
I2
sg15
I01
sg16
I7
sg17
I7
sbs(I4
I6
tp66
g1
(g10
g3
NtRp67
(dp68
g13
F-7.3109460222236695
sg14
I4
sg15
I01
sg16
I6
sg17
I4
sbs(I5
I7
tp69
g1
(g10
g3
NtRp70
(dp71
g13
F9.2168910288185035
sg14
I5
sg15
I01
sg16
I7
sg17
I10
sbs(I3
I8
tp72
g1
(g10
g3
NtRp73
(dp74
g13
F0.091856751213226673
sg14
I3
sg15
I01
sg16
I8
sg17
I33
sbs(I1
I8
tp75
g1
(g10
g3
NtRp76
(dp77
g13
F3.2745647040145212
sg14
I1
sg15
I01
sg16
I8
sg17
I13
sbs(I1
I7
tp78
g1
(g10
g3
NtRp79
(dp80
g13
F-2.4214667427798391
sg14
I1
sg15
I01
sg16
I7
sg17
I6
sbs(I11
I6
tp81
g1
(g10
g3
NtRp82
(dp83
g13
F-5.1229240282424691
sg14
I11
sg15
I01
sg16
I6
sg17
I49
sbssS'_input_nodes'
p84
I5
sS'_output_nodes'
p85
I2
sS'_node_gene_type'
p86
cneat.genome
NodeGene
p87
sS'_conn_gene_type'
p88
g10
sS'fitness'
p89
F0.08141814155073121
sS'parent2_id'
p90
I3677
sS'_id'
p91
I3732
sS'parent1_id'
p92
I3677
sS'_node_genes'
p93
(lp94
g1
(g87
g3
NtRp95
(dp96
S'_bias'
p97
I0
sS'_type'
p98
S'INPUT'
p99
sg91
I1
sS'_response'
p100
F4.9242730000000003
sS'_activation_type'
p101
Nsbag1
(g87
g3
NtRp102
(dp103
g97
I0
sg98
g99
sg91
I2
sg100
F4.9242730000000003
sg101
Nsbag1
(g87
g3
NtRp104
(dp105
g97
I0
sg98
g99
sg91
I3
sg100
F4.9242730000000003
sg101
Nsbag1
(g87
g3
NtRp106
(dp107
g97
I0
sg98
g99
sg91
I4
sg100
F4.9242730000000003
sg101
Nsbag1
(g87
g3
NtRp108
(dp109
g97
I0
sg98
g99
sg91
I5
sg100
F4.9242730000000003
sg101
Nsbag1
(g87
g3
NtRp110
(dp111
g97
F-3.7509581037063677
sg98
S'OUTPUT'
p112
sg91
I6
sg100
F6.2666856904870176
sg101
S'exp'
p113
sbag1
(g87
g3
NtRp114
(dp115
g97
F-0.59463881358893866
sg98
g112
sg91
I7
sg100
F4.9316599103002456
sg101
g113
sbag1
(g87
g3
NtRp116
(dp117
g97
F-1.2249210965316177
sg98
S'HIDDEN'
p118
sg91
I8
sg100
F3.0652834604284056
sg101
g113
sbag1
(g87
g3
NtRp119
(dp120
g97
F-1.2572071516240548
sg98
g118
sg91
I9
sg100
F4.4781141196124006
sg101
g113
sbag1
(g87
g3
NtRp121
(dp122
g97
F-0.1853668350159543
sg98
g118
sg91
I10
sg100
F5.5069218115359568
sg101
g113
sbag1
(g87
g3
NtRp123
(dp124
g97
F0.27434314913291546
sg98
g118
sg91
I11
sg100
F5.7227481154846238
sg101
g113
sbag1
(g87
g3
NtRp125
(dp126
g97
F-1.654929276218285
sg98
g118
sg91
I12
sg100
F5.2184102957208767
sg101
g113
sbasb.