ccopy_reg
_reconstructor
p1
(cneat.chromosome
Chromosome
p2
c__builtin__
object
p3
NtRp4
(dp5
S'species_id'
p6
I33
sS'_connection_genes'
p7
(dp8
(I4
I7
tp9
g1
(cneat.genome
ConnectionGene
p10
g3
NtRp11
(dp12
S'_ConnectionGene__weight'
p13
F-4.9138731079680902
sS'_ConnectionGene__in'
p14
I4
sS'_ConnectionGene__enabled'
p15
I01
sS'_ConnectionGene__out'
p16
I7
sS'_ConnectionGene__innov_number'
p17
I9
sbs(I12
I11
tp18
g1
(g10
g3
NtRp19
(dp20
g13
F2.7254236309577418
sg14
I12
sg15
I01
sg16
I11
sg17
I72
sbs(I5
I6
tp21
g1
(g10
g3
NtRp22
(dp23
g13
F-2.2781111678554136
sg14
I5
sg15
I01
sg16
I6
sg17
I5
sbs(I6
I9
tp24
g1
(g10
g3
NtRp25
(dp26
g13
F-8.0652668634779801
sg14
I6
sg15
I01
sg16
I9
sg17
I56
sbs(I4
I12
tp27
g1
(g10
g3
NtRp28
(dp29
g13
F-2.7126421139010053
sg14
I4
sg15
I01
sg16
I12
sg17
I71
sbs(I1
I6
tp30
g1
(g10
g3
NtRp31
(dp32
g13
F-4.6347662335165767
sg14
I1
sg15
I01
sg16
I6
sg17
I1
sbs(I3
I7
tp33
g1
(g10
g3
NtRp34
(dp35
g13
F9.7986641123287708
sg14
I3
sg15
I01
sg16
I7
sg17
I8
sbs(I7
I11
tp36
g1
(g10
g3
NtRp37
(dp38
g13
F-3.0193503958581069
sg14
I7
sg15
I01
sg16
I11
sg17
I52
sbs(I14
I9
tp39
g1
(g10
g3
NtRp40
(dp41
g13
F-3.4661886660558365
sg14
I14
sg15
I01
sg16
I9
sg17
I90
sbs(I16
I7
tp42
g1
(g10
g3
NtRp43
(dp44
g13
F-22.212481267550693
sg14
I16
sg15
I01
sg16
I7
sg17
I125
sbs(I1
I16
tp45
g1
(g10
g3
NtRp46
(dp47
g13
F-0.39568529519526763
sg14
I1
sg15
I01
sg16
I16
sg17
I124
sbs(I15
I6
tp48
g1
(g10
g3
NtRp49
(dp50
g13
F-2.2479183479905633
sg14
I15
sg15
I01
sg16
I6
sg17
I93
sbs(I13
I7
tp51
g1
(g10
g3
NtRp52
(dp53
g13
F6.3780296915039543
sg14
I13
sg15
I01
sg16
I7
sg17
I74
sbs(I7
I10
tp54
g1
(g10
g3
NtRp55
(dp56
g13
F20.216110644755172
sg14
I7
sg15
I01
sg16
I10
sg17
I36
sbs(I8
I6
tp57
g1
(g10
g3
NtRp58
(dp59
g13
F18.066113351067294
sg14
I8
sg15
I01
sg16
I6
sg17
I14
sbs(I10
I9
tp60
g1
(g10
g3
NtRp61
(dp62
g13
F-6.9448491860807522
sg14
I10
sg15
I01
sg16
I9
sg17
I37
sbs(I9
I7
tp63
g1
(g10
g3
NtRp64
(dp65
g13
F4.0916941756233989
sg14
I9
sg15
I00
sg16
I7
sg17
I22
sbs(I7
I14
tp66
g1
(g10
g3
NtRp67
(dp68
g13
F-4.7067463510494472
sg14
I7
sg15
I01
sg16
I14
sg17
I88
sbs(I2
I6
tp69
g1
(g10
g3
NtRp70
(dp71
g13
F-7.5802357198415162
sg14
I2
sg15
I01
sg16
I6
sg17
I2
sbs(I3
I6
tp72
g1
(g10
g3
NtRp73
(dp74
g13
F-21.69190481195686
sg14
I3
sg15
I01
sg16
I6
sg17
I3
sbs(I11
I9
tp75
g1
(g10
g3
NtRp76
(dp77
g13
F2.6832061780741867
sg14
I11
sg15
I01
sg16
I9
sg17
I40
sbs(I3
I9
tp78
g1
(g10
g3
NtRp79
(dp80
g13
F-21.248286247270126
sg14
I3
sg15
I01
sg16
I9
sg17
I21
sbs(I8
I7
tp81
g1
(g10
g3
NtRp82
(dp83
g13
F2.3039513467926982
sg14
I8
sg15
I01
sg16
I7
sg17
I12
sbs(I4
I11
tp84
g1
(g10
g3
NtRp85
(dp86
g13
F-2.5622804734700297
sg14
I4
sg15
I00
sg16
I11
sg17
I44
sbs(I7
I9
tp87
g1
(g10
g3
NtRp88
(dp89
g13
F-9.8116976923817276
sg14
I7
sg15
I01
sg16
I9
sg17
I29
sbs(I2
I7
tp90
g1
(g10
g3
NtRp91
(dp92
g13
F-0.23604786849553583
sg14
I2
sg15
I01
sg16
I7
sg17
I7
sbs(I9
I13
tp93
g1
(g10
g3
NtRp94
(dp95
g13
F3.7673864791635334
sg14
I9
sg15
I01
sg16
I13
sg17
I73
sbs(I4
I6
tp96
g1
(g10
g3
NtRp97
(dp98
g13
F-6.3665061566892742
sg14
I4
sg15
I01
sg16
I6
sg17
I4
sbs(I10
I10
tp99
g1
(g10
g3
NtRp100
(dp101
g13
F-7.0322702557829739
sg14
I10
sg15
I01
sg16
I10
sg17
I46
sbs(I11
I8
tp102
g1
(g10
g3
NtRp103
(dp104
g13
F3.0707230468828755
sg14
I11
sg15
I01
sg16
I8
sg17
I51
sbs(I4
I15
tp105
g1
(g10
g3
NtRp106
(dp107
g13
F-4.3365434336719018
sg14
I4
sg15
I01
sg16
I15
sg17
I114
sbs(I5
I7
tp108
g1
(g10
g3
NtRp109
(dp110
g13
F-9.9878934329872653
sg14
I5
sg15
I01
sg16
I7
sg17
I10
sbs(I9
I9
tp111
g1
(g10
g3
NtRp112
(dp113
g13
F-1.3730688404906626
sg14
I9
sg15
I01
sg16
I9
sg17
I55
sbs(I3
I8
tp114
g1
(g10
g3
NtRp115
(dp116
g13
F-10.328245020729383
sg14
I3
sg15
I01
sg16
I8
sg17
I33
sbs(I13
I14
tp117
g1
(g10
g3
NtRp118
(dp119
g13
F-0.65877182923273736
sg14
I13
sg15
I01
sg16
I14
sg17
I98
sbs(I1
I8
tp120
g1
(g10
g3
NtRp121
(dp122
g13
F13.839138155491755
sg14
I1
sg15
I01
sg16
I8
sg17
I13
sbs(I1
I7
tp123
g1
(g10
g3
NtRp124
(dp125
g13
F-19.284084724685965
sg14
I1
sg15
I00
sg16
I7
sg17
I6
sbssS'_input_nodes'
p126
I5
sS'_output_nodes'
p127
I2
sS'_node_gene_type'
p128
cneat.genome
NodeGene
p129
sS'_conn_gene_type'
p130
g10
sS'fitness'
p131
F0.017155635696065635
sS'parent2_id'
p132
I4694
sS'_id'
p133
I4742
sS'parent1_id'
p134
I4694
sS'_node_genes'
p135
(lp136
g1
(g129
g3
NtRp137
(dp138
S'_bias'
p139
I0
sS'_type'
p140
S'INPUT'
p141
sg133
I1
sS'_response'
p142
F4.9242730000000003
sS'_activation_type'
p143
Nsbag1
(g129
g3
NtRp144
(dp145
g139
I0
sg140
g141
sg133
I2
sg142
F4.9242730000000003
sg143
Nsbag1
(g129
g3
NtRp146
(dp147
g139
I0
sg140
g141
sg133
I3
sg142
F4.9242730000000003
sg143
Nsbag1
(g129
g3
NtRp148
(dp149
g139
I0
sg140
g141
sg133
I4
sg142
F4.9242730000000003
sg143
Nsbag1
(g129
g3
NtRp150
(dp151
g139
I0
sg140
g141
sg133
I5
sg142
F4.9242730000000003
sg143
Nsbag1
(g129
g3
NtRp152
(dp153
g139
F-1.1778552323450906
sg140
S'OUTPUT'
p154
sg133
I6
sg142
F7.7585745718619963
sg143
S'exp'
p155
sbag1
(g129
g3
NtRp156
(dp157
g139
F0.56881472902029284
sg140
g154
sg133
I7
sg142
F3.4835924668854887
sg143
g155
sbag1
(g129
g3
NtRp158
(dp159
g139
F-1.0543337018937771
sg140
S'HIDDEN'
p160
sg133
I8
sg142
F2.2070473472706311
sg143
g155
sbag1
(g129
g3
NtRp161
(dp162
g139
F1.2765067445894185
sg140
g160
sg133
I9
sg142
F6.4936428334332303
sg143
g155
sbag1
(g129
g3
NtRp163
(dp164
g139
F-1.2448915974317942
sg140
g160
sg133
I10
sg142
F1.4473424374899024
sg143
g155
sbag1
(g129
g3
NtRp165
(dp166
g139
F-0.69994574361674267
sg140
g160
sg133
I11
sg142
F1.5570763985713483
sg143
g155
sbag1
(g129
g3
NtRp167
(dp168
g139
F-3.5801866417155397
sg140
g160
sg133
I12
sg142
F3.013346834168352
sg143
g155
sbag1
(g129
g3
NtRp169
(dp170
g139
F-0.99791281468572546
sg140
g160
sg133
I13
sg142
F6.8952877680876812
sg143
g155
sbag1
(g129
g3
NtRp171
(dp172
g139
F-0.34920266878039963
sg140
g160
sg133
I14
sg142
F4.1632964221981918
sg143
g155
sbag1
(g129
g3
NtRp173
(dp174
g139
F-1.2684261723329364
sg140
g160
sg133
I15
sg142
F5.0460166831486069
sg143
g155
sbag1
(g129
g3
NtRp175
(dp176
g139
F1.1230218244018739
sg140
g160
sg133
I16
sg142
F5.3650976100509506
sg143
g155
sbasb.