ccopy_reg
_reconstructor
p1
(cneat.chromosome
Chromosome
p2
c__builtin__
object
p3
NtRp4
(dp5
S'species_id'
p6
I32
sS'_connection_genes'
p7
(dp8
(I4
I7
tp9
g1
(cneat.genome
ConnectionGene
p10
g3
NtRp11
(dp12
S'_ConnectionGene__weight'
p13
F-1.2258797916165252
sS'_ConnectionGene__in'
p14
I4
sS'_ConnectionGene__enabled'
p15
I01
sS'_ConnectionGene__out'
p16
I7
sS'_ConnectionGene__innov_number'
p17
I9
sbs(I8
I7
tp18
g1
(g10
g3
NtRp19
(dp20
g13
F0.78140846282525311
sg14
I8
sg15
I01
sg16
I7
sg17
I12
sbs(I5
I6
tp21
g1
(g10
g3
NtRp22
(dp23
g13
F4.1934607240312447
sg14
I5
sg15
I01
sg16
I6
sg17
I5
sbs(I6
I9
tp24
g1
(g10
g3
NtRp25
(dp26
g13
F-4.5079468196557331
sg14
I6
sg15
I01
sg16
I9
sg17
I56
sbs(I4
I12
tp27
g1
(g10
g3
NtRp28
(dp29
g13
F-4.6364805228909738
sg14
I4
sg15
I01
sg16
I12
sg17
I71
sbs(I1
I6
tp30
g1
(g10
g3
NtRp31
(dp32
g13
F-3.4352279968806601
sg14
I1
sg15
I01
sg16
I6
sg17
I1
sbs(I3
I7
tp33
g1
(g10
g3
NtRp34
(dp35
g13
F15.108667080053714
sg14
I3
sg15
I01
sg16
I7
sg17
I8
sbs(I7
I11
tp36
g1
(g10
g3
NtRp37
(dp38
g13
F-0.90467674481828098
sg14
I7
sg15
I01
sg16
I11
sg17
I52
sbs(I14
I9
tp39
g1
(g10
g3
NtRp40
(dp41
g13
F-2.9663840514436974
sg14
I14
sg15
I01
sg16
I9
sg17
I90
sbs(I15
I6
tp42
g1
(g10
g3
NtRp43
(dp44
g13
F-7.0332976456281839
sg14
I15
sg15
I01
sg16
I6
sg17
I93
sbs(I13
I7
tp45
g1
(g10
g3
NtRp46
(dp47
g13
F3.99096659930923
sg14
I13
sg15
I01
sg16
I7
sg17
I74
sbs(I7
I10
tp48
g1
(g10
g3
NtRp49
(dp50
g13
F14.529277299337373
sg14
I7
sg15
I01
sg16
I10
sg17
I36
sbs(I8
I6
tp51
g1
(g10
g3
NtRp52
(dp53
g13
F15.70482943318634
sg14
I8
sg15
I01
sg16
I6
sg17
I14
sbs(I10
I9
tp54
g1
(g10
g3
NtRp55
(dp56
g13
F-10.888249721907519
sg14
I10
sg15
I01
sg16
I9
sg17
I37
sbs(I9
I7
tp57
g1
(g10
g3
NtRp58
(dp59
g13
F9.06526988452325
sg14
I9
sg15
I00
sg16
I7
sg17
I22
sbs(I7
I14
tp60
g1
(g10
g3
NtRp61
(dp62
g13
F-3.7591609972746958
sg14
I7
sg15
I01
sg16
I14
sg17
I88
sbs(I2
I6
tp63
g1
(g10
g3
NtRp64
(dp65
g13
F2.3419797407375982
sg14
I2
sg15
I01
sg16
I6
sg17
I2
sbs(I3
I6
tp66
g1
(g10
g3
NtRp67
(dp68
g13
F-13.536178905150466
sg14
I3
sg15
I01
sg16
I6
sg17
I3
sbs(I11
I9
tp69
g1
(g10
g3
NtRp70
(dp71
g13
F5.09412087893178
sg14
I11
sg15
I01
sg16
I9
sg17
I40
sbs(I3
I9
tp72
g1
(g10
g3
NtRp73
(dp74
g13
F-11.5826062386753
sg14
I3
sg15
I01
sg16
I9
sg17
I21
sbs(I12
I11
tp75
g1
(g10
g3
NtRp76
(dp77
g13
F-4.1206274505673663
sg14
I12
sg15
I01
sg16
I11
sg17
I72
sbs(I4
I11
tp78
g1
(g10
g3
NtRp79
(dp80
g13
F1.7994032198841547
sg14
I4
sg15
I00
sg16
I11
sg17
I44
sbs(I7
I9
tp81
g1
(g10
g3
NtRp82
(dp83
g13
F-0.23114042069814422
sg14
I7
sg15
I00
sg16
I9
sg17
I29
sbs(I2
I7
tp84
g1
(g10
g3
NtRp85
(dp86
g13
F-4.2703642721660149
sg14
I2
sg15
I01
sg16
I7
sg17
I7
sbs(I9
I13
tp87
g1
(g10
g3
NtRp88
(dp89
g13
F5.2077149945852073
sg14
I9
sg15
I01
sg16
I13
sg17
I73
sbs(I4
I6
tp90
g1
(g10
g3
NtRp91
(dp92
g13
F-10.051865246216378
sg14
I4
sg15
I00
sg16
I6
sg17
I4
sbs(I10
I10
tp93
g1
(g10
g3
NtRp94
(dp95
g13
F-7.7099783035122016
sg14
I10
sg15
I01
sg16
I10
sg17
I46
sbs(I11
I8
tp96
g1
(g10
g3
NtRp97
(dp98
g13
F3.6825191353698559
sg14
I11
sg15
I01
sg16
I8
sg17
I51
sbs(I4
I15
tp99
g1
(g10
g3
NtRp100
(dp101
g13
F3.0608788115892684
sg14
I4
sg15
I01
sg16
I15
sg17
I114
sbs(I5
I7
tp102
g1
(g10
g3
NtRp103
(dp104
g13
F0.18643114442744846
sg14
I5
sg15
I01
sg16
I7
sg17
I10
sbs(I3
I8
tp105
g1
(g10
g3
NtRp106
(dp107
g13
F-11.135053435779865
sg14
I3
sg15
I01
sg16
I8
sg17
I33
sbs(I13
I14
tp108
g1
(g10
g3
NtRp109
(dp110
g13
F1.6748537026050592
sg14
I13
sg15
I01
sg16
I14
sg17
I98
sbs(I1
I8
tp111
g1
(g10
g3
NtRp112
(dp113
g13
F8.1898246009564364
sg14
I1
sg15
I01
sg16
I8
sg17
I13
sbs(I1
I7
tp114
g1
(g10
g3
NtRp115
(dp116
g13
F-16.574327102196332
sg14
I1
sg15
I01
sg16
I7
sg17
I6
sbssS'_input_nodes'
p117
I5
sS'_output_nodes'
p118
I2
sS'_node_gene_type'
p119
cneat.genome
NodeGene
p120
sS'_conn_gene_type'
p121
g10
sS'fitness'
p122
F0.042542462688962952
sS'parent2_id'
p123
I3899
sS'_id'
p124
I3947
sS'parent1_id'
p125
I3899
sS'_node_genes'
p126
(lp127
g1
(g120
g3
NtRp128
(dp129
S'_bias'
p130
I0
sS'_type'
p131
S'INPUT'
p132
sg124
I1
sS'_response'
p133
F4.9242730000000003
sS'_activation_type'
p134
Nsbag1
(g120
g3
NtRp135
(dp136
g130
I0
sg131
g132
sg124
I2
sg133
F4.9242730000000003
sg134
Nsbag1
(g120
g3
NtRp137
(dp138
g130
I0
sg131
g132
sg124
I3
sg133
F4.9242730000000003
sg134
Nsbag1
(g120
g3
NtRp139
(dp140
g130
I0
sg131
g132
sg124
I4
sg133
F4.9242730000000003
sg134
Nsbag1
(g120
g3
NtRp141
(dp142
g130
I0
sg131
g132
sg124
I5
sg133
F4.9242730000000003
sg134
Nsbag1
(g120
g3
NtRp143
(dp144
g130
F-2.6954442702169445
sg131
S'OUTPUT'
p145
sg124
I6
sg133
F6.3217481403823585
sg134
S'exp'
p146
sbag1
(g120
g3
NtRp147
(dp148
g130
F0.11816602929685927
sg131
g145
sg124
I7
sg133
F3.4029733687253598
sg134
g146
sbag1
(g120
g3
NtRp149
(dp150
g130
F-1.5519633388972209
sg131
S'HIDDEN'
p151
sg124
I8
sg133
F2.0772808108361192
sg134
g146
sbag1
(g120
g3
NtRp152
(dp153
g130
F0.6430243324479723
sg131
g151
sg124
I9
sg133
F6.2512397478210877
sg134
g146
sbag1
(g120
g3
NtRp154
(dp155
g130
F-0.63031419366560537
sg131
g151
sg124
I10
sg133
F1.6745984723931147
sg134
g146
sbag1
(g120
g3
NtRp156
(dp157
g130
F-0.69994574361674267
sg131
g151
sg124
I11
sg133
F1.6858134728821339
sg134
g146
sbag1
(g120
g3
NtRp158
(dp159
g130
F-1.7972330143060984
sg131
g151
sg124
I12
sg133
F3.5299981518135262
sg134
g146
sbag1
(g120
g3
NtRp160
(dp161
g130
F0.053904046116438398
sg131
g151
sg124
I13
sg133
F5.4681464196655671
sg134
g146
sbag1
(g120
g3
NtRp162
(dp163
g130
F-1.1251099296424236
sg131
g151
sg124
I14
sg133
F4.4551824066937771
sg134
g146
sbag1
(g120
g3
NtRp164
(dp165
g130
F-0.25008872805812199
sg131
g151
sg124
I15
sg133
F5.0449885710366651
sg134
g146
sbasb.