ccopy_reg
_reconstructor
p1
(cneat.chromosome
Chromosome
p2
c__builtin__
object
p3
NtRp4
(dp5
S'species_id'
p6
I7
sS'_connection_genes'
p7
(dp8
(I2
I7
tp9
g1
(cneat.genome
ConnectionGene
p10
g3
NtRp11
(dp12
S'_ConnectionGene__weight'
p13
F-1.2939766538581314
sS'_ConnectionGene__in'
p14
I2
sS'_ConnectionGene__enabled'
p15
I01
sS'_ConnectionGene__out'
p16
I7
sS'_ConnectionGene__innov_number'
p17
I7
sbs(I8
I6
tp18
g1
(g10
g3
NtRp19
(dp20
g13
F1.3659509480828067
sg14
I8
sg15
I01
sg16
I6
sg17
I14
sbs(I4
I7
tp21
g1
(g10
g3
NtRp22
(dp23
g13
F15.136079539388467
sg14
I4
sg15
I01
sg16
I7
sg17
I9
sbs(I2
I6
tp24
g1
(g10
g3
NtRp25
(dp26
g13
F1.320893042546281
sg14
I2
sg15
I01
sg16
I6
sg17
I2
sbs(I4
I6
tp27
g1
(g10
g3
NtRp28
(dp29
g13
F-3.7598752864178642
sg14
I4
sg15
I01
sg16
I6
sg17
I4
sbs(I5
I6
tp30
g1
(g10
g3
NtRp31
(dp32
g13
F6.0898363904237307
sg14
I5
sg15
I01
sg16
I6
sg17
I5
sbs(I7
I6
tp33
g1
(g10
g3
NtRp34
(dp35
g13
F1.8026258444671917
sg14
I7
sg15
I01
sg16
I6
sg17
I16
sbs(I5
I7
tp36
g1
(g10
g3
NtRp37
(dp38
g13
F-0.75564041214993294
sg14
I5
sg15
I01
sg16
I7
sg17
I10
sbs(I1
I8
tp39
g1
(g10
g3
NtRp40
(dp41
g13
F-3.6672810206436468
sg14
I1
sg15
I01
sg16
I8
sg17
I13
sbs(I1
I6
tp42
g1
(g10
g3
NtRp43
(dp44
g13
F-10.897325636319085
sg14
I1
sg15
I00
sg16
I6
sg17
I1
sbs(I1
I9
tp45
g1
(g10
g3
NtRp46
(dp47
g13
F-5.6490067760489984
sg14
I1
sg15
I01
sg16
I9
sg17
I24
sbs(I3
I6
tp48
g1
(g10
g3
NtRp49
(dp50
g13
F-3.4184996596170585
sg14
I3
sg15
I01
sg16
I6
sg17
I3
sbs(I1
I7
tp51
g1
(g10
g3
NtRp52
(dp53
g13
F-3.384724451851397
sg14
I1
sg15
I01
sg16
I7
sg17
I6
sbs(I3
I7
tp54
g1
(g10
g3
NtRp55
(dp56
g13
F-1.6376881103819279
sg14
I3
sg15
I01
sg16
I7
sg17
I8
sbs(I9
I6
tp57
g1
(g10
g3
NtRp58
(dp59
g13
F-6.4335895242191166
sg14
I9
sg15
I01
sg16
I6
sg17
I28
sbs(I5
I8
tp60
g1
(g10
g3
NtRp61
(dp62
g13
F-5.5482567497374946
sg14
I5
sg15
I01
sg16
I8
sg17
I17
sbssS'_input_nodes'
p63
I5
sS'_output_nodes'
p64
I2
sS'_node_gene_type'
p65
cneat.genome
NodeGene
p66
sS'_conn_gene_type'
p67
g10
sS'fitness'
p68
F0.15939153252867885
sS'parent2_id'
p69
I738
sS'_id'
p70
I792
sS'parent1_id'
p71
I738
sS'_node_genes'
p72
(lp73
g1
(g66
g3
NtRp74
(dp75
S'_bias'
p76
I0
sS'_type'
p77
S'INPUT'
p78
sg70
I1
sS'_response'
p79
F4.9242730000000003
sS'_activation_type'
p80
Nsbag1
(g66
g3
NtRp81
(dp82
g76
I0
sg77
g78
sg70
I2
sg79
F4.9242730000000003
sg80
Nsbag1
(g66
g3
NtRp83
(dp84
g76
I0
sg77
g78
sg70
I3
sg79
F4.9242730000000003
sg80
Nsbag1
(g66
g3
NtRp85
(dp86
g76
I0
sg77
g78
sg70
I4
sg79
F4.9242730000000003
sg80
Nsbag1
(g66
g3
NtRp87
(dp88
g76
I0
sg77
g78
sg70
I5
sg79
F4.9242730000000003
sg80
Nsbag1
(g66
g3
NtRp89
(dp90
g76
F-2.0900253292962598
sg77
S'OUTPUT'
p91
sg70
I6
sg79
F3.6406455309410113
sg80
S'exp'
p92
sbag1
(g66
g3
NtRp93
(dp94
g76
F-0.64399082621798687
sg77
g91
sg70
I7
sg79
F4.7458426248604031
sg80
g92
sbag1
(g66
g3
NtRp95
(dp96
g76
I0
sg77
S'HIDDEN'
p97
sg70
I8
sg79
F5.1658516701109614
sg80
g92
sbag1
(g66
g3
NtRp98
(dp99
g76
I0
sg77
g97
sg70
I9
sg79
F5.2749994648376362
sg80
g92
sbasb.