ccopy_reg
_reconstructor
p1
(cneat.chromosome
Chromosome
p2
c__builtin__
object
p3
NtRp4
(dp5
S'species_id'
p6
I40
sS'_connection_genes'
p7
(dp8
(I5
I9
tp9
g1
(cneat.genome
ConnectionGene
p10
g3
NtRp11
(dp12
S'_ConnectionGene__weight'
p13
F-1.2265331068737564
sS'_ConnectionGene__in'
p14
I5
sS'_ConnectionGene__enabled'
p15
I01
sS'_ConnectionGene__out'
p16
I9
sS'_ConnectionGene__innov_number'
p17
I58
sbs(I4
I7
tp18
g1
(g10
g3
NtRp19
(dp20
g13
F-23.045895657931343
sg14
I4
sg15
I01
sg16
I7
sg17
I29
sbs(I1
I3
tp21
g1
(g10
g3
NtRp22
(dp23
g13
F-4.9531464255820898
sg14
I1
sg15
I01
sg16
I3
sg17
I2
sbs(I14
I4
tp24
g1
(g10
g3
NtRp25
(dp26
g13
F-2.6107574680413195
sg14
I14
sg15
I01
sg16
I4
sg17
I143
sbs(I13
I4
tp27
g1
(g10
g3
NtRp28
(dp29
g13
F16.487401383501439
sg14
I13
sg15
I00
sg16
I4
sg17
I120
sbs(I3
I11
tp30
g1
(g10
g3
NtRp31
(dp32
g13
F13.6410783374945
sg14
I3
sg15
I01
sg16
I11
sg17
I98
sbs(I1
I15
tp33
g1
(g10
g3
NtRp34
(dp35
g13
F-9.35389553007888
sg14
I1
sg15
I01
sg16
I15
sg17
I148
sbs(I6
I2
tp36
g1
(g10
g3
NtRp37
(dp38
g13
F24.679138684859208
sg14
I6
sg15
I01
sg16
I2
sg17
I23
sbs(I4
I2
tp39
g1
(g10
g3
NtRp40
(dp41
g13
F-6.0692747334950461
sg14
I4
sg15
I01
sg16
I2
sg17
I8
sbs(I2
I5
tp42
g1
(g10
g3
NtRp43
(dp44
g13
F-0.1322677334309128
sg14
I2
sg15
I01
sg16
I5
sg17
I10
sbs(I15
I5
tp45
g1
(g10
g3
NtRp46
(dp47
g13
F-0.64156521898922425
sg14
I15
sg15
I01
sg16
I5
sg17
I165
sbs(I7
I2
tp48
g1
(g10
g3
NtRp49
(dp50
g13
F-29.008490330070657
sg14
I7
sg15
I01
sg16
I2
sg17
I21
sbs(I1
I2
tp51
g1
(g10
g3
NtRp52
(dp53
g13
F-15.051644874191338
sg14
I1
sg15
I01
sg16
I2
sg17
I1
sbs(I12
I2
tp54
g1
(g10
g3
NtRp55
(dp56
g13
F21.262922900708425
sg14
I12
sg15
I01
sg16
I2
sg17
I80
sbs(I3
I3
tp57
g1
(g10
g3
NtRp58
(dp59
g13
F-6.4823805379505872
sg14
I3
sg15
I01
sg16
I3
sg17
I6
sbs(I2
I8
tp60
g1
(g10
g3
NtRp61
(dp62
g13
F-19.064092590248592
sg14
I2
sg15
I01
sg16
I8
sg17
I46
sbs(I1
I5
tp63
g1
(g10
g3
NtRp64
(dp65
g13
F-8.1894561488846964
sg14
I1
sg15
I00
sg16
I5
sg17
I14
sbs(I2
I2
tp66
g1
(g10
g3
NtRp67
(dp68
g13
F-6.035204768318124
sg14
I2
sg15
I01
sg16
I2
sg17
I4
sbs(I8
I6
tp69
g1
(g10
g3
NtRp70
(dp71
g13
F9.7665066388955033
sg14
I8
sg15
I01
sg16
I6
sg17
I51
sbs(I3
I2
tp72
g1
(g10
g3
NtRp73
(dp74
g13
F-4.6393451929576841
sg14
I3
sg15
I01
sg16
I2
sg17
I3
sbs(I2
I6
tp75
g1
(g10
g3
NtRp76
(dp77
g13
F-12.056787898960044
sg14
I2
sg15
I01
sg16
I6
sg17
I15
sbs(I3
I13
tp78
g1
(g10
g3
NtRp79
(dp80
g13
F20.372873824232101
sg14
I3
sg15
I01
sg16
I13
sg17
I105
sbs(I7
I5
tp81
g1
(g10
g3
NtRp82
(dp83
g13
F-6.2794803643858126
sg14
I7
sg15
I01
sg16
I5
sg17
I19
sbs(I6
I12
tp84
g1
(g10
g3
NtRp85
(dp86
g13
F-22.538872620334029
sg14
I6
sg15
I01
sg16
I12
sg17
I115
sbs(I7
I8
tp87
g1
(g10
g3
NtRp88
(dp89
g13
F-12.414542195807291
sg14
I7
sg15
I01
sg16
I8
sg17
I52
sbs(I6
I9
tp90
g1
(g10
g3
NtRp91
(dp92
g13
F-25.415187003684061
sg14
I6
sg15
I01
sg16
I9
sg17
I56
sbs(I5
I10
tp93
g1
(g10
g3
NtRp94
(dp95
g13
F4.956541029839939
sg14
I5
sg15
I01
sg16
I10
sg17
I78
sbs(I9
I2
tp96
g1
(g10
g3
NtRp97
(dp98
g13
F15.993425827199717
sg14
I9
sg15
I01
sg16
I2
sg17
I59
sbs(I5
I2
tp99
g1
(g10
g3
NtRp100
(dp101
g13
F4.8799146900920665
sg14
I5
sg15
I00
sg16
I2
sg17
I11
sbs(I11
I3
tp102
g1
(g10
g3
NtRp103
(dp104
g13
F21.806341145020898
sg14
I11
sg15
I01
sg16
I3
sg17
I99
sbs(I13
I14
tp105
g1
(g10
g3
NtRp106
(dp107
g13
F2.639503689290124
sg14
I13
sg15
I01
sg16
I14
sg17
I142
sbs(I3
I4
tp108
g1
(g10
g3
NtRp109
(dp110
g13
F-7.4843440105711956
sg14
I3
sg15
I01
sg16
I4
sg17
I9
sbs(I10
I2
tp111
g1
(g10
g3
NtRp112
(dp113
g13
F2.7783296196716023
sg14
I10
sg15
I01
sg16
I2
sg17
I64
sbssS'_input_nodes'
p114
I1
sS'_output_nodes'
p115
I1
sS'_node_gene_type'
p116
cneat.genome
NodeGene
p117
sS'_conn_gene_type'
p118
g10
sS'fitness'
p119
F0.99908881587583431
sS'parent2_id'
p120
I4798
sS'_id'
p121
I4814
sS'parent1_id'
p122
I4798
sS'_node_genes'
p123
(lp124
g1
(g117
g3
NtRp125
(dp126
S'_bias'
p127
I0
sS'_type'
p128
S'INPUT'
p129
sg121
I1
sS'_response'
p130
F4.9242730000000003
sS'_activation_type'
p131
Nsbag1
(g117
g3
NtRp132
(dp133
g127
F3.4701239720770984
sg128
S'OUTPUT'
p134
sg121
I2
sg130
F3.2699846359741294
sg131
S'tanh'
p135
sbag1
(g117
g3
NtRp136
(dp137
g127
F1.7596171026230425
sg128
S'HIDDEN'
p138
sg121
I3
sg130
F7.9863642078485491
sg131
g135
sbag1
(g117
g3
NtRp139
(dp140
g127
F1.7865562145346572
sg128
g138
sg121
I4
sg130
F4.4169512750125293
sg131
g135
sbag1
(g117
g3
NtRp141
(dp142
g127
F1.5222952596601547
sg128
g138
sg121
I5
sg130
F1.7717437140178252
sg131
g135
sbag1
(g117
g3
NtRp143
(dp144
g127
F3.0560454270542401
sg128
g138
sg121
I6
sg130
F6.6624453740486347
sg131
g135
sbag1
(g117
g3
NtRp145
(dp146
g127
F0.022254010778936358
sg128
g138
sg121
I7
sg130
F8.9316483934843145
sg131
g135
sbag1
(g117
g3
NtRp147
(dp148
g127
F-0.72471050540091131
sg128
g138
sg121
I8
sg130
F3.2601917592814766
sg131
g135
sbag1
(g117
g3
NtRp149
(dp150
g127
F-0.78469396829419225
sg128
g138
sg121
I9
sg130
F3.5635093462477774
sg131
g135
sbag1
(g117
g3
NtRp151
(dp152
g127
F-2.3409614657743072
sg128
g138
sg121
I10
sg130
F5.7467979798846542
sg131
g135
sbag1
(g117
g3
NtRp153
(dp154
g127
F-0.93577941488011107
sg128
g138
sg121
I11
sg130
F5.2860945921192393
sg131
g135
sbag1
(g117
g3
NtRp155
(dp156
g127
F1.7493634447716531
sg128
g138
sg121
I12
sg130
F8.5996136544507209
sg131
g135
sbag1
(g117
g3
NtRp157
(dp158
g127
F3.2811394892918258
sg128
g138
sg121
I13
sg130
F8.413072199535371
sg131
g135
sbag1
(g117
g3
NtRp159
(dp160
g127
F0.44439211244812299
sg128
g138
sg121
I14
sg130
F3.4232303577397589
sg131
g135
sbag1
(g117
g3
NtRp161
(dp162
g127
F-1.1794733664410422
sg128
g138
sg121
I15
sg130
F4.9242730000000003
sg131
g135
sbasb.