ccopy_reg
_reconstructor
p1
(cneat.chromosome
Chromosome
p2
c__builtin__
object
p3
NtRp4
(dp5
S'species_id'
p6
I26
sS'_connection_genes'
p7
(dp8
(I1
I2
tp9
g1
(cneat.genome
ConnectionGene
p10
g3
NtRp11
(dp12
S'_ConnectionGene__weight'
p13
F-13.216411442378073
sS'_ConnectionGene__in'
p14
I1
sS'_ConnectionGene__enabled'
p15
I01
sS'_ConnectionGene__out'
p16
I2
sS'_ConnectionGene__innov_number'
p17
I1
sbs(I3
I2
tp18
g1
(g10
g3
NtRp19
(dp20
g13
F14.165063983417637
sg14
I3
sg15
I00
sg16
I2
sg17
I3
sbs(I1
I3
tp21
g1
(g10
g3
NtRp22
(dp23
g13
F3.677261718638595
sg14
I1
sg15
I01
sg16
I3
sg17
I2
sbs(I3
I3
tp24
g1
(g10
g3
NtRp25
(dp26
g13
F-4.1322325827840833
sg14
I3
sg15
I01
sg16
I3
sg17
I6
sbs(I9
I2
tp27
g1
(g10
g3
NtRp28
(dp29
g13
F20.674784120678357
sg14
I9
sg15
I01
sg16
I2
sg17
I59
sbs(I2
I8
tp30
g1
(g10
g3
NtRp31
(dp32
g13
F0.63558331882425856
sg14
I2
sg15
I01
sg16
I8
sg17
I46
sbs(I10
I6
tp33
g1
(g10
g3
NtRp34
(dp35
g13
F2.7381351629898272
sg14
I10
sg15
I01
sg16
I6
sg17
I81
sbs(I5
I2
tp36
g1
(g10
g3
NtRp37
(dp38
g13
F4.2412298915361228
sg14
I5
sg15
I01
sg16
I2
sg17
I11
sbs(I4
I7
tp39
g1
(g10
g3
NtRp40
(dp41
g13
F-24.984863195893961
sg14
I4
sg15
I01
sg16
I7
sg17
I29
sbs(I4
I2
tp42
g1
(g10
g3
NtRp43
(dp44
g13
F-14.57128416103405
sg14
I4
sg15
I01
sg16
I2
sg17
I8
sbs(I8
I10
tp45
g1
(g10
g3
NtRp46
(dp47
g13
F2.0174260894046485
sg14
I8
sg15
I01
sg16
I10
sg17
I88
sbs(I1
I5
tp48
g1
(g10
g3
NtRp49
(dp50
g13
F-1.3399621063233129
sg14
I1
sg15
I01
sg16
I5
sg17
I14
sbs(I2
I6
tp51
g1
(g10
g3
NtRp52
(dp53
g13
F-23.574342540229548
sg14
I2
sg15
I01
sg16
I6
sg17
I15
sbs(I2
I2
tp54
g1
(g10
g3
NtRp55
(dp56
g13
F-10.351794357655578
sg14
I2
sg15
I00
sg16
I2
sg17
I4
sbs(I6
I2
tp57
g1
(g10
g3
NtRp58
(dp59
g13
F23.25739106966223
sg14
I6
sg15
I00
sg16
I2
sg17
I23
sbs(I8
I6
tp60
g1
(g10
g3
NtRp61
(dp62
g13
F4.9424400063357936
sg14
I8
sg15
I00
sg16
I6
sg17
I51
sbs(I2
I5
tp63
g1
(g10
g3
NtRp64
(dp65
g13
F-7.577548959590402
sg14
I2
sg15
I01
sg16
I5
sg17
I10
sbs(I3
I4
tp66
g1
(g10
g3
NtRp67
(dp68
g13
F6.1121309690411074
sg14
I3
sg15
I01
sg16
I4
sg17
I9
sbs(I6
I9
tp69
g1
(g10
g3
NtRp70
(dp71
g13
F2.4877504715585776
sg14
I6
sg15
I01
sg16
I9
sg17
I56
sbs(I7
I2
tp72
g1
(g10
g3
NtRp73
(dp74
g13
F-7.0287012703432445
sg14
I7
sg15
I01
sg16
I2
sg17
I21
sbssS'_input_nodes'
p75
I1
sS'_output_nodes'
p76
I1
sS'_node_gene_type'
p77
cneat.genome
NodeGene
p78
sS'_conn_gene_type'
p79
g10
sS'fitness'
p80
F0.79029217022590159
sS'parent2_id'
p81
I2265
sS'_id'
p82
I2278
sS'parent1_id'
p83
I2265
sS'_node_genes'
p84
(lp85
g1
(g78
g3
NtRp86
(dp87
S'_bias'
p88
I0
sS'_type'
p89
S'INPUT'
p90
sg82
I1
sS'_response'
p91
F4.9242730000000003
sS'_activation_type'
p92
Nsbag1
(g78
g3
NtRp93
(dp94
g88
F2.2302472586601607
sg89
S'OUTPUT'
p95
sg82
I2
sg91
F2.6141616193086619
sg92
S'tanh'
p96
sbag1
(g78
g3
NtRp97
(dp98
g88
F-1.0405860053899747
sg89
S'HIDDEN'
p99
sg82
I3
sg91
F9.000058459984702
sg92
g96
sbag1
(g78
g3
NtRp100
(dp101
g88
F2.7609875668536343
sg89
g99
sg82
I4
sg91
F3.8315549936368796
sg92
g96
sbag1
(g78
g3
NtRp102
(dp103
g88
F1.5052717128744955
sg89
g99
sg82
I5
sg91
F0.80588457403776792
sg92
g96
sbag1
(g78
g3
NtRp104
(dp105
g88
F-1.3607616787586865
sg89
g99
sg82
I6
sg91
F0.17826680202343703
sg92
g96
sbag1
(g78
g3
NtRp106
(dp107
g88
F-0.97377657575881738
sg89
g99
sg82
I7
sg91
F5.2422807069491171
sg92
g96
sbag1
(g78
g3
NtRp108
(dp109
g88
F-1.3742660947335561
sg89
g99
sg82
I8
sg91
F4.5761710076486715
sg92
g96
sbag1
(g78
g3
NtRp110
(dp111
g88
F0.5661394580343877
sg89
g99
sg82
I9
sg91
F4.5884191995625185
sg92
g96
sbag1
(g78
g3
NtRp112
(dp113
g88
F0.5735484530684023
sg89
g99
sg82
I10
sg91
F4.94555251861608
sg92
g96
sbasb.