ccopy_reg
_reconstructor
p1
(cneat.chromosome
Chromosome
p2
c__builtin__
object
p3
NtRp4
(dp5
S'species_id'
p6
I59
sS'_connection_genes'
p7
(dp8
(I7
I8
tp9
g1
(cneat.genome
ConnectionGene
p10
g3
NtRp11
(dp12
S'_ConnectionGene__weight'
p13
F14.512726666498141
sS'_ConnectionGene__in'
p14
I7
sS'_ConnectionGene__enabled'
p15
I01
sS'_ConnectionGene__out'
p16
I8
sS'_ConnectionGene__innov_number'
p17
I52
sbs(I4
I7
tp18
g1
(g10
g3
NtRp19
(dp20
g13
F-1.4333425341924744
sg14
I4
sg15
I01
sg16
I7
sg17
I29
sbs(I1
I3
tp21
g1
(g10
g3
NtRp22
(dp23
g13
F7.4634924147515935
sg14
I1
sg15
I01
sg16
I3
sg17
I2
sbs(I8
I13
tp24
g1
(g10
g3
NtRp25
(dp26
g13
F-8.2039648302653241
sg14
I8
sg15
I01
sg16
I13
sg17
I124
sbs(I6
I6
tp27
g1
(g10
g3
NtRp28
(dp29
g13
F2.4949225636900145
sg14
I6
sg15
I01
sg16
I6
sg17
I34
sbs(I7
I12
tp30
g1
(g10
g3
NtRp31
(dp32
g13
F-11.409185630927659
sg14
I7
sg15
I01
sg16
I12
sg17
I102
sbs(I2
I8
tp33
g1
(g10
g3
NtRp34
(dp35
g13
F-0.16839380263114734
sg14
I2
sg15
I01
sg16
I8
sg17
I46
sbs(I12
I12
tp36
g1
(g10
g3
NtRp37
(dp38
g13
F18.198331683263458
sg14
I12
sg15
I00
sg16
I12
sg17
I160
sbs(I3
I11
tp39
g1
(g10
g3
NtRp40
(dp41
g13
F-23.115743375981538
sg14
I3
sg15
I01
sg16
I11
sg17
I98
sbs(I8
I9
tp42
g1
(g10
g3
NtRp43
(dp44
g13
F-11.084431089044116
sg14
I8
sg15
I01
sg16
I9
sg17
I61
sbs(I6
I2
tp45
g1
(g10
g3
NtRp46
(dp47
g13
F23.207122792440817
sg14
I6
sg15
I01
sg16
I2
sg17
I23
sbs(I18
I8
tp48
g1
(g10
g3
NtRp49
(dp50
g13
F-9.9177620881180069
sg14
I18
sg15
I01
sg16
I8
sg17
I206
sbs(I2
I5
tp51
g1
(g10
g3
NtRp52
(dp53
g13
F-19.879840581451063
sg14
I2
sg15
I01
sg16
I5
sg17
I10
sbs(I3
I17
tp54
g1
(g10
g3
NtRp55
(dp56
g13
F21.631593408202427
sg14
I3
sg15
I01
sg16
I17
sg17
I271
sbs(I3
I14
tp57
g1
(g10
g3
NtRp58
(dp59
g13
F-5.1826740668182847
sg14
I3
sg15
I01
sg16
I14
sg17
I157
sbs(I1
I2
tp60
g1
(g10
g3
NtRp61
(dp62
g13
F18.45982625214609
sg14
I1
sg15
I01
sg16
I2
sg17
I1
sbs(I17
I2
tp63
g1
(g10
g3
NtRp64
(dp65
g13
F-4.3981218222778873
sg14
I17
sg15
I01
sg16
I2
sg17
I239
sbs(I2
I14
tp66
g1
(g10
g3
NtRp67
(dp68
g13
F8.6376494271629554
sg14
I2
sg15
I01
sg16
I14
sg17
I129
sbs(I3
I3
tp69
g1
(g10
g3
NtRp70
(dp71
g13
F23.292627441878992
sg14
I3
sg15
I01
sg16
I3
sg17
I6
sbs(I1
I16
tp72
g1
(g10
g3
NtRp73
(dp74
g13
F-2.3127336189818744
sg14
I1
sg15
I01
sg16
I16
sg17
I245
sbs(I4
I4
tp75
g1
(g10
g3
NtRp76
(dp77
g13
F6.4444277650319055
sg14
I4
sg15
I01
sg16
I4
sg17
I26
sbs(I3
I20
tp78
g1
(g10
g3
NtRp79
(dp80
g13
F-8.6486465326967181
sg14
I3
sg15
I01
sg16
I20
sg17
I291
sbs(I5
I12
tp81
g1
(g10
g3
NtRp82
(dp83
g13
F-14.071351535062581
sg14
I5
sg15
I01
sg16
I12
sg17
I87
sbs(I6
I3
tp84
g1
(g10
g3
NtRp85
(dp86
g13
F-29.795974801714454
sg14
I6
sg15
I01
sg16
I3
sg17
I37
sbs(I1
I5
tp87
g1
(g10
g3
NtRp88
(dp89
g13
F3.9756077635823397
sg14
I1
sg15
I00
sg16
I5
sg17
I14
sbs(I13
I7
tp90
g1
(g10
g3
NtRp91
(dp92
g13
F-8.6558293369555503
sg14
I13
sg15
I01
sg16
I7
sg17
I136
sbs(I7
I2
tp93
g1
(g10
g3
NtRp94
(dp95
g13
F-27.411621758937891
sg14
I7
sg15
I01
sg16
I2
sg17
I21
sbs(I2
I2
tp96
g1
(g10
g3
NtRp97
(dp98
g13
F26.21181917730658
sg14
I2
sg15
I00
sg16
I2
sg17
I4
sbs(I1
I10
tp99
g1
(g10
g3
NtRp100
(dp101
g13
F6.6487078684545979
sg14
I1
sg15
I01
sg16
I10
sg17
I65
sbs(I8
I6
tp102
g1
(g10
g3
NtRp103
(dp104
g13
F-21.460834492288093
sg14
I8
sg15
I01
sg16
I6
sg17
I51
sbs(I11
I13
tp105
g1
(g10
g3
NtRp106
(dp107
g13
F-15.031431796397904
sg14
I11
sg15
I01
sg16
I13
sg17
I156
sbs(I3
I2
tp108
g1
(g10
g3
NtRp109
(dp110
g13
F19.006674379096776
sg14
I3
sg15
I01
sg16
I2
sg17
I3
sbs(I2
I6
tp111
g1
(g10
g3
NtRp112
(dp113
g13
F-27.106917650880465
sg14
I2
sg15
I01
sg16
I6
sg17
I15
sbs(I12
I14
tp114
g1
(g10
g3
NtRp115
(dp116
g13
F7.1744959567956226
sg14
I12
sg15
I01
sg16
I14
sg17
I221
sbs(I9
I3
tp117
g1
(g10
g3
NtRp118
(dp119
g13
F3.0128253704366386
sg14
I9
sg15
I01
sg16
I3
sg17
I95
sbs(I12
I15
tp120
g1
(g10
g3
NtRp121
(dp122
g13
F-1.5280561740738268
sg14
I12
sg15
I01
sg16
I15
sg17
I217
sbs(I15
I10
tp123
g1
(g10
g3
NtRp124
(dp125
g13
F-8.3263538520599525
sg14
I15
sg15
I01
sg16
I10
sg17
I189
sbs(I12
I10
tp126
g1
(g10
g3
NtRp127
(dp128
g13
F-23.224725011789094
sg14
I12
sg15
I01
sg16
I10
sg17
I103
sbs(I4
I2
tp129
g1
(g10
g3
NtRp130
(dp131
g13
F10.912897482730965
sg14
I4
sg15
I01
sg16
I2
sg17
I8
sbs(I14
I2
tp132
g1
(g10
g3
NtRp133
(dp134
g13
F19.988871714880265
sg14
I14
sg15
I01
sg16
I2
sg17
I130
sbs(I20
I14
tp135
g1
(g10
g3
NtRp136
(dp137
g13
F-4.3479079256257869
sg14
I20
sg15
I01
sg16
I14
sg17
I297
sbs(I5
I3
tp138
g1
(g10
g3
NtRp139
(dp140
g13
F-6.4669428882096156
sg14
I5
sg15
I01
sg16
I3
sg17
I27
sbs(I11
I7
tp141
g1
(g10
g3
NtRp142
(dp143
g13
F-21.658235237556916
sg14
I11
sg15
I01
sg16
I7
sg17
I107
sbs(I6
I9
tp144
g1
(g10
g3
NtRp145
(dp146
g13
F29.941813133923482
sg14
I6
sg15
I01
sg16
I9
sg17
I56
sbs(I5
I10
tp147
g1
(g10
g3
NtRp148
(dp149
g13
F30
sg14
I5
sg15
I01
sg16
I10
sg17
I78
sbs(I16
I5
tp150
g1
(g10
g3
NtRp151
(dp152
g13
F-6.2489094907641762
sg14
I16
sg15
I01
sg16
I5
sg17
I178
sbs(I9
I2
tp153
g1
(g10
g3
NtRp154
(dp155
g13
F28.875899357526084
sg14
I9
sg15
I01
sg16
I2
sg17
I59
sbs(I5
I2
tp156
g1
(g10
g3
NtRp157
(dp158
g13
F-24.41073040127554
sg14
I5
sg15
I01
sg16
I2
sg17
I11
sbs(I16
I8
tp159
g1
(g10
g3
NtRp160
(dp161
g13
F-9.858872439255741
sg14
I16
sg15
I01
sg16
I8
sg17
I172
sbs(I14
I7
tp162
g1
(g10
g3
NtRp163
(dp164
g13
F-10.83211843498607
sg14
I14
sg15
I01
sg16
I7
sg17
I263
sbs(I11
I3
tp165
g1
(g10
g3
NtRp166
(dp167
g13
F1.0361822763253905
sg14
I11
sg15
I01
sg16
I3
sg17
I99
sbs(I12
I19
tp168
g1
(g10
g3
NtRp169
(dp170
g13
F-4.6052326342792469
sg14
I12
sg15
I01
sg16
I19
sg17
I281
sbs(I3
I8
tp171
g1
(g10
g3
NtRp172
(dp173
g13
F-9.8066486783418334
sg14
I3
sg15
I00
sg16
I8
sg17
I45
sbs(I3
I18
tp174
g1
(g10
g3
NtRp175
(dp176
g13
F-3.9859965795283743
sg14
I3
sg15
I01
sg16
I18
sg17
I248
sbs(I19
I12
tp177
g1
(g10
g3
NtRp178
(dp179
g13
F12.277016418475581
sg14
I19
sg15
I01
sg16
I12
sg17
I257
sbs(I9
I5
tp180
g1
(g10
g3
NtRp181
(dp182
g13
F-0.48482122339446776
sg14
I9
sg15
I01
sg16
I5
sg17
I57
sbs(I3
I4
tp183
g1
(g10
g3
NtRp184
(dp185
g13
F15.858140106763244
sg14
I3
sg15
I01
sg16
I4
sg17
I9
sbs(I14
I8
tp186
g1
(g10
g3
NtRp187
(dp188
g13
F6.3112725615762919
sg14
I14
sg15
I01
sg16
I8
sg17
I132
sbs(I9
I12
tp189
g1
(g10
g3
NtRp190
(dp191
g13
F-7.9113840381348357
sg14
I9
sg15
I01
sg16
I12
sg17
I82
sbs(I10
I2
tp192
g1
(g10
g3
NtRp193
(dp194
g13
F-22.609376377276092
sg14
I10
sg15
I01
sg16
I2
sg17
I64
sbssS'_input_nodes'
p195
I1
sS'_output_nodes'
p196
I1
sS'_node_gene_type'
p197
cneat.genome
NodeGene
p198
sS'_conn_gene_type'
p199
g10
sS'fitness'
p200
F0.95687119353552352
sS'parent2_id'
p201
I8132
sS'_id'
p202
I8140
sS'parent1_id'
p203
I8132
sS'_node_genes'
p204
(lp205
g1
(g198
g3
NtRp206
(dp207
S'_bias'
p208
I0
sS'_type'
p209
S'INPUT'
p210
sg202
I1
sS'_response'
p211
F4.9242730000000003
sS'_activation_type'
p212
Nsbag1
(g198
g3
NtRp213
(dp214
g208
F2.0629798024138943
sg209
S'OUTPUT'
p215
sg202
I2
sg211
F6.2392409278009247
sg212
S'tanh'
p216
sbag1
(g198
g3
NtRp217
(dp218
g208
F-2.5045450948239374
sg209
S'HIDDEN'
p219
sg202
I3
sg211
F16.727590711544362
sg212
g216
sbag1
(g198
g3
NtRp220
(dp221
g208
F5.7971275839864127
sg209
g219
sg202
I4
sg211
F4.8375992719645353
sg212
g216
sbag1
(g198
g3
NtRp222
(dp223
g208
F-4.7785031385139591
sg209
g219
sg202
I5
sg211
F-7.6373292000570316
sg212
g216
sbag1
(g198
g3
NtRp224
(dp225
g208
F-4.3071296229654683
sg209
g219
sg202
I6
sg211
F0.43686045095674853
sg212
g216
sbag1
(g198
g3
NtRp226
(dp227
g208
F6.9597844493736938
sg209
g219
sg202
I7
sg211
F6.4300265355115203
sg212
g216
sbag1
(g198
g3
NtRp228
(dp229
g208
F-3.6268518766223115
sg209
g219
sg202
I8
sg211
F10.136502075217541
sg212
g216
sbag1
(g198
g3
NtRp230
(dp231
g208
F1.8707380099290529
sg209
g219
sg202
I9
sg211
F4.8782999325404965
sg212
g216
sbag1
(g198
g3
NtRp232
(dp233
g208
F1.3208797161224228
sg209
g219
sg202
I10
sg211
F4.1238053553207594
sg212
g216
sbag1
(g198
g3
NtRp234
(dp235
g208
F-0.47505332354660357
sg209
g219
sg202
I11
sg211
F1.2424117803720542
sg212
g216
sbag1
(g198
g3
NtRp236
(dp237
g208
F3.0959801570347985
sg209
g219
sg202
I12
sg211
F5.0949048506805532
sg212
g216
sbag1
(g198
g3
NtRp238
(dp239
g208
F1.1537652596492365
sg209
g219
sg202
I13
sg211
F6.6168288125535195
sg212
g216
sbag1
(g198
g3
NtRp240
(dp241
g208
F-0.87569741834354131
sg209
g219
sg202
I14
sg211
F4.3373877393670162
sg212
g216
sbag1
(g198
g3
NtRp242
(dp243
g208
F1.7315060004227496
sg209
g219
sg202
I15
sg211
F4.8521878289841114
sg212
g216
sbag1
(g198
g3
NtRp244
(dp245
g208
F-4.1450973892667236
sg209
g219
sg202
I16
sg211
F5.5253450933115795
sg212
g216
sbag1
(g198
g3
NtRp246
(dp247
g208
F-0.32109711155259124
sg209
g219
sg202
I17
sg211
F3.8907033330189473
sg212
g216
sbag1
(g198
g3
NtRp248
(dp249
g208
F3.733315581584431
sg209
g219
sg202
I18
sg211
F8.0878105626745729
sg212
g216
sbag1
(g198
g3
NtRp250
(dp251
g208
F1.3170043872076842
sg209
g219
sg202
I19
sg211
F4.9242730000000003
sg212
g216
sbag1
(g198
g3
NtRp252
(dp253
g208
F0.29107767582012389
sg209
g219
sg202
I20
sg211
F5.7471695960304645
sg212
g216
sbasb.