ccopy_reg
_reconstructor
p1
(cneat.chromosome
Chromosome
p2
c__builtin__
object
p3
NtRp4
(dp5
S'species_id'
p6
I38
sS'_connection_genes'
p7
(dp8
(I5
I9
tp9
g1
(cneat.genome
ConnectionGene
p10
g3
NtRp11
(dp12
S'_ConnectionGene__weight'
p13
F-1.3458300585648884
sS'_ConnectionGene__in'
p14
I5
sS'_ConnectionGene__enabled'
p15
I01
sS'_ConnectionGene__out'
p16
I9
sS'_ConnectionGene__innov_number'
p17
I58
sbs(I4
I7
tp18
g1
(g10
g3
NtRp19
(dp20
g13
F-20.6742589927231
sg14
I4
sg15
I01
sg16
I7
sg17
I29
sbs(I1
I3
tp21
g1
(g10
g3
NtRp22
(dp23
g13
F1.5644862817852165
sg14
I1
sg15
I01
sg16
I3
sg17
I2
sbs(I14
I4
tp24
g1
(g10
g3
NtRp25
(dp26
g13
F0.29320939718205541
sg14
I14
sg15
I01
sg16
I4
sg17
I143
sbs(I13
I4
tp27
g1
(g10
g3
NtRp28
(dp29
g13
F9.3074037803161342
sg14
I13
sg15
I00
sg16
I4
sg17
I120
sbs(I3
I11
tp30
g1
(g10
g3
NtRp31
(dp32
g13
F5.8402580219095652
sg14
I3
sg15
I01
sg16
I11
sg17
I98
sbs(I6
I2
tp33
g1
(g10
g3
NtRp34
(dp35
g13
F30
sg14
I6
sg15
I01
sg16
I2
sg17
I23
sbs(I4
I2
tp36
g1
(g10
g3
NtRp37
(dp38
g13
F-11.475453759779175
sg14
I4
sg15
I01
sg16
I2
sg17
I8
sbs(I2
I5
tp39
g1
(g10
g3
NtRp40
(dp41
g13
F8.717259806437724
sg14
I2
sg15
I01
sg16
I5
sg17
I10
sbs(I7
I2
tp42
g1
(g10
g3
NtRp43
(dp44
g13
F-25.369119304102487
sg14
I7
sg15
I01
sg16
I2
sg17
I21
sbs(I1
I2
tp45
g1
(g10
g3
NtRp46
(dp47
g13
F-13.022483451094136
sg14
I1
sg15
I01
sg16
I2
sg17
I1
sbs(I12
I2
tp48
g1
(g10
g3
NtRp49
(dp50
g13
F22.050045178748451
sg14
I12
sg15
I01
sg16
I2
sg17
I80
sbs(I3
I3
tp51
g1
(g10
g3
NtRp52
(dp53
g13
F-8.6135653684824245
sg14
I3
sg15
I00
sg16
I3
sg17
I6
sbs(I2
I8
tp54
g1
(g10
g3
NtRp55
(dp56
g13
F-15.124930198251674
sg14
I2
sg15
I01
sg16
I8
sg17
I46
sbs(I1
I5
tp57
g1
(g10
g3
NtRp58
(dp59
g13
F-0.81342289757309638
sg14
I1
sg15
I01
sg16
I5
sg17
I14
sbs(I2
I2
tp60
g1
(g10
g3
NtRp61
(dp62
g13
F-10.480875573666351
sg14
I2
sg15
I01
sg16
I2
sg17
I4
sbs(I8
I6
tp63
g1
(g10
g3
NtRp64
(dp65
g13
F5.6248302219094874
sg14
I8
sg15
I01
sg16
I6
sg17
I51
sbs(I3
I2
tp66
g1
(g10
g3
NtRp67
(dp68
g13
F-0.91212712428647991
sg14
I3
sg15
I01
sg16
I2
sg17
I3
sbs(I2
I6
tp69
g1
(g10
g3
NtRp70
(dp71
g13
F-5.4253940326590531
sg14
I2
sg15
I01
sg16
I6
sg17
I15
sbs(I3
I13
tp72
g1
(g10
g3
NtRp73
(dp74
g13
F9.5174755656973105
sg14
I3
sg15
I01
sg16
I13
sg17
I105
sbs(I7
I5
tp75
g1
(g10
g3
NtRp76
(dp77
g13
F-1.2594027704118527
sg14
I7
sg15
I01
sg16
I5
sg17
I19
sbs(I6
I12
tp78
g1
(g10
g3
NtRp79
(dp80
g13
F-11.807289298689575
sg14
I6
sg15
I01
sg16
I12
sg17
I115
sbs(I7
I8
tp81
g1
(g10
g3
NtRp82
(dp83
g13
F-18.177232838520439
sg14
I7
sg15
I01
sg16
I8
sg17
I52
sbs(I6
I9
tp84
g1
(g10
g3
NtRp85
(dp86
g13
F-16.123997188379619
sg14
I6
sg15
I01
sg16
I9
sg17
I56
sbs(I5
I10
tp87
g1
(g10
g3
NtRp88
(dp89
g13
F-6.6248019589471543
sg14
I5
sg15
I01
sg16
I10
sg17
I78
sbs(I9
I2
tp90
g1
(g10
g3
NtRp91
(dp92
g13
F6.2970072592817807
sg14
I9
sg15
I01
sg16
I2
sg17
I59
sbs(I5
I2
tp93
g1
(g10
g3
NtRp94
(dp95
g13
F3.8403976717620107
sg14
I5
sg15
I00
sg16
I2
sg17
I11
sbs(I11
I3
tp96
g1
(g10
g3
NtRp97
(dp98
g13
F19.866754101053292
sg14
I11
sg15
I01
sg16
I3
sg17
I99
sbs(I13
I14
tp99
g1
(g10
g3
NtRp100
(dp101
g13
F1.5971012183273405
sg14
I13
sg15
I01
sg16
I14
sg17
I142
sbs(I3
I4
tp102
g1
(g10
g3
NtRp103
(dp104
g13
F1.1187384100608038
sg14
I3
sg15
I01
sg16
I4
sg17
I9
sbs(I10
I2
tp105
g1
(g10
g3
NtRp106
(dp107
g13
F8.4905739977607588
sg14
I10
sg15
I01
sg16
I2
sg17
I64
sbssS'_input_nodes'
p108
I1
sS'_output_nodes'
p109
I1
sS'_node_gene_type'
p110
cneat.genome
NodeGene
p111
sS'_conn_gene_type'
p112
g10
sS'fitness'
p113
F0.94988824236847591
sS'parent2_id'
p114
I4313
sS'_id'
p115
I4330
sS'parent1_id'
p116
I4313
sS'_node_genes'
p117
(lp118
g1
(g111
g3
NtRp119
(dp120
S'_bias'
p121
I0
sS'_type'
p122
S'INPUT'
p123
sg115
I1
sS'_response'
p124
F4.9242730000000003
sS'_activation_type'
p125
Nsbag1
(g111
g3
NtRp126
(dp127
g121
F2.6902675448444677
sg122
S'OUTPUT'
p128
sg115
I2
sg124
F2.2933070959138204
sg125
S'tanh'
p129
sbag1
(g111
g3
NtRp130
(dp131
g121
F0.23408471104885448
sg122
S'HIDDEN'
p132
sg115
I3
sg124
F8.628682115289914
sg125
g129
sbag1
(g111
g3
NtRp133
(dp134
g121
F2.8022473999361366
sg122
g132
sg115
I4
sg124
F3.2918158265447972
sg125
g129
sbag1
(g111
g3
NtRp135
(dp136
g121
F-1.4944108492067378
sg122
g132
sg115
I5
sg124
F1.0525210497044135
sg125
g129
sbag1
(g111
g3
NtRp137
(dp138
g121
F1.752074994340902
sg122
g132
sg115
I6
sg124
F5.7818372136265399
sg125
g129
sbag1
(g111
g3
NtRp139
(dp140
g121
F0.23333436008268288
sg122
g132
sg115
I7
sg124
F7.8586716535576384
sg125
g129
sbag1
(g111
g3
NtRp141
(dp142
g121
F0.65505344943395494
sg122
g132
sg115
I8
sg124
F3.0487173886417027
sg125
g129
sbag1
(g111
g3
NtRp143
(dp144
g121
F-0.19186702128789013
sg122
g132
sg115
I9
sg124
F2.7675774078762494
sg125
g129
sbag1
(g111
g3
NtRp145
(dp146
g121
F-1.576371723195543
sg122
g132
sg115
I10
sg124
F4.1285564290296541
sg125
g129
sbag1
(g111
g3
NtRp147
(dp148
g121
F-0.81727130320496655
sg122
g132
sg115
I11
sg124
F4.054210133741738
sg125
g129
sbag1
(g111
g3
NtRp149
(dp150
g121
F1.1941627295942774
sg122
g132
sg115
I12
sg124
F7.5993992540869275
sg125
g129
sbag1
(g111
g3
NtRp151
(dp152
g121
F-0.52346602097967476
sg122
g132
sg115
I13
sg124
F6.7035064167227869
sg125
g129
sbag1
(g111
g3
NtRp153
(dp154
g121
F0.064740731981455635
sg122
g132
sg115
I14
sg124
F4.2713160159315358
sg125
g129
sbasb.