ccopy_reg
_reconstructor
p1
(cneat.chromosome
Chromosome
p2
c__builtin__
object
p3
NtRp4
(dp5
S'species_id'
p6
I46
sS'_connection_genes'
p7
(dp8
(I5
I9
tp9
g1
(cneat.genome
ConnectionGene
p10
g3
NtRp11
(dp12
S'_ConnectionGene__weight'
p13
F8.7861096719378473
sS'_ConnectionGene__in'
p14
I5
sS'_ConnectionGene__enabled'
p15
I01
sS'_ConnectionGene__out'
p16
I9
sS'_ConnectionGene__innov_number'
p17
I58
sbs(I4
I7
tp18
g1
(g10
g3
NtRp19
(dp20
g13
F-30
sg14
I4
sg15
I01
sg16
I7
sg17
I29
sbs(I1
I3
tp21
g1
(g10
g3
NtRp22
(dp23
g13
F17.232569977516583
sg14
I1
sg15
I01
sg16
I3
sg17
I2
sbs(I14
I4
tp24
g1
(g10
g3
NtRp25
(dp26
g13
F2.4187208923497447
sg14
I14
sg15
I01
sg16
I4
sg17
I143
sbs(I13
I4
tp27
g1
(g10
g3
NtRp28
(dp29
g13
F27.162686988939146
sg14
I13
sg15
I01
sg16
I4
sg17
I120
sbs(I3
I11
tp30
g1
(g10
g3
NtRp31
(dp32
g13
F12.148597935019433
sg14
I3
sg15
I01
sg16
I11
sg17
I98
sbs(I1
I15
tp33
g1
(g10
g3
NtRp34
(dp35
g13
F-7.9669189757734262
sg14
I1
sg15
I01
sg16
I15
sg17
I148
sbs(I13
I17
tp36
g1
(g10
g3
NtRp37
(dp38
g13
F0.97572952424227533
sg14
I13
sg15
I01
sg16
I17
sg17
I183
sbs(I6
I2
tp39
g1
(g10
g3
NtRp40
(dp41
g13
F17.314153584180922
sg14
I6
sg15
I01
sg16
I2
sg17
I23
sbs(I7
I16
tp42
g1
(g10
g3
NtRp43
(dp44
g13
F-6.5542845552755296
sg14
I7
sg15
I01
sg16
I16
sg17
I171
sbs(I6
I12
tp45
g1
(g10
g3
NtRp46
(dp47
g13
F-11.262580861097993
sg14
I6
sg15
I01
sg16
I12
sg17
I115
sbs(I2
I5
tp48
g1
(g10
g3
NtRp49
(dp50
g13
F-4.3838454320512552
sg14
I2
sg15
I01
sg16
I5
sg17
I10
sbs(I15
I5
tp51
g1
(g10
g3
NtRp52
(dp53
g13
F3.7728775568469288
sg14
I15
sg15
I01
sg16
I5
sg17
I165
sbs(I7
I2
tp54
g1
(g10
g3
NtRp55
(dp56
g13
F-30
sg14
I7
sg15
I01
sg16
I2
sg17
I21
sbs(I1
I2
tp57
g1
(g10
g3
NtRp58
(dp59
g13
F-7.2393131375753867
sg14
I1
sg15
I01
sg16
I2
sg17
I1
sbs(I12
I2
tp60
g1
(g10
g3
NtRp61
(dp62
g13
F28.486709503837208
sg14
I12
sg15
I01
sg16
I2
sg17
I80
sbs(I3
I3
tp63
g1
(g10
g3
NtRp64
(dp65
g13
F-12.135600469849507
sg14
I3
sg15
I01
sg16
I3
sg17
I6
sbs(I2
I8
tp66
g1
(g10
g3
NtRp67
(dp68
g13
F-22.273013756893075
sg14
I2
sg15
I01
sg16
I8
sg17
I46
sbs(I1
I5
tp69
g1
(g10
g3
NtRp70
(dp71
g13
F-19.312998211086423
sg14
I1
sg15
I01
sg16
I5
sg17
I14
sbs(I17
I4
tp72
g1
(g10
g3
NtRp73
(dp74
g13
F14.43647109409622
sg14
I17
sg15
I01
sg16
I4
sg17
I184
sbs(I2
I2
tp75
g1
(g10
g3
NtRp76
(dp77
g13
F-15.604945949468922
sg14
I2
sg15
I01
sg16
I2
sg17
I4
sbs(I3
I4
tp78
g1
(g10
g3
NtRp79
(dp80
g13
F-20.66030614584178
sg14
I3
sg15
I01
sg16
I4
sg17
I9
sbs(I8
I6
tp81
g1
(g10
g3
NtRp82
(dp83
g13
F14.162934209425268
sg14
I8
sg15
I01
sg16
I6
sg17
I51
sbs(I3
I2
tp84
g1
(g10
g3
NtRp85
(dp86
g13
F1.6101023308897182
sg14
I3
sg15
I01
sg16
I2
sg17
I3
sbs(I2
I6
tp87
g1
(g10
g3
NtRp88
(dp89
g13
F-7.6844722461196229
sg14
I2
sg15
I01
sg16
I6
sg17
I15
sbs(I3
I13
tp90
g1
(g10
g3
NtRp91
(dp92
g13
F15.458218312385556
sg14
I3
sg15
I01
sg16
I13
sg17
I105
sbs(I7
I5
tp93
g1
(g10
g3
NtRp94
(dp95
g13
F-4.5919025394867168
sg14
I7
sg15
I00
sg16
I5
sg17
I19
sbs(I4
I2
tp96
g1
(g10
g3
NtRp97
(dp98
g13
F-6.4993493465567935
sg14
I4
sg15
I01
sg16
I2
sg17
I8
sbs(I6
I5
tp99
g1
(g10
g3
NtRp100
(dp101
g13
F-1.0729054845507151
sg14
I6
sg15
I01
sg16
I5
sg17
I16
sbs(I6
I9
tp102
g1
(g10
g3
NtRp103
(dp104
g13
F-18.599752977940398
sg14
I6
sg15
I01
sg16
I9
sg17
I56
sbs(I5
I10
tp105
g1
(g10
g3
NtRp106
(dp107
g13
F8.2493262566973051
sg14
I5
sg15
I01
sg16
I10
sg17
I78
sbs(I6
I8
tp108
g1
(g10
g3
NtRp109
(dp110
g13
F7.3711279564865606
sg14
I6
sg15
I01
sg16
I8
sg17
I53
sbs(I16
I5
tp111
g1
(g10
g3
NtRp112
(dp113
g13
F-7.1866732172039764
sg14
I16
sg15
I01
sg16
I5
sg17
I178
sbs(I9
I2
tp114
g1
(g10
g3
NtRp115
(dp116
g13
F18.851123740298622
sg14
I9
sg15
I01
sg16
I2
sg17
I59
sbs(I5
I2
tp117
g1
(g10
g3
NtRp118
(dp119
g13
F20.153802782827071
sg14
I5
sg15
I00
sg16
I2
sg17
I11
sbs(I11
I3
tp120
g1
(g10
g3
NtRp121
(dp122
g13
F29.141654955073086
sg14
I11
sg15
I01
sg16
I3
sg17
I99
sbs(I13
I14
tp123
g1
(g10
g3
NtRp124
(dp125
g13
F-7.8638736913780436
sg14
I13
sg15
I01
sg16
I14
sg17
I142
sbs(I3
I12
tp126
g1
(g10
g3
NtRp127
(dp128
g13
F-0.15607381028378331
sg14
I3
sg15
I01
sg16
I12
sg17
I108
sbs(I7
I8
tp129
g1
(g10
g3
NtRp130
(dp131
g13
F-7.0496563542380883
sg14
I7
sg15
I01
sg16
I8
sg17
I52
sbs(I10
I2
tp132
g1
(g10
g3
NtRp133
(dp134
g13
F4.4908451391295614
sg14
I10
sg15
I01
sg16
I2
sg17
I64
sbssS'_input_nodes'
p135
I1
sS'_output_nodes'
p136
I1
sS'_node_gene_type'
p137
cneat.genome
NodeGene
p138
sS'_conn_gene_type'
p139
g10
sS'fitness'
p140
F0.89823985349340818
sS'parent2_id'
p141
I5693
sS'_id'
p142
I5709
sS'parent1_id'
p143
I5693
sS'_node_genes'
p144
(lp145
g1
(g138
g3
NtRp146
(dp147
S'_bias'
p148
I0
sS'_type'
p149
S'INPUT'
p150
sg142
I1
sS'_response'
p151
F4.9242730000000003
sS'_activation_type'
p152
Nsbag1
(g138
g3
NtRp153
(dp154
g148
F0.30155488530193347
sg149
S'OUTPUT'
p155
sg142
I2
sg151
F3.2983799401980587
sg152
S'tanh'
p156
sbag1
(g138
g3
NtRp157
(dp158
g148
F-0.4992438054511516
sg149
S'HIDDEN'
p159
sg142
I3
sg151
F7.2732818968113619
sg152
g156
sbag1
(g138
g3
NtRp160
(dp161
g148
F0.54240791652313192
sg149
g159
sg142
I4
sg151
F6.2778838514165543
sg152
g156
sbag1
(g138
g3
NtRp162
(dp163
g148
F-1.3977513536769048
sg149
g159
sg142
I5
sg151
F-0.86750833771170643
sg152
g156
sbag1
(g138
g3
NtRp164
(dp165
g148
F2.1960942978078997
sg149
g159
sg142
I6
sg151
F5.074753227403261
sg152
g156
sbag1
(g138
g3
NtRp166
(dp167
g148
F-0.41487690039342501
sg149
g159
sg142
I7
sg151
F8.9344539704492671
sg152
g156
sbag1
(g138
g3
NtRp168
(dp169
g148
F0.65302779002021416
sg149
g159
sg142
I8
sg151
F-0.22224606869626298
sg152
g156
sbag1
(g138
g3
NtRp170
(dp171
g148
F-4.6473949864449429
sg149
g159
sg142
I9
sg151
F4.5519620482639427
sg152
g156
sbag1
(g138
g3
NtRp172
(dp173
g148
F-0.82571157953577812
sg149
g159
sg142
I10
sg151
F4.9598450444206073
sg152
g156
sbag1
(g138
g3
NtRp174
(dp175
g148
F-1.1186513909046705
sg149
g159
sg142
I11
sg151
F3.9195804590182064
sg152
g156
sbag1
(g138
g3
NtRp176
(dp177
g148
F0.088472354373719309
sg149
g159
sg142
I12
sg151
F8.9207316222221014
sg152
g156
sbag1
(g138
g3
NtRp178
(dp179
g148
F1.3378935306152322
sg149
g159
sg142
I13
sg151
F7.4318952583750546
sg152
g156
sbag1
(g138
g3
NtRp180
(dp181
g148
F0.19880735071382014
sg149
g159
sg142
I14
sg151
F4.1096318351686918
sg152
g156
sbag1
(g138
g3
NtRp182
(dp183
g148
F0.72912996176307265
sg149
g159
sg142
I15
sg151
F4.4235935619970146
sg152
g156
sbag1
(g138
g3
NtRp184
(dp185
g148
F-0.89708803645365309
sg149
g159
sg142
I16
sg151
F5.5904529079319891
sg152
g156
sbag1
(g138
g3
NtRp186
(dp187
g148
F-1.1633625042276761
sg149
g159
sg142
I17
sg151
F5.9125432615213196
sg152
g156
sbasb.