ccopy_reg
_reconstructor
p1
(cneat.chromosome
Chromosome
p2
c__builtin__
object
p3
NtRp4
(dp5
S'species_id'
p6
I41
sS'_connection_genes'
p7
(dp8
(I5
I9
tp9
g1
(cneat.genome
ConnectionGene
p10
g3
NtRp11
(dp12
S'_ConnectionGene__weight'
p13
F2.3382399419428026
sS'_ConnectionGene__in'
p14
I5
sS'_ConnectionGene__enabled'
p15
I01
sS'_ConnectionGene__out'
p16
I9
sS'_ConnectionGene__innov_number'
p17
I58
sbs(I4
I7
tp18
g1
(g10
g3
NtRp19
(dp20
g13
F-20.727979304414188
sg14
I4
sg15
I01
sg16
I7
sg17
I29
sbs(I1
I3
tp21
g1
(g10
g3
NtRp22
(dp23
g13
F2.6289782988120787
sg14
I1
sg15
I01
sg16
I3
sg17
I2
sbs(I14
I4
tp24
g1
(g10
g3
NtRp25
(dp26
g13
F-0.67766782857610552
sg14
I14
sg15
I01
sg16
I4
sg17
I143
sbs(I13
I4
tp27
g1
(g10
g3
NtRp28
(dp29
g13
F23.189833751949788
sg14
I13
sg15
I00
sg16
I4
sg17
I120
sbs(I3
I11
tp30
g1
(g10
g3
NtRp31
(dp32
g13
F9.1198614767896942
sg14
I3
sg15
I01
sg16
I11
sg17
I98
sbs(I1
I15
tp33
g1
(g10
g3
NtRp34
(dp35
g13
F-8.819210122410281
sg14
I1
sg15
I01
sg16
I15
sg17
I148
sbs(I6
I2
tp36
g1
(g10
g3
NtRp37
(dp38
g13
F17.453975241549593
sg14
I6
sg15
I01
sg16
I2
sg17
I23
sbs(I7
I16
tp39
g1
(g10
g3
NtRp40
(dp41
g13
F0.37198999840955638
sg14
I7
sg15
I01
sg16
I16
sg17
I171
sbs(I4
I2
tp42
g1
(g10
g3
NtRp43
(dp44
g13
F-9.1492396650760917
sg14
I4
sg15
I01
sg16
I2
sg17
I8
sbs(I2
I5
tp45
g1
(g10
g3
NtRp46
(dp47
g13
F-4.0478697183827528
sg14
I2
sg15
I01
sg16
I5
sg17
I10
sbs(I15
I5
tp48
g1
(g10
g3
NtRp49
(dp50
g13
F-1.6981556215814682
sg14
I15
sg15
I01
sg16
I5
sg17
I165
sbs(I7
I2
tp51
g1
(g10
g3
NtRp52
(dp53
g13
F-30
sg14
I7
sg15
I01
sg16
I2
sg17
I21
sbs(I1
I2
tp54
g1
(g10
g3
NtRp55
(dp56
g13
F-12.254005503505883
sg14
I1
sg15
I01
sg16
I2
sg17
I1
sbs(I12
I2
tp57
g1
(g10
g3
NtRp58
(dp59
g13
F18.987256563424289
sg14
I12
sg15
I01
sg16
I2
sg17
I80
sbs(I3
I3
tp60
g1
(g10
g3
NtRp61
(dp62
g13
F-0.49166315896625878
sg14
I3
sg15
I01
sg16
I3
sg17
I6
sbs(I2
I8
tp63
g1
(g10
g3
NtRp64
(dp65
g13
F-18.463721175618762
sg14
I2
sg15
I01
sg16
I8
sg17
I46
sbs(I1
I5
tp66
g1
(g10
g3
NtRp67
(dp68
g13
F-18.175054701870447
sg14
I1
sg15
I00
sg16
I5
sg17
I14
sbs(I2
I2
tp69
g1
(g10
g3
NtRp70
(dp71
g13
F-12.454219494265818
sg14
I2
sg15
I01
sg16
I2
sg17
I4
sbs(I8
I6
tp72
g1
(g10
g3
NtRp73
(dp74
g13
F13.733030150838113
sg14
I8
sg15
I01
sg16
I6
sg17
I51
sbs(I3
I2
tp75
g1
(g10
g3
NtRp76
(dp77
g13
F-0.34178073214604088
sg14
I3
sg15
I01
sg16
I2
sg17
I3
sbs(I2
I6
tp78
g1
(g10
g3
NtRp79
(dp80
g13
F-15.411500377629832
sg14
I2
sg15
I01
sg16
I6
sg17
I15
sbs(I3
I13
tp81
g1
(g10
g3
NtRp82
(dp83
g13
F17.813683970136619
sg14
I3
sg15
I01
sg16
I13
sg17
I105
sbs(I7
I5
tp84
g1
(g10
g3
NtRp85
(dp86
g13
F-3.0012965621062966
sg14
I7
sg15
I00
sg16
I5
sg17
I19
sbs(I6
I12
tp87
g1
(g10
g3
NtRp88
(dp89
g13
F-22.365597361558915
sg14
I6
sg15
I01
sg16
I12
sg17
I115
sbs(I7
I8
tp90
g1
(g10
g3
NtRp91
(dp92
g13
F-17.186818725468342
sg14
I7
sg15
I01
sg16
I8
sg17
I52
sbs(I6
I9
tp93
g1
(g10
g3
NtRp94
(dp95
g13
F-26.156299497318436
sg14
I6
sg15
I01
sg16
I9
sg17
I56
sbs(I5
I10
tp96
g1
(g10
g3
NtRp97
(dp98
g13
F14.057818636029172
sg14
I5
sg15
I01
sg16
I10
sg17
I78
sbs(I16
I5
tp99
g1
(g10
g3
NtRp100
(dp101
g13
F-7.9536753346059541
sg14
I16
sg15
I01
sg16
I5
sg17
I178
sbs(I9
I2
tp102
g1
(g10
g3
NtRp103
(dp104
g13
F22.521509030234931
sg14
I9
sg15
I01
sg16
I2
sg17
I59
sbs(I5
I2
tp105
g1
(g10
g3
NtRp106
(dp107
g13
F14.530323343738242
sg14
I5
sg15
I00
sg16
I2
sg17
I11
sbs(I11
I3
tp108
g1
(g10
g3
NtRp109
(dp110
g13
F21.307454609584923
sg14
I11
sg15
I01
sg16
I3
sg17
I99
sbs(I13
I14
tp111
g1
(g10
g3
NtRp112
(dp113
g13
F7.1122073715308796
sg14
I13
sg15
I01
sg16
I14
sg17
I142
sbs(I3
I4
tp114
g1
(g10
g3
NtRp115
(dp116
g13
F-16.537098331071917
sg14
I3
sg15
I01
sg16
I4
sg17
I9
sbs(I10
I2
tp117
g1
(g10
g3
NtRp118
(dp119
g13
F9.9434609169767061
sg14
I10
sg15
I01
sg16
I2
sg17
I64
sbssS'_input_nodes'
p120
I1
sS'_output_nodes'
p121
I1
sS'_node_gene_type'
p122
cneat.genome
NodeGene
p123
sS'_conn_gene_type'
p124
g10
sS'fitness'
p125
F0.91972624715632345
sS'parent2_id'
p126
I4995
sS'_id'
p127
I5021
sS'parent1_id'
p128
I4995
sS'_node_genes'
p129
(lp130
g1
(g123
g3
NtRp131
(dp132
S'_bias'
p133
I0
sS'_type'
p134
S'INPUT'
p135
sg127
I1
sS'_response'
p136
F4.9242730000000003
sS'_activation_type'
p137
Nsbag1
(g123
g3
NtRp138
(dp139
g133
F1.6501694306034167
sg134
S'OUTPUT'
p140
sg127
I2
sg136
F3.018392016934011
sg137
S'tanh'
p141
sbag1
(g123
g3
NtRp142
(dp143
g133
F1.7579660815629901
sg134
S'HIDDEN'
p144
sg127
I3
sg136
F7.393945662084989
sg137
g141
sbag1
(g123
g3
NtRp145
(dp146
g133
F1.4214077004711849
sg134
g144
sg127
I4
sg136
F5.1087167978046724
sg137
g141
sbag1
(g123
g3
NtRp147
(dp148
g133
F2.1404177275934204
sg134
g144
sg127
I5
sg136
F1.3699964382142213
sg137
g141
sbag1
(g123
g3
NtRp149
(dp150
g133
F3.0560454270542401
sg134
g144
sg127
I6
sg136
F7.1525684486940504
sg137
g141
sbag1
(g123
g3
NtRp151
(dp152
g133
F0.16582925015597308
sg134
g144
sg127
I7
sg136
F8.7358276978145177
sg137
g141
sbag1
(g123
g3
NtRp153
(dp154
g133
F-0.22557954795599755
sg134
g144
sg127
I8
sg136
F2.098296107605969
sg137
g141
sbag1
(g123
g3
NtRp155
(dp156
g133
F-0.78469396829419225
sg134
g144
sg127
I9
sg136
F4.8650347398012057
sg137
g141
sbag1
(g123
g3
NtRp157
(dp158
g133
F-2.2810404667524051
sg134
g144
sg127
I10
sg136
F5.3710143898791829
sg137
g141
sbag1
(g123
g3
NtRp159
(dp160
g133
F-1.0239111076201737
sg134
g144
sg127
I11
sg136
F4.6688788534757952
sg137
g141
sbag1
(g123
g3
NtRp161
(dp162
g133
F0.46973468587421596
sg134
g144
sg127
I12
sg136
F9.2017934130456407
sg137
g141
sbag1
(g123
g3
NtRp163
(dp164
g133
F4.0689084488190765
sg134
g144
sg127
I13
sg136
F7.7458349390915018
sg137
g141
sbag1
(g123
g3
NtRp165
(dp166
g133
F0.34737134331628017
sg134
g144
sg127
I14
sg136
F3.4232303577397589
sg137
g141
sbag1
(g123
g3
NtRp167
(dp168
g133
F-0.67233174824131758
sg134
g144
sg127
I15
sg136
F4.9826625866043068
sg137
g141
sbag1
(g123
g3
NtRp169
(dp170
g133
F-0.48212463677692174
sg134
g144
sg127
I16
sg136
F4.9189370676294626
sg137
g141
sbasb.