ccopy_reg
_reconstructor
p1
(cneat.chromosome
Chromosome
p2
c__builtin__
object
p3
NtRp4
(dp5
S'species_id'
p6
I52
sS'_connection_genes'
p7
(dp8
(I5
I9
tp9
g1
(cneat.genome
ConnectionGene
p10
g3
NtRp11
(dp12
S'_ConnectionGene__weight'
p13
F10.511197998149713
sS'_ConnectionGene__in'
p14
I5
sS'_ConnectionGene__enabled'
p15
I01
sS'_ConnectionGene__out'
p16
I9
sS'_ConnectionGene__innov_number'
p17
I58
sbs(I4
I7
tp18
g1
(g10
g3
NtRp19
(dp20
g13
F-17.697556134197434
sg14
I4
sg15
I01
sg16
I7
sg17
I29
sbs(I1
I3
tp21
g1
(g10
g3
NtRp22
(dp23
g13
F17.911410757571016
sg14
I1
sg15
I01
sg16
I3
sg17
I2
sbs(I2
I18
tp24
g1
(g10
g3
NtRp25
(dp26
g13
F-10.927603482780762
sg14
I2
sg15
I01
sg16
I18
sg17
I191
sbs(I14
I4
tp27
g1
(g10
g3
NtRp28
(dp29
g13
F16.101884770095197
sg14
I14
sg15
I01
sg16
I4
sg17
I143
sbs(I13
I4
tp30
g1
(g10
g3
NtRp31
(dp32
g13
F24.718937496914727
sg14
I13
sg15
I01
sg16
I4
sg17
I120
sbs(I10
I6
tp33
g1
(g10
g3
NtRp34
(dp35
g13
F9.8995575261250917
sg14
I10
sg15
I01
sg16
I6
sg17
I81
sbs(I3
I11
tp36
g1
(g10
g3
NtRp37
(dp38
g13
F11.99993533808567
sg14
I3
sg15
I01
sg16
I11
sg17
I98
sbs(I1
I15
tp39
g1
(g10
g3
NtRp40
(dp41
g13
F4.0129042076931221
sg14
I1
sg15
I01
sg16
I15
sg17
I148
sbs(I13
I17
tp42
g1
(g10
g3
NtRp43
(dp44
g13
F15.503566395631603
sg14
I13
sg15
I01
sg16
I17
sg17
I183
sbs(I6
I2
tp45
g1
(g10
g3
NtRp46
(dp47
g13
F9.5909184530756395
sg14
I6
sg15
I01
sg16
I2
sg17
I23
sbs(I7
I16
tp48
g1
(g10
g3
NtRp49
(dp50
g13
F-14.523437383593876
sg14
I7
sg15
I01
sg16
I16
sg17
I171
sbs(I6
I12
tp51
g1
(g10
g3
NtRp52
(dp53
g13
F-13.527897328603324
sg14
I6
sg15
I01
sg16
I12
sg17
I115
sbs(I2
I5
tp54
g1
(g10
g3
NtRp55
(dp56
g13
F0.25194864568078634
sg14
I2
sg15
I01
sg16
I5
sg17
I10
sbs(I15
I5
tp57
g1
(g10
g3
NtRp58
(dp59
g13
F5.6894724292809125
sg14
I15
sg15
I01
sg16
I5
sg17
I165
sbs(I7
I2
tp60
g1
(g10
g3
NtRp61
(dp62
g13
F-5.9293180468420701
sg14
I7
sg15
I01
sg16
I2
sg17
I21
sbs(I1
I2
tp63
g1
(g10
g3
NtRp64
(dp65
g13
F-11.821314228020709
sg14
I1
sg15
I01
sg16
I2
sg17
I1
sbs(I12
I2
tp66
g1
(g10
g3
NtRp67
(dp68
g13
F20.520275633695434
sg14
I12
sg15
I01
sg16
I2
sg17
I80
sbs(I3
I3
tp69
g1
(g10
g3
NtRp70
(dp71
g13
F-29.937760539225067
sg14
I3
sg15
I01
sg16
I3
sg17
I6
sbs(I1
I5
tp72
g1
(g10
g3
NtRp73
(dp74
g13
F-19.153210813444371
sg14
I1
sg15
I01
sg16
I5
sg17
I14
sbs(I17
I4
tp75
g1
(g10
g3
NtRp76
(dp77
g13
F17.215468103560355
sg14
I17
sg15
I01
sg16
I4
sg17
I184
sbs(I2
I8
tp78
g1
(g10
g3
NtRp79
(dp80
g13
F-19.275418980181353
sg14
I2
sg15
I01
sg16
I8
sg17
I46
sbs(I3
I4
tp81
g1
(g10
g3
NtRp82
(dp83
g13
F-11.785433799780844
sg14
I3
sg15
I01
sg16
I4
sg17
I9
sbs(I8
I6
tp84
g1
(g10
g3
NtRp85
(dp86
g13
F27.877169803570975
sg14
I8
sg15
I01
sg16
I6
sg17
I51
sbs(I3
I2
tp87
g1
(g10
g3
NtRp88
(dp89
g13
F5.9483995515583405
sg14
I3
sg15
I01
sg16
I2
sg17
I3
sbs(I2
I6
tp90
g1
(g10
g3
NtRp91
(dp92
g13
F2.9259751088696682
sg14
I2
sg15
I01
sg16
I6
sg17
I15
sbs(I8
I2
tp93
g1
(g10
g3
NtRp94
(dp95
g13
F-4.8631555553225514
sg14
I8
sg15
I01
sg16
I2
sg17
I43
sbs(I3
I13
tp96
g1
(g10
g3
NtRp97
(dp98
g13
F13.773287191365521
sg14
I3
sg15
I01
sg16
I13
sg17
I105
sbs(I2
I2
tp99
g1
(g10
g3
NtRp100
(dp101
g13
F-16.732192891042025
sg14
I2
sg15
I01
sg16
I2
sg17
I4
sbs(I7
I5
tp102
g1
(g10
g3
NtRp103
(dp104
g13
F-4.3370884993109824
sg14
I7
sg15
I00
sg16
I5
sg17
I19
sbs(I8
I7
tp105
g1
(g10
g3
NtRp106
(dp107
g13
F5.4154415915401071
sg14
I8
sg15
I01
sg16
I7
sg17
I39
sbs(I4
I2
tp108
g1
(g10
g3
NtRp109
(dp110
g13
F-28.158168748521483
sg14
I4
sg15
I01
sg16
I2
sg17
I8
sbs(I6
I5
tp111
g1
(g10
g3
NtRp112
(dp113
g13
F1.606307743863566
sg14
I6
sg15
I01
sg16
I5
sg17
I16
sbs(I6
I9
tp114
g1
(g10
g3
NtRp115
(dp116
g13
F-22.292091782246811
sg14
I6
sg15
I01
sg16
I9
sg17
I56
sbs(I5
I10
tp117
g1
(g10
g3
NtRp118
(dp119
g13
F16.180660200433852
sg14
I5
sg15
I01
sg16
I10
sg17
I78
sbs(I6
I8
tp120
g1
(g10
g3
NtRp121
(dp122
g13
F5.1095570364536886
sg14
I6
sg15
I01
sg16
I8
sg17
I53
sbs(I16
I5
tp123
g1
(g10
g3
NtRp124
(dp125
g13
F-10.299173401392816
sg14
I16
sg15
I01
sg16
I5
sg17
I178
sbs(I9
I2
tp126
g1
(g10
g3
NtRp127
(dp128
g13
F9.4699133578204897
sg14
I9
sg15
I01
sg16
I2
sg17
I59
sbs(I5
I2
tp129
g1
(g10
g3
NtRp130
(dp131
g13
F29.35033801575765
sg14
I5
sg15
I01
sg16
I2
sg17
I11
sbs(I10
I10
tp132
g1
(g10
g3
NtRp133
(dp134
g13
F2.9337534312997882
sg14
I10
sg15
I01
sg16
I10
sg17
I111
sbs(I11
I3
tp135
g1
(g10
g3
NtRp136
(dp137
g13
F28.934147093274124
sg14
I11
sg15
I01
sg16
I3
sg17
I99
sbs(I13
I14
tp138
g1
(g10
g3
NtRp139
(dp140
g13
F-10.529435804378052
sg14
I13
sg15
I01
sg16
I14
sg17
I142
sbs(I18
I6
tp141
g1
(g10
g3
NtRp142
(dp143
g13
F-23.574965726223709
sg14
I18
sg15
I01
sg16
I6
sg17
I212
sbs(I3
I12
tp144
g1
(g10
g3
NtRp145
(dp146
g13
F2.3061038725492655
sg14
I3
sg15
I01
sg16
I12
sg17
I108
sbs(I7
I8
tp147
g1
(g10
g3
NtRp148
(dp149
g13
F-2.1126130203026321
sg14
I7
sg15
I01
sg16
I8
sg17
I52
sbs(I10
I2
tp150
g1
(g10
g3
NtRp151
(dp152
g13
F-5.3258550805730129
sg14
I10
sg15
I01
sg16
I2
sg17
I64
sbssS'_input_nodes'
p153
I1
sS'_output_nodes'
p154
I1
sS'_node_gene_type'
p155
cneat.genome
NodeGene
p156
sS'_conn_gene_type'
p157
g10
sS'fitness'
p158
F0.98780967363764161
sS'parent2_id'
p159
I6778
sS'_id'
p160
I6795
sS'parent1_id'
p161
I6778
sS'_node_genes'
p162
(lp163
g1
(g156
g3
NtRp164
(dp165
S'_bias'
p166
I0
sS'_type'
p167
S'INPUT'
p168
sg160
I1
sS'_response'
p169
F4.9242730000000003
sS'_activation_type'
p170
Nsbag1
(g156
g3
NtRp171
(dp172
g166
F-2.5736373569393738
sg167
S'OUTPUT'
p173
sg160
I2
sg169
F2.2200665475893318
sg170
S'tanh'
p174
sbag1
(g156
g3
NtRp175
(dp176
g166
F-2.1480672863207815
sg167
S'HIDDEN'
p177
sg160
I3
sg169
F11.105618290231934
sg170
g174
sbag1
(g156
g3
NtRp178
(dp179
g166
F1.8519900713297024
sg167
g177
sg160
I4
sg169
F8.0473523386829058
sg170
g174
sbag1
(g156
g3
NtRp180
(dp181
g166
F-1.6614765442165425
sg167
g177
sg160
I5
sg169
F-1.6464125053932779
sg170
g174
sbag1
(g156
g3
NtRp182
(dp183
g166
F2.9602613303802667
sg167
g177
sg160
I6
sg169
F5.5129130420778782
sg170
g174
sbag1
(g156
g3
NtRp184
(dp185
g166
F-0.27784039763594937
sg167
g177
sg160
I7
sg169
F9.2761036814642956
sg170
g174
sbag1
(g156
g3
NtRp186
(dp187
g166
F2.6939511686910165
sg167
g177
sg160
I8
sg169
F-0.99983531060597208
sg170
g174
sbag1
(g156
g3
NtRp188
(dp189
g166
F-2.8938526717169046
sg167
g177
sg160
I9
sg169
F3.5154375823154438
sg170
g174
sbag1
(g156
g3
NtRp190
(dp191
g166
F-0.87858812372449879
sg167
g177
sg160
I10
sg169
F3.7108647918458266
sg170
g174
sbag1
(g156
g3
NtRp192
(dp193
g166
F-1.5687302483349574
sg167
g177
sg160
I11
sg169
F4.0756142872689534
sg170
g174
sbag1
(g156
g3
NtRp194
(dp195
g166
F-0.60321622904653882
sg167
g177
sg160
I12
sg169
F10.060995346481262
sg170
g174
sbag1
(g156
g3
NtRp196
(dp197
g166
F1.6166608027173321
sg167
g177
sg160
I13
sg169
F8.1639160761547895
sg170
g174
sbag1
(g156
g3
NtRp198
(dp199
g166
F0.55477902838494297
sg167
g177
sg160
I14
sg169
F4.1958837041503756
sg170
g174
sbag1
(g156
g3
NtRp200
(dp201
g166
F0.082337583049236329
sg167
g177
sg160
I15
sg169
F3.2821450913775516
sg170
g174
sbag1
(g156
g3
NtRp202
(dp203
g166
F-0.92575891035083646
sg167
g177
sg160
I16
sg169
F2.2516987406450024
sg170
g174
sbag1
(g156
g3
NtRp204
(dp205
g166
F-0.32221299553281324
sg167
g177
sg160
I17
sg169
F6.4831925481408703
sg170
g174
sbag1
(g156
g3
NtRp206
(dp207
g166
F-1.3072734866071558
sg167
g177
sg160
I18
sg169
F3.8223139264483934
sg170
g174
sbasb.