ccopy_reg
_reconstructor
p1
(cneat.chromosome
Chromosome
p2
c__builtin__
object
p3
NtRp4
(dp5
S'species_id'
p6
I60
sS'_connection_genes'
p7
(dp8
(I4
I7
tp9
g1
(cneat.genome
ConnectionGene
p10
g3
NtRp11
(dp12
S'_ConnectionGene__weight'
p13
F-6.2389192843845231
sS'_ConnectionGene__in'
p14
I4
sS'_ConnectionGene__enabled'
p15
I01
sS'_ConnectionGene__out'
p16
I7
sS'_ConnectionGene__innov_number'
p17
I29
sbs(I1
I3
tp18
g1
(g10
g3
NtRp19
(dp20
g13
F19.621444723140222
sg14
I1
sg15
I01
sg16
I3
sg17
I2
sbs(I8
I13
tp21
g1
(g10
g3
NtRp22
(dp23
g13
F8.7661850086437791
sg14
I8
sg15
I01
sg16
I13
sg17
I124
sbs(I6
I6
tp24
g1
(g10
g3
NtRp25
(dp26
g13
F7.4126418867403574
sg14
I6
sg15
I01
sg16
I6
sg17
I34
sbs(I7
I12
tp27
g1
(g10
g3
NtRp28
(dp29
g13
F-16.633665337332964
sg14
I7
sg15
I01
sg16
I12
sg17
I102
sbs(I2
I8
tp30
g1
(g10
g3
NtRp31
(dp32
g13
F-7.0431807569748228
sg14
I2
sg15
I01
sg16
I8
sg17
I46
sbs(I12
I12
tp33
g1
(g10
g3
NtRp34
(dp35
g13
F8.519740672474498
sg14
I12
sg15
I01
sg16
I12
sg17
I160
sbs(I3
I11
tp36
g1
(g10
g3
NtRp37
(dp38
g13
F-16.458416653361162
sg14
I3
sg15
I01
sg16
I11
sg17
I98
sbs(I8
I9
tp39
g1
(g10
g3
NtRp40
(dp41
g13
F-24.735011818115783
sg14
I8
sg15
I01
sg16
I9
sg17
I61
sbs(I6
I2
tp42
g1
(g10
g3
NtRp43
(dp44
g13
F13.402055307795347
sg14
I6
sg15
I01
sg16
I2
sg17
I23
sbs(I20
I8
tp45
g1
(g10
g3
NtRp46
(dp47
g13
F1.3650001811281491
sg14
I20
sg15
I01
sg16
I8
sg17
I318
sbs(I18
I8
tp48
g1
(g10
g3
NtRp49
(dp50
g13
F12.657948313356703
sg14
I18
sg15
I01
sg16
I8
sg17
I206
sbs(I2
I5
tp51
g1
(g10
g3
NtRp52
(dp53
g13
F-2.7228337513188179
sg14
I2
sg15
I01
sg16
I5
sg17
I10
sbs(I3
I17
tp54
g1
(g10
g3
NtRp55
(dp56
g13
F30
sg14
I3
sg15
I01
sg16
I17
sg17
I271
sbs(I6
I9
tp57
g1
(g10
g3
NtRp58
(dp59
g13
F26.207744132242489
sg14
I6
sg15
I01
sg16
I9
sg17
I56
sbs(I3
I14
tp60
g1
(g10
g3
NtRp61
(dp62
g13
F-14.526938185410001
sg14
I3
sg15
I00
sg16
I14
sg17
I157
sbs(I1
I2
tp63
g1
(g10
g3
NtRp64
(dp65
g13
F17.797315140537467
sg14
I1
sg15
I01
sg16
I2
sg17
I1
sbs(I4
I13
tp66
g1
(g10
g3
NtRp67
(dp68
g13
F-0.40363567683015966
sg14
I4
sg15
I01
sg16
I13
sg17
I135
sbs(I14
I2
tp69
g1
(g10
g3
NtRp70
(dp71
g13
F17.310954155668355
sg14
I14
sg15
I01
sg16
I2
sg17
I130
sbs(I3
I3
tp72
g1
(g10
g3
NtRp73
(dp74
g13
F22.534176384120368
sg14
I3
sg15
I01
sg16
I3
sg17
I6
sbs(I1
I16
tp75
g1
(g10
g3
NtRp76
(dp77
g13
F15.017282056584257
sg14
I1
sg15
I01
sg16
I16
sg17
I245
sbs(I4
I4
tp78
g1
(g10
g3
NtRp79
(dp80
g13
F9.846197648063864
sg14
I4
sg15
I01
sg16
I4
sg17
I26
sbs(I3
I4
tp81
g1
(g10
g3
NtRp82
(dp83
g13
F2.8962414595009021
sg14
I3
sg15
I01
sg16
I4
sg17
I9
sbs(I6
I3
tp84
g1
(g10
g3
NtRp85
(dp86
g13
F-27.941048571320142
sg14
I6
sg15
I01
sg16
I3
sg17
I37
sbs(I1
I5
tp87
g1
(g10
g3
NtRp88
(dp89
g13
F-1.1549040359470535
sg14
I1
sg15
I00
sg16
I5
sg17
I14
sbs(I13
I7
tp90
g1
(g10
g3
NtRp91
(dp92
g13
F13.659937824935941
sg14
I13
sg15
I01
sg16
I7
sg17
I136
sbs(I7
I2
tp93
g1
(g10
g3
NtRp94
(dp95
g13
F-29.181108602833763
sg14
I7
sg15
I01
sg16
I2
sg17
I21
sbs(I2
I2
tp96
g1
(g10
g3
NtRp97
(dp98
g13
F26.12127531877114
sg14
I2
sg15
I00
sg16
I2
sg17
I4
sbs(I1
I10
tp99
g1
(g10
g3
NtRp100
(dp101
g13
F5.8417416653866301
sg14
I1
sg15
I01
sg16
I10
sg17
I65
sbs(I8
I6
tp102
g1
(g10
g3
NtRp103
(dp104
g13
F-29.879451137154664
sg14
I8
sg15
I01
sg16
I6
sg17
I51
sbs(I11
I13
tp105
g1
(g10
g3
NtRp106
(dp107
g13
F-10.660453062340334
sg14
I11
sg15
I01
sg16
I13
sg17
I156
sbs(I3
I2
tp108
g1
(g10
g3
NtRp109
(dp110
g13
F15.863710457496005
sg14
I3
sg15
I01
sg16
I2
sg17
I3
sbs(I2
I6
tp111
g1
(g10
g3
NtRp112
(dp113
g13
F-20.187735608235279
sg14
I2
sg15
I00
sg16
I6
sg17
I15
sbs(I12
I14
tp114
g1
(g10
g3
NtRp115
(dp116
g13
F-5.7976712465141187
sg14
I12
sg15
I01
sg16
I14
sg17
I221
sbs(I9
I3
tp117
g1
(g10
g3
NtRp118
(dp119
g13
F13.313299441064702
sg14
I9
sg15
I01
sg16
I3
sg17
I95
sbs(I2
I20
tp120
g1
(g10
g3
NtRp121
(dp122
g13
F5.8015287207076325
sg14
I2
sg15
I01
sg16
I20
sg17
I300
sbs(I15
I10
tp123
g1
(g10
g3
NtRp124
(dp125
g13
F-2.1755282201248329
sg14
I15
sg15
I01
sg16
I10
sg17
I189
sbs(I17
I2
tp126
g1
(g10
g3
NtRp127
(dp128
g13
F5.2248194526788501
sg14
I17
sg15
I01
sg16
I2
sg17
I239
sbs(I12
I10
tp129
g1
(g10
g3
NtRp130
(dp131
g13
F-18.468366999295114
sg14
I12
sg15
I01
sg16
I10
sg17
I103
sbs(I4
I2
tp132
g1
(g10
g3
NtRp133
(dp134
g13
F20.862252111257849
sg14
I4
sg15
I01
sg16
I2
sg17
I8
sbs(I2
I14
tp135
g1
(g10
g3
NtRp136
(dp137
g13
F0.89634314634305157
sg14
I2
sg15
I01
sg16
I14
sg17
I129
sbs(I5
I3
tp138
g1
(g10
g3
NtRp139
(dp140
g13
F14.313841129022451
sg14
I5
sg15
I01
sg16
I3
sg17
I27
sbs(I11
I7
tp141
g1
(g10
g3
NtRp142
(dp143
g13
F-18.999469606201401
sg14
I11
sg15
I00
sg16
I7
sg17
I107
sbs(I12
I15
tp144
g1
(g10
g3
NtRp145
(dp146
g13
F3.6780977404864221
sg14
I12
sg15
I01
sg16
I15
sg17
I217
sbs(I5
I10
tp147
g1
(g10
g3
NtRp148
(dp149
g13
F21.064665501610072
sg14
I5
sg15
I00
sg16
I10
sg17
I78
sbs(I16
I5
tp150
g1
(g10
g3
NtRp151
(dp152
g13
F-7.1051895988535394
sg14
I16
sg15
I01
sg16
I5
sg17
I178
sbs(I9
I2
tp153
g1
(g10
g3
NtRp154
(dp155
g13
F21.003339968231895
sg14
I9
sg15
I01
sg16
I2
sg17
I59
sbs(I5
I2
tp156
g1
(g10
g3
NtRp157
(dp158
g13
F-25.604388005963305
sg14
I5
sg15
I01
sg16
I2
sg17
I11
sbs(I16
I8
tp159
g1
(g10
g3
NtRp160
(dp161
g13
F-21.292568671115976
sg14
I16
sg15
I01
sg16
I8
sg17
I172
sbs(I14
I7
tp162
g1
(g10
g3
NtRp163
(dp164
g13
F-2.0412244067139915
sg14
I14
sg15
I01
sg16
I7
sg17
I263
sbs(I11
I3
tp165
g1
(g10
g3
NtRp166
(dp167
g13
F-2.4286195773373374
sg14
I11
sg15
I01
sg16
I3
sg17
I99
sbs(I12
I19
tp168
g1
(g10
g3
NtRp169
(dp170
g13
F1.6688549737115208
sg14
I12
sg15
I01
sg16
I19
sg17
I281
sbs(I14
I8
tp171
g1
(g10
g3
NtRp172
(dp173
g13
F4.1301128785703902
sg14
I14
sg15
I01
sg16
I8
sg17
I132
sbs(I3
I8
tp174
g1
(g10
g3
NtRp175
(dp176
g13
F-12.181708807882556
sg14
I3
sg15
I00
sg16
I8
sg17
I45
sbs(I3
I18
tp177
g1
(g10
g3
NtRp178
(dp179
g13
F-3.8756480105325841
sg14
I3
sg15
I01
sg16
I18
sg17
I248
sbs(I19
I12
tp180
g1
(g10
g3
NtRp181
(dp182
g13
F1.364273103978487
sg14
I19
sg15
I01
sg16
I12
sg17
I257
sbs(I20
I6
tp183
g1
(g10
g3
NtRp184
(dp185
g13
F-22.058934352940351
sg14
I20
sg15
I01
sg16
I6
sg17
I301
sbs(I9
I5
tp186
g1
(g10
g3
NtRp187
(dp188
g13
F8.3535798988283325
sg14
I9
sg15
I01
sg16
I5
sg17
I57
sbs(I7
I8
tp189
g1
(g10
g3
NtRp190
(dp191
g13
F22.33438068530597
sg14
I7
sg15
I01
sg16
I8
sg17
I52
sbs(I5
I12
tp192
g1
(g10
g3
NtRp193
(dp194
g13
F-15.69788290095997
sg14
I5
sg15
I01
sg16
I12
sg17
I87
sbs(I9
I12
tp195
g1
(g10
g3
NtRp196
(dp197
g13
F-16.642942394135126
sg14
I9
sg15
I01
sg16
I12
sg17
I82
sbs(I10
I2
tp198
g1
(g10
g3
NtRp199
(dp200
g13
F-5.4842489155372007
sg14
I10
sg15
I01
sg16
I2
sg17
I64
sbssS'_input_nodes'
p201
I1
sS'_output_nodes'
p202
I1
sS'_node_gene_type'
p203
cneat.genome
NodeGene
p204
sS'_conn_gene_type'
p205
g10
sS'fitness'
p206
F0.9600978044917613
sS'parent2_id'
p207
I8295
sS'_id'
p208
I8317
sS'parent1_id'
p209
I8295
sS'_node_genes'
p210
(lp211
g1
(g204
g3
NtRp212
(dp213
S'_bias'
p214
I0
sS'_type'
p215
S'INPUT'
p216
sg208
I1
sS'_response'
p217
F4.9242730000000003
sS'_activation_type'
p218
Nsbag1
(g204
g3
NtRp219
(dp220
g214
F-1.4776822566135461
sg215
S'OUTPUT'
p221
sg208
I2
sg217
F3.9342637706520875
sg218
S'tanh'
p222
sbag1
(g204
g3
NtRp223
(dp224
g214
F-4.5095200841637491
sg215
S'HIDDEN'
p225
sg208
I3
sg217
F16.146581284505455
sg218
g222
sbag1
(g204
g3
NtRp226
(dp227
g214
F6.4203760741634817
sg215
g225
sg208
I4
sg217
F2.9852750603093225
sg218
g222
sbag1
(g204
g3
NtRp228
(dp229
g214
F-5.5643388028763177
sg215
g225
sg208
I5
sg217
F-8.2871082816928254
sg218
g222
sbag1
(g204
g3
NtRp230
(dp231
g214
F-4.3225331094886226
sg215
g225
sg208
I6
sg217
F0.91371960077029835
sg218
g222
sbag1
(g204
g3
NtRp232
(dp233
g214
F3.7233315994067437
sg215
g225
sg208
I7
sg217
F6.3727424821305449
sg218
g222
sbag1
(g204
g3
NtRp234
(dp235
g214
F-6.0546188635761187
sg215
g225
sg208
I8
sg217
F10.441490971206955
sg218
g222
sbag1
(g204
g3
NtRp236
(dp237
g214
F1.9551039671232671
sg215
g225
sg208
I9
sg217
F2.0366194251747864
sg218
g222
sbag1
(g204
g3
NtRp238
(dp239
g214
F-0.78678049293340424
sg215
g225
sg208
I10
sg217
F7.8987216760514434
sg218
g222
sbag1
(g204
g3
NtRp240
(dp241
g214
F-0.23410754770100498
sg215
g225
sg208
I11
sg217
F3.6787439347922009
sg218
g222
sbag1
(g204
g3
NtRp242
(dp243
g214
F0.9584952444461472
sg215
g225
sg208
I12
sg217
F4.4914653199826313
sg218
g222
sbag1
(g204
g3
NtRp244
(dp245
g214
F1.4974156706183601
sg215
g225
sg208
I13
sg217
F5.8378623592921333
sg218
g222
sbag1
(g204
g3
NtRp246
(dp247
g214
F-2.293683111496275
sg215
g225
sg208
I14
sg217
F5.0978309072644308
sg218
g222
sbag1
(g204
g3
NtRp248
(dp249
g214
F4.0610314525136051
sg215
g225
sg208
I15
sg217
F6.1695146121827031
sg218
g222
sbag1
(g204
g3
NtRp250
(dp251
g214
F-3.1706295538798179
sg215
g225
sg208
I16
sg217
F7.8768536270479794
sg218
g222
sbag1
(g204
g3
NtRp252
(dp253
g214
F-0.52745605132579143
sg215
g225
sg208
I17
sg217
F2.393992222879203
sg218
g222
sbag1
(g204
g3
NtRp254
(dp255
g214
F0.1880308939850695
sg215
g225
sg208
I18
sg217
F3.8532523090036701
sg218
g222
sbag1
(g204
g3
NtRp256
(dp257
g214
F2.2092160229901152
sg215
g225
sg208
I19
sg217
F3.5004838870033832
sg218
g222
sbag1
(g204
g3
NtRp258
(dp259
g214
F-0.95445254168203741
sg215
g225
sg208
I20
sg217
F5.5012325665184241
sg218
g222
sbasb.