ccopy_reg
_reconstructor
p1
(cneat.chromosome
Chromosome
p2
c__builtin__
object
p3
NtRp4
(dp5
S'species_id'
p6
I64
sS'_connection_genes'
p7
(dp8
(I7
I8
tp9
g1
(cneat.genome
ConnectionGene
p10
g3
NtRp11
(dp12
S'_ConnectionGene__weight'
p13
F7.9680388948469689
sS'_ConnectionGene__in'
p14
I7
sS'_ConnectionGene__enabled'
p15
I01
sS'_ConnectionGene__out'
p16
I8
sS'_ConnectionGene__innov_number'
p17
I52
sbs(I4
I7
tp18
g1
(g10
g3
NtRp19
(dp20
g13
F-5.8270330613893204
sg14
I4
sg15
I01
sg16
I7
sg17
I29
sbs(I1
I3
tp21
g1
(g10
g3
NtRp22
(dp23
g13
F13.808364302836452
sg14
I1
sg15
I01
sg16
I3
sg17
I2
sbs(I8
I13
tp24
g1
(g10
g3
NtRp25
(dp26
g13
F14.25328351812542
sg14
I8
sg15
I01
sg16
I13
sg17
I124
sbs(I12
I15
tp27
g1
(g10
g3
NtRp28
(dp29
g13
F14.133838788576835
sg14
I12
sg15
I01
sg16
I15
sg17
I217
sbs(I6
I6
tp30
g1
(g10
g3
NtRp31
(dp32
g13
F7.3579631751305108
sg14
I6
sg15
I01
sg16
I6
sg17
I34
sbs(I7
I12
tp33
g1
(g10
g3
NtRp34
(dp35
g13
F-11.16042544940589
sg14
I7
sg15
I01
sg16
I12
sg17
I102
sbs(I2
I8
tp36
g1
(g10
g3
NtRp37
(dp38
g13
F0.82790815549751173
sg14
I2
sg15
I01
sg16
I8
sg17
I46
sbs(I12
I12
tp39
g1
(g10
g3
NtRp40
(dp41
g13
F5.1589714903425925
sg14
I12
sg15
I01
sg16
I12
sg17
I160
sbs(I3
I11
tp42
g1
(g10
g3
NtRp43
(dp44
g13
F-5.1622625098888983
sg14
I3
sg15
I01
sg16
I11
sg17
I98
sbs(I8
I9
tp45
g1
(g10
g3
NtRp46
(dp47
g13
F-29.963579294532096
sg14
I8
sg15
I01
sg16
I9
sg17
I61
sbs(I6
I2
tp48
g1
(g10
g3
NtRp49
(dp50
g13
F25.048294125085938
sg14
I6
sg15
I01
sg16
I2
sg17
I23
sbs(I20
I8
tp51
g1
(g10
g3
NtRp52
(dp53
g13
F2.0224338498069869
sg14
I20
sg15
I01
sg16
I8
sg17
I318
sbs(I18
I8
tp54
g1
(g10
g3
NtRp55
(dp56
g13
F16.801939653561995
sg14
I18
sg15
I01
sg16
I8
sg17
I206
sbs(I2
I5
tp57
g1
(g10
g3
NtRp58
(dp59
g13
F2.7380198494255281
sg14
I2
sg15
I01
sg16
I5
sg17
I10
sbs(I3
I17
tp60
g1
(g10
g3
NtRp61
(dp62
g13
F26.287230914773783
sg14
I3
sg15
I01
sg16
I17
sg17
I271
sbs(I3
I14
tp63
g1
(g10
g3
NtRp64
(dp65
g13
F-27.946002830962762
sg14
I3
sg15
I01
sg16
I14
sg17
I157
sbs(I1
I2
tp66
g1
(g10
g3
NtRp67
(dp68
g13
F22.866980716184781
sg14
I1
sg15
I01
sg16
I2
sg17
I1
sbs(I6
I3
tp69
g1
(g10
g3
NtRp70
(dp71
g13
F-23.38530529124121
sg14
I6
sg15
I01
sg16
I3
sg17
I37
sbs(I2
I14
tp72
g1
(g10
g3
NtRp73
(dp74
g13
F1.5204268967100674
sg14
I2
sg15
I01
sg16
I14
sg17
I129
sbs(I3
I3
tp75
g1
(g10
g3
NtRp76
(dp77
g13
F6.6835788094629063
sg14
I3
sg15
I01
sg16
I3
sg17
I6
sbs(I1
I16
tp78
g1
(g10
g3
NtRp79
(dp80
g13
F16.079850902436974
sg14
I1
sg15
I01
sg16
I16
sg17
I245
sbs(I4
I4
tp81
g1
(g10
g3
NtRp82
(dp83
g13
F14.042785858675966
sg14
I4
sg15
I01
sg16
I4
sg17
I26
sbs(I5
I12
tp84
g1
(g10
g3
NtRp85
(dp86
g13
F-13.148550210808832
sg14
I5
sg15
I01
sg16
I12
sg17
I87
sbs(I4
I13
tp87
g1
(g10
g3
NtRp88
(dp89
g13
F-9.5941095217277788
sg14
I4
sg15
I01
sg16
I13
sg17
I135
sbs(I1
I5
tp90
g1
(g10
g3
NtRp91
(dp92
g13
F2.1021914630565597
sg14
I1
sg15
I00
sg16
I5
sg17
I14
sbs(I13
I7
tp93
g1
(g10
g3
NtRp94
(dp95
g13
F22.579419101679946
sg14
I13
sg15
I01
sg16
I7
sg17
I136
sbs(I7
I2
tp96
g1
(g10
g3
NtRp97
(dp98
g13
F-23.679178764790837
sg14
I7
sg15
I01
sg16
I2
sg17
I21
sbs(I2
I2
tp99
g1
(g10
g3
NtRp100
(dp101
g13
F24.604432415947652
sg14
I2
sg15
I00
sg16
I2
sg17
I4
sbs(I1
I10
tp102
g1
(g10
g3
NtRp103
(dp104
g13
F-4.9845243465578744
sg14
I1
sg15
I01
sg16
I10
sg17
I65
sbs(I8
I6
tp105
g1
(g10
g3
NtRp106
(dp107
g13
F-30
sg14
I8
sg15
I01
sg16
I6
sg17
I51
sbs(I11
I13
tp108
g1
(g10
g3
NtRp109
(dp110
g13
F-8.0956496538220399
sg14
I11
sg15
I01
sg16
I13
sg17
I156
sbs(I3
I2
tp111
g1
(g10
g3
NtRp112
(dp113
g13
F7.0558029101327833
sg14
I3
sg15
I01
sg16
I2
sg17
I3
sbs(I2
I6
tp114
g1
(g10
g3
NtRp115
(dp116
g13
F-20.215564279087914
sg14
I2
sg15
I00
sg16
I6
sg17
I15
sbs(I12
I14
tp117
g1
(g10
g3
NtRp118
(dp119
g13
F-14.922917554130478
sg14
I12
sg15
I01
sg16
I14
sg17
I221
sbs(I9
I3
tp120
g1
(g10
g3
NtRp121
(dp122
g13
F10.17312930986823
sg14
I9
sg15
I01
sg16
I3
sg17
I95
sbs(I2
I20
tp123
g1
(g10
g3
NtRp124
(dp125
g13
F8.5802253712527268
sg14
I2
sg15
I01
sg16
I20
sg17
I300
sbs(I15
I10
tp126
g1
(g10
g3
NtRp127
(dp128
g13
F0.72624350156499551
sg14
I15
sg15
I01
sg16
I10
sg17
I189
sbs(I17
I2
tp129
g1
(g10
g3
NtRp130
(dp131
g13
F3.3599095515313682
sg14
I17
sg15
I01
sg16
I2
sg17
I239
sbs(I12
I10
tp132
g1
(g10
g3
NtRp133
(dp134
g13
F-27.788241275401095
sg14
I12
sg15
I01
sg16
I10
sg17
I103
sbs(I4
I2
tp135
g1
(g10
g3
NtRp136
(dp137
g13
F10.804499946882121
sg14
I4
sg15
I01
sg16
I2
sg17
I8
sbs(I14
I2
tp138
g1
(g10
g3
NtRp139
(dp140
g13
F3.3629530054682264
sg14
I14
sg15
I01
sg16
I2
sg17
I130
sbs(I5
I3
tp141
g1
(g10
g3
NtRp142
(dp143
g13
F3.0658839419690516
sg14
I5
sg15
I01
sg16
I3
sg17
I27
sbs(I11
I7
tp144
g1
(g10
g3
NtRp145
(dp146
g13
F-21.224616845790131
sg14
I11
sg15
I00
sg16
I7
sg17
I107
sbs(I6
I9
tp147
g1
(g10
g3
NtRp148
(dp149
g13
F21.003133460094002
sg14
I6
sg15
I01
sg16
I9
sg17
I56
sbs(I5
I10
tp150
g1
(g10
g3
NtRp151
(dp152
g13
F14.956205268760147
sg14
I5
sg15
I00
sg16
I10
sg17
I78
sbs(I16
I5
tp153
g1
(g10
g3
NtRp154
(dp155
g13
F-2.955633311330494
sg14
I16
sg15
I01
sg16
I5
sg17
I178
sbs(I9
I2
tp156
g1
(g10
g3
NtRp157
(dp158
g13
F13.791313140639646
sg14
I9
sg15
I01
sg16
I2
sg17
I59
sbs(I5
I2
tp159
g1
(g10
g3
NtRp160
(dp161
g13
F-26.490801457883553
sg14
I5
sg15
I01
sg16
I2
sg17
I11
sbs(I16
I8
tp162
g1
(g10
g3
NtRp163
(dp164
g13
F-9.5569768559845851
sg14
I16
sg15
I01
sg16
I8
sg17
I172
sbs(I14
I7
tp165
g1
(g10
g3
NtRp166
(dp167
g13
F4.1547885000013496
sg14
I14
sg15
I01
sg16
I7
sg17
I263
sbs(I11
I3
tp168
g1
(g10
g3
NtRp169
(dp170
g13
F-0.52814688388776476
sg14
I11
sg15
I01
sg16
I3
sg17
I99
sbs(I12
I19
tp171
g1
(g10
g3
NtRp172
(dp173
g13
F3.9442265748003322
sg14
I12
sg15
I01
sg16
I19
sg17
I281
sbs(I3
I8
tp174
g1
(g10
g3
NtRp175
(dp176
g13
F-16.948886988844009
sg14
I3
sg15
I00
sg16
I8
sg17
I45
sbs(I3
I18
tp177
g1
(g10
g3
NtRp178
(dp179
g13
F-10.114752148767639
sg14
I3
sg15
I01
sg16
I18
sg17
I248
sbs(I19
I12
tp180
g1
(g10
g3
NtRp181
(dp182
g13
F9.3433938749078305
sg14
I19
sg15
I01
sg16
I12
sg17
I257
sbs(I20
I6
tp183
g1
(g10
g3
NtRp184
(dp185
g13
F-9.6753826157057077
sg14
I20
sg15
I01
sg16
I6
sg17
I301
sbs(I9
I5
tp186
g1
(g10
g3
NtRp187
(dp188
g13
F8.0814260070800223
sg14
I9
sg15
I01
sg16
I5
sg17
I57
sbs(I3
I4
tp189
g1
(g10
g3
NtRp190
(dp191
g13
F8.4552283794434278
sg14
I3
sg15
I01
sg16
I4
sg17
I9
sbs(I14
I8
tp192
g1
(g10
g3
NtRp193
(dp194
g13
F-2.9955307988743813
sg14
I14
sg15
I01
sg16
I8
sg17
I132
sbs(I9
I12
tp195
g1
(g10
g3
NtRp196
(dp197
g13
F-3.8504994074792656
sg14
I9
sg15
I01
sg16
I12
sg17
I82
sbs(I10
I2
tp198
g1
(g10
g3
NtRp199
(dp200
g13
F-2.5575230619917044
sg14
I10
sg15
I01
sg16
I2
sg17
I64
sbssS'_input_nodes'
p201
I1
sS'_output_nodes'
p202
I1
sS'_node_gene_type'
p203
cneat.genome
NodeGene
p204
sS'_conn_gene_type'
p205
g10
sS'fitness'
p206
F0.93880454285566639
sS'parent2_id'
p207
I8797
sS'_id'
p208
I8819
sS'parent1_id'
p209
I8797
sS'_node_genes'
p210
(lp211
g1
(g204
g3
NtRp212
(dp213
S'_bias'
p214
I0
sS'_type'
p215
S'INPUT'
p216
sg208
I1
sS'_response'
p217
F4.9242730000000003
sS'_activation_type'
p218
Nsbag1
(g204
g3
NtRp219
(dp220
g214
F-2.1737454569695132
sg215
S'OUTPUT'
p221
sg208
I2
sg217
F2.7069370489232902
sg218
S'tanh'
p222
sbag1
(g204
g3
NtRp223
(dp224
g214
F-4.1176104248992731
sg215
S'HIDDEN'
p225
sg208
I3
sg217
F15.983979769298791
sg218
g222
sbag1
(g204
g3
NtRp226
(dp227
g214
F6.3604155009959928
sg215
g225
sg208
I4
sg217
F5.1729780473807372
sg218
g222
sbag1
(g204
g3
NtRp228
(dp229
g214
F-5.4616306476575005
sg215
g225
sg208
I5
sg217
F-7.9767387872735966
sg218
g222
sbag1
(g204
g3
NtRp230
(dp231
g214
F-5.485251843901791
sg215
g225
sg208
I6
sg217
F-0.0058780288911968598
sg218
g222
sbag1
(g204
g3
NtRp232
(dp233
g214
F3.8307380694585618
sg215
g225
sg208
I7
sg217
F6.4698382242653079
sg218
g222
sbag1
(g204
g3
NtRp234
(dp235
g214
F-5.6981697768483812
sg215
g225
sg208
I8
sg217
F10.665275950089891
sg218
g222
sbag1
(g204
g3
NtRp236
(dp237
g214
F1.0035232714700348
sg215
g225
sg208
I9
sg217
F3.0961283535141666
sg218
g222
sbag1
(g204
g3
NtRp238
(dp239
g214
F-2.1549075956529711
sg215
g225
sg208
I10
sg217
F7.3583948909606951
sg218
g222
sbag1
(g204
g3
NtRp240
(dp241
g214
F-1.5036452785650716
sg215
g225
sg208
I11
sg217
F2.1271880932046803
sg218
g222
sbag1
(g204
g3
NtRp242
(dp243
g214
F-0.77119109116491158
sg215
g225
sg208
I12
sg217
F2.2637644062778102
sg218
g222
sbag1
(g204
g3
NtRp244
(dp245
g214
F2.6436595085769246
sg215
g225
sg208
I13
sg217
F8.1795779347437136
sg218
g222
sbag1
(g204
g3
NtRp246
(dp247
g214
F-2.3246937612474312
sg215
g225
sg208
I14
sg217
F5.4968644008198115
sg218
g222
sbag1
(g204
g3
NtRp248
(dp249
g214
F4.8708745232166395
sg215
g225
sg208
I15
sg217
F8.3181810334604069
sg218
g222
sbag1
(g204
g3
NtRp250
(dp251
g214
F-2.8655872616822196
sg215
g225
sg208
I16
sg217
F5.5761178167798056
sg218
g222
sbag1
(g204
g3
NtRp252
(dp253
g214
F0.091022271484835549
sg215
g225
sg208
I17
sg217
F1.8096307596541354
sg218
g222
sbag1
(g204
g3
NtRp254
(dp255
g214
F-3.0679718448744762
sg215
g225
sg208
I18
sg217
F4.0067259240917767
sg218
g222
sbag1
(g204
g3
NtRp256
(dp257
g214
F1.8272427411838434
sg215
g225
sg208
I19
sg217
F3.0694184548880057
sg218
g222
sbag1
(g204
g3
NtRp258
(dp259
g214
F-1.1226746678304753
sg215
g225
sg208
I20
sg217
F5.6541015937910233
sg218
g222
sbasb.