ccopy_reg
_reconstructor
p1
(cneat.chromosome
Chromosome
p2
c__builtin__
object
p3
NtRp4
(dp5
S'species_id'
p6
I61
sS'_connection_genes'
p7
(dp8
(I7
I8
tp9
g1
(cneat.genome
ConnectionGene
p10
g3
NtRp11
(dp12
S'_ConnectionGene__weight'
p13
F12.358128017903336
sS'_ConnectionGene__in'
p14
I7
sS'_ConnectionGene__enabled'
p15
I01
sS'_ConnectionGene__out'
p16
I8
sS'_ConnectionGene__innov_number'
p17
I52
sbs(I4
I7
tp18
g1
(g10
g3
NtRp19
(dp20
g13
F-0.97946041066027356
sg14
I4
sg15
I01
sg16
I7
sg17
I29
sbs(I1
I3
tp21
g1
(g10
g3
NtRp22
(dp23
g13
F5.208549895368658
sg14
I1
sg15
I01
sg16
I3
sg17
I2
sbs(I8
I13
tp24
g1
(g10
g3
NtRp25
(dp26
g13
F-6.8480393810352975
sg14
I8
sg15
I01
sg16
I13
sg17
I124
sbs(I6
I6
tp27
g1
(g10
g3
NtRp28
(dp29
g13
F3.9351397433615536
sg14
I6
sg15
I01
sg16
I6
sg17
I34
sbs(I7
I12
tp30
g1
(g10
g3
NtRp31
(dp32
g13
F-12.11043005685897
sg14
I7
sg15
I01
sg16
I12
sg17
I102
sbs(I2
I8
tp33
g1
(g10
g3
NtRp34
(dp35
g13
F0.34909266027967212
sg14
I2
sg15
I01
sg16
I8
sg17
I46
sbs(I12
I12
tp36
g1
(g10
g3
NtRp37
(dp38
g13
F19.263943159890168
sg14
I12
sg15
I00
sg16
I12
sg17
I160
sbs(I3
I11
tp39
g1
(g10
g3
NtRp40
(dp41
g13
F-21.928842078258988
sg14
I3
sg15
I01
sg16
I11
sg17
I98
sbs(I8
I9
tp42
g1
(g10
g3
NtRp43
(dp44
g13
F-13.906979731675767
sg14
I8
sg15
I01
sg16
I9
sg17
I61
sbs(I6
I2
tp45
g1
(g10
g3
NtRp46
(dp47
g13
F18.657618855883161
sg14
I6
sg15
I01
sg16
I2
sg17
I23
sbs(I18
I8
tp48
g1
(g10
g3
NtRp49
(dp50
g13
F-9.6322313634073922
sg14
I18
sg15
I01
sg16
I8
sg17
I206
sbs(I2
I5
tp51
g1
(g10
g3
NtRp52
(dp53
g13
F-19.553564788398361
sg14
I2
sg15
I01
sg16
I5
sg17
I10
sbs(I3
I17
tp54
g1
(g10
g3
NtRp55
(dp56
g13
F20.281702454865798
sg14
I3
sg15
I01
sg16
I17
sg17
I271
sbs(I3
I14
tp57
g1
(g10
g3
NtRp58
(dp59
g13
F-2.6442819081910076
sg14
I3
sg15
I01
sg16
I14
sg17
I157
sbs(I1
I2
tp60
g1
(g10
g3
NtRp61
(dp62
g13
F18.771674536483346
sg14
I1
sg15
I01
sg16
I2
sg17
I1
sbs(I17
I2
tp63
g1
(g10
g3
NtRp64
(dp65
g13
F-1.3602917791137052
sg14
I17
sg15
I01
sg16
I2
sg17
I239
sbs(I2
I14
tp66
g1
(g10
g3
NtRp67
(dp68
g13
F11.796876812290796
sg14
I2
sg15
I01
sg16
I14
sg17
I129
sbs(I3
I3
tp69
g1
(g10
g3
NtRp70
(dp71
g13
F19.496853331218919
sg14
I3
sg15
I01
sg16
I3
sg17
I6
sbs(I1
I16
tp72
g1
(g10
g3
NtRp73
(dp74
g13
F-3.7183564732605237
sg14
I1
sg15
I01
sg16
I16
sg17
I245
sbs(I4
I4
tp75
g1
(g10
g3
NtRp76
(dp77
g13
F4.3991336664387513
sg14
I4
sg15
I01
sg16
I4
sg17
I26
sbs(I3
I20
tp78
g1
(g10
g3
NtRp79
(dp80
g13
F-8.9094132676441191
sg14
I3
sg15
I01
sg16
I20
sg17
I291
sbs(I5
I12
tp81
g1
(g10
g3
NtRp82
(dp83
g13
F-17.059477314683338
sg14
I5
sg15
I01
sg16
I12
sg17
I87
sbs(I6
I3
tp84
g1
(g10
g3
NtRp85
(dp86
g13
F-27.500480423771755
sg14
I6
sg15
I01
sg16
I3
sg17
I37
sbs(I1
I5
tp87
g1
(g10
g3
NtRp88
(dp89
g13
F4.7901010034441924
sg14
I1
sg15
I00
sg16
I5
sg17
I14
sbs(I13
I7
tp90
g1
(g10
g3
NtRp91
(dp92
g13
F-7.4318681463366953
sg14
I13
sg15
I01
sg16
I7
sg17
I136
sbs(I7
I2
tp93
g1
(g10
g3
NtRp94
(dp95
g13
F-27.353374343823653
sg14
I7
sg15
I01
sg16
I2
sg17
I21
sbs(I2
I2
tp96
g1
(g10
g3
NtRp97
(dp98
g13
F26.850588024537981
sg14
I2
sg15
I00
sg16
I2
sg17
I4
sbs(I1
I10
tp99
g1
(g10
g3
NtRp100
(dp101
g13
F7.2229864855888684
sg14
I1
sg15
I01
sg16
I10
sg17
I65
sbs(I8
I6
tp102
g1
(g10
g3
NtRp103
(dp104
g13
F-21.476452083038158
sg14
I8
sg15
I01
sg16
I6
sg17
I51
sbs(I11
I13
tp105
g1
(g10
g3
NtRp106
(dp107
g13
F-15.230482006861582
sg14
I11
sg15
I01
sg16
I13
sg17
I156
sbs(I3
I2
tp108
g1
(g10
g3
NtRp109
(dp110
g13
F18.74798958388913
sg14
I3
sg15
I01
sg16
I2
sg17
I3
sbs(I2
I6
tp111
g1
(g10
g3
NtRp112
(dp113
g13
F-26.832416903062846
sg14
I2
sg15
I01
sg16
I6
sg17
I15
sbs(I12
I14
tp114
g1
(g10
g3
NtRp115
(dp116
g13
F8.9251093091805984
sg14
I12
sg15
I01
sg16
I14
sg17
I221
sbs(I9
I3
tp117
g1
(g10
g3
NtRp118
(dp119
g13
F4.2537725288819184
sg14
I9
sg15
I01
sg16
I3
sg17
I95
sbs(I12
I15
tp120
g1
(g10
g3
NtRp121
(dp122
g13
F-0.75986463673334792
sg14
I12
sg15
I01
sg16
I15
sg17
I217
sbs(I15
I10
tp123
g1
(g10
g3
NtRp124
(dp125
g13
F-10.647990423835045
sg14
I15
sg15
I01
sg16
I10
sg17
I189
sbs(I12
I10
tp126
g1
(g10
g3
NtRp127
(dp128
g13
F-21.108865533633274
sg14
I12
sg15
I01
sg16
I10
sg17
I103
sbs(I4
I2
tp129
g1
(g10
g3
NtRp130
(dp131
g13
F11.768554208119738
sg14
I4
sg15
I01
sg16
I2
sg17
I8
sbs(I14
I2
tp132
g1
(g10
g3
NtRp133
(dp134
g13
F20.010476240198873
sg14
I14
sg15
I01
sg16
I2
sg17
I130
sbs(I20
I14
tp135
g1
(g10
g3
NtRp136
(dp137
g13
F0.24103537755632787
sg14
I20
sg15
I01
sg16
I14
sg17
I297
sbs(I5
I3
tp138
g1
(g10
g3
NtRp139
(dp140
g13
F-6.1663843962494509
sg14
I5
sg15
I01
sg16
I3
sg17
I27
sbs(I11
I7
tp141
g1
(g10
g3
NtRp142
(dp143
g13
F-22.237651927408599
sg14
I11
sg15
I01
sg16
I7
sg17
I107
sbs(I6
I9
tp144
g1
(g10
g3
NtRp145
(dp146
g13
F30
sg14
I6
sg15
I01
sg16
I9
sg17
I56
sbs(I5
I10
tp147
g1
(g10
g3
NtRp148
(dp149
g13
F29.670029948705462
sg14
I5
sg15
I01
sg16
I10
sg17
I78
sbs(I16
I5
tp150
g1
(g10
g3
NtRp151
(dp152
g13
F-6.5319800998847111
sg14
I16
sg15
I01
sg16
I5
sg17
I178
sbs(I9
I2
tp153
g1
(g10
g3
NtRp154
(dp155
g13
F25.011072187818485
sg14
I9
sg15
I01
sg16
I2
sg17
I59
sbs(I5
I2
tp156
g1
(g10
g3
NtRp157
(dp158
g13
F-25.846426476059431
sg14
I5
sg15
I01
sg16
I2
sg17
I11
sbs(I16
I8
tp159
g1
(g10
g3
NtRp160
(dp161
g13
F-13.24340351634274
sg14
I16
sg15
I01
sg16
I8
sg17
I172
sbs(I14
I7
tp162
g1
(g10
g3
NtRp163
(dp164
g13
F-11.967992486396948
sg14
I14
sg15
I01
sg16
I7
sg17
I263
sbs(I11
I3
tp165
g1
(g10
g3
NtRp166
(dp167
g13
F2.27365405717938
sg14
I11
sg15
I01
sg16
I3
sg17
I99
sbs(I12
I19
tp168
g1
(g10
g3
NtRp169
(dp170
g13
F-6.3374322851895695
sg14
I12
sg15
I01
sg16
I19
sg17
I281
sbs(I3
I8
tp171
g1
(g10
g3
NtRp172
(dp173
g13
F-9.8066486783418334
sg14
I3
sg15
I00
sg16
I8
sg17
I45
sbs(I3
I18
tp174
g1
(g10
g3
NtRp175
(dp176
g13
F-2.3639128554247044
sg14
I3
sg15
I01
sg16
I18
sg17
I248
sbs(I19
I12
tp177
g1
(g10
g3
NtRp178
(dp179
g13
F14.761987695841244
sg14
I19
sg15
I01
sg16
I12
sg17
I257
sbs(I9
I5
tp180
g1
(g10
g3
NtRp181
(dp182
g13
F1.6142811256154266
sg14
I9
sg15
I01
sg16
I5
sg17
I57
sbs(I3
I4
tp183
g1
(g10
g3
NtRp184
(dp185
g13
F11.005762435226321
sg14
I3
sg15
I01
sg16
I4
sg17
I9
sbs(I14
I8
tp186
g1
(g10
g3
NtRp187
(dp188
g13
F12.3728055915758
sg14
I14
sg15
I01
sg16
I8
sg17
I132
sbs(I9
I12
tp189
g1
(g10
g3
NtRp190
(dp191
g13
F-12.962751663086099
sg14
I9
sg15
I01
sg16
I12
sg17
I82
sbs(I10
I2
tp192
g1
(g10
g3
NtRp193
(dp194
g13
F-22.236565043633949
sg14
I10
sg15
I01
sg16
I2
sg17
I64
sbssS'_input_nodes'
p195
I1
sS'_output_nodes'
p196
I1
sS'_node_gene_type'
p197
cneat.genome
NodeGene
p198
sS'_conn_gene_type'
p199
g10
sS'fitness'
p200
F0.90071618400162567
sS'parent2_id'
p201
I8140
sS'_id'
p202
I8193
sS'parent1_id'
p203
I8158
sS'_node_genes'
p204
(lp205
g1
(g198
g3
NtRp206
(dp207
S'_bias'
p208
I0
sS'_type'
p209
S'INPUT'
p210
sg202
I1
sS'_response'
p211
F4.9242730000000003
sS'_activation_type'
p212
Nsbag1
(g198
g3
NtRp213
(dp214
g208
F1.6751084679776607
sg209
S'OUTPUT'
p215
sg202
I2
sg211
F6.2392409278009247
sg212
S'tanh'
p216
sbag1
(g198
g3
NtRp217
(dp218
g208
F-2.5045450948239374
sg209
S'HIDDEN'
p219
sg202
I3
sg211
F16.727590711544362
sg212
g216
sbag1
(g198
g3
NtRp220
(dp221
g208
F5.9947231266986476
sg209
g219
sg202
I4
sg211
F4.6697523867876249
sg212
g216
sbag1
(g198
g3
NtRp222
(dp223
g208
F-4.4902924473301304
sg209
g219
sg202
I5
sg211
F-7.6373292000570316
sg212
g216
sbag1
(g198
g3
NtRp224
(dp225
g208
F-4.3389498827971718
sg209
g219
sg202
I6
sg211
F-0.26536074928641551
sg212
g216
sbag1
(g198
g3
NtRp226
(dp227
g208
F6.0937851099237701
sg209
g219
sg202
I7
sg211
F6.4300265355115203
sg212
g216
sbag1
(g198
g3
NtRp228
(dp229
g208
F-4.1726638665555598
sg209
g219
sg202
I8
sg211
F10.136502075217541
sg212
g216
sbag1
(g198
g3
NtRp230
(dp231
g208
F1.3365696182543414
sg209
g219
sg202
I9
sg211
F4.8782999325404965
sg212
g216
sbag1
(g198
g3
NtRp232
(dp233
g208
F1.3208797161224228
sg209
g219
sg202
I10
sg211
F3.3544319894995391
sg212
g216
sbag1
(g198
g3
NtRp234
(dp235
g208
F-0.47505332354660357
sg209
g219
sg202
I11
sg211
F0.71801554945565782
sg212
g216
sbag1
(g198
g3
NtRp236
(dp237
g208
F3.0959801570347985
sg209
g219
sg202
I12
sg211
F5.0949048506805532
sg212
g216
sbag1
(g198
g3
NtRp238
(dp239
g208
F1.1537652596492365
sg209
g219
sg202
I13
sg211
F6.0836314646163903
sg212
g216
sbag1
(g198
g3
NtRp240
(dp241
g208
F-0.87569741834354131
sg209
g219
sg202
I14
sg211
F4.3373877393670162
sg212
g216
sbag1
(g198
g3
NtRp242
(dp243
g208
F1.7315060004227496
sg209
g219
sg202
I15
sg211
F4.3707581985844124
sg212
g216
sbag1
(g198
g3
NtRp244
(dp245
g208
F-4.4216047079954262
sg209
g219
sg202
I16
sg211
F5.8746451434945115
sg212
g216
sbag1
(g198
g3
NtRp246
(dp247
g208
F-0.32109711155259124
sg209
g219
sg202
I17
sg211
F3.2356010539200488
sg212
g216
sbag1
(g198
g3
NtRp248
(dp249
g208
F4.1144792695880508
sg209
g219
sg202
I18
sg211
F7.684764541612509
sg212
g216
sbag1
(g198
g3
NtRp250
(dp251
g208
F1.3170043872076842
sg209
g219
sg202
I19
sg211
F4.9242730000000003
sg212
g216
sbag1
(g198
g3
NtRp252
(dp253
g208
F0.29107767582012389
sg209
g219
sg202
I20
sg211
F6.1618082616729515
sg212
g216
sbasb.