ccopy_reg
_reconstructor
p1
(cneat.chromosome
Chromosome
p2
c__builtin__
object
p3
NtRp4
(dp5
S'species_id'
p6
I50
sS'_connection_genes'
p7
(dp8
(I4
I7
tp9
g1
(cneat.genome
ConnectionGene
p10
g3
NtRp11
(dp12
S'_ConnectionGene__weight'
p13
F-7.7202023182830555
sS'_ConnectionGene__in'
p14
I4
sS'_ConnectionGene__enabled'
p15
I01
sS'_ConnectionGene__out'
p16
I7
sS'_ConnectionGene__innov_number'
p17
I29
sbs(I1
I3
tp18
g1
(g10
g3
NtRp19
(dp20
g13
F12.939766330114267
sg14
I1
sg15
I01
sg16
I3
sg17
I2
sbs(I6
I6
tp21
g1
(g10
g3
NtRp22
(dp23
g13
F10.831194841891431
sg14
I6
sg15
I01
sg16
I6
sg17
I34
sbs(I7
I12
tp24
g1
(g10
g3
NtRp25
(dp26
g13
F-10.034716594016233
sg14
I7
sg15
I01
sg16
I12
sg17
I102
sbs(I2
I8
tp27
g1
(g10
g3
NtRp28
(dp29
g13
F-21.216318413328182
sg14
I2
sg15
I01
sg16
I8
sg17
I46
sbs(I12
I12
tp30
g1
(g10
g3
NtRp31
(dp32
g13
F14.782427686558908
sg14
I12
sg15
I01
sg16
I12
sg17
I160
sbs(I3
I11
tp33
g1
(g10
g3
NtRp34
(dp35
g13
F-8.0016267369705965
sg14
I3
sg15
I01
sg16
I11
sg17
I98
sbs(I8
I9
tp36
g1
(g10
g3
NtRp37
(dp38
g13
F-26.251802234320042
sg14
I8
sg15
I01
sg16
I9
sg17
I61
sbs(I6
I2
tp39
g1
(g10
g3
NtRp40
(dp41
g13
F5.8190280816569269
sg14
I6
sg15
I01
sg16
I2
sg17
I23
sbs(I12
I16
tp42
g1
(g10
g3
NtRp43
(dp44
g13
F0.98209278456084714
sg14
I12
sg15
I01
sg16
I16
sg17
I233
sbs(I2
I5
tp45
g1
(g10
g3
NtRp46
(dp47
g13
F-16.508642510804826
sg14
I2
sg15
I01
sg16
I5
sg17
I10
sbs(I6
I9
tp48
g1
(g10
g3
NtRp49
(dp50
g13
F7.3271943539135842
sg14
I6
sg15
I01
sg16
I9
sg17
I56
sbs(I7
I2
tp51
g1
(g10
g3
NtRp52
(dp53
g13
F-29.962472327333241
sg14
I7
sg15
I01
sg16
I2
sg17
I21
sbs(I1
I2
tp54
g1
(g10
g3
NtRp55
(dp56
g13
F-4.816381508614926
sg14
I1
sg15
I01
sg16
I2
sg17
I1
sbs(I14
I2
tp57
g1
(g10
g3
NtRp58
(dp59
g13
F11.928381339326634
sg14
I14
sg15
I01
sg16
I2
sg17
I130
sbs(I3
I3
tp60
g1
(g10
g3
NtRp61
(dp62
g13
F-4.2328629952594587
sg14
I3
sg15
I01
sg16
I3
sg17
I6
sbs(I5
I12
tp63
g1
(g10
g3
NtRp64
(dp65
g13
F-1.179217075821517
sg14
I5
sg15
I01
sg16
I12
sg17
I87
sbs(I3
I4
tp66
g1
(g10
g3
NtRp67
(dp68
g13
F-6.1989483146449142
sg14
I3
sg15
I01
sg16
I4
sg17
I9
sbs(I6
I3
tp69
g1
(g10
g3
NtRp70
(dp71
g13
F-24.630676570335176
sg14
I6
sg15
I01
sg16
I3
sg17
I37
sbs(I1
I5
tp72
g1
(g10
g3
NtRp73
(dp74
g13
F-2.5169637966351495
sg14
I1
sg15
I01
sg16
I5
sg17
I14
sbs(I13
I7
tp75
g1
(g10
g3
NtRp76
(dp77
g13
F2.8651057316656106
sg14
I13
sg15
I01
sg16
I7
sg17
I136
sbs(I3
I14
tp78
g1
(g10
g3
NtRp79
(dp80
g13
F-11.403985594001437
sg14
I3
sg15
I01
sg16
I14
sg17
I157
sbs(I2
I2
tp81
g1
(g10
g3
NtRp82
(dp83
g13
F8.6816242756268363
sg14
I2
sg15
I01
sg16
I2
sg17
I4
sbs(I1
I10
tp84
g1
(g10
g3
NtRp85
(dp86
g13
F1.2895180078178938
sg14
I1
sg15
I01
sg16
I10
sg17
I65
sbs(I8
I6
tp87
g1
(g10
g3
NtRp88
(dp89
g13
F-23.629989950189792
sg14
I8
sg15
I01
sg16
I6
sg17
I51
sbs(I11
I13
tp90
g1
(g10
g3
NtRp91
(dp92
g13
F-24.111416414721226
sg14
I11
sg15
I01
sg16
I13
sg17
I156
sbs(I3
I2
tp93
g1
(g10
g3
NtRp94
(dp95
g13
F-1.2070428038765582
sg14
I3
sg15
I00
sg16
I2
sg17
I3
sbs(I2
I6
tp96
g1
(g10
g3
NtRp97
(dp98
g13
F-28.252948140370055
sg14
I2
sg15
I01
sg16
I6
sg17
I15
sbs(I9
I17
tp99
g1
(g10
g3
NtRp100
(dp101
g13
F6.1036538117118582
sg14
I9
sg15
I01
sg16
I17
sg17
I236
sbs(I9
I3
tp102
g1
(g10
g3
NtRp103
(dp104
g13
F9.6516519836185619
sg14
I9
sg15
I00
sg16
I3
sg17
I95
sbs(I15
I10
tp105
g1
(g10
g3
NtRp106
(dp107
g13
F-15.039876245041878
sg14
I15
sg15
I01
sg16
I10
sg17
I189
sbs(I3
I9
tp108
g1
(g10
g3
NtRp109
(dp110
g13
F-1.3083459034019627
sg14
I3
sg15
I01
sg16
I9
sg17
I54
sbs(I12
I10
tp111
g1
(g10
g3
NtRp112
(dp113
g13
F-30
sg14
I12
sg15
I00
sg16
I10
sg17
I103
sbs(I4
I2
tp114
g1
(g10
g3
NtRp115
(dp116
g13
F-2.7018601940480167
sg14
I4
sg15
I01
sg16
I2
sg17
I8
sbs(I2
I14
tp117
g1
(g10
g3
NtRp118
(dp119
g13
F8.7657895834564457
sg14
I2
sg15
I01
sg16
I14
sg17
I129
sbs(I16
I10
tp120
g1
(g10
g3
NtRp121
(dp122
g13
F-27.327829342108966
sg14
I16
sg15
I01
sg16
I10
sg17
I225
sbs(I11
I7
tp123
g1
(g10
g3
NtRp124
(dp125
g13
F-20.098474382081122
sg14
I11
sg15
I00
sg16
I7
sg17
I107
sbs(I12
I15
tp126
g1
(g10
g3
NtRp127
(dp128
g13
F8.8048966993123265
sg14
I12
sg15
I01
sg16
I15
sg17
I217
sbs(I5
I10
tp129
g1
(g10
g3
NtRp130
(dp131
g13
F6.9995235870783112
sg14
I5
sg15
I00
sg16
I10
sg17
I78
sbs(I9
I2
tp132
g1
(g10
g3
NtRp133
(dp134
g13
F29.531088924453236
sg14
I9
sg15
I01
sg16
I2
sg17
I59
sbs(I5
I2
tp135
g1
(g10
g3
NtRp136
(dp137
g13
F-28.362427736803216
sg14
I5
sg15
I01
sg16
I2
sg17
I11
sbs(I11
I3
tp138
g1
(g10
g3
NtRp139
(dp140
g13
F-8.0517934161010061
sg14
I11
sg15
I01
sg16
I3
sg17
I99
sbs(I3
I8
tp141
g1
(g10
g3
NtRp142
(dp143
g13
F4.3042853895560054
sg14
I3
sg15
I01
sg16
I8
sg17
I45
sbs(I17
I3
tp144
g1
(g10
g3
NtRp145
(dp146
g13
F18.40444893173262
sg14
I17
sg15
I01
sg16
I3
sg17
I237
sbs(I9
I5
tp147
g1
(g10
g3
NtRp148
(dp149
g13
F4.159040414114493
sg14
I9
sg15
I01
sg16
I5
sg17
I57
sbs(I7
I8
tp150
g1
(g10
g3
NtRp151
(dp152
g13
F6.0998388867510442
sg14
I7
sg15
I01
sg16
I8
sg17
I52
sbs(I9
I12
tp153
g1
(g10
g3
NtRp154
(dp155
g13
F-2.5000897736615828
sg14
I9
sg15
I01
sg16
I12
sg17
I82
sbs(I10
I2
tp156
g1
(g10
g3
NtRp157
(dp158
g13
F-10.443223379477478
sg14
I10
sg15
I01
sg16
I2
sg17
I64
sbssS'_input_nodes'
p159
I1
sS'_output_nodes'
p160
I1
sS'_node_gene_type'
p161
cneat.genome
NodeGene
p162
sS'_conn_gene_type'
p163
g10
sS'fitness'
p164
F0.98651025628279554
sS'parent2_id'
p165
I6354
sS'_id'
p166
I6385
sS'parent1_id'
p167
I6354
sS'_node_genes'
p168
(lp169
g1
(g162
g3
NtRp170
(dp171
S'_bias'
p172
I0
sS'_type'
p173
S'INPUT'
p174
sg166
I1
sS'_response'
p175
F4.9242730000000003
sS'_activation_type'
p176
Nsbag1
(g162
g3
NtRp177
(dp178
g172
F0.49996364453376463
sg173
S'OUTPUT'
p179
sg166
I2
sg175
F4.8258864274215716
sg176
S'tanh'
p180
sbag1
(g162
g3
NtRp181
(dp182
g172
F-3.3007556637844364
sg173
S'HIDDEN'
p183
sg166
I3
sg175
F14.398750064233015
sg176
g180
sbag1
(g162
g3
NtRp184
(dp185
g172
F5.1768881769924482
sg173
g183
sg166
I4
sg175
F4.5986407779834595
sg176
g180
sbag1
(g162
g3
NtRp186
(dp187
g172
F-0.78760325852708157
sg173
g183
sg166
I5
sg175
F-7.9039601836691045
sg176
g180
sbag1
(g162
g3
NtRp188
(dp189
g172
F-1.7950410042049554
sg173
g183
sg166
I6
sg175
F1.5720045198631427
sg176
g180
sbag1
(g162
g3
NtRp190
(dp191
g172
F3.2540197231968682
sg173
g183
sg166
I7
sg175
F6.4699847144256575
sg176
g180
sbag1
(g162
g3
NtRp192
(dp193
g172
F-4.3534679403363175
sg173
g183
sg166
I8
sg175
F7.6351674342932041
sg176
g180
sbag1
(g162
g3
NtRp194
(dp195
g172
F1.8758974523316689
sg173
g183
sg166
I9
sg175
F2.4661752984641665
sg176
g180
sbag1
(g162
g3
NtRp196
(dp197
g172
F0.34716821844799167
sg173
g183
sg166
I10
sg175
F7.4728887449642976
sg176
g180
sbag1
(g162
g3
NtRp198
(dp199
g172
F0.012664540349310083
sg173
g183
sg166
I11
sg175
F3.8389524528315122
sg176
g180
sbag1
(g162
g3
NtRp200
(dp201
g172
F1.8426406677554019
sg173
g183
sg166
I12
sg175
F6.5003983724443879
sg176
g180
sbag1
(g162
g3
NtRp202
(dp203
g172
F1.3407375263049282
sg173
g183
sg166
I13
sg175
F8.4062078340023429
sg176
g180
sbag1
(g162
g3
NtRp204
(dp205
g172
F-2.5410246163151555
sg173
g183
sg166
I14
sg175
F3.8940256835271185
sg176
g180
sbag1
(g162
g3
NtRp206
(dp207
g172
F0.61842441347938526
sg173
g183
sg166
I15
sg175
F4.3864623787223698
sg176
g180
sbag1
(g162
g3
NtRp208
(dp209
g172
I0
sg173
g183
sg166
I16
sg175
F5.0108148471144283
sg176
g180
sbag1
(g162
g3
NtRp210
(dp211
g172
F-0.079655825400714544
sg173
g183
sg166
I17
sg175
F6.0367932794947707
sg176
g180
sbasb.