ccopy_reg
_reconstructor
p1
(cneat.chromosome
Chromosome
p2
c__builtin__
object
p3
NtRp4
(dp5
S'species_id'
p6
I31
sS'_connection_genes'
p7
(dp8
(I7
I8
tp9
g1
(cneat.genome
ConnectionGene
p10
g3
NtRp11
(dp12
S'_ConnectionGene__weight'
p13
F-10.912419370559137
sS'_ConnectionGene__in'
p14
I7
sS'_ConnectionGene__enabled'
p15
I01
sS'_ConnectionGene__out'
p16
I8
sS'_ConnectionGene__innov_number'
p17
I52
sbs(I4
I7
tp18
g1
(g10
g3
NtRp19
(dp20
g13
F-16.190309366806041
sg14
I4
sg15
I01
sg16
I7
sg17
I29
sbs(I1
I3
tp21
g1
(g10
g3
NtRp22
(dp23
g13
F1.5053849138437287
sg14
I1
sg15
I01
sg16
I3
sg17
I2
sbs(I2
I8
tp24
g1
(g10
g3
NtRp25
(dp26
g13
F-17.896746976960749
sg14
I2
sg15
I01
sg16
I8
sg17
I46
sbs(I3
I11
tp27
g1
(g10
g3
NtRp28
(dp29
g13
F4.5549465604871724
sg14
I3
sg15
I01
sg16
I11
sg17
I98
sbs(I8
I9
tp30
g1
(g10
g3
NtRp31
(dp32
g13
F-1.3128061027803137
sg14
I8
sg15
I01
sg16
I9
sg17
I61
sbs(I6
I2
tp33
g1
(g10
g3
NtRp34
(dp35
g13
F10.342203679122148
sg14
I6
sg15
I00
sg16
I2
sg17
I23
sbs(I2
I5
tp36
g1
(g10
g3
NtRp37
(dp38
g13
F-1.4237404141486483
sg14
I2
sg15
I01
sg16
I5
sg17
I10
sbs(I7
I2
tp39
g1
(g10
g3
NtRp40
(dp41
g13
F-2.085291744668643
sg14
I7
sg15
I01
sg16
I2
sg17
I21
sbs(I1
I2
tp42
g1
(g10
g3
NtRp43
(dp44
g13
F-24.731481288522268
sg14
I1
sg15
I01
sg16
I2
sg17
I1
sbs(I3
I3
tp45
g1
(g10
g3
NtRp46
(dp47
g13
F0.75509343626323155
sg14
I3
sg15
I01
sg16
I3
sg17
I6
sbs(I5
I12
tp48
g1
(g10
g3
NtRp49
(dp50
g13
F-0.62546420044071893
sg14
I5
sg15
I01
sg16
I12
sg17
I87
sbs(I1
I5
tp51
g1
(g10
g3
NtRp52
(dp53
g13
F4.2882593130071616
sg14
I1
sg15
I01
sg16
I5
sg17
I14
sbs(I2
I2
tp54
g1
(g10
g3
NtRp55
(dp56
g13
F-8.0688212948335547
sg14
I2
sg15
I01
sg16
I2
sg17
I4
sbs(I1
I10
tp57
g1
(g10
g3
NtRp58
(dp59
g13
F-0.30774329494205993
sg14
I1
sg15
I01
sg16
I10
sg17
I65
sbs(I8
I6
tp60
g1
(g10
g3
NtRp61
(dp62
g13
F-4.4898108833084773
sg14
I8
sg15
I00
sg16
I6
sg17
I51
sbs(I3
I2
tp63
g1
(g10
g3
NtRp64
(dp65
g13
F14.054191549553071
sg14
I3
sg15
I00
sg16
I2
sg17
I3
sbs(I2
I6
tp66
g1
(g10
g3
NtRp67
(dp68
g13
F-20.124871712870263
sg14
I2
sg15
I01
sg16
I6
sg17
I15
sbs(I12
I10
tp69
g1
(g10
g3
NtRp70
(dp71
g13
F-10.858685511703444
sg14
I12
sg15
I01
sg16
I10
sg17
I103
sbs(I4
I2
tp72
g1
(g10
g3
NtRp73
(dp74
g13
F-12.894228424606874
sg14
I4
sg15
I01
sg16
I2
sg17
I8
sbs(I6
I9
tp75
g1
(g10
g3
NtRp76
(dp77
g13
F-2.4356115831787362
sg14
I6
sg15
I01
sg16
I9
sg17
I56
sbs(I5
I10
tp78
g1
(g10
g3
NtRp79
(dp80
g13
F1.107811678252224
sg14
I5
sg15
I00
sg16
I10
sg17
I78
sbs(I9
I2
tp81
g1
(g10
g3
NtRp82
(dp83
g13
F27.532486703438565
sg14
I9
sg15
I01
sg16
I2
sg17
I59
sbs(I5
I2
tp84
g1
(g10
g3
NtRp85
(dp86
g13
F-2.8689940573601946
sg14
I5
sg15
I01
sg16
I2
sg17
I11
sbs(I11
I3
tp87
g1
(g10
g3
NtRp88
(dp89
g13
F-3.1860363874159328
sg14
I11
sg15
I01
sg16
I3
sg17
I99
sbs(I9
I5
tp90
g1
(g10
g3
NtRp91
(dp92
g13
F-2.010488297159688
sg14
I9
sg15
I01
sg16
I5
sg17
I57
sbs(I3
I4
tp93
g1
(g10
g3
NtRp94
(dp95
g13
F15.310194771580045
sg14
I3
sg15
I01
sg16
I4
sg17
I9
sbs(I10
I2
tp96
g1
(g10
g3
NtRp97
(dp98
g13
F10.748081955885089
sg14
I10
sg15
I01
sg16
I2
sg17
I64
sbssS'_input_nodes'
p99
I1
sS'_output_nodes'
p100
I1
sS'_node_gene_type'
p101
cneat.genome
NodeGene
p102
sS'_conn_gene_type'
p103
g10
sS'fitness'
p104
F0.99278351109640339
sS'parent2_id'
p105
I3198
sS'_id'
p106
I3222
sS'parent1_id'
p107
I3198
sS'_node_genes'
p108
(lp109
g1
(g102
g3
NtRp110
(dp111
S'_bias'
p112
I0
sS'_type'
p113
S'INPUT'
p114
sg106
I1
sS'_response'
p115
F4.9242730000000003
sS'_activation_type'
p116
Nsbag1
(g102
g3
NtRp117
(dp118
g112
F1.0672975250366337
sg113
S'OUTPUT'
p119
sg106
I2
sg115
F3.0456787683862223
sg116
S'tanh'
p120
sbag1
(g102
g3
NtRp121
(dp122
g112
F-0.66148434666500355
sg113
S'HIDDEN'
p123
sg106
I3
sg115
F6.659447357635953
sg116
g120
sbag1
(g102
g3
NtRp124
(dp125
g112
F5.4360252004972605
sg113
g123
sg106
I4
sg115
F2.9164027553627756
sg116
g120
sbag1
(g102
g3
NtRp126
(dp127
g112
F-0.092886408585965585
sg113
g123
sg106
I5
sg115
F1.4832084465453326
sg116
g120
sbag1
(g102
g3
NtRp128
(dp129
g112
F0.36245555857790906
sg113
g123
sg106
I6
sg115
F-0.14920346229141479
sg116
g120
sbag1
(g102
g3
NtRp130
(dp131
g112
F0.29404981588409795
sg113
g123
sg106
I7
sg115
F5.4631014680509509
sg116
g120
sbag1
(g102
g3
NtRp132
(dp133
g112
F-3.3593447367222362
sg113
g123
sg106
I8
sg115
F4.2741326186249964
sg116
g120
sbag1
(g102
g3
NtRp134
(dp135
g112
F0.51377992752777168
sg113
g123
sg106
I9
sg115
F4.3494744060609065
sg116
g120
sbag1
(g102
g3
NtRp136
(dp137
g112
F-0.19439738191309486
sg113
g123
sg106
I10
sg115
F5.6594398517419311
sg116
g120
sbag1
(g102
g3
NtRp138
(dp139
g112
F0.30268954359962086
sg113
g123
sg106
I11
sg115
F5.1133200171144537
sg116
g120
sbag1
(g102
g3
NtRp140
(dp141
g112
F-0.22044341976463724
sg113
g123
sg106
I12
sg115
F5.5008338019641547
sg116
g120
sbasb.