ccopy_reg
_reconstructor
p1
(cneat.chromosome
Chromosome
p2
c__builtin__
object
p3
NtRp4
(dp5
S'species_id'
p6
I26
sS'_connection_genes'
p7
(dp8
(I1
I2
tp9
g1
(cneat.genome
ConnectionGene
p10
g3
NtRp11
(dp12
S'_ConnectionGene__weight'
p13
F-12.727627242476416
sS'_ConnectionGene__in'
p14
I1
sS'_ConnectionGene__enabled'
p15
I01
sS'_ConnectionGene__out'
p16
I2
sS'_ConnectionGene__innov_number'
p17
I1
sbs(I8
I6
tp18
g1
(g10
g3
NtRp19
(dp20
g13
F2.2943767679592457
sg14
I8
sg15
I01
sg16
I6
sg17
I51
sbs(I3
I2
tp21
g1
(g10
g3
NtRp22
(dp23
g13
F15.606099852751072
sg14
I3
sg15
I00
sg16
I2
sg17
I3
sbs(I1
I3
tp24
g1
(g10
g3
NtRp25
(dp26
g13
F5.5566745453363033
sg14
I1
sg15
I01
sg16
I3
sg17
I2
sbs(I3
I3
tp27
g1
(g10
g3
NtRp28
(dp29
g13
F-11.656695620081662
sg14
I3
sg15
I01
sg16
I3
sg17
I6
sbs(I9
I2
tp30
g1
(g10
g3
NtRp31
(dp32
g13
F15.227768088680481
sg14
I9
sg15
I01
sg16
I2
sg17
I59
sbs(I2
I8
tp33
g1
(g10
g3
NtRp34
(dp35
g13
F-0.96514418573716532
sg14
I2
sg15
I01
sg16
I8
sg17
I46
sbs(I10
I6
tp36
g1
(g10
g3
NtRp37
(dp38
g13
F7.2548047163087892
sg14
I10
sg15
I01
sg16
I6
sg17
I81
sbs(I3
I4
tp39
g1
(g10
g3
NtRp40
(dp41
g13
F3.9373817213174451
sg14
I3
sg15
I01
sg16
I4
sg17
I9
sbs(I4
I7
tp42
g1
(g10
g3
NtRp43
(dp44
g13
F-25.334625279229378
sg14
I4
sg15
I01
sg16
I7
sg17
I29
sbs(I8
I10
tp45
g1
(g10
g3
NtRp46
(dp47
g13
F2.4528245502523043
sg14
I8
sg15
I01
sg16
I10
sg17
I88
sbs(I1
I5
tp48
g1
(g10
g3
NtRp49
(dp50
g13
F-0.12866071960385206
sg14
I1
sg15
I01
sg16
I5
sg17
I14
sbs(I2
I6
tp51
g1
(g10
g3
NtRp52
(dp53
g13
F-25.457809918107753
sg14
I2
sg15
I01
sg16
I6
sg17
I15
sbs(I7
I2
tp54
g1
(g10
g3
NtRp55
(dp56
g13
F-13.973431047593625
sg14
I7
sg15
I01
sg16
I2
sg17
I21
sbs(I2
I2
tp57
g1
(g10
g3
NtRp58
(dp59
g13
F-11.163854256901002
sg14
I2
sg15
I00
sg16
I2
sg17
I4
sbs(I1
I10
tp60
g1
(g10
g3
NtRp61
(dp62
g13
F0.40462909645563117
sg14
I1
sg15
I01
sg16
I10
sg17
I65
sbs(I4
I2
tp63
g1
(g10
g3
NtRp64
(dp65
g13
F-20.30557648841237
sg14
I4
sg15
I01
sg16
I2
sg17
I8
sbs(I2
I5
tp66
g1
(g10
g3
NtRp67
(dp68
g13
F-5.3654325462882611
sg14
I2
sg15
I01
sg16
I5
sg17
I10
sbs(I5
I2
tp69
g1
(g10
g3
NtRp70
(dp71
g13
F5.2578012107492853
sg14
I5
sg15
I01
sg16
I2
sg17
I11
sbs(I6
I9
tp72
g1
(g10
g3
NtRp73
(dp74
g13
F0.025396470240883318
sg14
I6
sg15
I01
sg16
I9
sg17
I56
sbs(I6
I2
tp75
g1
(g10
g3
NtRp76
(dp77
g13
F21.823088159995137
sg14
I6
sg15
I00
sg16
I2
sg17
I23
sbssS'_input_nodes'
p78
I1
sS'_output_nodes'
p79
I1
sS'_node_gene_type'
p80
cneat.genome
NodeGene
p81
sS'_conn_gene_type'
p82
g10
sS'fitness'
p83
F0.9929397466466845
sS'parent2_id'
p84
I2398
sS'_id'
p85
I2415
sS'parent1_id'
p86
I2398
sS'_node_genes'
p87
(lp88
g1
(g81
g3
NtRp89
(dp90
S'_bias'
p91
I0
sS'_type'
p92
S'INPUT'
p93
sg85
I1
sS'_response'
p94
F4.9242730000000003
sS'_activation_type'
p95
Nsbag1
(g81
g3
NtRp96
(dp97
g91
F2.1248023835262262
sg92
S'OUTPUT'
p98
sg85
I2
sg94
F2.6720640701051814
sg95
S'tanh'
p99
sbag1
(g81
g3
NtRp100
(dp101
g91
F-1.0405860053899747
sg92
S'HIDDEN'
p102
sg85
I3
sg94
F10.257626016217223
sg95
g99
sbag1
(g81
g3
NtRp103
(dp104
g91
F2.7697196011409386
sg92
g102
sg85
I4
sg94
F3.4630036851394754
sg95
g99
sbag1
(g81
g3
NtRp105
(dp106
g91
F0.94424794965092385
sg92
g102
sg85
I5
sg94
F0.68351414979690273
sg95
g99
sbag1
(g81
g3
NtRp107
(dp108
g91
F-0.58132330918532327
sg92
g102
sg85
I6
sg94
F-0.05335279505297047
sg95
g99
sbag1
(g81
g3
NtRp109
(dp110
g91
F-0.56768383976124925
sg92
g102
sg85
I7
sg94
F5.2422807069491171
sg95
g99
sbag1
(g81
g3
NtRp111
(dp112
g91
F-0.80107058375444817
sg92
g102
sg85
I8
sg94
F4.3678331180292398
sg95
g99
sbag1
(g81
g3
NtRp113
(dp114
g91
F0.77111005479910166
sg92
g102
sg85
I9
sg94
F4.5884191995625185
sg95
g99
sbag1
(g81
g3
NtRp115
(dp116
g91
F1.2902727308533741
sg92
g102
sg85
I10
sg94
F4.94555251861608
sg95
g99
sbasb.