ccopy_reg
_reconstructor
p1
(cneat.chromosome
Chromosome
p2
c__builtin__
object
p3
NtRp4
(dp5
S'species_id'
p6
I39
sS'_connection_genes'
p7
(dp8
(I7
I8
tp9
g1
(cneat.genome
ConnectionGene
p10
g3
NtRp11
(dp12
S'_ConnectionGene__weight'
p13
F14.830958605550906
sS'_ConnectionGene__in'
p14
I7
sS'_ConnectionGene__enabled'
p15
I01
sS'_ConnectionGene__out'
p16
I8
sS'_ConnectionGene__innov_number'
p17
I52
sbs(I4
I7
tp18
g1
(g10
g3
NtRp19
(dp20
g13
F-17.955308628409004
sg14
I4
sg15
I01
sg16
I7
sg17
I29
sbs(I1
I3
tp21
g1
(g10
g3
NtRp22
(dp23
g13
F-19.627932536775884
sg14
I1
sg15
I01
sg16
I3
sg17
I2
sbs(I2
I8
tp24
g1
(g10
g3
NtRp25
(dp26
g13
F-30
sg14
I2
sg15
I01
sg16
I8
sg17
I46
sbs(I12
I12
tp27
g1
(g10
g3
NtRp28
(dp29
g13
F3.1782535600584638
sg14
I12
sg15
I01
sg16
I12
sg17
I160
sbs(I3
I11
tp30
g1
(g10
g3
NtRp31
(dp32
g13
F10.280000724940363
sg14
I3
sg15
I01
sg16
I11
sg17
I98
sbs(I8
I9
tp33
g1
(g10
g3
NtRp34
(dp35
g13
F-18.329827995049573
sg14
I8
sg15
I01
sg16
I9
sg17
I61
sbs(I6
I2
tp36
g1
(g10
g3
NtRp37
(dp38
g13
F12.006355846551312
sg14
I6
sg15
I01
sg16
I2
sg17
I23
sbs(I2
I5
tp39
g1
(g10
g3
NtRp40
(dp41
g13
F-7.9896961700761695
sg14
I2
sg15
I01
sg16
I5
sg17
I10
sbs(I7
I2
tp42
g1
(g10
g3
NtRp43
(dp44
g13
F-13.907711740648807
sg14
I7
sg15
I01
sg16
I2
sg17
I21
sbs(I1
I2
tp45
g1
(g10
g3
NtRp46
(dp47
g13
F-19.656029941402021
sg14
I1
sg15
I01
sg16
I2
sg17
I1
sbs(I2
I14
tp48
g1
(g10
g3
NtRp49
(dp50
g13
F1.9795870365862664
sg14
I2
sg15
I01
sg16
I14
sg17
I129
sbs(I3
I3
tp51
g1
(g10
g3
NtRp52
(dp53
g13
F1.1319008076702441
sg14
I3
sg15
I01
sg16
I3
sg17
I6
sbs(I5
I12
tp54
g1
(g10
g3
NtRp55
(dp56
g13
F-2.8798758929343835
sg14
I5
sg15
I01
sg16
I12
sg17
I87
sbs(I6
I3
tp57
g1
(g10
g3
NtRp58
(dp59
g13
F5.261501281122321
sg14
I6
sg15
I01
sg16
I3
sg17
I37
sbs(I1
I5
tp60
g1
(g10
g3
NtRp61
(dp62
g13
F-3.3989600409739755
sg14
I1
sg15
I01
sg16
I5
sg17
I14
sbs(I13
I7
tp63
g1
(g10
g3
NtRp64
(dp65
g13
F18.208219027422899
sg14
I13
sg15
I01
sg16
I7
sg17
I136
sbs(I2
I2
tp66
g1
(g10
g3
NtRp67
(dp68
g13
F-6.7857308208701177
sg14
I2
sg15
I00
sg16
I2
sg17
I4
sbs(I1
I10
tp69
g1
(g10
g3
NtRp70
(dp71
g13
F9.6390570202560575
sg14
I1
sg15
I01
sg16
I10
sg17
I65
sbs(I8
I6
tp72
g1
(g10
g3
NtRp73
(dp74
g13
F-16.921825016380247
sg14
I8
sg15
I01
sg16
I6
sg17
I51
sbs(I11
I13
tp75
g1
(g10
g3
NtRp76
(dp77
g13
F-13.882161872188044
sg14
I11
sg15
I01
sg16
I13
sg17
I156
sbs(I3
I2
tp78
g1
(g10
g3
NtRp79
(dp80
g13
F-2.2431792755193021
sg14
I3
sg15
I00
sg16
I2
sg17
I3
sbs(I2
I6
tp81
g1
(g10
g3
NtRp82
(dp83
g13
F-14.291977165699263
sg14
I2
sg15
I01
sg16
I6
sg17
I15
sbs(I9
I3
tp84
g1
(g10
g3
NtRp85
(dp86
g13
F2.2039146096903588
sg14
I9
sg15
I01
sg16
I3
sg17
I95
sbs(I12
I10
tp87
g1
(g10
g3
NtRp88
(dp89
g13
F-27.541980452753108
sg14
I12
sg15
I01
sg16
I10
sg17
I103
sbs(I4
I2
tp90
g1
(g10
g3
NtRp91
(dp92
g13
F-5.7936837098438909
sg14
I4
sg15
I01
sg16
I2
sg17
I8
sbs(I14
I2
tp93
g1
(g10
g3
NtRp94
(dp95
g13
F-5.5215388843470112
sg14
I14
sg15
I01
sg16
I2
sg17
I130
sbs(I11
I7
tp96
g1
(g10
g3
NtRp97
(dp98
g13
F-9.725588254935591
sg14
I11
sg15
I00
sg16
I7
sg17
I107
sbs(I6
I9
tp99
g1
(g10
g3
NtRp100
(dp101
g13
F-10.303671230851625
sg14
I6
sg15
I01
sg16
I9
sg17
I56
sbs(I5
I10
tp102
g1
(g10
g3
NtRp103
(dp104
g13
F-10.831550524211556
sg14
I5
sg15
I00
sg16
I10
sg17
I78
sbs(I9
I2
tp105
g1
(g10
g3
NtRp106
(dp107
g13
F24.90869127785064
sg14
I9
sg15
I01
sg16
I2
sg17
I59
sbs(I5
I2
tp108
g1
(g10
g3
NtRp109
(dp110
g13
F-28.019772851575169
sg14
I5
sg15
I01
sg16
I2
sg17
I11
sbs(I11
I3
tp111
g1
(g10
g3
NtRp112
(dp113
g13
F-9.3346929706790149
sg14
I11
sg15
I01
sg16
I3
sg17
I99
sbs(I3
I8
tp114
g1
(g10
g3
NtRp115
(dp116
g13
F-2.1917255338139228
sg14
I3
sg15
I01
sg16
I8
sg17
I45
sbs(I9
I5
tp117
g1
(g10
g3
NtRp118
(dp119
g13
F1.7233300457306155
sg14
I9
sg15
I01
sg16
I5
sg17
I57
sbs(I3
I4
tp120
g1
(g10
g3
NtRp121
(dp122
g13
F14.597879407144283
sg14
I3
sg15
I01
sg16
I4
sg17
I9
sbs(I9
I12
tp123
g1
(g10
g3
NtRp124
(dp125
g13
F-6.3285173697941133
sg14
I9
sg15
I01
sg16
I12
sg17
I82
sbs(I10
I2
tp126
g1
(g10
g3
NtRp127
(dp128
g13
F-3.7566040122711417
sg14
I10
sg15
I01
sg16
I2
sg17
I64
sbssS'_input_nodes'
p129
I1
sS'_output_nodes'
p130
I1
sS'_node_gene_type'
p131
cneat.genome
NodeGene
p132
sS'_conn_gene_type'
p133
g10
sS'fitness'
p134
F0.9843869429307387
sS'parent2_id'
p135
I4876
sS'_id'
p136
I4898
sS'parent1_id'
p137
I4876
sS'_node_genes'
p138
(lp139
g1
(g132
g3
NtRp140
(dp141
S'_bias'
p142
I0
sS'_type'
p143
S'INPUT'
p144
sg136
I1
sS'_response'
p145
F4.9242730000000003
sS'_activation_type'
p146
Nsbag1
(g132
g3
NtRp147
(dp148
g142
F2.98095932397848
sg143
S'OUTPUT'
p149
sg136
I2
sg145
F4.2646852269215438
sg146
S'tanh'
p150
sbag1
(g132
g3
NtRp151
(dp152
g142
F-0.47323812584177838
sg143
S'HIDDEN'
p153
sg136
I3
sg145
F12.334799507452816
sg146
g150
sbag1
(g132
g3
NtRp154
(dp155
g142
F5.4702285527522099
sg143
g153
sg136
I4
sg145
F4.5635779006904915
sg146
g150
sbag1
(g132
g3
NtRp156
(dp157
g142
F0.25477896124030863
sg143
g153
sg136
I5
sg145
F-2.2658765207791305
sg146
g150
sbag1
(g132
g3
NtRp158
(dp159
g142
F-1.2939037107193379
sg143
g153
sg136
I6
sg145
F0.62334994679657252
sg146
g150
sbag1
(g132
g3
NtRp160
(dp161
g142
F0.67649569506826146
sg143
g153
sg136
I7
sg145
F5.1991067509093201
sg146
g150
sbag1
(g132
g3
NtRp162
(dp163
g142
F-2.4930491837019026
sg143
g153
sg136
I8
sg145
F4.0011657718275684
sg146
g150
sbag1
(g132
g3
NtRp164
(dp165
g142
F1.5334349968565313
sg143
g153
sg136
I9
sg145
F3.1771812500888252
sg146
g150
sbag1
(g132
g3
NtRp166
(dp167
g142
F-0.27470291641318068
sg143
g153
sg136
I10
sg145
F6.2564466620573524
sg146
g150
sbag1
(g132
g3
NtRp168
(dp169
g142
F0.45615046084390687
sg143
g153
sg136
I11
sg145
F4.1845004312028822
sg146
g150
sbag1
(g132
g3
NtRp170
(dp171
g142
F-1.2955291295680367
sg143
g153
sg136
I12
sg145
F4.7851958976387037
sg146
g150
sbag1
(g132
g3
NtRp172
(dp173
g142
F-0.36544173825474224
sg143
g153
sg136
I13
sg145
F6.1698656427598486
sg146
g150
sbag1
(g132
g3
NtRp174
(dp175
g142
F-0.21034774278351623
sg143
g153
sg136
I14
sg145
F3.5890483912856972
sg146
g150
sbasb.