ccopy_reg
_reconstructor
p1
(cneat.chromosome
Chromosome
p2
c__builtin__
object
p3
NtRp4
(dp5
S'species_id'
p6
I54
sS'_connection_genes'
p7
(dp8
(I7
I8
tp9
g1
(cneat.genome
ConnectionGene
p10
g3
NtRp11
(dp12
S'_ConnectionGene__weight'
p13
F5.3718722728104833
sS'_ConnectionGene__in'
p14
I7
sS'_ConnectionGene__enabled'
p15
I01
sS'_ConnectionGene__out'
p16
I8
sS'_ConnectionGene__innov_number'
p17
I52
sbs(I4
I7
tp18
g1
(g10
g3
NtRp19
(dp20
g13
F-5.2043340552093653
sg14
I4
sg15
I01
sg16
I7
sg17
I29
sbs(I1
I3
tp21
g1
(g10
g3
NtRp22
(dp23
g13
F8.5325407635754082
sg14
I1
sg15
I01
sg16
I3
sg17
I2
sbs(I8
I13
tp24
g1
(g10
g3
NtRp25
(dp26
g13
F1.0054214741712719
sg14
I8
sg15
I01
sg16
I13
sg17
I124
sbs(I6
I6
tp27
g1
(g10
g3
NtRp28
(dp29
g13
F10.52898415462375
sg14
I6
sg15
I01
sg16
I6
sg17
I34
sbs(I7
I12
tp30
g1
(g10
g3
NtRp31
(dp32
g13
F-7.9871546589149993
sg14
I7
sg15
I01
sg16
I12
sg17
I102
sbs(I2
I8
tp33
g1
(g10
g3
NtRp34
(dp35
g13
F-15.869862585443048
sg14
I2
sg15
I01
sg16
I8
sg17
I46
sbs(I12
I12
tp36
g1
(g10
g3
NtRp37
(dp38
g13
F7.4011059793177187
sg14
I12
sg15
I01
sg16
I12
sg17
I160
sbs(I3
I11
tp39
g1
(g10
g3
NtRp40
(dp41
g13
F-20.722623605742953
sg14
I3
sg15
I01
sg16
I11
sg17
I98
sbs(I8
I9
tp42
g1
(g10
g3
NtRp43
(dp44
g13
F-19.084628289206211
sg14
I8
sg15
I01
sg16
I9
sg17
I61
sbs(I6
I2
tp45
g1
(g10
g3
NtRp46
(dp47
g13
F7.9875987619550948
sg14
I6
sg15
I01
sg16
I2
sg17
I23
sbs(I2
I5
tp48
g1
(g10
g3
NtRp49
(dp50
g13
F-18.615146720076208
sg14
I2
sg15
I01
sg16
I5
sg17
I10
sbs(I3
I14
tp51
g1
(g10
g3
NtRp52
(dp53
g13
F-7.4783180186479026
sg14
I3
sg15
I01
sg16
I14
sg17
I157
sbs(I1
I2
tp54
g1
(g10
g3
NtRp55
(dp56
g13
F7.9992801336013448
sg14
I1
sg15
I01
sg16
I2
sg17
I1
sbs(I2
I14
tp57
g1
(g10
g3
NtRp58
(dp59
g13
F5.1061104626840024
sg14
I2
sg15
I01
sg16
I14
sg17
I129
sbs(I3
I3
tp60
g1
(g10
g3
NtRp61
(dp62
g13
F10.277447185246482
sg14
I3
sg15
I01
sg16
I3
sg17
I6
sbs(I5
I12
tp63
g1
(g10
g3
NtRp64
(dp65
g13
F2.4782494064435183
sg14
I5
sg15
I01
sg16
I12
sg17
I87
sbs(I6
I3
tp66
g1
(g10
g3
NtRp67
(dp68
g13
F-22.965398186115614
sg14
I6
sg15
I01
sg16
I3
sg17
I37
sbs(I1
I5
tp69
g1
(g10
g3
NtRp70
(dp71
g13
F5.2393528233448539
sg14
I1
sg15
I00
sg16
I5
sg17
I14
sbs(I13
I7
tp72
g1
(g10
g3
NtRp73
(dp74
g13
F2.5111344368861621
sg14
I13
sg15
I01
sg16
I7
sg17
I136
sbs(I7
I2
tp75
g1
(g10
g3
NtRp76
(dp77
g13
F-23.697683067903995
sg14
I7
sg15
I01
sg16
I2
sg17
I21
sbs(I2
I2
tp78
g1
(g10
g3
NtRp79
(dp80
g13
F10.728697333701655
sg14
I2
sg15
I00
sg16
I2
sg17
I4
sbs(I1
I10
tp81
g1
(g10
g3
NtRp82
(dp83
g13
F-4.202660394532356
sg14
I1
sg15
I01
sg16
I10
sg17
I65
sbs(I8
I6
tp84
g1
(g10
g3
NtRp85
(dp86
g13
F-27.703151687628988
sg14
I8
sg15
I01
sg16
I6
sg17
I51
sbs(I11
I13
tp87
g1
(g10
g3
NtRp88
(dp89
g13
F-25.44152224759441
sg14
I11
sg15
I01
sg16
I13
sg17
I156
sbs(I3
I2
tp90
g1
(g10
g3
NtRp91
(dp92
g13
F9.8196368145901403
sg14
I3
sg15
I00
sg16
I2
sg17
I3
sbs(I2
I6
tp93
g1
(g10
g3
NtRp94
(dp95
g13
F-18.737944109639475
sg14
I2
sg15
I01
sg16
I6
sg17
I15
sbs(I9
I3
tp96
g1
(g10
g3
NtRp97
(dp98
g13
F9.6027638427193622
sg14
I9
sg15
I01
sg16
I3
sg17
I95
sbs(I12
I15
tp99
g1
(g10
g3
NtRp100
(dp101
g13
F2.3768261738933889
sg14
I12
sg15
I01
sg16
I15
sg17
I217
sbs(I15
I10
tp102
g1
(g10
g3
NtRp103
(dp104
g13
F-18.05157950572039
sg14
I15
sg15
I01
sg16
I10
sg17
I189
sbs(I12
I10
tp105
g1
(g10
g3
NtRp106
(dp107
g13
F-30
sg14
I12
sg15
I00
sg16
I10
sg17
I103
sbs(I4
I2
tp108
g1
(g10
g3
NtRp109
(dp110
g13
F1.6583998499642794
sg14
I4
sg15
I01
sg16
I2
sg17
I8
sbs(I14
I2
tp111
g1
(g10
g3
NtRp112
(dp113
g13
F15.510006030201247
sg14
I14
sg15
I01
sg16
I2
sg17
I130
sbs(I5
I3
tp114
g1
(g10
g3
NtRp115
(dp116
g13
F6.8645852790290443
sg14
I5
sg15
I01
sg16
I3
sg17
I27
sbs(I11
I7
tp117
g1
(g10
g3
NtRp118
(dp119
g13
F-25.855944692299012
sg14
I11
sg15
I00
sg16
I7
sg17
I107
sbs(I6
I9
tp120
g1
(g10
g3
NtRp121
(dp122
g13
F11.18962714345985
sg14
I6
sg15
I01
sg16
I9
sg17
I56
sbs(I5
I10
tp123
g1
(g10
g3
NtRp124
(dp125
g13
F7.3350548057582596
sg14
I5
sg15
I00
sg16
I10
sg17
I78
sbs(I16
I5
tp126
g1
(g10
g3
NtRp127
(dp128
g13
F-6.7794600088666126
sg14
I16
sg15
I01
sg16
I5
sg17
I178
sbs(I9
I2
tp129
g1
(g10
g3
NtRp130
(dp131
g13
F24.492592958122291
sg14
I9
sg15
I01
sg16
I2
sg17
I59
sbs(I5
I2
tp132
g1
(g10
g3
NtRp133
(dp134
g13
F-27.785462917540901
sg14
I5
sg15
I01
sg16
I2
sg17
I11
sbs(I16
I8
tp135
g1
(g10
g3
NtRp136
(dp137
g13
F3.371071976792801
sg14
I16
sg15
I01
sg16
I8
sg17
I172
sbs(I14
I7
tp138
g1
(g10
g3
NtRp139
(dp140
g13
F-0.80261564720199452
sg14
I14
sg15
I01
sg16
I7
sg17
I263
sbs(I11
I3
tp141
g1
(g10
g3
NtRp142
(dp143
g13
F-11.380211663119761
sg14
I11
sg15
I01
sg16
I3
sg17
I99
sbs(I3
I8
tp144
g1
(g10
g3
NtRp145
(dp146
g13
F4.1078032437161234
sg14
I3
sg15
I01
sg16
I8
sg17
I45
sbs(I9
I5
tp147
g1
(g10
g3
NtRp148
(dp149
g13
F-3.7332964299032287
sg14
I9
sg15
I01
sg16
I5
sg17
I57
sbs(I3
I4
tp150
g1
(g10
g3
NtRp151
(dp152
g13
F6.0075257845475756
sg14
I3
sg15
I01
sg16
I4
sg17
I9
sbs(I1
I16
tp153
g1
(g10
g3
NtRp154
(dp155
g13
F0.45079318925415146
sg14
I1
sg15
I01
sg16
I16
sg17
I245
sbs(I9
I12
tp156
g1
(g10
g3
NtRp157
(dp158
g13
F2.6653025778271506
sg14
I9
sg15
I01
sg16
I12
sg17
I82
sbs(I10
I2
tp159
g1
(g10
g3
NtRp160
(dp161
g13
F-15.640532469861611
sg14
I10
sg15
I01
sg16
I2
sg17
I64
sbssS'_input_nodes'
p162
I1
sS'_output_nodes'
p163
I1
sS'_node_gene_type'
p164
cneat.genome
NodeGene
p165
sS'_conn_gene_type'
p166
g10
sS'fitness'
p167
F0.95984166574986207
sS'parent2_id'
p168
I6746
sS'_id'
p169
I6769
sS'parent1_id'
p170
I6746
sS'_node_genes'
p171
(lp172
g1
(g165
g3
NtRp173
(dp174
S'_bias'
p175
I0
sS'_type'
p176
S'INPUT'
p177
sg169
I1
sS'_response'
p178
F4.9242730000000003
sS'_activation_type'
p179
Nsbag1
(g165
g3
NtRp180
(dp181
g175
F0.51284535706804824
sg176
S'OUTPUT'
p182
sg169
I2
sg178
F4.990186586286721
sg179
S'tanh'
p183
sbag1
(g165
g3
NtRp184
(dp185
g175
F-3.1263474131614499
sg176
S'HIDDEN'
p186
sg169
I3
sg178
F15.073973509372136
sg179
g183
sbag1
(g165
g3
NtRp187
(dp188
g175
F7.3473044170269493
sg176
g186
sg169
I4
sg178
F3.9164864844430092
sg179
g183
sbag1
(g165
g3
NtRp189
(dp190
g175
F-3.057740567489645
sg176
g186
sg169
I5
sg178
F-7.0231164412759846
sg179
g183
sbag1
(g165
g3
NtRp191
(dp192
g175
F-2.1388374102446543
sg176
g186
sg169
I6
sg178
F1.5433285096319471
sg179
g183
sbag1
(g165
g3
NtRp193
(dp194
g175
F4.2435235715939008
sg176
g186
sg169
I7
sg178
F6.4293855634558543
sg179
g183
sbag1
(g165
g3
NtRp195
(dp196
g175
F-5.294710724484939
sg176
g186
sg169
I8
sg178
F9.295385173921872
sg179
g183
sbag1
(g165
g3
NtRp197
(dp198
g175
F3.7992024266038129
sg176
g186
sg169
I9
sg178
F3.6685974484645767
sg179
g183
sbag1
(g165
g3
NtRp199
(dp200
g175
F-0.91351594989231721
sg176
g186
sg169
I10
sg178
F8.6182589972354346
sg179
g183
sbag1
(g165
g3
NtRp201
(dp202
g175
F-0.53988873443139906
sg176
g186
sg169
I11
sg178
F2.5982327143899737
sg179
g183
sbag1
(g165
g3
NtRp203
(dp204
g175
F2.3462230576137144
sg176
g186
sg169
I12
sg178
F5.3242599862388733
sg179
g183
sbag1
(g165
g3
NtRp205
(dp206
g175
F1.1390272470503147
sg176
g186
sg169
I13
sg178
F7.9378131818147946
sg179
g183
sbag1
(g165
g3
NtRp207
(dp208
g175
F-0.89781986084367404
sg176
g186
sg169
I14
sg178
F4.315799870642234
sg179
g183
sbag1
(g165
g3
NtRp209
(dp210
g175
F0.88817539753568098
sg176
g186
sg169
I15
sg178
F4.6796779896223546
sg179
g183
sbag1
(g165
g3
NtRp211
(dp212
g175
F-2.2751898246330562
sg176
g186
sg169
I16
sg178
F3.8880680151333844
sg179
g183
sbasb.