ccopy_reg
_reconstructor
p1
(cneat.chromosome
Chromosome
p2
c__builtin__
object
p3
NtRp4
(dp5
S'species_id'
p6
I52
sS'_connection_genes'
p7
(dp8
(I5
I9
tp9
g1
(cneat.genome
ConnectionGene
p10
g3
NtRp11
(dp12
S'_ConnectionGene__weight'
p13
F9.6866567054155492
sS'_ConnectionGene__in'
p14
I5
sS'_ConnectionGene__enabled'
p15
I01
sS'_ConnectionGene__out'
p16
I9
sS'_ConnectionGene__innov_number'
p17
I58
sbs(I4
I7
tp18
g1
(g10
g3
NtRp19
(dp20
g13
F-18.215627140700384
sg14
I4
sg15
I01
sg16
I7
sg17
I29
sbs(I1
I3
tp21
g1
(g10
g3
NtRp22
(dp23
g13
F24.139835790683737
sg14
I1
sg15
I01
sg16
I3
sg17
I2
sbs(I2
I18
tp24
g1
(g10
g3
NtRp25
(dp26
g13
F-11.762216974880896
sg14
I2
sg15
I01
sg16
I18
sg17
I191
sbs(I14
I4
tp27
g1
(g10
g3
NtRp28
(dp29
g13
F12.307980729808662
sg14
I14
sg15
I01
sg16
I4
sg17
I143
sbs(I13
I4
tp30
g1
(g10
g3
NtRp31
(dp32
g13
F29.656033810061654
sg14
I13
sg15
I01
sg16
I4
sg17
I120
sbs(I10
I6
tp33
g1
(g10
g3
NtRp34
(dp35
g13
F6.5846302829113252
sg14
I10
sg15
I01
sg16
I6
sg17
I81
sbs(I7
I8
tp36
g1
(g10
g3
NtRp37
(dp38
g13
F-8.6875616589831335
sg14
I7
sg15
I01
sg16
I8
sg17
I52
sbs(I3
I11
tp39
g1
(g10
g3
NtRp40
(dp41
g13
F13.140612566669759
sg14
I3
sg15
I01
sg16
I11
sg17
I98
sbs(I1
I15
tp42
g1
(g10
g3
NtRp43
(dp44
g13
F2.5558911511045337
sg14
I1
sg15
I01
sg16
I15
sg17
I148
sbs(I13
I17
tp45
g1
(g10
g3
NtRp46
(dp47
g13
F11.512508631819232
sg14
I13
sg15
I01
sg16
I17
sg17
I183
sbs(I6
I2
tp48
g1
(g10
g3
NtRp49
(dp50
g13
F7.0102374175472022
sg14
I6
sg15
I01
sg16
I2
sg17
I23
sbs(I7
I16
tp51
g1
(g10
g3
NtRp52
(dp53
g13
F-15.74788787475987
sg14
I7
sg15
I01
sg16
I16
sg17
I171
sbs(I4
I2
tp54
g1
(g10
g3
NtRp55
(dp56
g13
F-29.148659349261123
sg14
I4
sg15
I01
sg16
I2
sg17
I8
sbs(I2
I5
tp57
g1
(g10
g3
NtRp58
(dp59
g13
F2.2389617792879988
sg14
I2
sg15
I01
sg16
I5
sg17
I10
sbs(I15
I5
tp60
g1
(g10
g3
NtRp61
(dp62
g13
F2.2893001661020032
sg14
I15
sg15
I01
sg16
I5
sg17
I165
sbs(I7
I2
tp63
g1
(g10
g3
NtRp64
(dp65
g13
F-9.7316657023729825
sg14
I7
sg15
I01
sg16
I2
sg17
I21
sbs(I1
I2
tp66
g1
(g10
g3
NtRp67
(dp68
g13
F-8.98867296360749
sg14
I1
sg15
I01
sg16
I2
sg17
I1
sbs(I12
I2
tp69
g1
(g10
g3
NtRp70
(dp71
g13
F19.873476711592097
sg14
I12
sg15
I01
sg16
I2
sg17
I80
sbs(I3
I3
tp72
g1
(g10
g3
NtRp73
(dp74
g13
F-27.401652962376602
sg14
I3
sg15
I01
sg16
I3
sg17
I6
sbs(I1
I5
tp75
g1
(g10
g3
NtRp76
(dp77
g13
F-17.366228482532748
sg14
I1
sg15
I01
sg16
I5
sg17
I14
sbs(I6
I5
tp78
g1
(g10
g3
NtRp79
(dp80
g13
F-0.89635621257759479
sg14
I6
sg15
I01
sg16
I5
sg17
I16
sbs(I2
I8
tp81
g1
(g10
g3
NtRp82
(dp83
g13
F-17.618458185647246
sg14
I2
sg15
I01
sg16
I8
sg17
I46
sbs(I8
I6
tp84
g1
(g10
g3
NtRp85
(dp86
g13
F25.465128983687084
sg14
I8
sg15
I01
sg16
I6
sg17
I51
sbs(I3
I2
tp87
g1
(g10
g3
NtRp88
(dp89
g13
F3.415066530977604
sg14
I3
sg15
I01
sg16
I2
sg17
I3
sbs(I2
I6
tp90
g1
(g10
g3
NtRp91
(dp92
g13
F-8.3540946499967319
sg14
I2
sg15
I01
sg16
I6
sg17
I15
sbs(I8
I2
tp93
g1
(g10
g3
NtRp94
(dp95
g13
F2.0184023921831691
sg14
I8
sg15
I01
sg16
I2
sg17
I43
sbs(I3
I13
tp96
g1
(g10
g3
NtRp97
(dp98
g13
F8.9747328053964246
sg14
I3
sg15
I01
sg16
I13
sg17
I105
sbs(I2
I2
tp99
g1
(g10
g3
NtRp100
(dp101
g13
F-16.810974394995931
sg14
I2
sg15
I01
sg16
I2
sg17
I4
sbs(I7
I5
tp102
g1
(g10
g3
NtRp103
(dp104
g13
F-0.36516534578371762
sg14
I7
sg15
I00
sg16
I5
sg17
I19
sbs(I8
I7
tp105
g1
(g10
g3
NtRp106
(dp107
g13
F5.0337271920593114
sg14
I8
sg15
I01
sg16
I7
sg17
I39
sbs(I6
I12
tp108
g1
(g10
g3
NtRp109
(dp110
g13
F-14.782315344931346
sg14
I6
sg15
I01
sg16
I12
sg17
I115
sbs(I17
I4
tp111
g1
(g10
g3
NtRp112
(dp113
g13
F14.999044152623362
sg14
I17
sg15
I01
sg16
I4
sg17
I184
sbs(I6
I9
tp114
g1
(g10
g3
NtRp115
(dp116
g13
F-22.355195304254277
sg14
I6
sg15
I01
sg16
I9
sg17
I56
sbs(I5
I10
tp117
g1
(g10
g3
NtRp118
(dp119
g13
F22.654424865155356
sg14
I5
sg15
I01
sg16
I10
sg17
I78
sbs(I6
I8
tp120
g1
(g10
g3
NtRp121
(dp122
g13
F5.1509128959105492
sg14
I6
sg15
I01
sg16
I8
sg17
I53
sbs(I16
I5
tp123
g1
(g10
g3
NtRp124
(dp125
g13
F-13.614169842662365
sg14
I16
sg15
I01
sg16
I5
sg17
I178
sbs(I9
I2
tp126
g1
(g10
g3
NtRp127
(dp128
g13
F23.886072027395329
sg14
I9
sg15
I01
sg16
I2
sg17
I59
sbs(I5
I2
tp129
g1
(g10
g3
NtRp130
(dp131
g13
F28.448828681269529
sg14
I5
sg15
I01
sg16
I2
sg17
I11
sbs(I10
I10
tp132
g1
(g10
g3
NtRp133
(dp134
g13
F3.4245202386275428
sg14
I10
sg15
I01
sg16
I10
sg17
I111
sbs(I11
I3
tp135
g1
(g10
g3
NtRp136
(dp137
g13
F22.872941150486106
sg14
I11
sg15
I01
sg16
I3
sg17
I99
sbs(I13
I14
tp138
g1
(g10
g3
NtRp139
(dp140
g13
F-12.24853605938949
sg14
I13
sg15
I01
sg16
I14
sg17
I142
sbs(I18
I6
tp141
g1
(g10
g3
NtRp142
(dp143
g13
F-19.426259154328637
sg14
I18
sg15
I01
sg16
I6
sg17
I212
sbs(I3
I12
tp144
g1
(g10
g3
NtRp145
(dp146
g13
F1.0813927917541006
sg14
I3
sg15
I01
sg16
I12
sg17
I108
sbs(I3
I4
tp147
g1
(g10
g3
NtRp148
(dp149
g13
F-13.059864205091124
sg14
I3
sg15
I01
sg16
I4
sg17
I9
sbs(I10
I2
tp150
g1
(g10
g3
NtRp151
(dp152
g13
F-2.8237286882161188
sg14
I10
sg15
I01
sg16
I2
sg17
I64
sbssS'_input_nodes'
p153
I1
sS'_output_nodes'
p154
I1
sS'_node_gene_type'
p155
cneat.genome
NodeGene
p156
sS'_conn_gene_type'
p157
g10
sS'fitness'
p158
F0.99951116339842849
sS'parent2_id'
p159
I6657
sS'_id'
p160
I6672
sS'parent1_id'
p161
I6657
sS'_node_genes'
p162
(lp163
g1
(g156
g3
NtRp164
(dp165
S'_bias'
p166
I0
sS'_type'
p167
S'INPUT'
p168
sg160
I1
sS'_response'
p169
F4.9242730000000003
sS'_activation_type'
p170
Nsbag1
(g156
g3
NtRp171
(dp172
g166
F-2.5736373569393738
sg167
S'OUTPUT'
p173
sg160
I2
sg169
F2.2870239901748741
sg170
S'tanh'
p174
sbag1
(g156
g3
NtRp175
(dp176
g166
F-2.1647614297087086
sg167
S'HIDDEN'
p177
sg160
I3
sg169
F11.105618290231934
sg170
g174
sbag1
(g156
g3
NtRp178
(dp179
g166
F2.802940390977501
sg167
g177
sg160
I4
sg169
F8.7819208537677902
sg170
g174
sbag1
(g156
g3
NtRp180
(dp181
g166
F-1.7556107093886961
sg167
g177
sg160
I5
sg169
F-0.53327915058693875
sg170
g174
sbag1
(g156
g3
NtRp182
(dp183
g166
F2.9602613303802667
sg167
g177
sg160
I6
sg169
F6.0141229405967511
sg170
g174
sbag1
(g156
g3
NtRp184
(dp185
g166
F-0.27784039763594937
sg167
g177
sg160
I7
sg169
F8.3121449813000119
sg170
g174
sbag1
(g156
g3
NtRp186
(dp187
g166
F2.8382119736530798
sg167
g177
sg160
I8
sg169
F-0.86536943941850142
sg170
g174
sbag1
(g156
g3
NtRp188
(dp189
g166
F-3.4605143736451351
sg167
g177
sg160
I9
sg169
F3.5154375823154438
sg170
g174
sbag1
(g156
g3
NtRp190
(dp191
g166
F-0.41164840595006424
sg167
g177
sg160
I10
sg169
F4.3001771994026567
sg170
g174
sbag1
(g156
g3
NtRp192
(dp193
g166
F-0.80164134666874154
sg167
g177
sg160
I11
sg169
F4.143904596764596
sg170
g174
sbag1
(g156
g3
NtRp194
(dp195
g166
F-0.60321622904653882
sg167
g177
sg160
I12
sg169
F10.033998374140333
sg170
g174
sbag1
(g156
g3
NtRp196
(dp197
g166
F0.9400700948998395
sg167
g177
sg160
I13
sg169
F7.3853176673237551
sg170
g174
sbag1
(g156
g3
NtRp198
(dp199
g166
F0.55477902838494297
sg167
g177
sg160
I14
sg169
F4.3107676795499446
sg170
g174
sbag1
(g156
g3
NtRp200
(dp201
g166
F-0.51161944971914575
sg167
g177
sg160
I15
sg169
F4.1106459734860943
sg170
g174
sbag1
(g156
g3
NtRp202
(dp203
g166
F-0.92575891035083646
sg167
g177
sg160
I16
sg169
F2.3394173868234596
sg170
g174
sbag1
(g156
g3
NtRp204
(dp205
g166
F-0.49342916211873167
sg167
g177
sg160
I17
sg169
F6.6731606556314738
sg170
g174
sbag1
(g156
g3
NtRp206
(dp207
g166
F-2.989526735231165
sg167
g177
sg160
I18
sg169
F3.3229810753357647
sg170
g174
sbasb.