ccopy_reg
_reconstructor
p1
(cneat.chromosome
Chromosome
p2
c__builtin__
object
p3
NtRp4
(dp5
S'species_id'
p6
I35
sS'_connection_genes'
p7
(dp8
(I7
I8
tp9
g1
(cneat.genome
ConnectionGene
p10
g3
NtRp11
(dp12
S'_ConnectionGene__weight'
p13
F-0.44865478081154375
sS'_ConnectionGene__in'
p14
I7
sS'_ConnectionGene__enabled'
p15
I01
sS'_ConnectionGene__out'
p16
I8
sS'_ConnectionGene__innov_number'
p17
I52
sbs(I4
I7
tp18
g1
(g10
g3
NtRp19
(dp20
g13
F-25.231091476331144
sg14
I4
sg15
I01
sg16
I7
sg17
I29
sbs(I1
I3
tp21
g1
(g10
g3
NtRp22
(dp23
g13
F-5.9989966004695896
sg14
I1
sg15
I01
sg16
I3
sg17
I2
sbs(I2
I8
tp24
g1
(g10
g3
NtRp25
(dp26
g13
F-29.932591746020226
sg14
I2
sg15
I01
sg16
I8
sg17
I46
sbs(I3
I11
tp27
g1
(g10
g3
NtRp28
(dp29
g13
F8.7384795290980382
sg14
I3
sg15
I01
sg16
I11
sg17
I98
sbs(I8
I9
tp30
g1
(g10
g3
NtRp31
(dp32
g13
F-12.765977339693958
sg14
I8
sg15
I01
sg16
I9
sg17
I61
sbs(I6
I2
tp33
g1
(g10
g3
NtRp34
(dp35
g13
F14.115659193747314
sg14
I6
sg15
I01
sg16
I2
sg17
I23
sbs(I2
I5
tp36
g1
(g10
g3
NtRp37
(dp38
g13
F-9.2686858600854798
sg14
I2
sg15
I01
sg16
I5
sg17
I10
sbs(I7
I2
tp39
g1
(g10
g3
NtRp40
(dp41
g13
F-8.9819658070870325
sg14
I7
sg15
I01
sg16
I2
sg17
I21
sbs(I1
I2
tp42
g1
(g10
g3
NtRp43
(dp44
g13
F-21.17867184018035
sg14
I1
sg15
I01
sg16
I2
sg17
I1
sbs(I3
I3
tp45
g1
(g10
g3
NtRp46
(dp47
g13
F-3.4665022259742644
sg14
I3
sg15
I01
sg16
I3
sg17
I6
sbs(I5
I12
tp48
g1
(g10
g3
NtRp49
(dp50
g13
F-9.8771249827113277
sg14
I5
sg15
I01
sg16
I12
sg17
I87
sbs(I6
I3
tp51
g1
(g10
g3
NtRp52
(dp53
g13
F0.30838620487269841
sg14
I6
sg15
I01
sg16
I3
sg17
I37
sbs(I1
I5
tp54
g1
(g10
g3
NtRp55
(dp56
g13
F8.006750192844903
sg14
I1
sg15
I01
sg16
I5
sg17
I14
sbs(I2
I2
tp57
g1
(g10
g3
NtRp58
(dp59
g13
F-9.8078420179580466
sg14
I2
sg15
I01
sg16
I2
sg17
I4
sbs(I1
I10
tp60
g1
(g10
g3
NtRp61
(dp62
g13
F1.3462048538690337
sg14
I1
sg15
I01
sg16
I10
sg17
I65
sbs(I8
I6
tp63
g1
(g10
g3
NtRp64
(dp65
g13
F-10.252919013450725
sg14
I8
sg15
I01
sg16
I6
sg17
I51
sbs(I3
I2
tp66
g1
(g10
g3
NtRp67
(dp68
g13
F21.357280239850454
sg14
I3
sg15
I00
sg16
I2
sg17
I3
sbs(I2
I6
tp69
g1
(g10
g3
NtRp70
(dp71
g13
F-21.65277852406199
sg14
I2
sg15
I01
sg16
I6
sg17
I15
sbs(I12
I10
tp72
g1
(g10
g3
NtRp73
(dp74
g13
F-28.286222217059599
sg14
I12
sg15
I01
sg16
I10
sg17
I103
sbs(I4
I2
tp75
g1
(g10
g3
NtRp76
(dp77
g13
F-5.1089997223914452
sg14
I4
sg15
I01
sg16
I2
sg17
I8
sbs(I6
I9
tp78
g1
(g10
g3
NtRp79
(dp80
g13
F-13.363410793122675
sg14
I6
sg15
I01
sg16
I9
sg17
I56
sbs(I5
I10
tp81
g1
(g10
g3
NtRp82
(dp83
g13
F-2.4913320470177291
sg14
I5
sg15
I00
sg16
I10
sg17
I78
sbs(I9
I2
tp84
g1
(g10
g3
NtRp85
(dp86
g13
F23.235002855257896
sg14
I9
sg15
I01
sg16
I2
sg17
I59
sbs(I5
I2
tp87
g1
(g10
g3
NtRp88
(dp89
g13
F-23.338099408647352
sg14
I5
sg15
I01
sg16
I2
sg17
I11
sbs(I11
I3
tp90
g1
(g10
g3
NtRp91
(dp92
g13
F-9.4511453280191464
sg14
I11
sg15
I01
sg16
I3
sg17
I99
sbs(I9
I5
tp93
g1
(g10
g3
NtRp94
(dp95
g13
F2.7930674579216817
sg14
I9
sg15
I01
sg16
I5
sg17
I57
sbs(I3
I4
tp96
g1
(g10
g3
NtRp97
(dp98
g13
F8.2752893182745293
sg14
I3
sg15
I01
sg16
I4
sg17
I9
sbs(I9
I12
tp99
g1
(g10
g3
NtRp100
(dp101
g13
F-0.99296837032337937
sg14
I9
sg15
I01
sg16
I12
sg17
I82
sbs(I10
I2
tp102
g1
(g10
g3
NtRp103
(dp104
g13
F2.686652685905321
sg14
I10
sg15
I01
sg16
I2
sg17
I64
sbssS'_input_nodes'
p105
I1
sS'_output_nodes'
p106
I1
sS'_node_gene_type'
p107
cneat.genome
NodeGene
p108
sS'_conn_gene_type'
p109
g10
sS'fitness'
p110
F0.97811963796937573
sS'parent2_id'
p111
I3926
sS'_id'
p112
I3962
sS'parent1_id'
p113
I3926
sS'_node_genes'
p114
(lp115
g1
(g108
g3
NtRp116
(dp117
S'_bias'
p118
I0
sS'_type'
p119
S'INPUT'
p120
sg112
I1
sS'_response'
p121
F4.9242730000000003
sS'_activation_type'
p122
Nsbag1
(g108
g3
NtRp123
(dp124
g118
F2.1218938020245854
sg119
S'OUTPUT'
p125
sg112
I2
sg121
F3.4416937399120044
sg122
S'tanh'
p126
sbag1
(g108
g3
NtRp127
(dp128
g118
F-0.021339296055498225
sg119
S'HIDDEN'
p129
sg112
I3
sg121
F7.5486713242356922
sg122
g126
sbag1
(g108
g3
NtRp130
(dp131
g118
F4.9312610072617105
sg119
g129
sg112
I4
sg121
F4.3255952323655187
sg122
g126
sbag1
(g108
g3
NtRp132
(dp133
g118
F-0.40028843212170889
sg119
g129
sg112
I5
sg121
F-1.3059392490719084
sg122
g126
sbag1
(g108
g3
NtRp134
(dp135
g118
F-2.3916513335356004
sg119
g129
sg112
I6
sg121
F-0.31633352323281161
sg122
g126
sbag1
(g108
g3
NtRp136
(dp137
g118
F0.045502892202671508
sg119
g129
sg112
I7
sg121
F5.8352764583418359
sg122
g126
sbag1
(g108
g3
NtRp138
(dp139
g118
F-2.2270583165728151
sg119
g129
sg112
I8
sg121
F4.8087894304494263
sg122
g126
sbag1
(g108
g3
NtRp140
(dp141
g118
F-0.054340540769518331
sg119
g129
sg112
I9
sg121
F4.1751590772115152
sg122
g126
sbag1
(g108
g3
NtRp142
(dp143
g118
F0.24015256224724629
sg119
g129
sg112
I10
sg121
F7.4637926515779478
sg122
g126
sbag1
(g108
g3
NtRp144
(dp145
g118
F1.2683840908657209
sg119
g129
sg112
I11
sg121
F3.4501383538403312
sg122
g126
sbag1
(g108
g3
NtRp146
(dp147
g118
F-1.2169205995385841
sg119
g129
sg112
I12
sg121
F4.5109130251376177
sg122
g126
sbasb.