ccopy_reg
_reconstructor
p1
(cneat.chromosome
Chromosome
p2
c__builtin__
object
p3
NtRp4
(dp5
S'species_id'
p6
I42
sS'_connection_genes'
p7
(dp8
(I7
I8
tp9
g1
(cneat.genome
ConnectionGene
p10
g3
NtRp11
(dp12
S'_ConnectionGene__weight'
p13
F15.926095184442756
sS'_ConnectionGene__in'
p14
I7
sS'_ConnectionGene__enabled'
p15
I01
sS'_ConnectionGene__out'
p16
I8
sS'_ConnectionGene__innov_number'
p17
I52
sbs(I4
I7
tp18
g1
(g10
g3
NtRp19
(dp20
g13
F-16.597250218490544
sg14
I4
sg15
I01
sg16
I7
sg17
I29
sbs(I1
I3
tp21
g1
(g10
g3
NtRp22
(dp23
g13
F-15.098927145154928
sg14
I1
sg15
I01
sg16
I3
sg17
I2
sbs(I6
I6
tp24
g1
(g10
g3
NtRp25
(dp26
g13
F5.5322777138705224
sg14
I6
sg15
I01
sg16
I6
sg17
I34
sbs(I2
I8
tp27
g1
(g10
g3
NtRp28
(dp29
g13
F-27.616961647089187
sg14
I2
sg15
I01
sg16
I8
sg17
I46
sbs(I12
I12
tp30
g1
(g10
g3
NtRp31
(dp32
g13
F0.28706660356749492
sg14
I12
sg15
I01
sg16
I12
sg17
I160
sbs(I3
I11
tp33
g1
(g10
g3
NtRp34
(dp35
g13
F7.8142820409888749
sg14
I3
sg15
I01
sg16
I11
sg17
I98
sbs(I8
I9
tp36
g1
(g10
g3
NtRp37
(dp38
g13
F-23.162425942928845
sg14
I8
sg15
I01
sg16
I9
sg17
I61
sbs(I6
I2
tp39
g1
(g10
g3
NtRp40
(dp41
g13
F9.0086821812823157
sg14
I6
sg15
I01
sg16
I2
sg17
I23
sbs(I2
I5
tp42
g1
(g10
g3
NtRp43
(dp44
g13
F-12.54740342710824
sg14
I2
sg15
I01
sg16
I5
sg17
I10
sbs(I7
I2
tp45
g1
(g10
g3
NtRp46
(dp47
g13
F-12.453854409896955
sg14
I7
sg15
I01
sg16
I2
sg17
I21
sbs(I1
I2
tp48
g1
(g10
g3
NtRp49
(dp50
g13
F-21.023177558638643
sg14
I1
sg15
I01
sg16
I2
sg17
I1
sbs(I2
I14
tp51
g1
(g10
g3
NtRp52
(dp53
g13
F8.1969543186016853
sg14
I2
sg15
I01
sg16
I14
sg17
I129
sbs(I3
I3
tp54
g1
(g10
g3
NtRp55
(dp56
g13
F-3.6625158212499977
sg14
I3
sg15
I01
sg16
I3
sg17
I6
sbs(I5
I12
tp57
g1
(g10
g3
NtRp58
(dp59
g13
F2.6692691115972562
sg14
I5
sg15
I01
sg16
I12
sg17
I87
sbs(I6
I3
tp60
g1
(g10
g3
NtRp61
(dp62
g13
F-4.2239690471888691
sg14
I6
sg15
I01
sg16
I3
sg17
I37
sbs(I1
I5
tp63
g1
(g10
g3
NtRp64
(dp65
g13
F0.54994682010443552
sg14
I1
sg15
I01
sg16
I5
sg17
I14
sbs(I13
I7
tp66
g1
(g10
g3
NtRp67
(dp68
g13
F14.207258703480427
sg14
I13
sg15
I01
sg16
I7
sg17
I136
sbs(I2
I2
tp69
g1
(g10
g3
NtRp70
(dp71
g13
F-5.8121209153149227
sg14
I2
sg15
I00
sg16
I2
sg17
I4
sbs(I1
I10
tp72
g1
(g10
g3
NtRp73
(dp74
g13
F-0.58994140211040902
sg14
I1
sg15
I01
sg16
I10
sg17
I65
sbs(I8
I6
tp75
g1
(g10
g3
NtRp76
(dp77
g13
F-7.9820825468519008
sg14
I8
sg15
I01
sg16
I6
sg17
I51
sbs(I11
I13
tp78
g1
(g10
g3
NtRp79
(dp80
g13
F-20.927429841540139
sg14
I11
sg15
I01
sg16
I13
sg17
I156
sbs(I3
I2
tp81
g1
(g10
g3
NtRp82
(dp83
g13
F5.8904166277507652
sg14
I3
sg15
I00
sg16
I2
sg17
I3
sbs(I2
I6
tp84
g1
(g10
g3
NtRp85
(dp86
g13
F-22.400649293199518
sg14
I2
sg15
I01
sg16
I6
sg17
I15
sbs(I9
I3
tp87
g1
(g10
g3
NtRp88
(dp89
g13
F4.8948889002792555
sg14
I9
sg15
I01
sg16
I3
sg17
I95
sbs(I12
I10
tp90
g1
(g10
g3
NtRp91
(dp92
g13
F-26.650047532374128
sg14
I12
sg15
I01
sg16
I10
sg17
I103
sbs(I4
I2
tp93
g1
(g10
g3
NtRp94
(dp95
g13
F-13.231274341499601
sg14
I4
sg15
I01
sg16
I2
sg17
I8
sbs(I14
I2
tp96
g1
(g10
g3
NtRp97
(dp98
g13
F-3.5309811914147531
sg14
I14
sg15
I01
sg16
I2
sg17
I130
sbs(I11
I7
tp99
g1
(g10
g3
NtRp100
(dp101
g13
F-17.577480515180834
sg14
I11
sg15
I00
sg16
I7
sg17
I107
sbs(I6
I9
tp102
g1
(g10
g3
NtRp103
(dp104
g13
F-3.070795237606128
sg14
I6
sg15
I01
sg16
I9
sg17
I56
sbs(I5
I10
tp105
g1
(g10
g3
NtRp106
(dp107
g13
F-12.035438593685011
sg14
I5
sg15
I00
sg16
I10
sg17
I78
sbs(I9
I2
tp108
g1
(g10
g3
NtRp109
(dp110
g13
F28.457840604815676
sg14
I9
sg15
I01
sg16
I2
sg17
I59
sbs(I5
I2
tp111
g1
(g10
g3
NtRp112
(dp113
g13
F-28.173678175545113
sg14
I5
sg15
I01
sg16
I2
sg17
I11
sbs(I11
I3
tp114
g1
(g10
g3
NtRp115
(dp116
g13
F-10.990724619688104
sg14
I11
sg15
I01
sg16
I3
sg17
I99
sbs(I3
I8
tp117
g1
(g10
g3
NtRp118
(dp119
g13
F-6.3090729104445362
sg14
I3
sg15
I01
sg16
I8
sg17
I45
sbs(I9
I5
tp120
g1
(g10
g3
NtRp121
(dp122
g13
F10.527574202247695
sg14
I9
sg15
I01
sg16
I5
sg17
I57
sbs(I3
I4
tp123
g1
(g10
g3
NtRp124
(dp125
g13
F6.5124968928892448
sg14
I3
sg15
I01
sg16
I4
sg17
I9
sbs(I9
I12
tp126
g1
(g10
g3
NtRp127
(dp128
g13
F-1.8523876741741236
sg14
I9
sg15
I01
sg16
I12
sg17
I82
sbs(I10
I2
tp129
g1
(g10
g3
NtRp130
(dp131
g13
F-8.5470201777887098
sg14
I10
sg15
I01
sg16
I2
sg17
I64
sbssS'_input_nodes'
p132
I1
sS'_output_nodes'
p133
I1
sS'_node_gene_type'
p134
cneat.genome
NodeGene
p135
sS'_conn_gene_type'
p136
g10
sS'fitness'
p137
F0.93892007266300936
sS'parent2_id'
p138
I5278
sS'_id'
p139
I5291
sS'parent1_id'
p140
I5278
sS'_node_genes'
p141
(lp142
g1
(g135
g3
NtRp143
(dp144
S'_bias'
p145
I0
sS'_type'
p146
S'INPUT'
p147
sg139
I1
sS'_response'
p148
F4.9242730000000003
sS'_activation_type'
p149
Nsbag1
(g135
g3
NtRp150
(dp151
g145
F1.6858539582610872
sg146
S'OUTPUT'
p152
sg139
I2
sg148
F3.8391114373931279
sg149
S'tanh'
p153
sbag1
(g135
g3
NtRp154
(dp155
g145
F-1.6784950558670126
sg146
S'HIDDEN'
p156
sg139
I3
sg148
F13.88501548929187
sg149
g153
sbag1
(g135
g3
NtRp157
(dp158
g145
F4.1187200027895008
sg146
g156
sg139
I4
sg148
F3.9873859686719206
sg149
g153
sbag1
(g135
g3
NtRp159
(dp160
g145
F0.49960086341889154
sg146
g156
sg139
I5
sg148
F-2.2658765207791305
sg149
g153
sbag1
(g135
g3
NtRp161
(dp162
g145
F-1.7975467978810209
sg146
g156
sg139
I6
sg148
F1.9577462262823466
sg149
g153
sbag1
(g135
g3
NtRp163
(dp164
g145
F1.3400511297227955
sg146
g156
sg139
I7
sg148
F6.4891133485946133
sg149
g153
sbag1
(g135
g3
NtRp165
(dp166
g145
F-3.6163154342298283
sg146
g156
sg139
I8
sg148
F4.3946767990833653
sg149
g153
sbag1
(g135
g3
NtRp167
(dp168
g145
F1.0703303443840928
sg146
g156
sg139
I9
sg148
F3.9951738270782049
sg149
g153
sbag1
(g135
g3
NtRp169
(dp170
g145
F0.40131048885559284
sg146
g156
sg139
I10
sg148
F6.2564466620573524
sg149
g153
sbag1
(g135
g3
NtRp171
(dp172
g145
F-0.59365108581759785
sg146
g156
sg139
I11
sg148
F3.6285551931876583
sg149
g153
sbag1
(g135
g3
NtRp173
(dp174
g145
F-1.0151618922917554
sg146
g156
sg139
I12
sg148
F4.5668533069596062
sg149
g153
sbag1
(g135
g3
NtRp175
(dp176
g145
F0.24363175874647069
sg146
g156
sg139
I13
sg148
F9.0729189267814014
sg149
g153
sbag1
(g135
g3
NtRp177
(dp178
g145
F-1.0536592752230938
sg146
g156
sg139
I14
sg148
F3.5890483912856972
sg149
g153
sbasb.