ccopy_reg
_reconstructor
p1
(cneat.chromosome
Chromosome
p2
c__builtin__
object
p3
NtRp4
(dp5
S'species_id'
p6
I57
sS'_connection_genes'
p7
(dp8
(I4
I7
tp9
g1
(cneat.genome
ConnectionGene
p10
g3
NtRp11
(dp12
S'_ConnectionGene__weight'
p13
F-5.8960897597336528
sS'_ConnectionGene__in'
p14
I4
sS'_ConnectionGene__enabled'
p15
I01
sS'_ConnectionGene__out'
p16
I7
sS'_ConnectionGene__innov_number'
p17
I29
sbs(I1
I3
tp18
g1
(g10
g3
NtRp19
(dp20
g13
F3.8110898011209851
sg14
I1
sg15
I01
sg16
I3
sg17
I2
sbs(I8
I13
tp21
g1
(g10
g3
NtRp22
(dp23
g13
F3.4500792305240822
sg14
I8
sg15
I01
sg16
I13
sg17
I124
sbs(I6
I6
tp24
g1
(g10
g3
NtRp25
(dp26
g13
F9.0517932876082732
sg14
I6
sg15
I01
sg16
I6
sg17
I34
sbs(I7
I12
tp27
g1
(g10
g3
NtRp28
(dp29
g13
F-5.3411931269402535
sg14
I7
sg15
I01
sg16
I12
sg17
I102
sbs(I2
I8
tp30
g1
(g10
g3
NtRp31
(dp32
g13
F-17.324457409456581
sg14
I2
sg15
I01
sg16
I8
sg17
I46
sbs(I12
I12
tp33
g1
(g10
g3
NtRp34
(dp35
g13
F15.503628687793752
sg14
I12
sg15
I01
sg16
I12
sg17
I160
sbs(I3
I11
tp36
g1
(g10
g3
NtRp37
(dp38
g13
F-19.311567473719556
sg14
I3
sg15
I01
sg16
I11
sg17
I98
sbs(I8
I9
tp39
g1
(g10
g3
NtRp40
(dp41
g13
F-14.295698434478339
sg14
I8
sg15
I01
sg16
I9
sg17
I61
sbs(I6
I2
tp42
g1
(g10
g3
NtRp43
(dp44
g13
F2.4210312843561184
sg14
I6
sg15
I01
sg16
I2
sg17
I23
sbs(I17
I2
tp45
g1
(g10
g3
NtRp46
(dp47
g13
F-26.449456503477666
sg14
I17
sg15
I01
sg16
I2
sg17
I239
sbs(I2
I5
tp48
g1
(g10
g3
NtRp49
(dp50
g13
F-18.478126928454181
sg14
I2
sg15
I01
sg16
I5
sg17
I10
sbs(I6
I9
tp51
g1
(g10
g3
NtRp52
(dp53
g13
F14.739411197837885
sg14
I6
sg15
I01
sg16
I9
sg17
I56
sbs(I7
I2
tp54
g1
(g10
g3
NtRp55
(dp56
g13
F-26.449456503477666
sg14
I7
sg15
I00
sg16
I2
sg17
I21
sbs(I1
I2
tp57
g1
(g10
g3
NtRp58
(dp59
g13
F5.4087214783650506
sg14
I1
sg15
I01
sg16
I2
sg17
I1
sbs(I3
I8
tp60
g1
(g10
g3
NtRp61
(dp62
g13
F4.4050569885162751
sg14
I3
sg15
I01
sg16
I8
sg17
I45
sbs(I14
I2
tp63
g1
(g10
g3
NtRp64
(dp65
g13
F15.456834944229065
sg14
I14
sg15
I01
sg16
I2
sg17
I130
sbs(I3
I3
tp66
g1
(g10
g3
NtRp67
(dp68
g13
F7.6203224381281061
sg14
I3
sg15
I01
sg16
I3
sg17
I6
sbs(I5
I12
tp69
g1
(g10
g3
NtRp70
(dp71
g13
F2.6701348069744633
sg14
I5
sg15
I01
sg16
I12
sg17
I87
sbs(I3
I4
tp72
g1
(g10
g3
NtRp73
(dp74
g13
F12.74216244194897
sg14
I3
sg15
I01
sg16
I4
sg17
I9
sbs(I6
I3
tp75
g1
(g10
g3
NtRp76
(dp77
g13
F-30
sg14
I6
sg15
I01
sg16
I3
sg17
I37
sbs(I1
I5
tp78
g1
(g10
g3
NtRp79
(dp80
g13
F6.6928032608568255
sg14
I1
sg15
I00
sg16
I5
sg17
I14
sbs(I13
I7
tp81
g1
(g10
g3
NtRp82
(dp83
g13
F6.8665320633448035
sg14
I13
sg15
I01
sg16
I7
sg17
I136
sbs(I3
I14
tp84
g1
(g10
g3
NtRp85
(dp86
g13
F-10.813780861546029
sg14
I3
sg15
I01
sg16
I14
sg17
I157
sbs(I2
I2
tp87
g1
(g10
g3
NtRp88
(dp89
g13
F18.404196295968873
sg14
I2
sg15
I00
sg16
I2
sg17
I4
sbs(I1
I10
tp90
g1
(g10
g3
NtRp91
(dp92
g13
F-11.359283145961829
sg14
I1
sg15
I01
sg16
I10
sg17
I65
sbs(I8
I6
tp93
g1
(g10
g3
NtRp94
(dp95
g13
F-27.506671225347034
sg14
I8
sg15
I01
sg16
I6
sg17
I51
sbs(I11
I13
tp96
g1
(g10
g3
NtRp97
(dp98
g13
F-29.276644750613446
sg14
I11
sg15
I01
sg16
I13
sg17
I156
sbs(I3
I2
tp99
g1
(g10
g3
NtRp100
(dp101
g13
F12.794491488369315
sg14
I3
sg15
I00
sg16
I2
sg17
I3
sbs(I2
I6
tp102
g1
(g10
g3
NtRp103
(dp104
g13
F-28.503721137117328
sg14
I2
sg15
I01
sg16
I6
sg17
I15
sbs(I12
I14
tp105
g1
(g10
g3
NtRp106
(dp107
g13
F-2.8525351803764822
sg14
I12
sg15
I01
sg16
I14
sg17
I221
sbs(I9
I3
tp108
g1
(g10
g3
NtRp109
(dp110
g13
F12.073183994079422
sg14
I9
sg15
I01
sg16
I3
sg17
I95
sbs(I15
I10
tp111
g1
(g10
g3
NtRp112
(dp113
g13
F-14.841156333073695
sg14
I15
sg15
I01
sg16
I10
sg17
I189
sbs(I12
I10
tp114
g1
(g10
g3
NtRp115
(dp116
g13
F-26.01095198190303
sg14
I12
sg15
I00
sg16
I10
sg17
I103
sbs(I4
I2
tp117
g1
(g10
g3
NtRp118
(dp119
g13
F4.1173835234958007
sg14
I4
sg15
I01
sg16
I2
sg17
I8
sbs(I2
I14
tp120
g1
(g10
g3
NtRp121
(dp122
g13
F9.8060828075926949
sg14
I2
sg15
I01
sg16
I14
sg17
I129
sbs(I5
I3
tp123
g1
(g10
g3
NtRp124
(dp125
g13
F-0.16804350009823388
sg14
I5
sg15
I01
sg16
I3
sg17
I27
sbs(I11
I7
tp126
g1
(g10
g3
NtRp127
(dp128
g13
F-25.386397668448662
sg14
I11
sg15
I00
sg16
I7
sg17
I107
sbs(I12
I15
tp129
g1
(g10
g3
NtRp130
(dp131
g13
F1.5365809271747335
sg14
I12
sg15
I01
sg16
I15
sg17
I217
sbs(I5
I10
tp132
g1
(g10
g3
NtRp133
(dp134
g13
F16.477773940420278
sg14
I5
sg15
I00
sg16
I10
sg17
I78
sbs(I16
I5
tp135
g1
(g10
g3
NtRp136
(dp137
g13
F-11.402791221034059
sg14
I16
sg15
I01
sg16
I5
sg17
I178
sbs(I9
I2
tp138
g1
(g10
g3
NtRp139
(dp140
g13
F18.784470650189387
sg14
I9
sg15
I01
sg16
I2
sg17
I59
sbs(I5
I2
tp141
g1
(g10
g3
NtRp142
(dp143
g13
F-27.201898742192824
sg14
I5
sg15
I01
sg16
I2
sg17
I11
sbs(I16
I8
tp144
g1
(g10
g3
NtRp145
(dp146
g13
F-1.4093992532514579
sg14
I16
sg15
I01
sg16
I8
sg17
I172
sbs(I14
I7
tp147
g1
(g10
g3
NtRp148
(dp149
g13
F-2.60642097905244
sg14
I14
sg15
I01
sg16
I7
sg17
I263
sbs(I11
I3
tp150
g1
(g10
g3
NtRp151
(dp152
g13
F-10.193378884792445
sg14
I11
sg15
I01
sg16
I3
sg17
I99
sbs(I7
I4
tp153
g1
(g10
g3
NtRp154
(dp155
g13
F-1.7232143023816755
sg14
I7
sg15
I01
sg16
I4
sg17
I32
sbs(I7
I17
tp156
g1
(g10
g3
NtRp157
(dp158
g13
F1
sg14
I7
sg15
I01
sg16
I17
sg17
I238
sbs(I9
I5
tp159
g1
(g10
g3
NtRp160
(dp161
g13
F-9.2597361202141322
sg14
I9
sg15
I01
sg16
I5
sg17
I57
sbs(I7
I8
tp162
g1
(g10
g3
NtRp163
(dp164
g13
F3.4091892053961192
sg14
I7
sg15
I01
sg16
I8
sg17
I52
sbs(I1
I16
tp165
g1
(g10
g3
NtRp166
(dp167
g13
F1.2637342353963057
sg14
I1
sg15
I01
sg16
I16
sg17
I245
sbs(I9
I12
tp168
g1
(g10
g3
NtRp169
(dp170
g13
F6.3701475821207882
sg14
I9
sg15
I01
sg16
I12
sg17
I82
sbs(I10
I2
tp171
g1
(g10
g3
NtRp172
(dp173
g13
F-16.523718101341046
sg14
I10
sg15
I01
sg16
I2
sg17
I64
sbssS'_input_nodes'
p174
I1
sS'_output_nodes'
p175
I1
sS'_node_gene_type'
p176
cneat.genome
NodeGene
p177
sS'_conn_gene_type'
p178
g10
sS'fitness'
p179
F0.94500804938741212
sS'parent2_id'
p180
I7051
sS'_id'
p181
I7069
sS'parent1_id'
p182
I7051
sS'_node_genes'
p183
(lp184
g1
(g177
g3
NtRp185
(dp186
S'_bias'
p187
I0
sS'_type'
p188
S'INPUT'
p189
sg181
I1
sS'_response'
p190
F4.9242730000000003
sS'_activation_type'
p191
Nsbag1
(g177
g3
NtRp192
(dp193
g187
F-0.35090234752334942
sg188
S'OUTPUT'
p194
sg181
I2
sg190
F5.0310348186981422
sg191
S'tanh'
p195
sbag1
(g177
g3
NtRp196
(dp197
g187
F-4.0724951135477925
sg188
S'HIDDEN'
p198
sg181
I3
sg190
F14.05370308453956
sg191
g195
sbag1
(g177
g3
NtRp199
(dp200
g187
F6.492637050780468
sg188
g198
sg181
I4
sg190
F3.895099690111183
sg191
g195
sbag1
(g177
g3
NtRp201
(dp202
g187
F-3.3485388572154182
sg188
g198
sg181
I5
sg190
F-7.3079376156294789
sg191
g195
sbag1
(g177
g3
NtRp203
(dp204
g187
F-1.8926198439683164
sg188
g198
sg181
I6
sg190
F0.26235920826555237
sg191
g195
sbag1
(g177
g3
NtRp205
(dp206
g187
F3.8115242202548734
sg188
g198
sg181
I7
sg190
F6.8626087535663309
sg191
g195
sbag1
(g177
g3
NtRp207
(dp208
g187
F-4.5690024954232644
sg188
g198
sg181
I8
sg190
F10.424408742620196
sg191
g195
sbag1
(g177
g3
NtRp209
(dp210
g187
F4.474956237345749
sg188
g198
sg181
I9
sg190
F4.8028122366704427
sg191
g195
sbag1
(g177
g3
NtRp211
(dp212
g187
F-1.2672143568503969
sg188
g198
sg181
I10
sg190
F7.4757411012020123
sg191
g195
sbag1
(g177
g3
NtRp213
(dp214
g187
F0.34023333399633937
sg188
g198
sg181
I11
sg190
F2.6828324413623803
sg191
g195
sbag1
(g177
g3
NtRp215
(dp216
g187
F2.1255947484215563
sg188
g198
sg181
I12
sg190
F5.1188164212099245
sg191
g195
sbag1
(g177
g3
NtRp217
(dp218
g187
F1.1390272470503147
sg188
g198
sg181
I13
sg190
F7.6982069598332634
sg191
g195
sbag1
(g177
g3
NtRp219
(dp220
g187
F-1.1616442958193518
sg188
g198
sg181
I14
sg190
F4.315799870642234
sg191
g195
sbag1
(g177
g3
NtRp221
(dp222
g187
F1.6742126958031671
sg188
g198
sg181
I15
sg190
F4.6633617048996392
sg191
g195
sbag1
(g177
g3
NtRp223
(dp224
g187
F-3.4487610836218758
sg188
g198
sg181
I16
sg190
F5.0455894830106329
sg191
g195
sbag1
(g177
g3
NtRp225
(dp226
g187
I0
sg188
g198
sg181
I17
sg190
F4.9242730000000003
sg191
g195
sbasb.