ccopy_reg
_reconstructor
p1
(cneat.chromosome
Chromosome
p2
c__builtin__
object
p3
NtRp4
(dp5
S'species_id'
p6
I19
sS'_connection_genes'
p7
(dp8
(I1
I2
tp9
g1
(cneat.genome
ConnectionGene
p10
g3
NtRp11
(dp12
S'_ConnectionGene__weight'
p13
F16.502234649795216
sS'_ConnectionGene__in'
p14
I1
sS'_ConnectionGene__enabled'
p15
I01
sS'_ConnectionGene__out'
p16
I2
sS'_ConnectionGene__innov_number'
p17
I1
sbs(I3
I2
tp18
g1
(g10
g3
NtRp19
(dp20
g13
F-8.5623932269722687
sg14
I3
sg15
I01
sg16
I2
sg17
I3
sbs(I1
I3
tp21
g1
(g10
g3
NtRp22
(dp23
g13
F2.0126319339524348
sg14
I1
sg15
I01
sg16
I3
sg17
I2
sbs(I3
I4
tp24
g1
(g10
g3
NtRp25
(dp26
g13
F-20.665983067173848
sg14
I3
sg15
I01
sg16
I4
sg17
I9
sbs(I4
I4
tp27
g1
(g10
g3
NtRp28
(dp29
g13
F8.0742460879442408
sg14
I4
sg15
I01
sg16
I4
sg17
I26
sbs(I1
I5
tp30
g1
(g10
g3
NtRp31
(dp32
g13
F20.3319946710008
sg14
I1
sg15
I01
sg16
I5
sg17
I14
sbs(I2
I6
tp33
g1
(g10
g3
NtRp34
(dp35
g13
F-8.6462711196347559
sg14
I2
sg15
I01
sg16
I6
sg17
I15
sbs(I2
I2
tp36
g1
(g10
g3
NtRp37
(dp38
g13
F-25.952769485126019
sg14
I2
sg15
I00
sg16
I2
sg17
I4
sbs(I4
I2
tp39
g1
(g10
g3
NtRp40
(dp41
g13
F-5.859244655478971
sg14
I4
sg15
I01
sg16
I2
sg17
I8
sbs(I2
I5
tp42
g1
(g10
g3
NtRp43
(dp44
g13
F9.1998702418482239
sg14
I2
sg15
I00
sg16
I5
sg17
I10
sbs(I5
I2
tp45
g1
(g10
g3
NtRp46
(dp47
g13
F-26.776576581304525
sg14
I5
sg15
I01
sg16
I2
sg17
I11
sbs(I6
I5
tp48
g1
(g10
g3
NtRp49
(dp50
g13
F11.335807022078249
sg14
I6
sg15
I01
sg16
I5
sg17
I16
sbs(I3
I5
tp51
g1
(g10
g3
NtRp52
(dp53
g13
F-2.2346548681648892
sg14
I3
sg15
I01
sg16
I5
sg17
I17
sbssS'_input_nodes'
p54
I1
sS'_output_nodes'
p55
I1
sS'_node_gene_type'
p56
cneat.genome
NodeGene
p57
sS'_conn_gene_type'
p58
g10
sS'fitness'
p59
F0.76905040692791549
sS'parent2_id'
p60
I1546
sS'_id'
p61
I1564
sS'parent1_id'
p62
I1546
sS'_node_genes'
p63
(lp64
g1
(g57
g3
NtRp65
(dp66
S'_bias'
p67
I0
sS'_type'
p68
S'INPUT'
p69
sg61
I1
sS'_response'
p70
F4.9242730000000003
sS'_activation_type'
p71
Nsbag1
(g57
g3
NtRp72
(dp73
g67
F-0.46990219236686076
sg68
S'OUTPUT'
p74
sg61
I2
sg70
F4.9944091074691626
sg71
S'tanh'
p75
sbag1
(g57
g3
NtRp76
(dp77
g67
F-2.0706093275750539
sg68
S'HIDDEN'
p78
sg61
I3
sg70
F3.5479345405224687
sg71
g75
sbag1
(g57
g3
NtRp79
(dp80
g67
F1.7100696130322715
sg68
g78
sg61
I4
sg70
F2.8044116510966846
sg71
g75
sbag1
(g57
g3
NtRp81
(dp82
g67
F-0.58598095481985635
sg68
g78
sg61
I5
sg70
F5.5687513712970551
sg71
g75
sbag1
(g57
g3
NtRp83
(dp84
g67
F-4.3171841280854268
sg68
g78
sg61
I6
sg70
F3.0647945331936004
sg71
g75
sbasb.