ccopy_reg
_reconstructor
p1
(cneat.chromosome
Chromosome
p2
c__builtin__
object
p3
NtRp4
(dp5
S'species_id'
p6
I58
sS'_connection_genes'
p7
(dp8
(I4
I7
tp9
g1
(cneat.genome
ConnectionGene
p10
g3
NtRp11
(dp12
S'_ConnectionGene__weight'
p13
F2.8916590661277501
sS'_ConnectionGene__in'
p14
I4
sS'_ConnectionGene__enabled'
p15
I01
sS'_ConnectionGene__out'
p16
I7
sS'_ConnectionGene__innov_number'
p17
I29
sbs(I1
I3
tp18
g1
(g10
g3
NtRp19
(dp20
g13
F17.02193967381071
sg14
I1
sg15
I01
sg16
I3
sg17
I2
sbs(I8
I13
tp21
g1
(g10
g3
NtRp22
(dp23
g13
F-0.12232108356703963
sg14
I8
sg15
I01
sg16
I13
sg17
I124
sbs(I6
I6
tp24
g1
(g10
g3
NtRp25
(dp26
g13
F5.5328601584281412
sg14
I6
sg15
I01
sg16
I6
sg17
I34
sbs(I7
I12
tp27
g1
(g10
g3
NtRp28
(dp29
g13
F-10.37373591659731
sg14
I7
sg15
I01
sg16
I12
sg17
I102
sbs(I2
I8
tp30
g1
(g10
g3
NtRp31
(dp32
g13
F-13.250855110858954
sg14
I2
sg15
I01
sg16
I8
sg17
I46
sbs(I12
I12
tp33
g1
(g10
g3
NtRp34
(dp35
g13
F13.445609360300992
sg14
I12
sg15
I00
sg16
I12
sg17
I160
sbs(I3
I11
tp36
g1
(g10
g3
NtRp37
(dp38
g13
F-18.736218444006731
sg14
I3
sg15
I01
sg16
I11
sg17
I98
sbs(I8
I9
tp39
g1
(g10
g3
NtRp40
(dp41
g13
F-18.459814311884532
sg14
I8
sg15
I01
sg16
I9
sg17
I61
sbs(I6
I2
tp42
g1
(g10
g3
NtRp43
(dp44
g13
F7.9670594964748318
sg14
I6
sg15
I01
sg16
I2
sg17
I23
sbs(I18
I8
tp45
g1
(g10
g3
NtRp46
(dp47
g13
F7.9009508358816998
sg14
I18
sg15
I01
sg16
I8
sg17
I206
sbs(I2
I5
tp48
g1
(g10
g3
NtRp49
(dp50
g13
F-10.100693919558118
sg14
I2
sg15
I01
sg16
I5
sg17
I10
sbs(I3
I17
tp51
g1
(g10
g3
NtRp52
(dp53
g13
F21.61096796516691
sg14
I3
sg15
I01
sg16
I17
sg17
I271
sbs(I6
I9
tp54
g1
(g10
g3
NtRp55
(dp56
g13
F27.884107020668075
sg14
I6
sg15
I01
sg16
I9
sg17
I56
sbs(I3
I14
tp57
g1
(g10
g3
NtRp58
(dp59
g13
F-16.220724211312486
sg14
I3
sg15
I00
sg16
I14
sg17
I157
sbs(I1
I2
tp60
g1
(g10
g3
NtRp61
(dp62
g13
F13.304050473442183
sg14
I1
sg15
I01
sg16
I2
sg17
I1
sbs(I6
I3
tp63
g1
(g10
g3
NtRp64
(dp65
g13
F-29.2803673305357
sg14
I6
sg15
I01
sg16
I3
sg17
I37
sbs(I14
I2
tp66
g1
(g10
g3
NtRp67
(dp68
g13
F20.594116448295033
sg14
I14
sg15
I01
sg16
I2
sg17
I130
sbs(I3
I3
tp69
g1
(g10
g3
NtRp70
(dp71
g13
F22.32383399375296
sg14
I3
sg15
I01
sg16
I3
sg17
I6
sbs(I1
I16
tp72
g1
(g10
g3
NtRp73
(dp74
g13
F4.5120916641767561
sg14
I1
sg15
I01
sg16
I16
sg17
I245
sbs(I4
I4
tp75
g1
(g10
g3
NtRp76
(dp77
g13
F-1.0785033962146826
sg14
I4
sg15
I01
sg16
I4
sg17
I26
sbs(I3
I4
tp78
g1
(g10
g3
NtRp79
(dp80
g13
F1.2603283430864958
sg14
I3
sg15
I01
sg16
I4
sg17
I9
sbs(I17
I2
tp81
g1
(g10
g3
NtRp82
(dp83
g13
F-0.64663187063704897
sg14
I17
sg15
I01
sg16
I2
sg17
I239
sbs(I1
I5
tp84
g1
(g10
g3
NtRp85
(dp86
g13
F-5.1741989508466464
sg14
I1
sg15
I00
sg16
I5
sg17
I14
sbs(I13
I7
tp87
g1
(g10
g3
NtRp88
(dp89
g13
F7.0870825081660911
sg14
I13
sg15
I01
sg16
I7
sg17
I136
sbs(I7
I2
tp90
g1
(g10
g3
NtRp91
(dp92
g13
F-26.233047682327705
sg14
I7
sg15
I01
sg16
I2
sg17
I21
sbs(I2
I2
tp93
g1
(g10
g3
NtRp94
(dp95
g13
F29.396148285491876
sg14
I2
sg15
I00
sg16
I2
sg17
I4
sbs(I1
I10
tp96
g1
(g10
g3
NtRp97
(dp98
g13
F2.5497841845684288
sg14
I1
sg15
I01
sg16
I10
sg17
I65
sbs(I8
I6
tp99
g1
(g10
g3
NtRp100
(dp101
g13
F-28.288914974670373
sg14
I8
sg15
I01
sg16
I6
sg17
I51
sbs(I11
I13
tp102
g1
(g10
g3
NtRp103
(dp104
g13
F-13.991168694793961
sg14
I11
sg15
I01
sg16
I13
sg17
I156
sbs(I3
I2
tp105
g1
(g10
g3
NtRp106
(dp107
g13
F23.580567415252723
sg14
I3
sg15
I01
sg16
I2
sg17
I3
sbs(I2
I6
tp108
g1
(g10
g3
NtRp109
(dp110
g13
F-20.690686340117246
sg14
I2
sg15
I00
sg16
I6
sg17
I15
sbs(I12
I14
tp111
g1
(g10
g3
NtRp112
(dp113
g13
F-10.738383365942205
sg14
I12
sg15
I01
sg16
I14
sg17
I221
sbs(I9
I3
tp114
g1
(g10
g3
NtRp115
(dp116
g13
F17.589214985968557
sg14
I9
sg15
I01
sg16
I3
sg17
I95
sbs(I2
I20
tp117
g1
(g10
g3
NtRp118
(dp119
g13
F-0.86211776504290505
sg14
I2
sg15
I01
sg16
I20
sg17
I300
sbs(I15
I10
tp120
g1
(g10
g3
NtRp121
(dp122
g13
F1.0919419287176539
sg14
I15
sg15
I01
sg16
I10
sg17
I189
sbs(I12
I10
tp123
g1
(g10
g3
NtRp124
(dp125
g13
F-27.64956305712909
sg14
I12
sg15
I01
sg16
I10
sg17
I103
sbs(I4
I2
tp126
g1
(g10
g3
NtRp127
(dp128
g13
F18.717790378347186
sg14
I4
sg15
I01
sg16
I2
sg17
I8
sbs(I2
I14
tp129
g1
(g10
g3
NtRp130
(dp131
g13
F11.068184399530542
sg14
I2
sg15
I01
sg16
I14
sg17
I129
sbs(I5
I3
tp132
g1
(g10
g3
NtRp133
(dp134
g13
F8.7564469137226837
sg14
I5
sg15
I01
sg16
I3
sg17
I27
sbs(I11
I7
tp135
g1
(g10
g3
NtRp136
(dp137
g13
F-14.618439351419038
sg14
I11
sg15
I00
sg16
I7
sg17
I107
sbs(I12
I15
tp138
g1
(g10
g3
NtRp139
(dp140
g13
F5.4320608897678193
sg14
I12
sg15
I01
sg16
I15
sg17
I217
sbs(I5
I10
tp141
g1
(g10
g3
NtRp142
(dp143
g13
F25.798989080761697
sg14
I5
sg15
I00
sg16
I10
sg17
I78
sbs(I16
I5
tp144
g1
(g10
g3
NtRp145
(dp146
g13
F-11.460845823215312
sg14
I16
sg15
I01
sg16
I5
sg17
I178
sbs(I9
I2
tp147
g1
(g10
g3
NtRp148
(dp149
g13
F25.102820953552225
sg14
I9
sg15
I01
sg16
I2
sg17
I59
sbs(I5
I2
tp150
g1
(g10
g3
NtRp151
(dp152
g13
F-21.746327597874515
sg14
I5
sg15
I01
sg16
I2
sg17
I11
sbs(I16
I8
tp153
g1
(g10
g3
NtRp154
(dp155
g13
F-18.419063791853922
sg14
I16
sg15
I01
sg16
I8
sg17
I172
sbs(I14
I7
tp156
g1
(g10
g3
NtRp157
(dp158
g13
F-12.829336615583651
sg14
I14
sg15
I01
sg16
I7
sg17
I263
sbs(I11
I3
tp159
g1
(g10
g3
NtRp160
(dp161
g13
F-9.4185167679824815
sg14
I11
sg15
I01
sg16
I3
sg17
I99
sbs(I12
I19
tp162
g1
(g10
g3
NtRp163
(dp164
g13
F9.1381312694885501
sg14
I12
sg15
I01
sg16
I19
sg17
I281
sbs(I14
I8
tp165
g1
(g10
g3
NtRp166
(dp167
g13
F-2.1553659540532148
sg14
I14
sg15
I01
sg16
I8
sg17
I132
sbs(I3
I8
tp168
g1
(g10
g3
NtRp169
(dp170
g13
F-9.7002925994978551
sg14
I3
sg15
I00
sg16
I8
sg17
I45
sbs(I3
I18
tp171
g1
(g10
g3
NtRp172
(dp173
g13
F1.3872904345812038
sg14
I3
sg15
I01
sg16
I18
sg17
I248
sbs(I19
I12
tp174
g1
(g10
g3
NtRp175
(dp176
g13
F2.3298775692871421
sg14
I19
sg15
I01
sg16
I12
sg17
I257
sbs(I20
I6
tp177
g1
(g10
g3
NtRp178
(dp179
g13
F-25.968705522138698
sg14
I20
sg15
I01
sg16
I6
sg17
I301
sbs(I9
I5
tp180
g1
(g10
g3
NtRp181
(dp182
g13
F-1.3448586521613708
sg14
I9
sg15
I01
sg16
I5
sg17
I57
sbs(I7
I8
tp183
g1
(g10
g3
NtRp184
(dp185
g13
F16.398850227202967
sg14
I7
sg15
I01
sg16
I8
sg17
I52
sbs(I5
I12
tp186
g1
(g10
g3
NtRp187
(dp188
g13
F-13.632842699616138
sg14
I5
sg15
I01
sg16
I12
sg17
I87
sbs(I9
I12
tp189
g1
(g10
g3
NtRp190
(dp191
g13
F-5.1145147639568442
sg14
I9
sg15
I01
sg16
I12
sg17
I82
sbs(I10
I2
tp192
g1
(g10
g3
NtRp193
(dp194
g13
F-5.5159237073940641
sg14
I10
sg15
I01
sg16
I2
sg17
I64
sbssS'_input_nodes'
p195
I1
sS'_output_nodes'
p196
I1
sS'_node_gene_type'
p197
cneat.genome
NodeGene
p198
sS'_conn_gene_type'
p199
g10
sS'fitness'
p200
F0.98476592126254869
sS'parent2_id'
p201
I7917
sS'_id'
p202
I7940
sS'parent1_id'
p203
I7917
sS'_node_genes'
p204
(lp205
g1
(g198
g3
NtRp206
(dp207
S'_bias'
p208
I0
sS'_type'
p209
S'INPUT'
p210
sg202
I1
sS'_response'
p211
F4.9242730000000003
sS'_activation_type'
p212
Nsbag1
(g198
g3
NtRp213
(dp214
g208
F-0.68463509416464963
sg209
S'OUTPUT'
p215
sg202
I2
sg211
F4.3499749237555587
sg212
S'tanh'
p216
sbag1
(g198
g3
NtRp217
(dp218
g208
F-4.1338341336957107
sg209
S'HIDDEN'
p219
sg202
I3
sg211
F15.839629709286195
sg212
g216
sbag1
(g198
g3
NtRp220
(dp221
g208
F6.0003855046708683
sg209
g219
sg202
I4
sg211
F3.7666126401234488
sg212
g216
sbag1
(g198
g3
NtRp222
(dp223
g208
F-4.4902924473301304
sg209
g219
sg202
I5
sg211
F-7.1107134094059647
sg212
g216
sbag1
(g198
g3
NtRp224
(dp225
g208
F-4.7010460924054804
sg209
g219
sg202
I6
sg211
F-0.85336552543649224
sg212
g216
sbag1
(g198
g3
NtRp226
(dp227
g208
F4.2691610451280289
sg209
g219
sg202
I7
sg211
F5.4775121414296404
sg212
g216
sbag1
(g198
g3
NtRp228
(dp229
g208
F-4.8161185675620022
sg209
g219
sg202
I8
sg211
F10.783598550374426
sg212
g216
sbag1
(g198
g3
NtRp230
(dp231
g208
F1.7290289591102774
sg209
g219
sg202
I9
sg211
F2.580087849326695
sg212
g216
sbag1
(g198
g3
NtRp232
(dp233
g208
F-0.31146138532793877
sg209
g219
sg202
I10
sg211
F6.4790101585066395
sg212
g216
sbag1
(g198
g3
NtRp234
(dp235
g208
F-0.18212322363786565
sg209
g219
sg202
I11
sg211
F2.9323449847907801
sg212
g216
sbag1
(g198
g3
NtRp236
(dp237
g208
F2.9982017157723928
sg209
g219
sg202
I12
sg211
F6.0228177263483955
sg212
g216
sbag1
(g198
g3
NtRp238
(dp239
g208
F2.5888172935084661
sg209
g219
sg202
I13
sg211
F7.0602972482635939
sg212
g216
sbag1
(g198
g3
NtRp240
(dp241
g208
F-1.884227971571528
sg209
g219
sg202
I14
sg211
F4.808164895919373
sg212
g216
sbag1
(g198
g3
NtRp242
(dp243
g208
F1.4134138506790288
sg209
g219
sg202
I15
sg211
F4.2811953416783064
sg212
g216
sbag1
(g198
g3
NtRp244
(dp245
g208
F-2.9100440888131573
sg209
g219
sg202
I16
sg211
F5.5244319516360232
sg212
g216
sbag1
(g198
g3
NtRp246
(dp247
g208
F-0.62432845669015102
sg209
g219
sg202
I17
sg211
F3.9615291570241946
sg212
g216
sbag1
(g198
g3
NtRp248
(dp249
g208
F0.4668230536669335
sg209
g219
sg202
I18
sg211
F4.921593461816804
sg212
g216
sbag1
(g198
g3
NtRp250
(dp251
g208
F1.3110090936286842
sg209
g219
sg202
I19
sg211
F4.0393135778030196
sg212
g216
sbag1
(g198
g3
NtRp252
(dp253
g208
F-1.0904002718171484
sg209
g219
sg202
I20
sg211
F5.6154927595887889
sg212
g216
sbasb.