ccopy_reg
_reconstructor
p1
(cneat.chromosome
Chromosome
p2
c__builtin__
object
p3
NtRp4
(dp5
S'species_id'
p6
I30
sS'_connection_genes'
p7
(dp8
(I4
I7
tp9
g1
(cneat.genome
ConnectionGene
p10
g3
NtRp11
(dp12
S'_ConnectionGene__weight'
p13
F-27.155295662333561
sS'_ConnectionGene__in'
p14
I4
sS'_ConnectionGene__enabled'
p15
I01
sS'_ConnectionGene__out'
p16
I7
sS'_ConnectionGene__innov_number'
p17
I29
sbs(I1
I3
tp18
g1
(g10
g3
NtRp19
(dp20
g13
F-10.184984337525899
sg14
I1
sg15
I01
sg16
I3
sg17
I2
sbs(I2
I8
tp21
g1
(g10
g3
NtRp22
(dp23
g13
F-10.383785864727164
sg14
I2
sg15
I01
sg16
I8
sg17
I46
sbs(I3
I11
tp24
g1
(g10
g3
NtRp25
(dp26
g13
F18.409151603545897
sg14
I3
sg15
I01
sg16
I11
sg17
I98
sbs(I6
I2
tp27
g1
(g10
g3
NtRp28
(dp29
g13
F24.022062442915242
sg14
I6
sg15
I00
sg16
I2
sg17
I23
sbs(I2
I5
tp30
g1
(g10
g3
NtRp31
(dp32
g13
F-2.4285288219056715
sg14
I2
sg15
I01
sg16
I5
sg17
I10
sbs(I7
I2
tp33
g1
(g10
g3
NtRp34
(dp35
g13
F-23.132404490985799
sg14
I7
sg15
I01
sg16
I2
sg17
I21
sbs(I1
I2
tp36
g1
(g10
g3
NtRp37
(dp38
g13
F-22.352423047777439
sg14
I1
sg15
I01
sg16
I2
sg17
I1
sbs(I3
I3
tp39
g1
(g10
g3
NtRp40
(dp41
g13
F2.720875246991965
sg14
I3
sg15
I00
sg16
I3
sg17
I6
sbs(I1
I5
tp42
g1
(g10
g3
NtRp43
(dp44
g13
F-2.7676334891541874
sg14
I1
sg15
I01
sg16
I5
sg17
I14
sbs(I2
I2
tp45
g1
(g10
g3
NtRp46
(dp47
g13
F-12.608509945830351
sg14
I2
sg15
I01
sg16
I2
sg17
I4
sbs(I3
I4
tp48
g1
(g10
g3
NtRp49
(dp50
g13
F8.0637306713921273
sg14
I3
sg15
I01
sg16
I4
sg17
I9
sbs(I8
I6
tp51
g1
(g10
g3
NtRp52
(dp53
g13
F3.5023862104439427
sg14
I8
sg15
I01
sg16
I6
sg17
I51
sbs(I3
I2
tp54
g1
(g10
g3
NtRp55
(dp56
g13
F11.412864428418976
sg14
I3
sg15
I01
sg16
I2
sg17
I3
sbs(I2
I6
tp57
g1
(g10
g3
NtRp58
(dp59
g13
F-8.1883364888078987
sg14
I2
sg15
I01
sg16
I6
sg17
I15
sbs(I4
I2
tp60
g1
(g10
g3
NtRp61
(dp62
g13
F-2.7311606076826798
sg14
I4
sg15
I01
sg16
I2
sg17
I8
sbs(I6
I9
tp63
g1
(g10
g3
NtRp64
(dp65
g13
F-11.982979433043713
sg14
I6
sg15
I01
sg16
I9
sg17
I56
sbs(I5
I10
tp66
g1
(g10
g3
NtRp67
(dp68
g13
F-1.007698710776249
sg14
I5
sg15
I01
sg16
I10
sg17
I78
sbs(I9
I2
tp69
g1
(g10
g3
NtRp70
(dp71
g13
F22.352852993406195
sg14
I9
sg15
I01
sg16
I2
sg17
I59
sbs(I5
I2
tp72
g1
(g10
g3
NtRp73
(dp74
g13
F15.410563620149222
sg14
I5
sg15
I00
sg16
I2
sg17
I11
sbs(I11
I3
tp75
g1
(g10
g3
NtRp76
(dp77
g13
F6.441181312487795
sg14
I11
sg15
I01
sg16
I3
sg17
I99
sbs(I7
I8
tp78
g1
(g10
g3
NtRp79
(dp80
g13
F-11.752025407840142
sg14
I7
sg15
I01
sg16
I8
sg17
I52
sbs(I10
I2
tp81
g1
(g10
g3
NtRp82
(dp83
g13
F8.8647026738931309
sg14
I10
sg15
I01
sg16
I2
sg17
I64
sbssS'_input_nodes'
p84
I1
sS'_output_nodes'
p85
I1
sS'_node_gene_type'
p86
cneat.genome
NodeGene
p87
sS'_conn_gene_type'
p88
g10
sS'fitness'
p89
F0.96842745779154926
sS'parent2_id'
p90
I3030
sS'_id'
p91
I3049
sS'parent1_id'
p92
I3030
sS'_node_genes'
p93
(lp94
g1
(g87
g3
NtRp95
(dp96
S'_bias'
p97
I0
sS'_type'
p98
S'INPUT'
p99
sg91
I1
sS'_response'
p100
F4.9242730000000003
sS'_activation_type'
p101
Nsbag1
(g87
g3
NtRp102
(dp103
g97
F0.88377706047274629
sg98
S'OUTPUT'
p104
sg91
I2
sg100
F2.105505913662757
sg101
S'tanh'
p105
sbag1
(g87
g3
NtRp106
(dp107
g97
F-0.072740335859475203
sg98
S'HIDDEN'
p108
sg91
I3
sg100
F8.0742150593440627
sg101
g105
sbag1
(g87
g3
NtRp109
(dp110
g97
F3.2681186028733409
sg98
g108
sg91
I4
sg100
F0.46873287986607604
sg101
g105
sbag1
(g87
g3
NtRp111
(dp112
g97
F2.8715843294459824
sg98
g108
sg91
I5
sg100
F1.7659701292860983
sg101
g105
sbag1
(g87
g3
NtRp113
(dp114
g97
F-0.54402176935999069
sg98
g108
sg91
I6
sg100
F0.72539682869382804
sg101
g105
sbag1
(g87
g3
NtRp115
(dp116
g97
F-0.27289782913650207
sg98
g108
sg91
I7
sg100
F5.8824639654373305
sg101
g105
sbag1
(g87
g3
NtRp117
(dp118
g97
F-0.47621098790980299
sg98
g108
sg91
I8
sg100
F2.5569695414660023
sg101
g105
sbag1
(g87
g3
NtRp119
(dp120
g97
F0.39373174058107779
sg98
g108
sg91
I9
sg100
F4.568713943153802
sg101
g105
sbag1
(g87
g3
NtRp121
(dp122
g97
F-0.19544601982398496
sg98
g108
sg91
I10
sg100
F2.808688619593517
sg101
g105
sbag1
(g87
g3
NtRp123
(dp124
g97
F0.84681762880805156
sg98
g108
sg91
I11
sg100
F5.1640411878266237
sg101
g105
sbasb.