ccopy_reg
_reconstructor
p1
(cneat.chromosome
Chromosome
p2
c__builtin__
object
p3
NtRp4
(dp5
S'species_id'
p6
I50
sS'_connection_genes'
p7
(dp8
(I7
I8
tp9
g1
(cneat.genome
ConnectionGene
p10
g3
NtRp11
(dp12
S'_ConnectionGene__weight'
p13
F10.498532297040587
sS'_ConnectionGene__in'
p14
I7
sS'_ConnectionGene__enabled'
p15
I01
sS'_ConnectionGene__out'
p16
I8
sS'_ConnectionGene__innov_number'
p17
I52
sbs(I4
I7
tp18
g1
(g10
g3
NtRp19
(dp20
g13
F-5.5083654354994396
sg14
I4
sg15
I01
sg16
I7
sg17
I29
sbs(I1
I3
tp21
g1
(g10
g3
NtRp22
(dp23
g13
F13.161282821063205
sg14
I1
sg15
I01
sg16
I3
sg17
I2
sbs(I6
I6
tp24
g1
(g10
g3
NtRp25
(dp26
g13
F11.087731646968972
sg14
I6
sg15
I01
sg16
I6
sg17
I34
sbs(I7
I12
tp27
g1
(g10
g3
NtRp28
(dp29
g13
F-7.5616192210773336
sg14
I7
sg15
I01
sg16
I12
sg17
I102
sbs(I2
I8
tp30
g1
(g10
g3
NtRp31
(dp32
g13
F-23.290912792375178
sg14
I2
sg15
I01
sg16
I8
sg17
I46
sbs(I12
I12
tp33
g1
(g10
g3
NtRp34
(dp35
g13
F14.767223466071886
sg14
I12
sg15
I01
sg16
I12
sg17
I160
sbs(I3
I11
tp36
g1
(g10
g3
NtRp37
(dp38
g13
F-4.858998372241599
sg14
I3
sg15
I01
sg16
I11
sg17
I98
sbs(I8
I9
tp39
g1
(g10
g3
NtRp40
(dp41
g13
F-25.486763971339432
sg14
I8
sg15
I01
sg16
I9
sg17
I61
sbs(I6
I2
tp42
g1
(g10
g3
NtRp43
(dp44
g13
F4.4140331597235347
sg14
I6
sg15
I01
sg16
I2
sg17
I23
sbs(I12
I16
tp45
g1
(g10
g3
NtRp46
(dp47
g13
F0.09544631497568723
sg14
I12
sg15
I01
sg16
I16
sg17
I233
sbs(I2
I5
tp48
g1
(g10
g3
NtRp49
(dp50
g13
F-17.122078660240355
sg14
I2
sg15
I01
sg16
I5
sg17
I10
sbs(I3
I14
tp51
g1
(g10
g3
NtRp52
(dp53
g13
F-11.875821292519765
sg14
I3
sg15
I01
sg16
I14
sg17
I157
sbs(I1
I2
tp54
g1
(g10
g3
NtRp55
(dp56
g13
F-6.2573214160235917
sg14
I1
sg15
I01
sg16
I2
sg17
I1
sbs(I2
I14
tp57
g1
(g10
g3
NtRp58
(dp59
g13
F10.289523637883681
sg14
I2
sg15
I01
sg16
I14
sg17
I129
sbs(I3
I3
tp60
g1
(g10
g3
NtRp61
(dp62
g13
F-4.3861799760173827
sg14
I3
sg15
I01
sg16
I3
sg17
I6
sbs(I5
I12
tp63
g1
(g10
g3
NtRp64
(dp65
g13
F-1.0060950767861769
sg14
I5
sg15
I01
sg16
I12
sg17
I87
sbs(I6
I3
tp66
g1
(g10
g3
NtRp67
(dp68
g13
F-24.389772373767293
sg14
I6
sg15
I01
sg16
I3
sg17
I37
sbs(I1
I5
tp69
g1
(g10
g3
NtRp70
(dp71
g13
F-1.4969181762086885
sg14
I1
sg15
I01
sg16
I5
sg17
I14
sbs(I13
I7
tp72
g1
(g10
g3
NtRp73
(dp74
g13
F-0.78659245553413948
sg14
I13
sg15
I01
sg16
I7
sg17
I136
sbs(I7
I2
tp75
g1
(g10
g3
NtRp76
(dp77
g13
F-30
sg14
I7
sg15
I01
sg16
I2
sg17
I21
sbs(I18
I9
tp78
g1
(g10
g3
NtRp79
(dp80
g13
F-0.48678076763517819
sg14
I18
sg15
I01
sg16
I9
sg17
I198
sbs(I2
I2
tp81
g1
(g10
g3
NtRp82
(dp83
g13
F11.614611420518804
sg14
I2
sg15
I01
sg16
I2
sg17
I4
sbs(I1
I10
tp84
g1
(g10
g3
NtRp85
(dp86
g13
F0.17045282141828721
sg14
I1
sg15
I01
sg16
I10
sg17
I65
sbs(I8
I6
tp87
g1
(g10
g3
NtRp88
(dp89
g13
F-20.214435148194045
sg14
I8
sg15
I01
sg16
I6
sg17
I51
sbs(I11
I13
tp90
g1
(g10
g3
NtRp91
(dp92
g13
F-23.211829222281395
sg14
I11
sg15
I01
sg16
I13
sg17
I156
sbs(I3
I2
tp93
g1
(g10
g3
NtRp94
(dp95
g13
F0.73757076509726227
sg14
I3
sg15
I00
sg16
I2
sg17
I3
sbs(I2
I6
tp96
g1
(g10
g3
NtRp97
(dp98
g13
F-28.756531332902945
sg14
I2
sg15
I01
sg16
I6
sg17
I15
sbs(I9
I17
tp99
g1
(g10
g3
NtRp100
(dp101
g13
F8.4226234053101106
sg14
I9
sg15
I01
sg16
I17
sg17
I236
sbs(I9
I3
tp102
g1
(g10
g3
NtRp103
(dp104
g13
F11.95889851776108
sg14
I9
sg15
I00
sg16
I3
sg17
I95
sbs(I12
I15
tp105
g1
(g10
g3
NtRp106
(dp107
g13
F10.405812297756659
sg14
I12
sg15
I01
sg16
I15
sg17
I217
sbs(I15
I10
tp108
g1
(g10
g3
NtRp109
(dp110
g13
F-14.788601699616777
sg14
I15
sg15
I01
sg16
I10
sg17
I189
sbs(I3
I9
tp111
g1
(g10
g3
NtRp112
(dp113
g13
F-0.48678076763517819
sg14
I3
sg15
I00
sg16
I9
sg17
I54
sbs(I12
I10
tp114
g1
(g10
g3
NtRp115
(dp116
g13
F-30
sg14
I12
sg15
I00
sg16
I10
sg17
I103
sbs(I4
I2
tp117
g1
(g10
g3
NtRp118
(dp119
g13
F-1.8207895610359843
sg14
I4
sg15
I01
sg16
I2
sg17
I8
sbs(I14
I2
tp120
g1
(g10
g3
NtRp121
(dp122
g13
F14.065014762159091
sg14
I14
sg15
I01
sg16
I2
sg17
I130
sbs(I16
I10
tp123
g1
(g10
g3
NtRp124
(dp125
g13
F-23.873975152573149
sg14
I16
sg15
I01
sg16
I10
sg17
I225
sbs(I11
I7
tp126
g1
(g10
g3
NtRp127
(dp128
g13
F-19.955534237333428
sg14
I11
sg15
I00
sg16
I7
sg17
I107
sbs(I6
I9
tp129
g1
(g10
g3
NtRp130
(dp131
g13
F10.514100917815263
sg14
I6
sg15
I01
sg16
I9
sg17
I56
sbs(I5
I10
tp132
g1
(g10
g3
NtRp133
(dp134
g13
F5.8517060243187986
sg14
I5
sg15
I00
sg16
I10
sg17
I78
sbs(I9
I2
tp135
g1
(g10
g3
NtRp136
(dp137
g13
F30
sg14
I9
sg15
I01
sg16
I2
sg17
I59
sbs(I5
I2
tp138
g1
(g10
g3
NtRp139
(dp140
g13
F-30
sg14
I5
sg15
I01
sg16
I2
sg17
I11
sbs(I11
I3
tp141
g1
(g10
g3
NtRp142
(dp143
g13
F-5.6269539956116406
sg14
I11
sg15
I01
sg16
I3
sg17
I99
sbs(I3
I8
tp144
g1
(g10
g3
NtRp145
(dp146
g13
F3.7781225699167345
sg14
I3
sg15
I01
sg16
I8
sg17
I45
sbs(I3
I18
tp147
g1
(g10
g3
NtRp148
(dp149
g13
F1
sg14
I3
sg15
I01
sg16
I18
sg17
I248
sbs(I17
I3
tp150
g1
(g10
g3
NtRp151
(dp152
g13
F18.93676776304039
sg14
I17
sg15
I01
sg16
I3
sg17
I237
sbs(I9
I5
tp153
g1
(g10
g3
NtRp154
(dp155
g13
F0.62589505401784606
sg14
I9
sg15
I01
sg16
I5
sg17
I57
sbs(I3
I4
tp156
g1
(g10
g3
NtRp157
(dp158
g13
F-6.1657599740060141
sg14
I3
sg15
I01
sg16
I4
sg17
I9
sbs(I9
I12
tp159
g1
(g10
g3
NtRp160
(dp161
g13
F-3.7399585072677457
sg14
I9
sg15
I01
sg16
I12
sg17
I82
sbs(I10
I2
tp162
g1
(g10
g3
NtRp163
(dp164
g13
F-9.8945679604983496
sg14
I10
sg15
I01
sg16
I2
sg17
I64
sbssS'_input_nodes'
p165
I1
sS'_output_nodes'
p166
I1
sS'_node_gene_type'
p167
cneat.genome
NodeGene
p168
sS'_conn_gene_type'
p169
g10
sS'fitness'
p170
F0.84543560852856214
sS'parent2_id'
p171
I6417
sS'_id'
p172
I6432
sS'parent1_id'
p173
I6417
sS'_node_genes'
p174
(lp175
g1
(g168
g3
NtRp176
(dp177
S'_bias'
p178
I0
sS'_type'
p179
S'INPUT'
p180
sg172
I1
sS'_response'
p181
F4.9242730000000003
sS'_activation_type'
p182
Nsbag1
(g168
g3
NtRp183
(dp184
g178
F0.49996364453376463
sg179
S'OUTPUT'
p185
sg172
I2
sg181
F4.8258864274215716
sg182
S'tanh'
p186
sbag1
(g168
g3
NtRp187
(dp188
g178
F-3.3007556637844364
sg179
S'HIDDEN'
p189
sg172
I3
sg181
F14.014105926034755
sg182
g186
sbag1
(g168
g3
NtRp190
(dp191
g178
F5.2071771085642764
sg179
g189
sg172
I4
sg181
F4.5986407779834595
sg182
g186
sbag1
(g168
g3
NtRp192
(dp193
g178
F-0.78760325852708157
sg179
g189
sg172
I5
sg181
F-7.9039601836691045
sg182
g186
sbag1
(g168
g3
NtRp194
(dp195
g178
F-1.7950410042049554
sg179
g189
sg172
I6
sg181
F1.5720045198631427
sg182
g186
sbag1
(g168
g3
NtRp196
(dp197
g178
F3.2540197231968682
sg179
g189
sg172
I7
sg181
F6.4699847144256575
sg182
g186
sbag1
(g168
g3
NtRp198
(dp199
g178
F-3.2033898048979017
sg179
g189
sg172
I8
sg181
F7.6351674342932041
sg182
g186
sbag1
(g168
g3
NtRp200
(dp201
g178
F1.8758974523316689
sg179
g189
sg172
I9
sg181
F2.4661752984641665
sg182
g186
sbag1
(g168
g3
NtRp202
(dp203
g178
F0.34716821844799167
sg179
g189
sg172
I10
sg181
F7.4728887449642976
sg182
g186
sbag1
(g168
g3
NtRp204
(dp205
g178
F0.20362086643101654
sg179
g189
sg172
I11
sg181
F3.198746010092357
sg182
g186
sbag1
(g168
g3
NtRp206
(dp207
g178
F1.8426406677554019
sg179
g189
sg172
I12
sg181
F6.5003983724443879
sg182
g186
sbag1
(g168
g3
NtRp208
(dp209
g178
F1.3407375263049282
sg179
g189
sg172
I13
sg181
F8.4062078340023429
sg182
g186
sbag1
(g168
g3
NtRp210
(dp211
g178
F-2.5410246163151555
sg179
g189
sg172
I14
sg181
F4.3288029686277989
sg182
g186
sbag1
(g168
g3
NtRp212
(dp213
g178
F0.61842441347938526
sg179
g189
sg172
I15
sg181
F4.3864623787223698
sg182
g186
sbag1
(g168
g3
NtRp214
(dp215
g178
F0.17245512235236563
sg179
g189
sg172
I16
sg181
F5.0108148471144283
sg182
g186
sbag1
(g168
g3
NtRp216
(dp217
g178
F-0.079655825400714544
sg179
g189
sg172
I17
sg181
F6.0367932794947707
sg182
g186
sbag1
(g168
g3
NtRp218
(dp219
g178
I0
sg179
g189
sg172
I18
sg181
F4.9242730000000003
sg182
g186
sbasb.