ccopy_reg
_reconstructor
p1
(cneat.chromosome
Chromosome
p2
c__builtin__
object
p3
NtRp4
(dp5
S'species_id'
p6
I52
sS'_connection_genes'
p7
(dp8
(I5
I9
tp9
g1
(cneat.genome
ConnectionGene
p10
g3
NtRp11
(dp12
S'_ConnectionGene__weight'
p13
F10.826843099244401
sS'_ConnectionGene__in'
p14
I5
sS'_ConnectionGene__enabled'
p15
I01
sS'_ConnectionGene__out'
p16
I9
sS'_ConnectionGene__innov_number'
p17
I58
sbs(I4
I7
tp18
g1
(g10
g3
NtRp19
(dp20
g13
F-17.436438308616925
sg14
I4
sg15
I01
sg16
I7
sg17
I29
sbs(I1
I3
tp21
g1
(g10
g3
NtRp22
(dp23
g13
F20.374018001201467
sg14
I1
sg15
I01
sg16
I3
sg17
I2
sbs(I2
I18
tp24
g1
(g10
g3
NtRp25
(dp26
g13
F-11.928991821743152
sg14
I2
sg15
I01
sg16
I18
sg17
I191
sbs(I14
I4
tp27
g1
(g10
g3
NtRp28
(dp29
g13
F13.942517078469624
sg14
I14
sg15
I01
sg16
I4
sg17
I143
sbs(I13
I4
tp30
g1
(g10
g3
NtRp31
(dp32
g13
F28.36602501056581
sg14
I13
sg15
I01
sg16
I4
sg17
I120
sbs(I10
I6
tp33
g1
(g10
g3
NtRp34
(dp35
g13
F4.1361240772237879
sg14
I10
sg15
I01
sg16
I6
sg17
I81
sbs(I3
I11
tp36
g1
(g10
g3
NtRp37
(dp38
g13
F12.528240739534217
sg14
I3
sg15
I01
sg16
I11
sg17
I98
sbs(I1
I15
tp39
g1
(g10
g3
NtRp40
(dp41
g13
F2.6157651691724091
sg14
I1
sg15
I01
sg16
I15
sg17
I148
sbs(I13
I17
tp42
g1
(g10
g3
NtRp43
(dp44
g13
F8.553333547392036
sg14
I13
sg15
I01
sg16
I17
sg17
I183
sbs(I6
I2
tp45
g1
(g10
g3
NtRp46
(dp47
g13
F7.749256403742657
sg14
I6
sg15
I01
sg16
I2
sg17
I23
sbs(I7
I16
tp48
g1
(g10
g3
NtRp49
(dp50
g13
F-12.839250701478036
sg14
I7
sg15
I01
sg16
I16
sg17
I171
sbs(I6
I12
tp51
g1
(g10
g3
NtRp52
(dp53
g13
F-13.512262459740592
sg14
I6
sg15
I01
sg16
I12
sg17
I115
sbs(I2
I5
tp54
g1
(g10
g3
NtRp55
(dp56
g13
F2.185044925351924
sg14
I2
sg15
I01
sg16
I5
sg17
I10
sbs(I15
I5
tp57
g1
(g10
g3
NtRp58
(dp59
g13
F2.958306546483997
sg14
I15
sg15
I01
sg16
I5
sg17
I165
sbs(I7
I2
tp60
g1
(g10
g3
NtRp61
(dp62
g13
F-16.419488035641407
sg14
I7
sg15
I01
sg16
I2
sg17
I21
sbs(I1
I2
tp63
g1
(g10
g3
NtRp64
(dp65
g13
F-8.6463152854853185
sg14
I1
sg15
I01
sg16
I2
sg17
I1
sbs(I12
I2
tp66
g1
(g10
g3
NtRp67
(dp68
g13
F19.913500045286099
sg14
I12
sg15
I01
sg16
I2
sg17
I80
sbs(I3
I3
tp69
g1
(g10
g3
NtRp70
(dp71
g13
F-19.988853726849019
sg14
I3
sg15
I01
sg16
I3
sg17
I6
sbs(I1
I5
tp72
g1
(g10
g3
NtRp73
(dp74
g13
F-14.843904250841151
sg14
I1
sg15
I01
sg16
I5
sg17
I14
sbs(I17
I4
tp75
g1
(g10
g3
NtRp76
(dp77
g13
F18.132019674536814
sg14
I17
sg15
I01
sg16
I4
sg17
I184
sbs(I2
I8
tp78
g1
(g10
g3
NtRp79
(dp80
g13
F-14.070732759888271
sg14
I2
sg15
I01
sg16
I8
sg17
I46
sbs(I3
I4
tp81
g1
(g10
g3
NtRp82
(dp83
g13
F-12.273016622215312
sg14
I3
sg15
I01
sg16
I4
sg17
I9
sbs(I8
I6
tp84
g1
(g10
g3
NtRp85
(dp86
g13
F22.307389343603312
sg14
I8
sg15
I01
sg16
I6
sg17
I51
sbs(I3
I2
tp87
g1
(g10
g3
NtRp88
(dp89
g13
F6.2140587057242875
sg14
I3
sg15
I01
sg16
I2
sg17
I3
sbs(I2
I6
tp90
g1
(g10
g3
NtRp91
(dp92
g13
F-4.1854905836196625
sg14
I2
sg15
I01
sg16
I6
sg17
I15
sbs(I3
I13
tp93
g1
(g10
g3
NtRp94
(dp95
g13
F9.4773503175130998
sg14
I3
sg15
I01
sg16
I13
sg17
I105
sbs(I2
I2
tp96
g1
(g10
g3
NtRp97
(dp98
g13
F-14.760311747565698
sg14
I2
sg15
I01
sg16
I2
sg17
I4
sbs(I7
I5
tp99
g1
(g10
g3
NtRp100
(dp101
g13
F-5.6128585214048288
sg14
I7
sg15
I00
sg16
I5
sg17
I19
sbs(I8
I7
tp102
g1
(g10
g3
NtRp103
(dp104
g13
F5.6032499171358934
sg14
I8
sg15
I01
sg16
I7
sg17
I39
sbs(I4
I2
tp105
g1
(g10
g3
NtRp106
(dp107
g13
F-25.221300159803889
sg14
I4
sg15
I01
sg16
I2
sg17
I8
sbs(I6
I5
tp108
g1
(g10
g3
NtRp109
(dp110
g13
F-0.51626751857429942
sg14
I6
sg15
I01
sg16
I5
sg17
I16
sbs(I6
I9
tp111
g1
(g10
g3
NtRp112
(dp113
g13
F-21.429021038318901
sg14
I6
sg15
I01
sg16
I9
sg17
I56
sbs(I5
I10
tp114
g1
(g10
g3
NtRp115
(dp116
g13
F18.660390724291826
sg14
I5
sg15
I01
sg16
I10
sg17
I78
sbs(I6
I8
tp117
g1
(g10
g3
NtRp118
(dp119
g13
F5.5602714953332359
sg14
I6
sg15
I01
sg16
I8
sg17
I53
sbs(I16
I5
tp120
g1
(g10
g3
NtRp121
(dp122
g13
F-21.021240175463141
sg14
I16
sg15
I01
sg16
I5
sg17
I178
sbs(I9
I2
tp123
g1
(g10
g3
NtRp124
(dp125
g13
F22.289159703355239
sg14
I9
sg15
I01
sg16
I2
sg17
I59
sbs(I5
I2
tp126
g1
(g10
g3
NtRp127
(dp128
g13
F23.667736705597584
sg14
I5
sg15
I00
sg16
I2
sg17
I11
sbs(I10
I10
tp129
g1
(g10
g3
NtRp130
(dp131
g13
F1.4970163528212295
sg14
I10
sg15
I01
sg16
I10
sg17
I111
sbs(I11
I3
tp132
g1
(g10
g3
NtRp133
(dp134
g13
F24.875602714087908
sg14
I11
sg15
I01
sg16
I3
sg17
I99
sbs(I13
I14
tp135
g1
(g10
g3
NtRp136
(dp137
g13
F-9.8035522325026072
sg14
I13
sg15
I01
sg16
I14
sg17
I142
sbs(I18
I6
tp138
g1
(g10
g3
NtRp139
(dp140
g13
F-21.436054940380927
sg14
I18
sg15
I01
sg16
I6
sg17
I212
sbs(I3
I12
tp141
g1
(g10
g3
NtRp142
(dp143
g13
F-0.31295809125306351
sg14
I3
sg15
I01
sg16
I12
sg17
I108
sbs(I7
I8
tp144
g1
(g10
g3
NtRp145
(dp146
g13
F-10.179550503701172
sg14
I7
sg15
I01
sg16
I8
sg17
I52
sbs(I10
I2
tp147
g1
(g10
g3
NtRp148
(dp149
g13
F-2.75067283716412
sg14
I10
sg15
I01
sg16
I2
sg17
I64
sbssS'_input_nodes'
p150
I1
sS'_output_nodes'
p151
I1
sS'_node_gene_type'
p152
cneat.genome
NodeGene
p153
sS'_conn_gene_type'
p154
g10
sS'fitness'
p155
F0.90979282230669989
sS'parent2_id'
p156
I6518
sS'_id'
p157
I6537
sS'parent1_id'
p158
I6518
sS'_node_genes'
p159
(lp160
g1
(g153
g3
NtRp161
(dp162
S'_bias'
p163
I0
sS'_type'
p164
S'INPUT'
p165
sg157
I1
sS'_response'
p166
F4.9242730000000003
sS'_activation_type'
p167
Nsbag1
(g153
g3
NtRp168
(dp169
g163
F-1.9624704015490082
sg164
S'OUTPUT'
p170
sg157
I2
sg166
F2.2870239901748741
sg167
S'tanh'
p171
sbag1
(g153
g3
NtRp172
(dp173
g163
F-0.68149155953098495
sg164
S'HIDDEN'
p174
sg157
I3
sg166
F11.105618290231934
sg167
g171
sbag1
(g153
g3
NtRp175
(dp176
g163
F2.6185683756083171
sg164
g174
sg157
I4
sg166
F7.7392037887615643
sg167
g171
sbag1
(g153
g3
NtRp177
(dp178
g163
F-2.3430235252584919
sg164
g174
sg157
I5
sg166
F-0.53327915058693875
sg167
g171
sbag1
(g153
g3
NtRp179
(dp180
g163
F2.7005252834384548
sg164
g174
sg157
I6
sg166
F6.3770984110138684
sg167
g171
sbag1
(g153
g3
NtRp181
(dp182
g163
F0.15411111873529085
sg164
g174
sg157
I7
sg166
F8.5363998153977061
sg167
g171
sbag1
(g153
g3
NtRp183
(dp184
g163
F3.1299718676246053
sg164
g174
sg157
I8
sg166
F-0.86536943941850142
sg167
g171
sbag1
(g153
g3
NtRp185
(dp186
g163
F-3.6616104978588813
sg164
g174
sg157
I9
sg166
F3.5154375823154438
sg167
g171
sbag1
(g153
g3
NtRp187
(dp188
g163
F-0.9779520462054575
sg164
g174
sg157
I10
sg166
F3.3820045844014563
sg167
g171
sbag1
(g153
g3
NtRp189
(dp190
g163
F-0.80164134666874154
sg164
g174
sg157
I11
sg166
F4.143904596764596
sg167
g171
sbag1
(g153
g3
NtRp191
(dp192
g163
F-0.27171398255777018
sg164
g174
sg157
I12
sg166
F10.033998374140333
sg167
g171
sbag1
(g153
g3
NtRp193
(dp194
g163
F2.0327937484511374
sg164
g174
sg157
I13
sg166
F7.031925076676564
sg167
g171
sbag1
(g153
g3
NtRp195
(dp196
g163
F0.55477902838494297
sg164
g174
sg157
I14
sg166
F4.2980064838094956
sg167
g171
sbag1
(g153
g3
NtRp197
(dp198
g163
F-0.51161944971914575
sg164
g174
sg157
I15
sg166
F5.0564916696117752
sg167
g171
sbag1
(g153
g3
NtRp199
(dp200
g163
F-0.34365730238272507
sg164
g174
sg157
I16
sg166
F2.3394173868234596
sg167
g171
sbag1
(g153
g3
NtRp201
(dp202
g163
F-0.49342916211873167
sg164
g174
sg157
I17
sg166
F6.0163798871586476
sg167
g171
sbag1
(g153
g3
NtRp203
(dp204
g163
F-3.4506742463589202
sg164
g174
sg157
I18
sg166
F4.013445178220076
sg167
g171
sbasb.