ccopy_reg
_reconstructor
p1
(cneat.chromosome
Chromosome
p2
c__builtin__
object
p3
NtRp4
(dp5
S'species_id'
p6
I51
sS'_connection_genes'
p7
(dp8
(I4
I7
tp9
g1
(cneat.genome
ConnectionGene
p10
g3
NtRp11
(dp12
S'_ConnectionGene__weight'
p13
F-2.0602810905283491
sS'_ConnectionGene__in'
p14
I4
sS'_ConnectionGene__enabled'
p15
I01
sS'_ConnectionGene__out'
p16
I7
sS'_ConnectionGene__innov_number'
p17
I29
sbs(I1
I3
tp18
g1
(g10
g3
NtRp19
(dp20
g13
F15.838641179858548
sg14
I1
sg15
I01
sg16
I3
sg17
I2
sbs(I6
I6
tp21
g1
(g10
g3
NtRp22
(dp23
g13
F8.376932772732518
sg14
I6
sg15
I01
sg16
I6
sg17
I34
sbs(I7
I12
tp24
g1
(g10
g3
NtRp25
(dp26
g13
F-11.319849228406065
sg14
I7
sg15
I01
sg16
I12
sg17
I102
sbs(I2
I8
tp27
g1
(g10
g3
NtRp28
(dp29
g13
F-17.893684038194188
sg14
I2
sg15
I01
sg16
I8
sg17
I46
sbs(I12
I12
tp30
g1
(g10
g3
NtRp31
(dp32
g13
F6.9559706802565291
sg14
I12
sg15
I01
sg16
I12
sg17
I160
sbs(I3
I11
tp33
g1
(g10
g3
NtRp34
(dp35
g13
F-23.010228001468096
sg14
I3
sg15
I01
sg16
I11
sg17
I98
sbs(I8
I9
tp36
g1
(g10
g3
NtRp37
(dp38
g13
F-20.188880541722934
sg14
I8
sg15
I01
sg16
I9
sg17
I61
sbs(I6
I2
tp39
g1
(g10
g3
NtRp40
(dp41
g13
F4.1476257583846525
sg14
I6
sg15
I01
sg16
I2
sg17
I23
sbs(I2
I5
tp42
g1
(g10
g3
NtRp43
(dp44
g13
F-13.710363654462196
sg14
I2
sg15
I01
sg16
I5
sg17
I10
sbs(I6
I9
tp45
g1
(g10
g3
NtRp46
(dp47
g13
F4.9595885855118391
sg14
I6
sg15
I01
sg16
I9
sg17
I56
sbs(I7
I2
tp48
g1
(g10
g3
NtRp49
(dp50
g13
F-24.940088604730967
sg14
I7
sg15
I01
sg16
I2
sg17
I21
sbs(I1
I2
tp51
g1
(g10
g3
NtRp52
(dp53
g13
F7.303905851872452
sg14
I1
sg15
I01
sg16
I2
sg17
I1
sbs(I14
I2
tp54
g1
(g10
g3
NtRp55
(dp56
g13
F11.666362524743944
sg14
I14
sg15
I01
sg16
I2
sg17
I130
sbs(I3
I3
tp57
g1
(g10
g3
NtRp58
(dp59
g13
F6.0020935407460829
sg14
I3
sg15
I01
sg16
I3
sg17
I6
sbs(I5
I12
tp60
g1
(g10
g3
NtRp61
(dp62
g13
F-1.5361490874542421
sg14
I5
sg15
I01
sg16
I12
sg17
I87
sbs(I3
I4
tp63
g1
(g10
g3
NtRp64
(dp65
g13
F-1.1421760591697672
sg14
I3
sg15
I01
sg16
I4
sg17
I9
sbs(I6
I3
tp66
g1
(g10
g3
NtRp67
(dp68
g13
F-16.069420582738609
sg14
I6
sg15
I01
sg16
I3
sg17
I37
sbs(I1
I5
tp69
g1
(g10
g3
NtRp70
(dp71
g13
F-4.2151467552186261
sg14
I1
sg15
I01
sg16
I5
sg17
I14
sbs(I13
I7
tp72
g1
(g10
g3
NtRp73
(dp74
g13
F0.22219971287774176
sg14
I13
sg15
I01
sg16
I7
sg17
I136
sbs(I3
I14
tp75
g1
(g10
g3
NtRp76
(dp77
g13
F-10.16530559028325
sg14
I3
sg15
I01
sg16
I14
sg17
I157
sbs(I2
I2
tp78
g1
(g10
g3
NtRp79
(dp80
g13
F5.1886305812678701
sg14
I2
sg15
I00
sg16
I2
sg17
I4
sbs(I1
I10
tp81
g1
(g10
g3
NtRp82
(dp83
g13
F-1.6870730292671241
sg14
I1
sg15
I01
sg16
I10
sg17
I65
sbs(I8
I6
tp84
g1
(g10
g3
NtRp85
(dp86
g13
F-26.166308475638498
sg14
I8
sg15
I01
sg16
I6
sg17
I51
sbs(I11
I13
tp87
g1
(g10
g3
NtRp88
(dp89
g13
F-29.741441621784482
sg14
I11
sg15
I01
sg16
I13
sg17
I156
sbs(I3
I2
tp90
g1
(g10
g3
NtRp91
(dp92
g13
F0.29224703939117708
sg14
I3
sg15
I00
sg16
I2
sg17
I3
sbs(I2
I6
tp93
g1
(g10
g3
NtRp94
(dp95
g13
F-18.132877378865796
sg14
I2
sg15
I01
sg16
I6
sg17
I15
sbs(I9
I3
tp96
g1
(g10
g3
NtRp97
(dp98
g13
F10.751947817243312
sg14
I9
sg15
I01
sg16
I3
sg17
I95
sbs(I15
I10
tp99
g1
(g10
g3
NtRp100
(dp101
g13
F-16.740448843142332
sg14
I15
sg15
I01
sg16
I10
sg17
I189
sbs(I12
I10
tp102
g1
(g10
g3
NtRp103
(dp104
g13
F-28.14375047280809
sg14
I12
sg15
I00
sg16
I10
sg17
I103
sbs(I4
I2
tp105
g1
(g10
g3
NtRp106
(dp107
g13
F0.19629366777746801
sg14
I4
sg15
I01
sg16
I2
sg17
I8
sbs(I2
I14
tp108
g1
(g10
g3
NtRp109
(dp110
g13
F10.541316019484785
sg14
I2
sg15
I01
sg16
I14
sg17
I129
sbs(I11
I7
tp111
g1
(g10
g3
NtRp112
(dp113
g13
F-27.240665174418069
sg14
I11
sg15
I00
sg16
I7
sg17
I107
sbs(I12
I15
tp114
g1
(g10
g3
NtRp115
(dp116
g13
F7.0571720937312481
sg14
I12
sg15
I01
sg16
I15
sg17
I217
sbs(I5
I10
tp117
g1
(g10
g3
NtRp118
(dp119
g13
F12.0093281497233
sg14
I5
sg15
I00
sg16
I10
sg17
I78
sbs(I9
I2
tp120
g1
(g10
g3
NtRp121
(dp122
g13
F26.177377958710622
sg14
I9
sg15
I01
sg16
I2
sg17
I59
sbs(I5
I2
tp123
g1
(g10
g3
NtRp124
(dp125
g13
F-26.685876298288861
sg14
I5
sg15
I01
sg16
I2
sg17
I11
sbs(I11
I3
tp126
g1
(g10
g3
NtRp127
(dp128
g13
F-2.8415853911037763
sg14
I11
sg15
I01
sg16
I3
sg17
I99
sbs(I3
I8
tp129
g1
(g10
g3
NtRp130
(dp131
g13
F7.695766338320948
sg14
I3
sg15
I01
sg16
I8
sg17
I45
sbs(I9
I5
tp132
g1
(g10
g3
NtRp133
(dp134
g13
F3.6178464797448378
sg14
I9
sg15
I01
sg16
I5
sg17
I57
sbs(I7
I8
tp135
g1
(g10
g3
NtRp136
(dp137
g13
F2.6986020810454443
sg14
I7
sg15
I01
sg16
I8
sg17
I52
sbs(I9
I12
tp138
g1
(g10
g3
NtRp139
(dp140
g13
F2.5905555308003398
sg14
I9
sg15
I01
sg16
I12
sg17
I82
sbs(I10
I2
tp141
g1
(g10
g3
NtRp142
(dp143
g13
F-13.810240579174188
sg14
I10
sg15
I01
sg16
I2
sg17
I64
sbssS'_input_nodes'
p144
I1
sS'_output_nodes'
p145
I1
sS'_node_gene_type'
p146
cneat.genome
NodeGene
p147
sS'_conn_gene_type'
p148
g10
sS'fitness'
p149
F0.96550402904544352
sS'parent2_id'
p150
I6388
sS'_id'
p151
I6407
sS'parent1_id'
p152
I6388
sS'_node_genes'
p153
(lp154
g1
(g147
g3
NtRp155
(dp156
S'_bias'
p157
I0
sS'_type'
p158
S'INPUT'
p159
sg151
I1
sS'_response'
p160
F4.9242730000000003
sS'_activation_type'
p161
Nsbag1
(g147
g3
NtRp162
(dp163
g157
F0.99658577655151259
sg158
S'OUTPUT'
p164
sg151
I2
sg160
F4.7698176362386393
sg161
S'tanh'
p165
sbag1
(g147
g3
NtRp166
(dp167
g157
F-2.392838335005504
sg158
S'HIDDEN'
p168
sg151
I3
sg160
F15.371604774073694
sg161
g165
sbag1
(g147
g3
NtRp169
(dp170
g157
F6.0893120500947111
sg158
g168
sg151
I4
sg160
F3.6479899699077394
sg161
g165
sbag1
(g147
g3
NtRp171
(dp172
g157
F-3.5023106096173189
sg158
g168
sg151
I5
sg160
F-7.0231164412759846
sg161
g165
sbag1
(g147
g3
NtRp173
(dp174
g157
F-2.4507065936334707
sg158
g168
sg151
I6
sg160
F1.133015270512679
sg161
g165
sbag1
(g147
g3
NtRp175
(dp176
g157
F3.1198561755402503
sg158
g168
sg151
I7
sg160
F6.771439448058346
sg161
g165
sbag1
(g147
g3
NtRp177
(dp178
g157
F-4.8925528061344954
sg158
g168
sg151
I8
sg160
F7.0254210999664437
sg161
g165
sbag1
(g147
g3
NtRp179
(dp180
g157
F2.8993654041117769
sg158
g168
sg151
I9
sg160
F3.7857440397592326
sg161
g165
sbag1
(g147
g3
NtRp181
(dp182
g157
F-0.30151556762661813
sg158
g168
sg151
I10
sg160
F7.0918788029202089
sg161
g165
sbag1
(g147
g3
NtRp183
(dp184
g157
F-0.42300510876220487
sg158
g168
sg151
I11
sg160
F3.8143745700933724
sg161
g165
sbag1
(g147
g3
NtRp185
(dp186
g157
F1.3737952342532895
sg158
g168
sg151
I12
sg160
F6.3961249093091617
sg161
g165
sbag1
(g147
g3
NtRp187
(dp188
g157
F2.0332253996184999
sg158
g168
sg151
I13
sg160
F7.2963554585550563
sg161
g165
sbag1
(g147
g3
NtRp189
(dp190
g157
F-1.7751299786860961
sg158
g168
sg151
I14
sg160
F4.4510975850234242
sg161
g165
sbag1
(g147
g3
NtRp191
(dp192
g157
F-0.19348717462906506
sg158
g168
sg151
I15
sg160
F3.9573822529031402
sg161
g165
sbasb.