ccopy_reg
_reconstructor
p1
(cneat.chromosome
Chromosome
p2
c__builtin__
object
p3
NtRp4
(dp5
S'species_id'
p6
I30
sS'_connection_genes'
p7
(dp8
(I4
I7
tp9
g1
(cneat.genome
ConnectionGene
p10
g3
NtRp11
(dp12
S'_ConnectionGene__weight'
p13
F-23.089361132342702
sS'_ConnectionGene__in'
p14
I4
sS'_ConnectionGene__enabled'
p15
I01
sS'_ConnectionGene__out'
p16
I7
sS'_ConnectionGene__innov_number'
p17
I29
sbs(I1
I3
tp18
g1
(g10
g3
NtRp19
(dp20
g13
F-9.8834616378026006
sg14
I1
sg15
I01
sg16
I3
sg17
I2
sbs(I2
I8
tp21
g1
(g10
g3
NtRp22
(dp23
g13
F-12.037782782793123
sg14
I2
sg15
I01
sg16
I8
sg17
I46
sbs(I3
I11
tp24
g1
(g10
g3
NtRp25
(dp26
g13
F13.279512566887103
sg14
I3
sg15
I01
sg16
I11
sg17
I98
sbs(I6
I2
tp27
g1
(g10
g3
NtRp28
(dp29
g13
F21.489046135630872
sg14
I6
sg15
I00
sg16
I2
sg17
I23
sbs(I2
I5
tp30
g1
(g10
g3
NtRp31
(dp32
g13
F-1.770856850612665
sg14
I2
sg15
I01
sg16
I5
sg17
I10
sbs(I7
I2
tp33
g1
(g10
g3
NtRp34
(dp35
g13
F-22.747995170312773
sg14
I7
sg15
I01
sg16
I2
sg17
I21
sbs(I1
I2
tp36
g1
(g10
g3
NtRp37
(dp38
g13
F-20.283470277739479
sg14
I1
sg15
I01
sg16
I2
sg17
I1
sbs(I3
I3
tp39
g1
(g10
g3
NtRp40
(dp41
g13
F-0.99070418257033477
sg14
I3
sg15
I00
sg16
I3
sg17
I6
sbs(I1
I5
tp42
g1
(g10
g3
NtRp43
(dp44
g13
F-0.51869939843301704
sg14
I1
sg15
I01
sg16
I5
sg17
I14
sbs(I2
I2
tp45
g1
(g10
g3
NtRp46
(dp47
g13
F-16.288341197195567
sg14
I2
sg15
I01
sg16
I2
sg17
I4
sbs(I3
I4
tp48
g1
(g10
g3
NtRp49
(dp50
g13
F9.6603852226192508
sg14
I3
sg15
I01
sg16
I4
sg17
I9
sbs(I8
I6
tp51
g1
(g10
g3
NtRp52
(dp53
g13
F3.3908922680041376
sg14
I8
sg15
I01
sg16
I6
sg17
I51
sbs(I3
I2
tp54
g1
(g10
g3
NtRp55
(dp56
g13
F10.353996694049744
sg14
I3
sg15
I00
sg16
I2
sg17
I3
sbs(I2
I6
tp57
g1
(g10
g3
NtRp58
(dp59
g13
F-12.098913291655029
sg14
I2
sg15
I01
sg16
I6
sg17
I15
sbs(I4
I2
tp60
g1
(g10
g3
NtRp61
(dp62
g13
F-5.0759332010405256
sg14
I4
sg15
I01
sg16
I2
sg17
I8
sbs(I6
I9
tp63
g1
(g10
g3
NtRp64
(dp65
g13
F-11.345880893065267
sg14
I6
sg15
I01
sg16
I9
sg17
I56
sbs(I5
I10
tp66
g1
(g10
g3
NtRp67
(dp68
g13
F-0.057039277591991233
sg14
I5
sg15
I01
sg16
I10
sg17
I78
sbs(I9
I2
tp69
g1
(g10
g3
NtRp70
(dp71
g13
F24.689607662148767
sg14
I9
sg15
I01
sg16
I2
sg17
I59
sbs(I5
I2
tp72
g1
(g10
g3
NtRp73
(dp74
g13
F13.830947064963015
sg14
I5
sg15
I00
sg16
I2
sg17
I11
sbs(I11
I3
tp75
g1
(g10
g3
NtRp76
(dp77
g13
F10.002075692482595
sg14
I11
sg15
I01
sg16
I3
sg17
I99
sbs(I7
I8
tp78
g1
(g10
g3
NtRp79
(dp80
g13
F-8.8366384081645073
sg14
I7
sg15
I01
sg16
I8
sg17
I52
sbs(I10
I2
tp81
g1
(g10
g3
NtRp82
(dp83
g13
F8.7184008868700182
sg14
I10
sg15
I01
sg16
I2
sg17
I64
sbssS'_input_nodes'
p84
I1
sS'_output_nodes'
p85
I1
sS'_node_gene_type'
p86
cneat.genome
NodeGene
p87
sS'_conn_gene_type'
p88
g10
sS'fitness'
p89
F0.92349636983361327
sS'parent2_id'
p90
I2942
sS'_id'
p91
I2961
sS'parent1_id'
p92
I2942
sS'_node_genes'
p93
(lp94
g1
(g87
g3
NtRp95
(dp96
S'_bias'
p97
I0
sS'_type'
p98
S'INPUT'
p99
sg91
I1
sS'_response'
p100
F4.9242730000000003
sS'_activation_type'
p101
Nsbag1
(g87
g3
NtRp102
(dp103
g97
F0.88377706047274629
sg98
S'OUTPUT'
p104
sg91
I2
sg100
F2.0712818891508924
sg101
S'tanh'
p105
sbag1
(g87
g3
NtRp106
(dp107
g97
F-0.072740335859475203
sg98
S'HIDDEN'
p108
sg91
I3
sg100
F8.4947568200677761
sg101
g105
sbag1
(g87
g3
NtRp109
(dp110
g97
F3.2681186028733409
sg98
g108
sg91
I4
sg100
F0.53470315244810895
sg101
g105
sbag1
(g87
g3
NtRp111
(dp112
g97
F2.8715843294459824
sg98
g108
sg91
I5
sg100
F2.0417771677786689
sg101
g105
sbag1
(g87
g3
NtRp113
(dp114
g97
F-0.54402176935999069
sg98
g108
sg91
I6
sg100
F-0.64016151398406318
sg101
g105
sbag1
(g87
g3
NtRp115
(dp116
g97
F-0.3909935637213906
sg98
g108
sg91
I7
sg100
F6.0319628401612597
sg101
g105
sbag1
(g87
g3
NtRp117
(dp118
g97
F-0.47621098790980299
sg98
g108
sg91
I8
sg100
F2.5569695414660023
sg101
g105
sbag1
(g87
g3
NtRp119
(dp120
g97
F0.39373174058107779
sg98
g108
sg91
I9
sg100
F4.568713943153802
sg101
g105
sbag1
(g87
g3
NtRp121
(dp122
g97
F-0.19544601982398496
sg98
g108
sg91
I10
sg100
F2.808688619593517
sg101
g105
sbag1
(g87
g3
NtRp123
(dp124
g97
F0.54509498514151244
sg98
g108
sg91
I11
sg100
F5.1640411878266237
sg101
g105
sbasb.