ccopy_reg
_reconstructor
p1
(cneat.chromosome
Chromosome
p2
c__builtin__
object
p3
NtRp4
(dp5
S'species_id'
p6
I42
sS'_connection_genes'
p7
(dp8
(I7
I8
tp9
g1
(cneat.genome
ConnectionGene
p10
g3
NtRp11
(dp12
S'_ConnectionGene__weight'
p13
F16.884570917519088
sS'_ConnectionGene__in'
p14
I7
sS'_ConnectionGene__enabled'
p15
I01
sS'_ConnectionGene__out'
p16
I8
sS'_ConnectionGene__innov_number'
p17
I52
sbs(I4
I7
tp18
g1
(g10
g3
NtRp19
(dp20
g13
F-17.00159024574188
sg14
I4
sg15
I01
sg16
I7
sg17
I29
sbs(I1
I3
tp21
g1
(g10
g3
NtRp22
(dp23
g13
F-17.244617749326739
sg14
I1
sg15
I01
sg16
I3
sg17
I2
sbs(I6
I6
tp24
g1
(g10
g3
NtRp25
(dp26
g13
F3.754818276252569
sg14
I6
sg15
I01
sg16
I6
sg17
I34
sbs(I7
I12
tp27
g1
(g10
g3
NtRp28
(dp29
g13
F-1.6680289666135892
sg14
I7
sg15
I01
sg16
I12
sg17
I102
sbs(I2
I8
tp30
g1
(g10
g3
NtRp31
(dp32
g13
F-30
sg14
I2
sg15
I01
sg16
I8
sg17
I46
sbs(I12
I12
tp33
g1
(g10
g3
NtRp34
(dp35
g13
F-1.687989594806951
sg14
I12
sg15
I01
sg16
I12
sg17
I160
sbs(I3
I11
tp36
g1
(g10
g3
NtRp37
(dp38
g13
F6.6415833409871485
sg14
I3
sg15
I01
sg16
I11
sg17
I98
sbs(I8
I9
tp39
g1
(g10
g3
NtRp40
(dp41
g13
F-24.522555063324546
sg14
I8
sg15
I01
sg16
I9
sg17
I61
sbs(I6
I2
tp42
g1
(g10
g3
NtRp43
(dp44
g13
F5.8908105196951901
sg14
I6
sg15
I01
sg16
I2
sg17
I23
sbs(I2
I5
tp45
g1
(g10
g3
NtRp46
(dp47
g13
F-15.944543608054975
sg14
I2
sg15
I01
sg16
I5
sg17
I10
sbs(I7
I2
tp48
g1
(g10
g3
NtRp49
(dp50
g13
F-11.838546087816791
sg14
I7
sg15
I01
sg16
I2
sg17
I21
sbs(I1
I2
tp51
g1
(g10
g3
NtRp52
(dp53
g13
F-18.569465970565549
sg14
I1
sg15
I01
sg16
I2
sg17
I1
sbs(I2
I14
tp54
g1
(g10
g3
NtRp55
(dp56
g13
F13.216800847778661
sg14
I2
sg15
I01
sg16
I14
sg17
I129
sbs(I3
I3
tp57
g1
(g10
g3
NtRp58
(dp59
g13
F-2.3417660447758459
sg14
I3
sg15
I01
sg16
I3
sg17
I6
sbs(I5
I12
tp60
g1
(g10
g3
NtRp61
(dp62
g13
F-1.9957123265379793
sg14
I5
sg15
I01
sg16
I12
sg17
I87
sbs(I6
I3
tp63
g1
(g10
g3
NtRp64
(dp65
g13
F-13.044414896641062
sg14
I6
sg15
I01
sg16
I3
sg17
I37
sbs(I1
I5
tp66
g1
(g10
g3
NtRp67
(dp68
g13
F-4.4093890534072537
sg14
I1
sg15
I01
sg16
I5
sg17
I14
sbs(I13
I7
tp69
g1
(g10
g3
NtRp70
(dp71
g13
F14.012656056153668
sg14
I13
sg15
I01
sg16
I7
sg17
I136
sbs(I2
I2
tp72
g1
(g10
g3
NtRp73
(dp74
g13
F-6.6233619053866315
sg14
I2
sg15
I00
sg16
I2
sg17
I4
sbs(I1
I10
tp75
g1
(g10
g3
NtRp76
(dp77
g13
F-3.8019430080550483
sg14
I1
sg15
I01
sg16
I10
sg17
I65
sbs(I8
I6
tp78
g1
(g10
g3
NtRp79
(dp80
g13
F-12.758747685772185
sg14
I8
sg15
I01
sg16
I6
sg17
I51
sbs(I11
I13
tp81
g1
(g10
g3
NtRp82
(dp83
g13
F-29.797035678127525
sg14
I11
sg15
I01
sg16
I13
sg17
I156
sbs(I3
I2
tp84
g1
(g10
g3
NtRp85
(dp86
g13
F4.2664012750589686
sg14
I3
sg15
I00
sg16
I2
sg17
I3
sbs(I2
I6
tp87
g1
(g10
g3
NtRp88
(dp89
g13
F-28.160123974568599
sg14
I2
sg15
I01
sg16
I6
sg17
I15
sbs(I9
I3
tp90
g1
(g10
g3
NtRp91
(dp92
g13
F-1.0148581154609091
sg14
I9
sg15
I01
sg16
I3
sg17
I95
sbs(I12
I10
tp93
g1
(g10
g3
NtRp94
(dp95
g13
F-24.301277084512741
sg14
I12
sg15
I01
sg16
I10
sg17
I103
sbs(I4
I2
tp96
g1
(g10
g3
NtRp97
(dp98
g13
F-12.118564312477952
sg14
I4
sg15
I01
sg16
I2
sg17
I8
sbs(I14
I2
tp99
g1
(g10
g3
NtRp100
(dp101
g13
F5.0393465391499603
sg14
I14
sg15
I01
sg16
I2
sg17
I130
sbs(I11
I7
tp102
g1
(g10
g3
NtRp103
(dp104
g13
F-13.96753639764948
sg14
I11
sg15
I00
sg16
I7
sg17
I107
sbs(I6
I9
tp105
g1
(g10
g3
NtRp106
(dp107
g13
F-3.2891815615595061
sg14
I6
sg15
I01
sg16
I9
sg17
I56
sbs(I5
I10
tp108
g1
(g10
g3
NtRp109
(dp110
g13
F-7.4782285762142164
sg14
I5
sg15
I00
sg16
I10
sg17
I78
sbs(I9
I2
tp111
g1
(g10
g3
NtRp112
(dp113
g13
F27.645442348663323
sg14
I9
sg15
I01
sg16
I2
sg17
I59
sbs(I5
I2
tp114
g1
(g10
g3
NtRp115
(dp116
g13
F-30
sg14
I5
sg15
I01
sg16
I2
sg17
I11
sbs(I11
I3
tp117
g1
(g10
g3
NtRp118
(dp119
g13
F-12.059085920633558
sg14
I11
sg15
I01
sg16
I3
sg17
I99
sbs(I3
I8
tp120
g1
(g10
g3
NtRp121
(dp122
g13
F-2.0982507437990128
sg14
I3
sg15
I01
sg16
I8
sg17
I45
sbs(I9
I5
tp123
g1
(g10
g3
NtRp124
(dp125
g13
F5.4955140062557781
sg14
I9
sg15
I01
sg16
I5
sg17
I57
sbs(I3
I4
tp126
g1
(g10
g3
NtRp127
(dp128
g13
F5.4675431578939122
sg14
I3
sg15
I01
sg16
I4
sg17
I9
sbs(I9
I12
tp129
g1
(g10
g3
NtRp130
(dp131
g13
F-3.3206264517389181
sg14
I9
sg15
I01
sg16
I12
sg17
I82
sbs(I10
I2
tp132
g1
(g10
g3
NtRp133
(dp134
g13
F-6.6045972174182355
sg14
I10
sg15
I01
sg16
I2
sg17
I64
sbssS'_input_nodes'
p135
I1
sS'_output_nodes'
p136
I1
sS'_node_gene_type'
p137
cneat.genome
NodeGene
p138
sS'_conn_gene_type'
p139
g10
sS'fitness'
p140
F0.9992604767224893
sS'parent2_id'
p141
I5434
sS'_id'
p142
I5450
sS'parent1_id'
p143
I5434
sS'_node_genes'
p144
(lp145
g1
(g138
g3
NtRp146
(dp147
S'_bias'
p148
I0
sS'_type'
p149
S'INPUT'
p150
sg142
I1
sS'_response'
p151
F4.9242730000000003
sS'_activation_type'
p152
Nsbag1
(g138
g3
NtRp153
(dp154
g148
F0.69670439434243903
sg149
S'OUTPUT'
p155
sg142
I2
sg151
F3.8391114373931279
sg152
S'tanh'
p156
sbag1
(g138
g3
NtRp157
(dp158
g148
F-1.6784950558670126
sg149
S'HIDDEN'
p159
sg142
I3
sg151
F13.676297993023171
sg152
g156
sbag1
(g138
g3
NtRp160
(dp161
g148
F4.1187200027895008
sg149
g159
sg142
I4
sg151
F4.3508033443624949
sg152
g156
sbag1
(g138
g3
NtRp162
(dp163
g148
F0.56139146154617936
sg149
g159
sg142
I5
sg151
F-3.7935868762749245
sg152
g156
sbag1
(g138
g3
NtRp164
(dp165
g148
F-2.5553759803772431
sg149
g159
sg142
I6
sg151
F1.7440241207124378
sg152
g156
sbag1
(g138
g3
NtRp166
(dp167
g148
F1.3400511297227955
sg149
g159
sg142
I7
sg151
F6.6359656282360291
sg152
g156
sbag1
(g138
g3
NtRp168
(dp169
g148
F-3.7922599926488729
sg149
g159
sg142
I8
sg151
F4.3946767990833653
sg152
g156
sbag1
(g138
g3
NtRp170
(dp171
g148
F0.87980108120762657
sg149
g159
sg142
I9
sg151
F3.4814971784125439
sg152
g156
sbag1
(g138
g3
NtRp172
(dp173
g148
F-0.48153818974573526
sg149
g159
sg142
I10
sg151
F6.2564466620573524
sg152
g156
sbag1
(g138
g3
NtRp174
(dp175
g148
F-0.99325613393381773
sg149
g159
sg142
I11
sg151
F4.0016412493299471
sg152
g156
sbag1
(g138
g3
NtRp176
(dp177
g148
F-0.059277356582140506
sg149
g159
sg142
I12
sg151
F5.4302803173399061
sg152
g156
sbag1
(g138
g3
NtRp178
(dp179
g148
F0.24363175874647069
sg149
g159
sg142
I13
sg151
F8.7569352578207482
sg152
g156
sbag1
(g138
g3
NtRp180
(dp181
g148
F-1.1526489851899226
sg149
g159
sg142
I14
sg151
F3.5890483912856972
sg152
g156
sbasb.