ccopy_reg
_reconstructor
p1
(cneat.chromosome
Chromosome
p2
c__builtin__
object
p3
NtRp4
(dp5
S'species_id'
p6
I37
sS'_connection_genes'
p7
(dp8
(I7
I8
tp9
g1
(cneat.genome
ConnectionGene
p10
g3
NtRp11
(dp12
S'_ConnectionGene__weight'
p13
F7.8996879527248201
sS'_ConnectionGene__in'
p14
I7
sS'_ConnectionGene__enabled'
p15
I01
sS'_ConnectionGene__out'
p16
I8
sS'_ConnectionGene__innov_number'
p17
I52
sbs(I4
I7
tp18
g1
(g10
g3
NtRp19
(dp20
g13
F-21.481672413230129
sg14
I4
sg15
I01
sg16
I7
sg17
I29
sbs(I1
I3
tp21
g1
(g10
g3
NtRp22
(dp23
g13
F-9.0246918685452346
sg14
I1
sg15
I01
sg16
I3
sg17
I2
sbs(I2
I8
tp24
g1
(g10
g3
NtRp25
(dp26
g13
F-30
sg14
I2
sg15
I01
sg16
I8
sg17
I46
sbs(I3
I11
tp27
g1
(g10
g3
NtRp28
(dp29
g13
F10.602363473414684
sg14
I3
sg15
I01
sg16
I11
sg17
I98
sbs(I8
I9
tp30
g1
(g10
g3
NtRp31
(dp32
g13
F-18.816993214276511
sg14
I8
sg15
I01
sg16
I9
sg17
I61
sbs(I6
I2
tp33
g1
(g10
g3
NtRp34
(dp35
g13
F11.33897619551788
sg14
I6
sg15
I01
sg16
I2
sg17
I23
sbs(I2
I5
tp36
g1
(g10
g3
NtRp37
(dp38
g13
F-8.1114214859879432
sg14
I2
sg15
I01
sg16
I5
sg17
I10
sbs(I7
I2
tp39
g1
(g10
g3
NtRp40
(dp41
g13
F-4.0455537198307034
sg14
I7
sg15
I01
sg16
I2
sg17
I21
sbs(I1
I2
tp42
g1
(g10
g3
NtRp43
(dp44
g13
F-27.984672614086133
sg14
I1
sg15
I01
sg16
I2
sg17
I1
sbs(I3
I3
tp45
g1
(g10
g3
NtRp46
(dp47
g13
F-1.6254761735300307
sg14
I3
sg15
I01
sg16
I3
sg17
I6
sbs(I5
I12
tp48
g1
(g10
g3
NtRp49
(dp50
g13
F-10.769430810862268
sg14
I5
sg15
I01
sg16
I12
sg17
I87
sbs(I6
I3
tp51
g1
(g10
g3
NtRp52
(dp53
g13
F0.56081303432088569
sg14
I6
sg15
I01
sg16
I3
sg17
I37
sbs(I1
I5
tp54
g1
(g10
g3
NtRp55
(dp56
g13
F0.62362204268270727
sg14
I1
sg15
I01
sg16
I5
sg17
I14
sbs(I13
I7
tp57
g1
(g10
g3
NtRp58
(dp59
g13
F6.6115061413252363
sg14
I13
sg15
I01
sg16
I7
sg17
I136
sbs(I2
I2
tp60
g1
(g10
g3
NtRp61
(dp62
g13
F-9.2816211581938646
sg14
I2
sg15
I01
sg16
I2
sg17
I4
sbs(I1
I10
tp63
g1
(g10
g3
NtRp64
(dp65
g13
F1.967330440413718
sg14
I1
sg15
I01
sg16
I10
sg17
I65
sbs(I8
I6
tp66
g1
(g10
g3
NtRp67
(dp68
g13
F-9.3419230271858424
sg14
I8
sg15
I01
sg16
I6
sg17
I51
sbs(I11
I13
tp69
g1
(g10
g3
NtRp70
(dp71
g13
F1
sg14
I11
sg15
I01
sg16
I13
sg17
I156
sbs(I3
I2
tp72
g1
(g10
g3
NtRp73
(dp74
g13
F13.119742868042776
sg14
I3
sg15
I00
sg16
I2
sg17
I3
sbs(I2
I6
tp75
g1
(g10
g3
NtRp76
(dp77
g13
F-22.536957267392904
sg14
I2
sg15
I01
sg16
I6
sg17
I15
sbs(I12
I10
tp78
g1
(g10
g3
NtRp79
(dp80
g13
F-26.073779088077519
sg14
I12
sg15
I01
sg16
I10
sg17
I103
sbs(I4
I2
tp81
g1
(g10
g3
NtRp82
(dp83
g13
F-10.222239690100075
sg14
I4
sg15
I01
sg16
I2
sg17
I8
sbs(I11
I7
tp84
g1
(g10
g3
NtRp85
(dp86
g13
F6.6115061413252363
sg14
I11
sg15
I00
sg16
I7
sg17
I107
sbs(I6
I9
tp87
g1
(g10
g3
NtRp88
(dp89
g13
F-11.27427248986956
sg14
I6
sg15
I01
sg16
I9
sg17
I56
sbs(I5
I10
tp90
g1
(g10
g3
NtRp91
(dp92
g13
F-5.9640754210187303
sg14
I5
sg15
I00
sg16
I10
sg17
I78
sbs(I9
I2
tp93
g1
(g10
g3
NtRp94
(dp95
g13
F26.84377176073599
sg14
I9
sg15
I01
sg16
I2
sg17
I59
sbs(I5
I2
tp96
g1
(g10
g3
NtRp97
(dp98
g13
F-24.012475089368767
sg14
I5
sg15
I01
sg16
I2
sg17
I11
sbs(I11
I3
tp99
g1
(g10
g3
NtRp100
(dp101
g13
F-6.5990101567227812
sg14
I11
sg15
I01
sg16
I3
sg17
I99
sbs(I9
I5
tp102
g1
(g10
g3
NtRp103
(dp104
g13
F-2.2777944731376225
sg14
I9
sg15
I01
sg16
I5
sg17
I57
sbs(I3
I4
tp105
g1
(g10
g3
NtRp106
(dp107
g13
F14.024499901929698
sg14
I3
sg15
I01
sg16
I4
sg17
I9
sbs(I9
I12
tp108
g1
(g10
g3
NtRp109
(dp110
g13
F-5.2439084848085376
sg14
I9
sg15
I01
sg16
I12
sg17
I82
sbs(I10
I2
tp111
g1
(g10
g3
NtRp112
(dp113
g13
F-2.1660948444023669
sg14
I10
sg15
I01
sg16
I2
sg17
I64
sbssS'_input_nodes'
p114
I1
sS'_output_nodes'
p115
I1
sS'_node_gene_type'
p116
cneat.genome
NodeGene
p117
sS'_conn_gene_type'
p118
g10
sS'fitness'
p119
F0.99009874089544581
sS'parent2_id'
p120
I4282
sS'_id'
p121
I4304
sS'parent1_id'
p122
I4282
sS'_node_genes'
p123
(lp124
g1
(g117
g3
NtRp125
(dp126
S'_bias'
p127
I0
sS'_type'
p128
S'INPUT'
p129
sg121
I1
sS'_response'
p130
F4.9242730000000003
sS'_activation_type'
p131
Nsbag1
(g117
g3
NtRp132
(dp133
g127
F2.5968702609407357
sg128
S'OUTPUT'
p134
sg121
I2
sg130
F4.1294550686675091
sg131
S'tanh'
p135
sbag1
(g117
g3
NtRp136
(dp137
g127
F-0.3811095421702449
sg128
S'HIDDEN'
p138
sg121
I3
sg130
F8.48454855142095
sg131
g135
sbag1
(g117
g3
NtRp139
(dp140
g127
F5.4174055803437398
sg128
g138
sg121
I4
sg130
F3.6494542540028156
sg131
g135
sbag1
(g117
g3
NtRp141
(dp142
g127
F-0.40028843212170889
sg128
g138
sg121
I5
sg130
F-2.5702694116313958
sg131
g135
sbag1
(g117
g3
NtRp143
(dp144
g127
F-2.443929283580375
sg128
g138
sg121
I6
sg130
F-0.12650461413091951
sg131
g135
sbag1
(g117
g3
NtRp145
(dp146
g127
F0.99604698274221193
sg128
g138
sg121
I7
sg130
F6.2062892933614942
sg131
g135
sbag1
(g117
g3
NtRp147
(dp148
g127
F-1.8964740546447969
sg128
g138
sg121
I8
sg130
F4.4477035377493888
sg131
g135
sbag1
(g117
g3
NtRp149
(dp150
g127
F0.3503990834762345
sg128
g138
sg121
I9
sg130
F3.4334535677276419
sg131
g135
sbag1
(g117
g3
NtRp151
(dp152
g127
F0.1672913882571464
sg128
g138
sg121
I10
sg130
F6.8777590526618324
sg131
g135
sbag1
(g117
g3
NtRp153
(dp154
g127
F1.1972087656303125
sg128
g138
sg121
I11
sg130
F3.4501383538403312
sg131
g135
sbag1
(g117
g3
NtRp155
(dp156
g127
F-1.0260326203399028
sg128
g138
sg121
I12
sg130
F5.2244266116730564
sg131
g135
sbag1
(g117
g3
NtRp157
(dp158
g127
I0
sg128
g138
sg121
I13
sg130
F4.9242730000000003
sg131
g135
sbasb.