ccopy_reg
_reconstructor
p1
(cneat.chromosome
Chromosome
p2
c__builtin__
object
p3
NtRp4
(dp5
S'species_id'
p6
I32
sS'_connection_genes'
p7
(dp8
(I4
I7
tp9
g1
(cneat.genome
ConnectionGene
p10
g3
NtRp11
(dp12
S'_ConnectionGene__weight'
p13
F-24.534433305634618
sS'_ConnectionGene__in'
p14
I4
sS'_ConnectionGene__enabled'
p15
I01
sS'_ConnectionGene__out'
p16
I7
sS'_ConnectionGene__innov_number'
p17
I29
sbs(I1
I3
tp18
g1
(g10
g3
NtRp19
(dp20
g13
F-2.0376088946476383
sg14
I1
sg15
I01
sg16
I3
sg17
I2
sbs(I2
I8
tp21
g1
(g10
g3
NtRp22
(dp23
g13
F-4.0792731022487008
sg14
I2
sg15
I01
sg16
I8
sg17
I46
sbs(I3
I11
tp24
g1
(g10
g3
NtRp25
(dp26
g13
F18.277711290786648
sg14
I3
sg15
I01
sg16
I11
sg17
I98
sbs(I6
I2
tp27
g1
(g10
g3
NtRp28
(dp29
g13
F24.45214392616089
sg14
I6
sg15
I01
sg16
I2
sg17
I23
sbs(I6
I12
tp30
g1
(g10
g3
NtRp31
(dp32
g13
F-1.5853076298694915
sg14
I6
sg15
I01
sg16
I12
sg17
I115
sbs(I2
I5
tp33
g1
(g10
g3
NtRp34
(dp35
g13
F4.9939292810833367
sg14
I2
sg15
I01
sg16
I5
sg17
I10
sbs(I7
I2
tp36
g1
(g10
g3
NtRp37
(dp38
g13
F-22.893978682217703
sg14
I7
sg15
I01
sg16
I2
sg17
I21
sbs(I1
I2
tp39
g1
(g10
g3
NtRp40
(dp41
g13
F-19.441656547025481
sg14
I1
sg15
I01
sg16
I2
sg17
I1
sbs(I12
I2
tp42
g1
(g10
g3
NtRp43
(dp44
g13
F26.854891126907539
sg14
I12
sg15
I01
sg16
I2
sg17
I80
sbs(I3
I3
tp45
g1
(g10
g3
NtRp46
(dp47
g13
F-0.71166397740409959
sg14
I3
sg15
I00
sg16
I3
sg17
I6
sbs(I1
I5
tp48
g1
(g10
g3
NtRp49
(dp50
g13
F-8.3113759473756819
sg14
I1
sg15
I01
sg16
I5
sg17
I14
sbs(I2
I2
tp51
g1
(g10
g3
NtRp52
(dp53
g13
F-21.85463040783188
sg14
I2
sg15
I01
sg16
I2
sg17
I4
sbs(I8
I6
tp54
g1
(g10
g3
NtRp55
(dp56
g13
F12.025166823445943
sg14
I8
sg15
I01
sg16
I6
sg17
I51
sbs(I3
I2
tp57
g1
(g10
g3
NtRp58
(dp59
g13
F3.4437401090862383
sg14
I3
sg15
I01
sg16
I2
sg17
I3
sbs(I2
I6
tp60
g1
(g10
g3
NtRp61
(dp62
g13
F-3.1507200418574901
sg14
I2
sg15
I01
sg16
I6
sg17
I15
sbs(I4
I2
tp63
g1
(g10
g3
NtRp64
(dp65
g13
F-6.378444290889389
sg14
I4
sg15
I01
sg16
I2
sg17
I8
sbs(I6
I9
tp66
g1
(g10
g3
NtRp67
(dp68
g13
F-18.867430979659019
sg14
I6
sg15
I01
sg16
I9
sg17
I56
sbs(I5
I10
tp69
g1
(g10
g3
NtRp70
(dp71
g13
F1.3470283922183912
sg14
I5
sg15
I01
sg16
I10
sg17
I78
sbs(I9
I2
tp72
g1
(g10
g3
NtRp73
(dp74
g13
F23.776233523935385
sg14
I9
sg15
I01
sg16
I2
sg17
I59
sbs(I7
I8
tp75
g1
(g10
g3
NtRp76
(dp77
g13
F-13.811121089860773
sg14
I7
sg15
I01
sg16
I8
sg17
I52
sbs(I5
I2
tp78
g1
(g10
g3
NtRp79
(dp80
g13
F15.431900905874741
sg14
I5
sg15
I00
sg16
I2
sg17
I11
sbs(I11
I3
tp81
g1
(g10
g3
NtRp82
(dp83
g13
F15.590753313029975
sg14
I11
sg15
I01
sg16
I3
sg17
I99
sbs(I3
I4
tp84
g1
(g10
g3
NtRp85
(dp86
g13
F6.1032156542882667
sg14
I3
sg15
I01
sg16
I4
sg17
I9
sbs(I10
I2
tp87
g1
(g10
g3
NtRp88
(dp89
g13
F14.51412499135057
sg14
I10
sg15
I01
sg16
I2
sg17
I64
sbssS'_input_nodes'
p90
I1
sS'_output_nodes'
p91
I1
sS'_node_gene_type'
p92
cneat.genome
NodeGene
p93
sS'_conn_gene_type'
p94
g10
sS'fitness'
p95
F0.89248261565081577
sS'parent2_id'
p96
I3340
sS'_id'
p97
I3351
sS'parent1_id'
p98
I3335
sS'_node_genes'
p99
(lp100
g1
(g93
g3
NtRp101
(dp102
S'_bias'
p103
I0
sS'_type'
p104
S'INPUT'
p105
sg97
I1
sS'_response'
p106
F4.9242730000000003
sS'_activation_type'
p107
Nsbag1
(g93
g3
NtRp108
(dp109
g103
F0.16354408995485198
sg104
S'OUTPUT'
p110
sg97
I2
sg106
F2.2405873991862357
sg107
S'tanh'
p111
sbag1
(g93
g3
NtRp112
(dp113
g103
F-0.035245205392963622
sg104
S'HIDDEN'
p114
sg97
I3
sg106
F8.1279399970886956
sg107
g111
sbag1
(g93
g3
NtRp115
(dp116
g103
F3.293091697467073
sg104
g114
sg97
I4
sg106
F0.63152572214944425
sg107
g111
sbag1
(g93
g3
NtRp117
(dp118
g103
F2.5214104320515376
sg104
g114
sg97
I5
sg106
F0.97643527524258034
sg107
g111
sbag1
(g93
g3
NtRp119
(dp120
g103
F-0.68105203467734299
sg104
g114
sg97
I6
sg106
F1.4725371041800481
sg107
g111
sbag1
(g93
g3
NtRp121
(dp122
g103
F-1.2663295375117063
sg104
g114
sg97
I7
sg106
F6.6480951454009078
sg107
g111
sbag1
(g93
g3
NtRp123
(dp124
g103
F0.28197037519277346
sg104
g114
sg97
I8
sg106
F2.3824714517070005
sg107
g111
sbag1
(g93
g3
NtRp125
(dp126
g103
F-0.396067992219161
sg104
g114
sg97
I9
sg106
F3.7520343595886643
sg107
g111
sbag1
(g93
g3
NtRp127
(dp128
g103
F0.2203589533575111
sg104
g114
sg97
I10
sg106
F3.8402732323437236
sg107
g111
sbag1
(g93
g3
NtRp129
(dp130
g103
F-0.30478432428513585
sg104
g114
sg97
I11
sg106
F4.8331209024701813
sg107
g111
sbag1
(g93
g3
NtRp131
(dp132
g103
F0.11558192913800541
sg104
g114
sg97
I12
sg106
F5.6540941312508588
sg107
g111
sbasb.