ccopy_reg
_reconstructor
p1
(cneat.chromosome
Chromosome
p2
c__builtin__
object
p3
NtRp4
(dp5
S'species_id'
p6
I31
sS'_connection_genes'
p7
(dp8
(I4
I7
tp9
g1
(cneat.genome
ConnectionGene
p10
g3
NtRp11
(dp12
S'_ConnectionGene__weight'
p13
F-23.110037364010299
sS'_ConnectionGene__in'
p14
I4
sS'_ConnectionGene__enabled'
p15
I01
sS'_ConnectionGene__out'
p16
I7
sS'_ConnectionGene__innov_number'
p17
I29
sbs(I1
I3
tp18
g1
(g10
g3
NtRp19
(dp20
g13
F1.607509164824007
sg14
I1
sg15
I01
sg16
I3
sg17
I2
sbs(I2
I8
tp21
g1
(g10
g3
NtRp22
(dp23
g13
F-7.1459887504258397
sg14
I2
sg15
I01
sg16
I8
sg17
I46
sbs(I3
I11
tp24
g1
(g10
g3
NtRp25
(dp26
g13
F0.44724459699519015
sg14
I3
sg15
I01
sg16
I11
sg17
I98
sbs(I6
I2
tp27
g1
(g10
g3
NtRp28
(dp29
g13
F25.351267288441058
sg14
I6
sg15
I00
sg16
I2
sg17
I23
sbs(I2
I5
tp30
g1
(g10
g3
NtRp31
(dp32
g13
F-6.2982295375096307
sg14
I2
sg15
I01
sg16
I5
sg17
I10
sbs(I7
I2
tp33
g1
(g10
g3
NtRp34
(dp35
g13
F-6.5544052081434137
sg14
I7
sg15
I01
sg16
I2
sg17
I21
sbs(I1
I2
tp36
g1
(g10
g3
NtRp37
(dp38
g13
F-12.857708593943943
sg14
I1
sg15
I01
sg16
I2
sg17
I1
sbs(I3
I3
tp39
g1
(g10
g3
NtRp40
(dp41
g13
F-3.1383449324951673
sg14
I3
sg15
I01
sg16
I3
sg17
I6
sbs(I5
I12
tp42
g1
(g10
g3
NtRp43
(dp44
g13
F-2.2758003347922582
sg14
I5
sg15
I01
sg16
I12
sg17
I87
sbs(I1
I5
tp45
g1
(g10
g3
NtRp46
(dp47
g13
F-1.3940207667797662
sg14
I1
sg15
I01
sg16
I5
sg17
I14
sbs(I2
I2
tp48
g1
(g10
g3
NtRp49
(dp50
g13
F-10.375382880545864
sg14
I2
sg15
I01
sg16
I2
sg17
I4
sbs(I12
I10
tp51
g1
(g10
g3
NtRp52
(dp53
g13
F3.6119654475932053
sg14
I12
sg15
I01
sg16
I10
sg17
I103
sbs(I3
I2
tp54
g1
(g10
g3
NtRp55
(dp56
g13
F16.463842951618933
sg14
I3
sg15
I00
sg16
I2
sg17
I3
sbs(I2
I6
tp57
g1
(g10
g3
NtRp58
(dp59
g13
F-17.160177300092833
sg14
I2
sg15
I01
sg16
I6
sg17
I15
sbs(I8
I6
tp60
g1
(g10
g3
NtRp61
(dp62
g13
F7.9912283782378291
sg14
I8
sg15
I00
sg16
I6
sg17
I51
sbs(I4
I2
tp63
g1
(g10
g3
NtRp64
(dp65
g13
F-4.9745871505285972
sg14
I4
sg15
I01
sg16
I2
sg17
I8
sbs(I6
I9
tp66
g1
(g10
g3
NtRp67
(dp68
g13
F-2.3316693798135693
sg14
I6
sg15
I01
sg16
I9
sg17
I56
sbs(I5
I10
tp69
g1
(g10
g3
NtRp70
(dp71
g13
F0.38117255516943704
sg14
I5
sg15
I00
sg16
I10
sg17
I78
sbs(I9
I2
tp72
g1
(g10
g3
NtRp73
(dp74
g13
F23.987652274108978
sg14
I9
sg15
I01
sg16
I2
sg17
I59
sbs(I7
I8
tp75
g1
(g10
g3
NtRp76
(dp77
g13
F-4.0443697862792796
sg14
I7
sg15
I01
sg16
I8
sg17
I52
sbs(I5
I2
tp78
g1
(g10
g3
NtRp79
(dp80
g13
F7.9386429333779889
sg14
I5
sg15
I00
sg16
I2
sg17
I11
sbs(I11
I3
tp81
g1
(g10
g3
NtRp82
(dp83
g13
F3.9256773849584112
sg14
I11
sg15
I01
sg16
I3
sg17
I99
sbs(I3
I4
tp84
g1
(g10
g3
NtRp85
(dp86
g13
F0.62974922074118744
sg14
I3
sg15
I01
sg16
I4
sg17
I9
sbs(I10
I2
tp87
g1
(g10
g3
NtRp88
(dp89
g13
F7.9826610698644132
sg14
I10
sg15
I01
sg16
I2
sg17
I64
sbssS'_input_nodes'
p90
I1
sS'_output_nodes'
p91
I1
sS'_node_gene_type'
p92
cneat.genome
NodeGene
p93
sS'_conn_gene_type'
p94
g10
sS'fitness'
p95
F0.97433090175371961
sS'parent2_id'
p96
I2719
sS'_id'
p97
I2732
sS'parent1_id'
p98
I2720
sS'_node_genes'
p99
(lp100
g1
(g93
g3
NtRp101
(dp102
S'_bias'
p103
I0
sS'_type'
p104
S'INPUT'
p105
sg97
I1
sS'_response'
p106
F4.9242730000000003
sS'_activation_type'
p107
Nsbag1
(g93
g3
NtRp108
(dp109
g103
F1.0314970633256961
sg104
S'OUTPUT'
p110
sg97
I2
sg106
F2.3296572765484713
sg107
S'tanh'
p111
sbag1
(g93
g3
NtRp112
(dp113
g103
F-0.24727726887524293
sg104
S'HIDDEN'
p114
sg97
I3
sg106
F7.4369459194189655
sg107
g111
sbag1
(g93
g3
NtRp115
(dp116
g103
F3.4946732754906309
sg104
g114
sg97
I4
sg106
F2.6956127457816788
sg107
g111
sbag1
(g93
g3
NtRp117
(dp118
g103
F1.8435668860153553
sg104
g114
sg97
I5
sg106
F1.4832084465453326
sg107
g111
sbag1
(g93
g3
NtRp119
(dp120
g103
F-0.27880936241083876
sg104
g114
sg97
I6
sg106
F-0.038086475704980138
sg107
g111
sbag1
(g93
g3
NtRp121
(dp122
g103
F-0.39664966041777516
sg104
g114
sg97
I7
sg106
F5.0360633086030253
sg107
g111
sbag1
(g93
g3
NtRp123
(dp124
g103
F-2.6294054074182638
sg104
g114
sg97
I8
sg106
F3.5339504345636614
sg107
g111
sbag1
(g93
g3
NtRp125
(dp126
g103
F1.3051162732170378
sg104
g114
sg97
I9
sg106
F4.6550328456973498
sg107
g111
sbag1
(g93
g3
NtRp127
(dp128
g103
F-0.69263151331181372
sg104
g114
sg97
I10
sg106
F5.4481880987941045
sg107
g111
sbag1
(g93
g3
NtRp129
(dp130
g103
F-0.11248499351301285
sg104
g114
sg97
I11
sg106
F4.8061261398514441
sg107
g111
sbag1
(g93
g3
NtRp131
(dp132
g103
I0
sg104
g114
sg97
I12
sg106
F4.9242730000000003
sg107
g111
sbasb.