ccopy_reg
_reconstructor
p1
(cneat.chromosome
Chromosome
p2
c__builtin__
object
p3
NtRp4
(dp5
S'species_id'
p6
I55
sS'_connection_genes'
p7
(dp8
(I4
I7
tp9
g1
(cneat.genome
ConnectionGene
p10
g3
NtRp11
(dp12
S'_ConnectionGene__weight'
p13
F4.7300182336339542
sS'_ConnectionGene__in'
p14
I4
sS'_ConnectionGene__enabled'
p15
I01
sS'_ConnectionGene__out'
p16
I7
sS'_ConnectionGene__innov_number'
p17
I29
sbs(I1
I3
tp18
g1
(g10
g3
NtRp19
(dp20
g13
F14.766108293983478
sg14
I1
sg15
I01
sg16
I3
sg17
I2
sbs(I8
I13
tp21
g1
(g10
g3
NtRp22
(dp23
g13
F-1.1014126404685964
sg14
I8
sg15
I01
sg16
I13
sg17
I124
sbs(I6
I6
tp24
g1
(g10
g3
NtRp25
(dp26
g13
F6.8524885256778516
sg14
I6
sg15
I01
sg16
I6
sg17
I34
sbs(I7
I12
tp27
g1
(g10
g3
NtRp28
(dp29
g13
F-11.875861277954204
sg14
I7
sg15
I01
sg16
I12
sg17
I102
sbs(I2
I8
tp30
g1
(g10
g3
NtRp31
(dp32
g13
F-11.717575112789149
sg14
I2
sg15
I01
sg16
I8
sg17
I46
sbs(I12
I12
tp33
g1
(g10
g3
NtRp34
(dp35
g13
F10.560751489569114
sg14
I12
sg15
I01
sg16
I12
sg17
I160
sbs(I3
I11
tp36
g1
(g10
g3
NtRp37
(dp38
g13
F-14.977748927292398
sg14
I3
sg15
I01
sg16
I11
sg17
I98
sbs(I8
I9
tp39
g1
(g10
g3
NtRp40
(dp41
g13
F-18.446966412930035
sg14
I8
sg15
I01
sg16
I9
sg17
I61
sbs(I6
I2
tp42
g1
(g10
g3
NtRp43
(dp44
g13
F0.013672797504609924
sg14
I6
sg15
I01
sg16
I2
sg17
I23
sbs(I2
I5
tp45
g1
(g10
g3
NtRp46
(dp47
g13
F-13.953113243775254
sg14
I2
sg15
I01
sg16
I5
sg17
I10
sbs(I3
I17
tp48
g1
(g10
g3
NtRp49
(dp50
g13
F0.49211642935489031
sg14
I3
sg15
I01
sg16
I17
sg17
I271
sbs(I6
I9
tp51
g1
(g10
g3
NtRp52
(dp53
g13
F17.01275673256503
sg14
I6
sg15
I01
sg16
I9
sg17
I56
sbs(I3
I14
tp54
g1
(g10
g3
NtRp55
(dp56
g13
F-3.0278902561973182
sg14
I3
sg15
I01
sg16
I14
sg17
I157
sbs(I1
I2
tp57
g1
(g10
g3
NtRp58
(dp59
g13
F7.0670995941042838
sg14
I1
sg15
I01
sg16
I2
sg17
I1
sbs(I6
I3
tp60
g1
(g10
g3
NtRp61
(dp62
g13
F-24.945444570016335
sg14
I6
sg15
I01
sg16
I3
sg17
I37
sbs(I14
I2
tp63
g1
(g10
g3
NtRp64
(dp65
g13
F20.389959823148153
sg14
I14
sg15
I01
sg16
I2
sg17
I130
sbs(I3
I3
tp66
g1
(g10
g3
NtRp67
(dp68
g13
F13.276236813943807
sg14
I3
sg15
I01
sg16
I3
sg17
I6
sbs(I5
I12
tp69
g1
(g10
g3
NtRp70
(dp71
g13
F0.33686788177805355
sg14
I5
sg15
I01
sg16
I12
sg17
I87
sbs(I4
I4
tp72
g1
(g10
g3
NtRp73
(dp74
g13
F3.0860990609630092
sg14
I4
sg15
I01
sg16
I4
sg17
I26
sbs(I3
I4
tp75
g1
(g10
g3
NtRp76
(dp77
g13
F12.197701619733039
sg14
I3
sg15
I01
sg16
I4
sg17
I9
sbs(I17
I2
tp78
g1
(g10
g3
NtRp79
(dp80
g13
F9.4073345616316182
sg14
I17
sg15
I01
sg16
I2
sg17
I239
sbs(I1
I5
tp81
g1
(g10
g3
NtRp82
(dp83
g13
F2.9646083008266562
sg14
I1
sg15
I00
sg16
I5
sg17
I14
sbs(I13
I7
tp84
g1
(g10
g3
NtRp85
(dp86
g13
F6.9168265164437113
sg14
I13
sg15
I01
sg16
I7
sg17
I136
sbs(I7
I2
tp87
g1
(g10
g3
NtRp88
(dp89
g13
F-25.669177171912114
sg14
I7
sg15
I01
sg16
I2
sg17
I21
sbs(I2
I2
tp90
g1
(g10
g3
NtRp91
(dp92
g13
F22.612584399295777
sg14
I2
sg15
I00
sg16
I2
sg17
I4
sbs(I1
I10
tp93
g1
(g10
g3
NtRp94
(dp95
g13
F-3.6753526266683521
sg14
I1
sg15
I01
sg16
I10
sg17
I65
sbs(I8
I6
tp96
g1
(g10
g3
NtRp97
(dp98
g13
F-30
sg14
I8
sg15
I01
sg16
I6
sg17
I51
sbs(I11
I13
tp99
g1
(g10
g3
NtRp100
(dp101
g13
F-26.966550649884123
sg14
I11
sg15
I01
sg16
I13
sg17
I156
sbs(I3
I2
tp102
g1
(g10
g3
NtRp103
(dp104
g13
F15.131835975448872
sg14
I3
sg15
I00
sg16
I2
sg17
I3
sbs(I2
I6
tp105
g1
(g10
g3
NtRp106
(dp107
g13
F-26.273228978828858
sg14
I2
sg15
I01
sg16
I6
sg17
I15
sbs(I12
I14
tp108
g1
(g10
g3
NtRp109
(dp110
g13
F-1.2379614999767452
sg14
I12
sg15
I01
sg16
I14
sg17
I221
sbs(I9
I3
tp111
g1
(g10
g3
NtRp112
(dp113
g13
F3.9935384336090918
sg14
I9
sg15
I01
sg16
I3
sg17
I95
sbs(I15
I10
tp114
g1
(g10
g3
NtRp115
(dp116
g13
F-9.1392500278763897
sg14
I15
sg15
I01
sg16
I10
sg17
I189
sbs(I12
I10
tp117
g1
(g10
g3
NtRp118
(dp119
g13
F-26.307133708342072
sg14
I12
sg15
I00
sg16
I10
sg17
I103
sbs(I4
I2
tp120
g1
(g10
g3
NtRp121
(dp122
g13
F5.8471063955356906
sg14
I4
sg15
I01
sg16
I2
sg17
I8
sbs(I2
I14
tp123
g1
(g10
g3
NtRp124
(dp125
g13
F6.8150349482947385
sg14
I2
sg15
I01
sg16
I14
sg17
I129
sbs(I5
I3
tp126
g1
(g10
g3
NtRp127
(dp128
g13
F1.0407829692811972
sg14
I5
sg15
I01
sg16
I3
sg17
I27
sbs(I11
I7
tp129
g1
(g10
g3
NtRp130
(dp131
g13
F-27.568814103876676
sg14
I11
sg15
I00
sg16
I7
sg17
I107
sbs(I12
I15
tp132
g1
(g10
g3
NtRp133
(dp134
g13
F3.2211056576170747
sg14
I12
sg15
I01
sg16
I15
sg17
I217
sbs(I5
I10
tp135
g1
(g10
g3
NtRp136
(dp137
g13
F19.611584777790618
sg14
I5
sg15
I00
sg16
I10
sg17
I78
sbs(I16
I5
tp138
g1
(g10
g3
NtRp139
(dp140
g13
F-6.6667306668700679
sg14
I16
sg15
I01
sg16
I5
sg17
I178
sbs(I9
I2
tp141
g1
(g10
g3
NtRp142
(dp143
g13
F26.917277293117333
sg14
I9
sg15
I01
sg16
I2
sg17
I59
sbs(I5
I2
tp144
g1
(g10
g3
NtRp145
(dp146
g13
F-27.809040883377055
sg14
I5
sg15
I01
sg16
I2
sg17
I11
sbs(I16
I8
tp147
g1
(g10
g3
NtRp148
(dp149
g13
F-3.0962396739398645
sg14
I16
sg15
I01
sg16
I8
sg17
I172
sbs(I14
I7
tp150
g1
(g10
g3
NtRp151
(dp152
g13
F-0.94634619752164129
sg14
I14
sg15
I01
sg16
I7
sg17
I263
sbs(I11
I3
tp153
g1
(g10
g3
NtRp154
(dp155
g13
F-11.498675869436772
sg14
I11
sg15
I01
sg16
I3
sg17
I99
sbs(I3
I8
tp156
g1
(g10
g3
NtRp157
(dp158
g13
F4.5058448467767453
sg14
I3
sg15
I01
sg16
I8
sg17
I45
sbs(I9
I5
tp159
g1
(g10
g3
NtRp160
(dp161
g13
F-1.3132289139487092
sg14
I9
sg15
I01
sg16
I5
sg17
I57
sbs(I7
I8
tp162
g1
(g10
g3
NtRp163
(dp164
g13
F5.6247590193733403
sg14
I7
sg15
I01
sg16
I8
sg17
I52
sbs(I1
I16
tp165
g1
(g10
g3
NtRp166
(dp167
g13
F0.76737986968457705
sg14
I1
sg15
I01
sg16
I16
sg17
I245
sbs(I9
I12
tp168
g1
(g10
g3
NtRp169
(dp170
g13
F-1.7006476861647011
sg14
I9
sg15
I01
sg16
I12
sg17
I82
sbs(I10
I2
tp171
g1
(g10
g3
NtRp172
(dp173
g13
F-10.806949792413249
sg14
I10
sg15
I01
sg16
I2
sg17
I64
sbssS'_input_nodes'
p174
I1
sS'_output_nodes'
p175
I1
sS'_node_gene_type'
p176
cneat.genome
NodeGene
p177
sS'_conn_gene_type'
p178
g10
sS'fitness'
p179
F0.9500009490687058
sS'parent2_id'
p180
I7054
sS'_id'
p181
I7071
sS'parent1_id'
p182
I7054
sS'_node_genes'
p183
(lp184
g1
(g177
g3
NtRp185
(dp186
S'_bias'
p187
I0
sS'_type'
p188
S'INPUT'
p189
sg181
I1
sS'_response'
p190
F4.9242730000000003
sS'_activation_type'
p191
Nsbag1
(g177
g3
NtRp192
(dp193
g187
F-0.79260468804986828
sg188
S'OUTPUT'
p194
sg181
I2
sg190
F5.0980432135689489
sg191
S'tanh'
p195
sbag1
(g177
g3
NtRp196
(dp197
g187
F-3.6524968677062639
sg188
S'HIDDEN'
p198
sg181
I3
sg190
F15.05936656333815
sg191
g195
sbag1
(g177
g3
NtRp199
(dp200
g187
F7.1213379850909817
sg188
g198
sg181
I4
sg190
F3.6597441003366464
sg191
g195
sbag1
(g177
g3
NtRp201
(dp202
g187
F-4.5045716404677218
sg188
g198
sg181
I5
sg190
F-6.2093116273681472
sg191
g195
sbag1
(g177
g3
NtRp203
(dp204
g187
F-2.2350041402147403
sg188
g198
sg181
I6
sg190
F-0.49649339308734686
sg191
g195
sbag1
(g177
g3
NtRp205
(dp206
g187
F3.2902918410684259
sg188
g198
sg181
I7
sg190
F6.8626087535663309
sg191
g195
sbag1
(g177
g3
NtRp207
(dp208
g187
F-4.5987189902642633
sg188
g198
sg181
I8
sg190
F10.424408742620196
sg191
g195
sbag1
(g177
g3
NtRp209
(dp210
g187
F2.5236173926912153
sg188
g198
sg181
I9
sg190
F3.840948778280358
sg191
g195
sbag1
(g177
g3
NtRp211
(dp212
g187
F-0.76261790262358109
sg188
g198
sg181
I10
sg190
F6.2312200150186179
sg191
g195
sbag1
(g177
g3
NtRp213
(dp214
g187
F0.303496769924188
sg188
g198
sg181
I11
sg190
F2.3217873534767088
sg191
g195
sbag1
(g177
g3
NtRp215
(dp216
g187
F2.4769294586224495
sg188
g198
sg181
I12
sg190
F5.6178761315876047
sg191
g195
sbag1
(g177
g3
NtRp217
(dp218
g187
F0.47877059104484887
sg188
g198
sg181
I13
sg190
F8.1133053979583867
sg191
g195
sbag1
(g177
g3
NtRp219
(dp220
g187
F-1.2912810574547315
sg188
g198
sg181
I14
sg190
F3.7292588505474136
sg191
g195
sbag1
(g177
g3
NtRp221
(dp222
g187
F1.791230101633833
sg188
g198
sg181
I15
sg190
F4.6174523340805642
sg191
g195
sbag1
(g177
g3
NtRp223
(dp224
g187
F-3.367681820342447
sg188
g198
sg181
I16
sg190
F5.0455894830106329
sg191
g195
sbag1
(g177
g3
NtRp225
(dp226
g187
I0
sg188
g198
sg181
I17
sg190
F4.9242730000000003
sg191
g195
sbasb.