ccopy_reg
_reconstructor
p1
(cneat.chromosome
Chromosome
p2
c__builtin__
object
p3
NtRp4
(dp5
S'species_id'
p6
I36
sS'_connection_genes'
p7
(dp8
(I4
I7
tp9
g1
(cneat.genome
ConnectionGene
p10
g3
NtRp11
(dp12
S'_ConnectionGene__weight'
p13
F-20.533009744531903
sS'_ConnectionGene__in'
p14
I4
sS'_ConnectionGene__enabled'
p15
I01
sS'_ConnectionGene__out'
p16
I7
sS'_ConnectionGene__innov_number'
p17
I29
sbs(I1
I3
tp18
g1
(g10
g3
NtRp19
(dp20
g13
F6.2833457962822408
sg14
I1
sg15
I01
sg16
I3
sg17
I2
sbs(I14
I4
tp21
g1
(g10
g3
NtRp22
(dp23
g13
F-2.4115244557286748
sg14
I14
sg15
I01
sg16
I4
sg17
I143
sbs(I13
I4
tp24
g1
(g10
g3
NtRp25
(dp26
g13
F4.3381096626671605
sg14
I13
sg15
I00
sg16
I4
sg17
I120
sbs(I3
I11
tp27
g1
(g10
g3
NtRp28
(dp29
g13
F3.5370618401365181
sg14
I3
sg15
I01
sg16
I11
sg17
I98
sbs(I6
I2
tp30
g1
(g10
g3
NtRp31
(dp32
g13
F30
sg14
I6
sg15
I01
sg16
I2
sg17
I23
sbs(I6
I12
tp33
g1
(g10
g3
NtRp34
(dp35
g13
F-12.607081119102862
sg14
I6
sg15
I01
sg16
I12
sg17
I115
sbs(I2
I5
tp36
g1
(g10
g3
NtRp37
(dp38
g13
F3.9488954421330105
sg14
I2
sg15
I01
sg16
I5
sg17
I10
sbs(I7
I2
tp39
g1
(g10
g3
NtRp40
(dp41
g13
F-22.219941058474568
sg14
I7
sg15
I01
sg16
I2
sg17
I21
sbs(I1
I2
tp42
g1
(g10
g3
NtRp43
(dp44
g13
F-18.227706122374517
sg14
I1
sg15
I01
sg16
I2
sg17
I1
sbs(I12
I2
tp45
g1
(g10
g3
NtRp46
(dp47
g13
F19.845027048306001
sg14
I12
sg15
I01
sg16
I2
sg17
I80
sbs(I3
I3
tp48
g1
(g10
g3
NtRp49
(dp50
g13
F-2.9997155673747953
sg14
I3
sg15
I00
sg16
I3
sg17
I6
sbs(I2
I8
tp51
g1
(g10
g3
NtRp52
(dp53
g13
F-13.558538111594359
sg14
I2
sg15
I01
sg16
I8
sg17
I46
sbs(I1
I5
tp54
g1
(g10
g3
NtRp55
(dp56
g13
F-7.1621768880776324
sg14
I1
sg15
I01
sg16
I5
sg17
I14
sbs(I2
I2
tp57
g1
(g10
g3
NtRp58
(dp59
g13
F-20.512378926792817
sg14
I2
sg15
I01
sg16
I2
sg17
I4
sbs(I3
I4
tp60
g1
(g10
g3
NtRp61
(dp62
g13
F0.97493868267017358
sg14
I3
sg15
I01
sg16
I4
sg17
I9
sbs(I8
I6
tp63
g1
(g10
g3
NtRp64
(dp65
g13
F3.3235106792294968
sg14
I8
sg15
I01
sg16
I6
sg17
I51
sbs(I3
I2
tp66
g1
(g10
g3
NtRp67
(dp68
g13
F-2.0230392565628676
sg14
I3
sg15
I01
sg16
I2
sg17
I3
sbs(I2
I6
tp69
g1
(g10
g3
NtRp70
(dp71
g13
F1.9928379702386347
sg14
I2
sg15
I01
sg16
I6
sg17
I15
sbs(I3
I13
tp72
g1
(g10
g3
NtRp73
(dp74
g13
F10.371985153578407
sg14
I3
sg15
I01
sg16
I13
sg17
I105
sbs(I4
I2
tp75
g1
(g10
g3
NtRp76
(dp77
g13
F-11.770604423451212
sg14
I4
sg15
I01
sg16
I2
sg17
I8
sbs(I6
I9
tp78
g1
(g10
g3
NtRp79
(dp80
g13
F-19.745814522412129
sg14
I6
sg15
I01
sg16
I9
sg17
I56
sbs(I5
I10
tp81
g1
(g10
g3
NtRp82
(dp83
g13
F-10.170852879952289
sg14
I5
sg15
I01
sg16
I10
sg17
I78
sbs(I9
I2
tp84
g1
(g10
g3
NtRp85
(dp86
g13
F7.7377567912842071
sg14
I9
sg15
I01
sg16
I2
sg17
I59
sbs(I5
I2
tp87
g1
(g10
g3
NtRp88
(dp89
g13
F8.5434685463488069
sg14
I5
sg15
I00
sg16
I2
sg17
I11
sbs(I11
I3
tp90
g1
(g10
g3
NtRp91
(dp92
g13
F16.784144877553434
sg14
I11
sg15
I01
sg16
I3
sg17
I99
sbs(I13
I14
tp93
g1
(g10
g3
NtRp94
(dp95
g13
F3.3860396017139749
sg14
I13
sg15
I01
sg16
I14
sg17
I142
sbs(I7
I8
tp96
g1
(g10
g3
NtRp97
(dp98
g13
F-19.712535202472601
sg14
I7
sg15
I01
sg16
I8
sg17
I52
sbs(I10
I2
tp99
g1
(g10
g3
NtRp100
(dp101
g13
F13.371644800514966
sg14
I10
sg15
I01
sg16
I2
sg17
I64
sbssS'_input_nodes'
p102
I1
sS'_output_nodes'
p103
I1
sS'_node_gene_type'
p104
cneat.genome
NodeGene
p105
sS'_conn_gene_type'
p106
g10
sS'fitness'
p107
F0.94757980162691335
sS'parent2_id'
p108
I4075
sS'_id'
p109
I4093
sS'parent1_id'
p110
I4075
sS'_node_genes'
p111
(lp112
g1
(g105
g3
NtRp113
(dp114
S'_bias'
p115
I0
sS'_type'
p116
S'INPUT'
p117
sg109
I1
sS'_response'
p118
F4.9242730000000003
sS'_activation_type'
p119
Nsbag1
(g105
g3
NtRp120
(dp121
g115
F2.6902675448444677
sg116
S'OUTPUT'
p122
sg109
I2
sg118
F2.0494400918668711
sg119
S'tanh'
p123
sbag1
(g105
g3
NtRp124
(dp125
g115
F-0.3244773007302128
sg116
S'HIDDEN'
p126
sg109
I3
sg118
F8.8729108207918941
sg119
g123
sbag1
(g105
g3
NtRp127
(dp128
g115
F3.1962735174022452
sg116
g126
sg109
I4
sg118
F2.4444442132614395
sg119
g123
sbag1
(g105
g3
NtRp129
(dp130
g115
F-0.0028957564719191975
sg116
g126
sg109
I5
sg118
F1.2454467214700895
sg119
g123
sbag1
(g105
g3
NtRp131
(dp132
g115
F1.2801851214477729
sg116
g126
sg109
I6
sg118
F3.8035899194282097
sg119
g123
sbag1
(g105
g3
NtRp133
(dp134
g115
F0.23333436008268288
sg116
g126
sg109
I7
sg118
F6.7527139306079143
sg119
g123
sbag1
(g105
g3
NtRp135
(dp136
g115
F1.2546697211170432
sg116
g126
sg109
I8
sg118
F3.0521712294097698
sg119
g123
sbag1
(g105
g3
NtRp137
(dp138
g115
F-1.0317842896637683
sg116
g126
sg109
I9
sg118
F2.7675774078762494
sg119
g123
sbag1
(g105
g3
NtRp139
(dp140
g115
F-1.2368611317312097
sg116
g126
sg109
I10
sg118
F4.1285564290296541
sg119
g123
sbag1
(g105
g3
NtRp141
(dp142
g115
F-0.32465169713393338
sg116
g126
sg109
I11
sg118
F4.1847164940110746
sg119
g123
sbag1
(g105
g3
NtRp143
(dp144
g115
F1.8597741918308808
sg116
g126
sg109
I12
sg118
F7.9194106733239087
sg119
g123
sbag1
(g105
g3
NtRp145
(dp146
g115
F-0.52346602097967476
sg116
g126
sg109
I13
sg118
F6.4807494169738771
sg119
g123
sbag1
(g105
g3
NtRp147
(dp148
g115
F0.064740731981455635
sg116
g126
sg109
I14
sg118
F4.7320335234736879
sg119
g123
sbasb.