ccopy_reg
_reconstructor
p1
(cneat.chromosome
Chromosome
p2
c__builtin__
object
p3
NtRp4
(dp5
S'species_id'
p6
I36
sS'_connection_genes'
p7
(dp8
(I7
I8
tp9
g1
(cneat.genome
ConnectionGene
p10
g3
NtRp11
(dp12
S'_ConnectionGene__weight'
p13
F-19.712535202472601
sS'_ConnectionGene__in'
p14
I7
sS'_ConnectionGene__enabled'
p15
I01
sS'_ConnectionGene__out'
p16
I8
sS'_ConnectionGene__innov_number'
p17
I52
sbs(I4
I7
tp18
g1
(g10
g3
NtRp19
(dp20
g13
F-20.533009744531903
sg14
I4
sg15
I01
sg16
I7
sg17
I29
sbs(I1
I3
tp21
g1
(g10
g3
NtRp22
(dp23
g13
F6.2833457962822408
sg14
I1
sg15
I01
sg16
I3
sg17
I2
sbs(I14
I4
tp24
g1
(g10
g3
NtRp25
(dp26
g13
F-2.4115244557286748
sg14
I14
sg15
I01
sg16
I4
sg17
I143
sbs(I13
I4
tp27
g1
(g10
g3
NtRp28
(dp29
g13
F4.3381096626671605
sg14
I13
sg15
I00
sg16
I4
sg17
I120
sbs(I3
I11
tp30
g1
(g10
g3
NtRp31
(dp32
g13
F3.5370618401365181
sg14
I3
sg15
I01
sg16
I11
sg17
I98
sbs(I6
I2
tp33
g1
(g10
g3
NtRp34
(dp35
g13
F30
sg14
I6
sg15
I01
sg16
I2
sg17
I23
sbs(I6
I12
tp36
g1
(g10
g3
NtRp37
(dp38
g13
F-12.607081119102862
sg14
I6
sg15
I01
sg16
I12
sg17
I115
sbs(I2
I5
tp39
g1
(g10
g3
NtRp40
(dp41
g13
F3.9488954421330105
sg14
I2
sg15
I01
sg16
I5
sg17
I10
sbs(I7
I2
tp42
g1
(g10
g3
NtRp43
(dp44
g13
F-22.219941058474568
sg14
I7
sg15
I01
sg16
I2
sg17
I21
sbs(I1
I2
tp45
g1
(g10
g3
NtRp46
(dp47
g13
F-18.227706122374517
sg14
I1
sg15
I01
sg16
I2
sg17
I1
sbs(I12
I2
tp48
g1
(g10
g3
NtRp49
(dp50
g13
F19.845027048306001
sg14
I12
sg15
I01
sg16
I2
sg17
I80
sbs(I3
I3
tp51
g1
(g10
g3
NtRp52
(dp53
g13
F-2.9997155673747953
sg14
I3
sg15
I00
sg16
I3
sg17
I6
sbs(I2
I8
tp54
g1
(g10
g3
NtRp55
(dp56
g13
F-13.558538111594359
sg14
I2
sg15
I01
sg16
I8
sg17
I46
sbs(I1
I5
tp57
g1
(g10
g3
NtRp58
(dp59
g13
F-7.1621768880776324
sg14
I1
sg15
I01
sg16
I5
sg17
I14
sbs(I2
I2
tp60
g1
(g10
g3
NtRp61
(dp62
g13
F-20.512378926792817
sg14
I2
sg15
I01
sg16
I2
sg17
I4
sbs(I8
I6
tp63
g1
(g10
g3
NtRp64
(dp65
g13
F3.3235106792294968
sg14
I8
sg15
I01
sg16
I6
sg17
I51
sbs(I3
I2
tp66
g1
(g10
g3
NtRp67
(dp68
g13
F-2.0230392565628676
sg14
I3
sg15
I01
sg16
I2
sg17
I3
sbs(I2
I6
tp69
g1
(g10
g3
NtRp70
(dp71
g13
F1.9928379702386347
sg14
I2
sg15
I01
sg16
I6
sg17
I15
sbs(I3
I13
tp72
g1
(g10
g3
NtRp73
(dp74
g13
F10.371985153578407
sg14
I3
sg15
I01
sg16
I13
sg17
I105
sbs(I7
I5
tp75
g1
(g10
g3
NtRp76
(dp77
g13
F0.21074959467023341
sg14
I7
sg15
I01
sg16
I5
sg17
I19
sbs(I4
I2
tp78
g1
(g10
g3
NtRp79
(dp80
g13
F-11.770604423451212
sg14
I4
sg15
I01
sg16
I2
sg17
I8
sbs(I6
I9
tp81
g1
(g10
g3
NtRp82
(dp83
g13
F-19.745814522412129
sg14
I6
sg15
I01
sg16
I9
sg17
I56
sbs(I5
I10
tp84
g1
(g10
g3
NtRp85
(dp86
g13
F-10.170852879952289
sg14
I5
sg15
I01
sg16
I10
sg17
I78
sbs(I9
I2
tp87
g1
(g10
g3
NtRp88
(dp89
g13
F7.7377567912842071
sg14
I9
sg15
I01
sg16
I2
sg17
I59
sbs(I5
I2
tp90
g1
(g10
g3
NtRp91
(dp92
g13
F8.5434685463488069
sg14
I5
sg15
I00
sg16
I2
sg17
I11
sbs(I11
I3
tp93
g1
(g10
g3
NtRp94
(dp95
g13
F16.784144877553434
sg14
I11
sg15
I01
sg16
I3
sg17
I99
sbs(I13
I14
tp96
g1
(g10
g3
NtRp97
(dp98
g13
F3.3860396017139749
sg14
I13
sg15
I01
sg16
I14
sg17
I142
sbs(I3
I4
tp99
g1
(g10
g3
NtRp100
(dp101
g13
F0.97493868267017358
sg14
I3
sg15
I01
sg16
I4
sg17
I9
sbs(I10
I2
tp102
g1
(g10
g3
NtRp103
(dp104
g13
F13.371644800514966
sg14
I10
sg15
I01
sg16
I2
sg17
I64
sbssS'_input_nodes'
p105
I1
sS'_output_nodes'
p106
I1
sS'_node_gene_type'
p107
cneat.genome
NodeGene
p108
sS'_conn_gene_type'
p109
g10
sS'fitness'
p110
F0.96322309531750883
sS'parent2_id'
p111
I4093
sS'_id'
p112
I4148
sS'parent1_id'
p113
I4093
sS'_node_genes'
p114
(lp115
g1
(g108
g3
NtRp116
(dp117
S'_bias'
p118
I0
sS'_type'
p119
S'INPUT'
p120
sg112
I1
sS'_response'
p121
F4.9242730000000003
sS'_activation_type'
p122
Nsbag1
(g108
g3
NtRp123
(dp124
g118
F2.6902675448444677
sg119
S'OUTPUT'
p125
sg112
I2
sg121
F2.0494400918668711
sg122
S'tanh'
p126
sbag1
(g108
g3
NtRp127
(dp128
g118
F-0.3244773007302128
sg119
S'HIDDEN'
p129
sg112
I3
sg121
F8.8729108207918941
sg122
g126
sbag1
(g108
g3
NtRp130
(dp131
g118
F3.1962735174022452
sg119
g129
sg112
I4
sg121
F2.4444442132614395
sg122
g126
sbag1
(g108
g3
NtRp132
(dp133
g118
F-0.0028957564719191975
sg119
g129
sg112
I5
sg121
F1.2454467214700895
sg122
g126
sbag1
(g108
g3
NtRp134
(dp135
g118
F1.2801851214477729
sg119
g129
sg112
I6
sg121
F3.8035899194282097
sg122
g126
sbag1
(g108
g3
NtRp136
(dp137
g118
F0.23333436008268288
sg119
g129
sg112
I7
sg121
F6.7527139306079143
sg122
g126
sbag1
(g108
g3
NtRp138
(dp139
g118
F1.2546697211170432
sg119
g129
sg112
I8
sg121
F3.0521712294097698
sg122
g126
sbag1
(g108
g3
NtRp140
(dp141
g118
F-1.0317842896637683
sg119
g129
sg112
I9
sg121
F2.7675774078762494
sg122
g126
sbag1
(g108
g3
NtRp142
(dp143
g118
F-1.2368611317312097
sg119
g129
sg112
I10
sg121
F4.1285564290296541
sg122
g126
sbag1
(g108
g3
NtRp144
(dp145
g118
F-0.32465169713393338
sg119
g129
sg112
I11
sg121
F4.1847164940110746
sg122
g126
sbag1
(g108
g3
NtRp146
(dp147
g118
F1.8597741918308808
sg119
g129
sg112
I12
sg121
F7.9194106733239087
sg122
g126
sbag1
(g108
g3
NtRp148
(dp149
g118
F-0.52346602097967476
sg119
g129
sg112
I13
sg121
F6.4807494169738771
sg122
g126
sbag1
(g108
g3
NtRp150
(dp151
g118
F0.064740731981455635
sg119
g129
sg112
I14
sg121
F4.7320335234736879
sg122
g126
sbasb.