ccopy_reg
_reconstructor
p1
(cneat.chromosome
Chromosome
p2
c__builtin__
object
p3
NtRp4
(dp5
S'species_id'
p6
I38
sS'_connection_genes'
p7
(dp8
(I5
I9
tp9
g1
(cneat.genome
ConnectionGene
p10
g3
NtRp11
(dp12
S'_ConnectionGene__weight'
p13
F2.0328453871818102
sS'_ConnectionGene__in'
p14
I5
sS'_ConnectionGene__enabled'
p15
I01
sS'_ConnectionGene__out'
p16
I9
sS'_ConnectionGene__innov_number'
p17
I58
sbs(I4
I7
tp18
g1
(g10
g3
NtRp19
(dp20
g13
F-19.539320953409451
sg14
I4
sg15
I01
sg16
I7
sg17
I29
sbs(I1
I3
tp21
g1
(g10
g3
NtRp22
(dp23
g13
F-1.462381815234721
sg14
I1
sg15
I01
sg16
I3
sg17
I2
sbs(I14
I4
tp24
g1
(g10
g3
NtRp25
(dp26
g13
F0.99503391821878773
sg14
I14
sg15
I01
sg16
I4
sg17
I143
sbs(I13
I4
tp27
g1
(g10
g3
NtRp28
(dp29
g13
F10.929857390645989
sg14
I13
sg15
I00
sg16
I4
sg17
I120
sbs(I3
I11
tp30
g1
(g10
g3
NtRp31
(dp32
g13
F12.379094546534036
sg14
I3
sg15
I01
sg16
I11
sg17
I98
sbs(I6
I2
tp33
g1
(g10
g3
NtRp34
(dp35
g13
F30
sg14
I6
sg15
I01
sg16
I2
sg17
I23
sbs(I4
I2
tp36
g1
(g10
g3
NtRp37
(dp38
g13
F-4.8521491403821715
sg14
I4
sg15
I01
sg16
I2
sg17
I8
sbs(I2
I5
tp39
g1
(g10
g3
NtRp40
(dp41
g13
F1.7290614141843084
sg14
I2
sg15
I01
sg16
I5
sg17
I10
sbs(I7
I2
tp42
g1
(g10
g3
NtRp43
(dp44
g13
F-27.165386690029123
sg14
I7
sg15
I01
sg16
I2
sg17
I21
sbs(I1
I2
tp45
g1
(g10
g3
NtRp46
(dp47
g13
F-16.392355803451373
sg14
I1
sg15
I01
sg16
I2
sg17
I1
sbs(I12
I2
tp48
g1
(g10
g3
NtRp49
(dp50
g13
F26.818978586220382
sg14
I12
sg15
I01
sg16
I2
sg17
I80
sbs(I3
I3
tp51
g1
(g10
g3
NtRp52
(dp53
g13
F-13.151879111291755
sg14
I3
sg15
I00
sg16
I3
sg17
I6
sbs(I2
I8
tp54
g1
(g10
g3
NtRp55
(dp56
g13
F-12.297422695161609
sg14
I2
sg15
I01
sg16
I8
sg17
I46
sbs(I1
I5
tp57
g1
(g10
g3
NtRp58
(dp59
g13
F0.40573857948696501
sg14
I1
sg15
I01
sg16
I5
sg17
I14
sbs(I2
I2
tp60
g1
(g10
g3
NtRp61
(dp62
g13
F-9.2006981223872053
sg14
I2
sg15
I01
sg16
I2
sg17
I4
sbs(I8
I6
tp63
g1
(g10
g3
NtRp64
(dp65
g13
F5.3776520270959614
sg14
I8
sg15
I01
sg16
I6
sg17
I51
sbs(I3
I2
tp66
g1
(g10
g3
NtRp67
(dp68
g13
F2.7156291478543029
sg14
I3
sg15
I01
sg16
I2
sg17
I3
sbs(I2
I6
tp69
g1
(g10
g3
NtRp70
(dp71
g13
F-7.4018296299517443
sg14
I2
sg15
I01
sg16
I6
sg17
I15
sbs(I3
I13
tp72
g1
(g10
g3
NtRp73
(dp74
g13
F11.862862271627055
sg14
I3
sg15
I01
sg16
I13
sg17
I105
sbs(I7
I5
tp75
g1
(g10
g3
NtRp76
(dp77
g13
F-6.2703356590877144
sg14
I7
sg15
I01
sg16
I5
sg17
I19
sbs(I6
I12
tp78
g1
(g10
g3
NtRp79
(dp80
g13
F-16.09778615813325
sg14
I6
sg15
I01
sg16
I12
sg17
I115
sbs(I7
I8
tp81
g1
(g10
g3
NtRp82
(dp83
g13
F-13.002266291673923
sg14
I7
sg15
I01
sg16
I8
sg17
I52
sbs(I6
I9
tp84
g1
(g10
g3
NtRp85
(dp86
g13
F-20.384367139468427
sg14
I6
sg15
I01
sg16
I9
sg17
I56
sbs(I5
I10
tp87
g1
(g10
g3
NtRp88
(dp89
g13
F-1.6722078416098012
sg14
I5
sg15
I01
sg16
I10
sg17
I78
sbs(I9
I2
tp90
g1
(g10
g3
NtRp91
(dp92
g13
F7.2528050680707254
sg14
I9
sg15
I01
sg16
I2
sg17
I59
sbs(I5
I2
tp93
g1
(g10
g3
NtRp94
(dp95
g13
F2.9005379436002601
sg14
I5
sg15
I00
sg16
I2
sg17
I11
sbs(I11
I3
tp96
g1
(g10
g3
NtRp97
(dp98
g13
F13.67376552727257
sg14
I11
sg15
I01
sg16
I3
sg17
I99
sbs(I13
I14
tp99
g1
(g10
g3
NtRp100
(dp101
g13
F3.9636807291952074
sg14
I13
sg15
I01
sg16
I14
sg17
I142
sbs(I3
I4
tp102
g1
(g10
g3
NtRp103
(dp104
g13
F-7.5227923147146853
sg14
I3
sg15
I01
sg16
I4
sg17
I9
sbs(I10
I2
tp105
g1
(g10
g3
NtRp106
(dp107
g13
F3.6985045324908477
sg14
I10
sg15
I01
sg16
I2
sg17
I64
sbssS'_input_nodes'
p108
I1
sS'_output_nodes'
p109
I1
sS'_node_gene_type'
p110
cneat.genome
NodeGene
p111
sS'_conn_gene_type'
p112
g10
sS'fitness'
p113
F0.97791578864682216
sS'parent2_id'
p114
I4451
sS'_id'
p115
I4474
sS'parent1_id'
p116
I4451
sS'_node_genes'
p117
(lp118
g1
(g111
g3
NtRp119
(dp120
S'_bias'
p121
I0
sS'_type'
p122
S'INPUT'
p123
sg115
I1
sS'_response'
p124
F4.9242730000000003
sS'_activation_type'
p125
Nsbag1
(g111
g3
NtRp126
(dp127
g121
F3.0305154109836017
sg122
S'OUTPUT'
p128
sg115
I2
sg124
F2.8628347976990089
sg125
S'tanh'
p129
sbag1
(g111
g3
NtRp130
(dp131
g121
F0.85784847793818009
sg122
S'HIDDEN'
p132
sg115
I3
sg124
F8.3176254773429967
sg125
g129
sbag1
(g111
g3
NtRp133
(dp134
g121
F2.6721920925234666
sg122
g132
sg115
I4
sg124
F3.7081356521741982
sg125
g129
sbag1
(g111
g3
NtRp135
(dp136
g121
F-0.35896928608375656
sg122
g132
sg115
I5
sg124
F1.7717437140178252
sg125
g129
sbag1
(g111
g3
NtRp137
(dp138
g121
F2.8656002557995448
sg122
g132
sg115
I6
sg124
F5.6591198626255848
sg125
g129
sbag1
(g111
g3
NtRp139
(dp140
g121
F0.0052713328828796063
sg122
g132
sg115
I7
sg124
F7.9738875049296656
sg125
g129
sbag1
(g111
g3
NtRp141
(dp142
g121
F-0.39772790213091191
sg122
g132
sg115
I8
sg124
F2.8442156084171608
sg125
g129
sbag1
(g111
g3
NtRp143
(dp144
g121
F-0.78469396829419225
sg122
g132
sg115
I9
sg124
F2.8918769899506964
sg125
g129
sbag1
(g111
g3
NtRp145
(dp146
g121
F-1.576371723195543
sg122
g132
sg115
I10
sg124
F4.1316714047785172
sg125
g129
sbag1
(g111
g3
NtRp147
(dp148
g121
F-1.0515527443818429
sg122
g132
sg115
I11
sg124
F3.7617926795196959
sg125
g129
sbag1
(g111
g3
NtRp149
(dp150
g121
F1.1941627295942774
sg122
g132
sg115
I12
sg124
F7.8861516084014838
sg125
g129
sbag1
(g111
g3
NtRp151
(dp152
g121
F-0.52346602097967476
sg122
g132
sg115
I13
sg124
F6.7580651554514724
sg125
g129
sbag1
(g111
g3
NtRp153
(dp154
g121
F0.40115575443092943
sg122
g132
sg115
I14
sg124
F4.0204605084286591
sg125
g129
sbasb.