ccopy_reg
_reconstructor
p1
(cneat.chromosome
Chromosome
p2
c__builtin__
object
p3
NtRp4
(dp5
S'species_id'
p6
I47
sS'_connection_genes'
p7
(dp8
(I7
I8
tp9
g1
(cneat.genome
ConnectionGene
p10
g3
NtRp11
(dp12
S'_ConnectionGene__weight'
p13
F11.817536029054589
sS'_ConnectionGene__in'
p14
I7
sS'_ConnectionGene__enabled'
p15
I01
sS'_ConnectionGene__out'
p16
I8
sS'_ConnectionGene__innov_number'
p17
I52
sbs(I4
I7
tp18
g1
(g10
g3
NtRp19
(dp20
g13
F-2.5172014247973644
sg14
I4
sg15
I01
sg16
I7
sg17
I29
sbs(I1
I3
tp21
g1
(g10
g3
NtRp22
(dp23
g13
F-1.4914256262522911
sg14
I1
sg15
I01
sg16
I3
sg17
I2
sbs(I6
I6
tp24
g1
(g10
g3
NtRp25
(dp26
g13
F1.449264575150979
sg14
I6
sg15
I01
sg16
I6
sg17
I34
sbs(I7
I12
tp27
g1
(g10
g3
NtRp28
(dp29
g13
F-5.3285492376345616
sg14
I7
sg15
I01
sg16
I12
sg17
I102
sbs(I2
I8
tp30
g1
(g10
g3
NtRp31
(dp32
g13
F-30
sg14
I2
sg15
I01
sg16
I8
sg17
I46
sbs(I12
I12
tp33
g1
(g10
g3
NtRp34
(dp35
g13
F4.1171410499369658
sg14
I12
sg15
I01
sg16
I12
sg17
I160
sbs(I3
I11
tp36
g1
(g10
g3
NtRp37
(dp38
g13
F-0.071689635287444986
sg14
I3
sg15
I01
sg16
I11
sg17
I98
sbs(I8
I9
tp39
g1
(g10
g3
NtRp40
(dp41
g13
F-30
sg14
I8
sg15
I01
sg16
I9
sg17
I61
sbs(I6
I2
tp42
g1
(g10
g3
NtRp43
(dp44
g13
F3.4959504834130724
sg14
I6
sg15
I01
sg16
I2
sg17
I23
sbs(I2
I5
tp45
g1
(g10
g3
NtRp46
(dp47
g13
F-20.789827098937444
sg14
I2
sg15
I01
sg16
I5
sg17
I10
sbs(I3
I14
tp48
g1
(g10
g3
NtRp49
(dp50
g13
F-4.8670081747375722
sg14
I3
sg15
I01
sg16
I14
sg17
I157
sbs(I1
I2
tp51
g1
(g10
g3
NtRp52
(dp53
g13
F-13.429708071166765
sg14
I1
sg15
I01
sg16
I2
sg17
I1
sbs(I2
I14
tp54
g1
(g10
g3
NtRp55
(dp56
g13
F4.1630234229684682
sg14
I2
sg15
I01
sg16
I14
sg17
I129
sbs(I3
I3
tp57
g1
(g10
g3
NtRp58
(dp59
g13
F7.7847082288507563
sg14
I3
sg15
I01
sg16
I3
sg17
I6
sbs(I5
I12
tp60
g1
(g10
g3
NtRp61
(dp62
g13
F0.79275434091759633
sg14
I5
sg15
I01
sg16
I12
sg17
I87
sbs(I6
I3
tp63
g1
(g10
g3
NtRp64
(dp65
g13
F-14.035107032864907
sg14
I6
sg15
I01
sg16
I3
sg17
I37
sbs(I1
I5
tp66
g1
(g10
g3
NtRp67
(dp68
g13
F-8.2995592283439947
sg14
I1
sg15
I01
sg16
I5
sg17
I14
sbs(I13
I7
tp69
g1
(g10
g3
NtRp70
(dp71
g13
F7.3563361062252639
sg14
I13
sg15
I01
sg16
I7
sg17
I136
sbs(I7
I2
tp72
g1
(g10
g3
NtRp73
(dp74
g13
F-18.893704047656858
sg14
I7
sg15
I01
sg16
I2
sg17
I21
sbs(I2
I2
tp75
g1
(g10
g3
NtRp76
(dp77
g13
F4.6352007959372079
sg14
I2
sg15
I00
sg16
I2
sg17
I4
sbs(I1
I10
tp78
g1
(g10
g3
NtRp79
(dp80
g13
F-2.1944778051524656
sg14
I1
sg15
I01
sg16
I10
sg17
I65
sbs(I8
I6
tp81
g1
(g10
g3
NtRp82
(dp83
g13
F-25.716347405921791
sg14
I8
sg15
I01
sg16
I6
sg17
I51
sbs(I11
I13
tp84
g1
(g10
g3
NtRp85
(dp86
g13
F-29.363107263467381
sg14
I11
sg15
I01
sg16
I13
sg17
I156
sbs(I3
I2
tp87
g1
(g10
g3
NtRp88
(dp89
g13
F10.890002707295613
sg14
I3
sg15
I00
sg16
I2
sg17
I3
sbs(I2
I6
tp90
g1
(g10
g3
NtRp91
(dp92
g13
F-24.962844430734027
sg14
I2
sg15
I01
sg16
I6
sg17
I15
sbs(I9
I3
tp93
g1
(g10
g3
NtRp94
(dp95
g13
F3.539335485707527
sg14
I9
sg15
I01
sg16
I3
sg17
I95
sbs(I12
I10
tp96
g1
(g10
g3
NtRp97
(dp98
g13
F-18.780186073791661
sg14
I12
sg15
I01
sg16
I10
sg17
I103
sbs(I4
I2
tp99
g1
(g10
g3
NtRp100
(dp101
g13
F-9.8191510309441394
sg14
I4
sg15
I01
sg16
I2
sg17
I8
sbs(I14
I2
tp102
g1
(g10
g3
NtRp103
(dp104
g13
F12.078124405278999
sg14
I14
sg15
I01
sg16
I2
sg17
I130
sbs(I11
I7
tp105
g1
(g10
g3
NtRp106
(dp107
g13
F-12.87011745783459
sg14
I11
sg15
I00
sg16
I7
sg17
I107
sbs(I6
I9
tp108
g1
(g10
g3
NtRp109
(dp110
g13
F0.9293514164279606
sg14
I6
sg15
I01
sg16
I9
sg17
I56
sbs(I5
I10
tp111
g1
(g10
g3
NtRp112
(dp113
g13
F6.4098797993639991
sg14
I5
sg15
I00
sg16
I10
sg17
I78
sbs(I9
I2
tp114
g1
(g10
g3
NtRp115
(dp116
g13
F23.461839287520132
sg14
I9
sg15
I01
sg16
I2
sg17
I59
sbs(I5
I2
tp117
g1
(g10
g3
NtRp118
(dp119
g13
F-30
sg14
I5
sg15
I01
sg16
I2
sg17
I11
sbs(I11
I3
tp120
g1
(g10
g3
NtRp121
(dp122
g13
F-1.4047056766594417
sg14
I11
sg15
I01
sg16
I3
sg17
I99
sbs(I3
I8
tp123
g1
(g10
g3
NtRp124
(dp125
g13
F7.223185105175383
sg14
I3
sg15
I01
sg16
I8
sg17
I45
sbs(I9
I5
tp126
g1
(g10
g3
NtRp127
(dp128
g13
F8.0804091002004377
sg14
I9
sg15
I01
sg16
I5
sg17
I57
sbs(I3
I4
tp129
g1
(g10
g3
NtRp130
(dp131
g13
F4.2175359944166972
sg14
I3
sg15
I01
sg16
I4
sg17
I9
sbs(I9
I12
tp132
g1
(g10
g3
NtRp133
(dp134
g13
F-6.4862355311063453
sg14
I9
sg15
I01
sg16
I12
sg17
I82
sbs(I10
I2
tp135
g1
(g10
g3
NtRp136
(dp137
g13
F-7.5290570278211346
sg14
I10
sg15
I01
sg16
I2
sg17
I64
sbssS'_input_nodes'
p138
I1
sS'_output_nodes'
p139
I1
sS'_node_gene_type'
p140
cneat.genome
NodeGene
p141
sS'_conn_gene_type'
p142
g10
sS'fitness'
p143
F0.91856617249422379
sS'parent2_id'
p144
I5795
sS'_id'
p145
I5812
sS'parent1_id'
p146
I5789
sS'_node_genes'
p147
(lp148
g1
(g141
g3
NtRp149
(dp150
S'_bias'
p151
I0
sS'_type'
p152
S'INPUT'
p153
sg145
I1
sS'_response'
p154
F4.9242730000000003
sS'_activation_type'
p155
Nsbag1
(g141
g3
NtRp156
(dp157
g151
F0.97978845227940847
sg152
S'OUTPUT'
p158
sg145
I2
sg154
F4.2298628924725294
sg155
S'tanh'
p159
sbag1
(g141
g3
NtRp160
(dp161
g151
F-2.705917423664606
sg152
S'HIDDEN'
p162
sg145
I3
sg154
F13.642872664767875
sg155
g159
sbag1
(g141
g3
NtRp163
(dp164
g151
F4.1187200027895008
sg152
g162
sg145
I4
sg154
F4.5718318048819233
sg155
g159
sbag1
(g141
g3
NtRp165
(dp166
g151
F0.42487381960604409
sg152
g162
sg145
I5
sg154
F-6.2403533959565705
sg155
g159
sbag1
(g141
g3
NtRp167
(dp168
g151
F-2.0715647732531464
sg152
g162
sg145
I6
sg154
F-0.35222162215905117
sg155
g159
sbag1
(g141
g3
NtRp169
(dp170
g151
F2.1199533288162877
sg152
g162
sg145
I7
sg154
F6.7563120935971392
sg155
g159
sbag1
(g141
g3
NtRp171
(dp172
g151
F-3.937673627274382
sg152
g162
sg145
I8
sg154
F5.7460860200454613
sg155
g159
sbag1
(g141
g3
NtRp173
(dp174
g151
F1.3175211496927868
sg152
g162
sg145
I9
sg154
F3.3340090890530818
sg155
g159
sbag1
(g141
g3
NtRp175
(dp176
g151
F-0.25572490172410745
sg152
g162
sg145
I10
sg154
F6.3178157522638605
sg155
g159
sbag1
(g141
g3
NtRp177
(dp178
g151
F-0.94190144401932518
sg152
g162
sg145
I11
sg154
F3.7675948760762994
sg155
g159
sbag1
(g141
g3
NtRp179
(dp180
g151
F0.86640696273860318
sg152
g162
sg145
I12
sg154
F6.4825554609563945
sg155
g159
sbag1
(g141
g3
NtRp181
(dp182
g151
F0.30391915775735234
sg152
g162
sg145
I13
sg154
F8.4529272312229313
sg155
g159
sbag1
(g141
g3
NtRp183
(dp184
g151
F-1.2873119365225012
sg152
g162
sg145
I14
sg154
F3.3456329237760944
sg155
g159
sbasb.