ccopy_reg
_reconstructor
p1
(cneat.chromosome
Chromosome
p2
c__builtin__
object
p3
NtRp4
(dp5
S'species_id'
p6
I55
sS'_connection_genes'
p7
(dp8
(I4
I7
tp9
g1
(cneat.genome
ConnectionGene
p10
g3
NtRp11
(dp12
S'_ConnectionGene__weight'
p13
F4.8140495597609041
sS'_ConnectionGene__in'
p14
I4
sS'_ConnectionGene__enabled'
p15
I01
sS'_ConnectionGene__out'
p16
I7
sS'_ConnectionGene__innov_number'
p17
I29
sbs(I1
I3
tp18
g1
(g10
g3
NtRp19
(dp20
g13
F12.486795569748134
sg14
I1
sg15
I01
sg16
I3
sg17
I2
sbs(I8
I13
tp21
g1
(g10
g3
NtRp22
(dp23
g13
F-3.2054024041006608
sg14
I8
sg15
I01
sg16
I13
sg17
I124
sbs(I6
I6
tp24
g1
(g10
g3
NtRp25
(dp26
g13
F0.32441283669902532
sg14
I6
sg15
I01
sg16
I6
sg17
I34
sbs(I7
I12
tp27
g1
(g10
g3
NtRp28
(dp29
g13
F-12.973938147333802
sg14
I7
sg15
I01
sg16
I12
sg17
I102
sbs(I2
I8
tp30
g1
(g10
g3
NtRp31
(dp32
g13
F-12.660716002337887
sg14
I2
sg15
I01
sg16
I8
sg17
I46
sbs(I12
I12
tp33
g1
(g10
g3
NtRp34
(dp35
g13
F9.3205518041104014
sg14
I12
sg15
I00
sg16
I12
sg17
I160
sbs(I3
I11
tp36
g1
(g10
g3
NtRp37
(dp38
g13
F-8.3444803750178718
sg14
I3
sg15
I01
sg16
I11
sg17
I98
sbs(I8
I9
tp39
g1
(g10
g3
NtRp40
(dp41
g13
F-11.32481446558152
sg14
I8
sg15
I01
sg16
I9
sg17
I61
sbs(I6
I2
tp42
g1
(g10
g3
NtRp43
(dp44
g13
F-2.6847139778148632
sg14
I6
sg15
I01
sg16
I2
sg17
I23
sbs(I18
I8
tp45
g1
(g10
g3
NtRp46
(dp47
g13
F1.6315327876646106
sg14
I18
sg15
I01
sg16
I8
sg17
I206
sbs(I2
I5
tp48
g1
(g10
g3
NtRp49
(dp50
g13
F-15.181517739077988
sg14
I2
sg15
I01
sg16
I5
sg17
I10
sbs(I3
I17
tp51
g1
(g10
g3
NtRp52
(dp53
g13
F7.9129921664939333
sg14
I3
sg15
I01
sg16
I17
sg17
I271
sbs(I6
I9
tp54
g1
(g10
g3
NtRp55
(dp56
g13
F21.171632884619957
sg14
I6
sg15
I01
sg16
I9
sg17
I56
sbs(I3
I14
tp57
g1
(g10
g3
NtRp58
(dp59
g13
F-6.0660564542001527
sg14
I3
sg15
I01
sg16
I14
sg17
I157
sbs(I1
I2
tp60
g1
(g10
g3
NtRp61
(dp62
g13
F13.348980908159682
sg14
I1
sg15
I01
sg16
I2
sg17
I1
sbs(I6
I3
tp63
g1
(g10
g3
NtRp64
(dp65
g13
F-30
sg14
I6
sg15
I01
sg16
I3
sg17
I37
sbs(I14
I2
tp66
g1
(g10
g3
NtRp67
(dp68
g13
F30
sg14
I14
sg15
I01
sg16
I2
sg17
I130
sbs(I3
I3
tp69
g1
(g10
g3
NtRp70
(dp71
g13
F16.386410276107675
sg14
I3
sg15
I01
sg16
I3
sg17
I6
sbs(I5
I12
tp72
g1
(g10
g3
NtRp73
(dp74
g13
F-1.9497219032157087
sg14
I5
sg15
I01
sg16
I12
sg17
I87
sbs(I4
I4
tp75
g1
(g10
g3
NtRp76
(dp77
g13
F12.716999008198826
sg14
I4
sg15
I01
sg16
I4
sg17
I26
sbs(I3
I4
tp78
g1
(g10
g3
NtRp79
(dp80
g13
F4.2916304659469446
sg14
I3
sg15
I01
sg16
I4
sg17
I9
sbs(I17
I2
tp81
g1
(g10
g3
NtRp82
(dp83
g13
F-1.2782724250742681
sg14
I17
sg15
I01
sg16
I2
sg17
I239
sbs(I1
I5
tp84
g1
(g10
g3
NtRp85
(dp86
g13
F-3.3744610272556956
sg14
I1
sg15
I00
sg16
I5
sg17
I14
sbs(I13
I7
tp87
g1
(g10
g3
NtRp88
(dp89
g13
F11.960709080305223
sg14
I13
sg15
I01
sg16
I7
sg17
I136
sbs(I7
I2
tp90
g1
(g10
g3
NtRp91
(dp92
g13
F-23.592520150992531
sg14
I7
sg15
I01
sg16
I2
sg17
I21
sbs(I2
I2
tp93
g1
(g10
g3
NtRp94
(dp95
g13
F22.702141344295274
sg14
I2
sg15
I00
sg16
I2
sg17
I4
sbs(I1
I10
tp96
g1
(g10
g3
NtRp97
(dp98
g13
F-3.1433136542817053
sg14
I1
sg15
I01
sg16
I10
sg17
I65
sbs(I8
I6
tp99
g1
(g10
g3
NtRp100
(dp101
g13
F-25.495815229201579
sg14
I8
sg15
I01
sg16
I6
sg17
I51
sbs(I11
I13
tp102
g1
(g10
g3
NtRp103
(dp104
g13
F-23.048794404640912
sg14
I11
sg15
I01
sg16
I13
sg17
I156
sbs(I3
I2
tp105
g1
(g10
g3
NtRp106
(dp107
g13
F13.681780184527033
sg14
I3
sg15
I00
sg16
I2
sg17
I3
sbs(I2
I6
tp108
g1
(g10
g3
NtRp109
(dp110
g13
F-27.566179168647221
sg14
I2
sg15
I01
sg16
I6
sg17
I15
sbs(I12
I14
tp111
g1
(g10
g3
NtRp112
(dp113
g13
F-8.7630151961292633
sg14
I12
sg15
I01
sg16
I14
sg17
I221
sbs(I9
I3
tp114
g1
(g10
g3
NtRp115
(dp116
g13
F0.76362615684000223
sg14
I9
sg15
I01
sg16
I3
sg17
I95
sbs(I15
I10
tp117
g1
(g10
g3
NtRp118
(dp119
g13
F-8.7014561088695448
sg14
I15
sg15
I01
sg16
I10
sg17
I189
sbs(I12
I10
tp120
g1
(g10
g3
NtRp121
(dp122
g13
F-24.110544351781122
sg14
I12
sg15
I00
sg16
I10
sg17
I103
sbs(I4
I2
tp123
g1
(g10
g3
NtRp124
(dp125
g13
F8.7589083838109794
sg14
I4
sg15
I01
sg16
I2
sg17
I8
sbs(I2
I14
tp126
g1
(g10
g3
NtRp127
(dp128
g13
F9.2703511976801085
sg14
I2
sg15
I01
sg16
I14
sg17
I129
sbs(I5
I3
tp129
g1
(g10
g3
NtRp130
(dp131
g13
F-6.0463269963629349
sg14
I5
sg15
I01
sg16
I3
sg17
I27
sbs(I11
I7
tp132
g1
(g10
g3
NtRp133
(dp134
g13
F-28.778448529052707
sg14
I11
sg15
I00
sg16
I7
sg17
I107
sbs(I12
I15
tp135
g1
(g10
g3
NtRp136
(dp137
g13
F3.8283327476722935
sg14
I12
sg15
I01
sg16
I15
sg17
I217
sbs(I5
I10
tp138
g1
(g10
g3
NtRp139
(dp140
g13
F17.266962683779081
sg14
I5
sg15
I00
sg16
I10
sg17
I78
sbs(I16
I5
tp141
g1
(g10
g3
NtRp142
(dp143
g13
F-9.6509473464321669
sg14
I16
sg15
I01
sg16
I5
sg17
I178
sbs(I9
I2
tp144
g1
(g10
g3
NtRp145
(dp146
g13
F29.025601306542665
sg14
I9
sg15
I01
sg16
I2
sg17
I59
sbs(I5
I2
tp147
g1
(g10
g3
NtRp148
(dp149
g13
F-30
sg14
I5
sg15
I01
sg16
I2
sg17
I11
sbs(I16
I8
tp150
g1
(g10
g3
NtRp151
(dp152
g13
F-3.6087248018810518
sg14
I16
sg15
I01
sg16
I8
sg17
I172
sbs(I14
I7
tp153
g1
(g10
g3
NtRp154
(dp155
g13
F-4.4266727209536789
sg14
I14
sg15
I01
sg16
I7
sg17
I263
sbs(I11
I3
tp156
g1
(g10
g3
NtRp157
(dp158
g13
F-11.525821263321433
sg14
I11
sg15
I01
sg16
I3
sg17
I99
sbs(I12
I19
tp159
g1
(g10
g3
NtRp160
(dp161
g13
F1
sg14
I12
sg15
I01
sg16
I19
sg17
I281
sbs(I3
I8
tp162
g1
(g10
g3
NtRp163
(dp164
g13
F1.5688516602740932
sg14
I3
sg15
I00
sg16
I8
sg17
I45
sbs(I3
I18
tp165
g1
(g10
g3
NtRp166
(dp167
g13
F1.0209161220514926
sg14
I3
sg15
I01
sg16
I18
sg17
I248
sbs(I19
I12
tp168
g1
(g10
g3
NtRp169
(dp170
g13
F9.3205518041104014
sg14
I19
sg15
I01
sg16
I12
sg17
I257
sbs(I9
I5
tp171
g1
(g10
g3
NtRp172
(dp173
g13
F-4.4896743765724025
sg14
I9
sg15
I01
sg16
I5
sg17
I57
sbs(I7
I8
tp174
g1
(g10
g3
NtRp175
(dp176
g13
F11.602708703590221
sg14
I7
sg15
I01
sg16
I8
sg17
I52
sbs(I1
I16
tp177
g1
(g10
g3
NtRp178
(dp179
g13
F0.22661814314674594
sg14
I1
sg15
I01
sg16
I16
sg17
I245
sbs(I9
I12
tp180
g1
(g10
g3
NtRp181
(dp182
g13
F-1.6268320456472378
sg14
I9
sg15
I01
sg16
I12
sg17
I82
sbs(I10
I2
tp183
g1
(g10
g3
NtRp184
(dp185
g13
F-15.62222882566255
sg14
I10
sg15
I01
sg16
I2
sg17
I64
sbssS'_input_nodes'
p186
I1
sS'_output_nodes'
p187
I1
sS'_node_gene_type'
p188
cneat.genome
NodeGene
p189
sS'_conn_gene_type'
p190
g10
sS'fitness'
p191
F0.95872132656358255
sS'parent2_id'
p192
I7310
sS'_id'
p193
I7324
sS'parent1_id'
p194
I7310
sS'_node_genes'
p195
(lp196
g1
(g189
g3
NtRp197
(dp198
S'_bias'
p199
I0
sS'_type'
p200
S'INPUT'
p201
sg193
I1
sS'_response'
p202
F4.9242730000000003
sS'_activation_type'
p203
Nsbag1
(g189
g3
NtRp204
(dp205
g199
F-0.74716203645881796
sg200
S'OUTPUT'
p206
sg193
I2
sg202
F4.9185600913432026
sg203
S'tanh'
p207
sbag1
(g189
g3
NtRp208
(dp209
g199
F-3.6524968677062639
sg200
S'HIDDEN'
p210
sg193
I3
sg202
F15.926183279371147
sg203
g207
sbag1
(g189
g3
NtRp211
(dp212
g199
F7.1213379850909817
sg200
g210
sg193
I4
sg202
F2.9584405141738106
sg203
g207
sbag1
(g189
g3
NtRp213
(dp214
g199
F-4.5045716404677218
sg200
g210
sg193
I5
sg202
F-6.4314914657938465
sg203
g207
sbag1
(g189
g3
NtRp215
(dp216
g199
F-3.0700043526770218
sg200
g210
sg193
I6
sg202
F-1.0722821316500994
sg203
g207
sbag1
(g189
g3
NtRp217
(dp218
g199
F3.6709739319427559
sg200
g210
sg193
I7
sg202
F6.975454731312702
sg203
g207
sbag1
(g189
g3
NtRp219
(dp220
g199
F-4.7103848074188104
sg200
g210
sg193
I8
sg202
F10.424408742620196
sg203
g207
sbag1
(g189
g3
NtRp221
(dp222
g199
F1.9719153100644142
sg200
g210
sg193
I9
sg202
F2.709817073126374
sg203
g207
sbag1
(g189
g3
NtRp223
(dp224
g199
F-0.79635689814012167
sg200
g210
sg193
I10
sg202
F7.01117071126904
sg203
g207
sbag1
(g189
g3
NtRp225
(dp226
g199
F-0.18485404522795917
sg200
g210
sg193
I11
sg202
F2.1602664515587859
sg203
g207
sbag1
(g189
g3
NtRp227
(dp228
g199
F3.0621893997846255
sg200
g210
sg193
I12
sg202
F6.1286806661446898
sg203
g207
sbag1
(g189
g3
NtRp229
(dp230
g199
F0.84028080384295412
sg200
g210
sg193
I13
sg202
F7.563078132799455
sg203
g207
sbag1
(g189
g3
NtRp231
(dp232
g199
F-1.2912810574547315
sg200
g210
sg193
I14
sg202
F4.1247865709224456
sg203
g207
sbag1
(g189
g3
NtRp233
(dp234
g199
F2.2023534260928912
sg200
g210
sg193
I15
sg202
F4.8458989947314777
sg203
g207
sbag1
(g189
g3
NtRp235
(dp236
g199
F-2.3627426533033384
sg200
g210
sg193
I16
sg202
F4.5142929396065909
sg203
g207
sbag1
(g189
g3
NtRp237
(dp238
g199
F-0.0097333654066402205
sg200
g210
sg193
I17
sg202
F4.9242730000000003
sg203
g207
sbag1
(g189
g3
NtRp239
(dp240
g199
I0
sg200
g210
sg193
I18
sg202
F4.9242730000000003
sg203
g207
sbag1
(g189
g3
NtRp241
(dp242
g199
I0
sg200
g210
sg193
I19
sg202
F4.9242730000000003
sg203
g207
sbasb.