ccopy_reg
_reconstructor
p1
(cneat.chromosome
Chromosome
p2
c__builtin__
object
p3
NtRp4
(dp5
S'species_id'
p6
I36
sS'_connection_genes'
p7
(dp8
(I4
I7
tp9
g1
(cneat.genome
ConnectionGene
p10
g3
NtRp11
(dp12
S'_ConnectionGene__weight'
p13
F-19.198221499307635
sS'_ConnectionGene__in'
p14
I4
sS'_ConnectionGene__enabled'
p15
I01
sS'_ConnectionGene__out'
p16
I7
sS'_ConnectionGene__innov_number'
p17
I29
sbs(I1
I3
tp18
g1
(g10
g3
NtRp19
(dp20
g13
F5.1669724599890579
sg14
I1
sg15
I01
sg16
I3
sg17
I2
sbs(I14
I4
tp21
g1
(g10
g3
NtRp22
(dp23
g13
F0.057805690499302287
sg14
I14
sg15
I01
sg16
I4
sg17
I143
sbs(I13
I4
tp24
g1
(g10
g3
NtRp25
(dp26
g13
F2.8044079081683799
sg14
I13
sg15
I00
sg16
I4
sg17
I120
sbs(I3
I11
tp27
g1
(g10
g3
NtRp28
(dp29
g13
F2.0774060870138809
sg14
I3
sg15
I01
sg16
I11
sg17
I98
sbs(I6
I2
tp30
g1
(g10
g3
NtRp31
(dp32
g13
F29.573918109939047
sg14
I6
sg15
I01
sg16
I2
sg17
I23
sbs(I6
I12
tp33
g1
(g10
g3
NtRp34
(dp35
g13
F-12.703419535942729
sg14
I6
sg15
I01
sg16
I12
sg17
I115
sbs(I2
I5
tp36
g1
(g10
g3
NtRp37
(dp38
g13
F5.8915133054618796
sg14
I2
sg15
I01
sg16
I5
sg17
I10
sbs(I7
I2
tp39
g1
(g10
g3
NtRp40
(dp41
g13
F-24.797269403568109
sg14
I7
sg15
I01
sg16
I2
sg17
I21
sbs(I1
I2
tp42
g1
(g10
g3
NtRp43
(dp44
g13
F-16.323783171140224
sg14
I1
sg15
I01
sg16
I2
sg17
I1
sbs(I12
I2
tp45
g1
(g10
g3
NtRp46
(dp47
g13
F20.304989839159528
sg14
I12
sg15
I01
sg16
I2
sg17
I80
sbs(I3
I3
tp48
g1
(g10
g3
NtRp49
(dp50
g13
F-4.5764496178179446
sg14
I3
sg15
I00
sg16
I3
sg17
I6
sbs(I2
I8
tp51
g1
(g10
g3
NtRp52
(dp53
g13
F-15.654724150908734
sg14
I2
sg15
I01
sg16
I8
sg17
I46
sbs(I1
I5
tp54
g1
(g10
g3
NtRp55
(dp56
g13
F-7.413942509469992
sg14
I1
sg15
I01
sg16
I5
sg17
I14
sbs(I2
I2
tp57
g1
(g10
g3
NtRp58
(dp59
g13
F-18.235835429900458
sg14
I2
sg15
I01
sg16
I2
sg17
I4
sbs(I3
I4
tp60
g1
(g10
g3
NtRp61
(dp62
g13
F2.2222314837650559
sg14
I3
sg15
I01
sg16
I4
sg17
I9
sbs(I8
I6
tp63
g1
(g10
g3
NtRp64
(dp65
g13
F4.5070079866504589
sg14
I8
sg15
I01
sg16
I6
sg17
I51
sbs(I3
I2
tp66
g1
(g10
g3
NtRp67
(dp68
g13
F-2.0230392565628676
sg14
I3
sg15
I01
sg16
I2
sg17
I3
sbs(I2
I6
tp69
g1
(g10
g3
NtRp70
(dp71
g13
F1.2554654745751272
sg14
I2
sg15
I01
sg16
I6
sg17
I15
sbs(I3
I13
tp72
g1
(g10
g3
NtRp73
(dp74
g13
F12.721060354055325
sg14
I3
sg15
I01
sg16
I13
sg17
I105
sbs(I7
I5
tp75
g1
(g10
g3
NtRp76
(dp77
g13
F0.26708868990233975
sg14
I7
sg15
I01
sg16
I5
sg17
I19
sbs(I4
I2
tp78
g1
(g10
g3
NtRp79
(dp80
g13
F-10.478761048546783
sg14
I4
sg15
I01
sg16
I2
sg17
I8
sbs(I6
I9
tp81
g1
(g10
g3
NtRp82
(dp83
g13
F-17.859865792915016
sg14
I6
sg15
I01
sg16
I9
sg17
I56
sbs(I5
I10
tp84
g1
(g10
g3
NtRp85
(dp86
g13
F-7.2416911459975442
sg14
I5
sg15
I01
sg16
I10
sg17
I78
sbs(I9
I2
tp87
g1
(g10
g3
NtRp88
(dp89
g13
F7.8710919160254411
sg14
I9
sg15
I01
sg16
I2
sg17
I59
sbs(I5
I2
tp90
g1
(g10
g3
NtRp91
(dp92
g13
F7.0991273692398185
sg14
I5
sg15
I00
sg16
I2
sg17
I11
sbs(I11
I3
tp93
g1
(g10
g3
NtRp94
(dp95
g13
F15.871604103429938
sg14
I11
sg15
I01
sg16
I3
sg17
I99
sbs(I13
I14
tp96
g1
(g10
g3
NtRp97
(dp98
g13
F1.2621625328142891
sg14
I13
sg15
I01
sg16
I14
sg17
I142
sbs(I7
I8
tp99
g1
(g10
g3
NtRp100
(dp101
g13
F-19.712535202472601
sg14
I7
sg15
I01
sg16
I8
sg17
I52
sbs(I10
I2
tp102
g1
(g10
g3
NtRp103
(dp104
g13
F10.825100479763972
sg14
I10
sg15
I01
sg16
I2
sg17
I64
sbssS'_input_nodes'
p105
I1
sS'_output_nodes'
p106
I1
sS'_node_gene_type'
p107
cneat.genome
NodeGene
p108
sS'_conn_gene_type'
p109
g10
sS'fitness'
p110
F0.95209428306466704
sS'parent2_id'
p111
I4148
sS'_id'
p112
I4167
sS'parent1_id'
p113
I4148
sS'_node_genes'
p114
(lp115
g1
(g108
g3
NtRp116
(dp117
S'_bias'
p118
I0
sS'_type'
p119
S'INPUT'
p120
sg112
I1
sS'_response'
p121
F4.9242730000000003
sS'_activation_type'
p122
Nsbag1
(g108
g3
NtRp123
(dp124
g118
F2.6902675448444677
sg119
S'OUTPUT'
p125
sg112
I2
sg121
F2.0701498877967461
sg122
S'tanh'
p126
sbag1
(g108
g3
NtRp127
(dp128
g118
F-0.3244773007302128
sg119
S'HIDDEN'
p129
sg112
I3
sg121
F8.628682115289914
sg122
g126
sbag1
(g108
g3
NtRp130
(dp131
g118
F3.1962735174022452
sg119
g129
sg112
I4
sg121
F2.4444442132614395
sg122
g126
sbag1
(g108
g3
NtRp132
(dp133
g118
F-0.0028957564719191975
sg119
g129
sg112
I5
sg121
F1.2454467214700895
sg122
g126
sbag1
(g108
g3
NtRp134
(dp135
g118
F1.2801851214477729
sg119
g129
sg112
I6
sg121
F3.8035899194282097
sg122
g126
sbag1
(g108
g3
NtRp136
(dp137
g118
F0.23333436008268288
sg119
g129
sg112
I7
sg121
F6.7527139306079143
sg122
g126
sbag1
(g108
g3
NtRp138
(dp139
g118
F0.65505344943395494
sg119
g129
sg112
I8
sg121
F3.0521712294097698
sg122
g126
sbag1
(g108
g3
NtRp140
(dp141
g118
F-1.0317842896637683
sg119
g129
sg112
I9
sg121
F2.7675774078762494
sg122
g126
sbag1
(g108
g3
NtRp142
(dp143
g118
F-1.2368611317312097
sg119
g129
sg112
I10
sg121
F4.1285564290296541
sg122
g126
sbag1
(g108
g3
NtRp144
(dp145
g118
F-0.087131692127443927
sg119
g129
sg112
I11
sg121
F4.1847164940110746
sg122
g126
sbag1
(g108
g3
NtRp146
(dp147
g118
F1.8597741918308808
sg119
g129
sg112
I12
sg121
F7.5993992540869275
sg122
g126
sbag1
(g108
g3
NtRp148
(dp149
g118
F-0.52346602097967476
sg119
g129
sg112
I13
sg121
F6.4807494169738771
sg122
g126
sbag1
(g108
g3
NtRp150
(dp151
g118
F0.064740731981455635
sg119
g129
sg112
I14
sg121
F4.7320335234736879
sg122
g126
sbasb.