ccopy_reg
_reconstructor
p1
(cneat.chromosome
Chromosome
p2
c__builtin__
object
p3
NtRp4
(dp5
S'species_id'
p6
I50
sS'_connection_genes'
p7
(dp8
(I4
I7
tp9
g1
(cneat.genome
ConnectionGene
p10
g3
NtRp11
(dp12
S'_ConnectionGene__weight'
p13
F-6.4647534245591025
sS'_ConnectionGene__in'
p14
I4
sS'_ConnectionGene__enabled'
p15
I01
sS'_ConnectionGene__out'
p16
I7
sS'_ConnectionGene__innov_number'
p17
I29
sbs(I1
I3
tp18
g1
(g10
g3
NtRp19
(dp20
g13
F20.088860202602451
sg14
I1
sg15
I01
sg16
I3
sg17
I2
sbs(I6
I6
tp21
g1
(g10
g3
NtRp22
(dp23
g13
F18.263307607659936
sg14
I6
sg15
I01
sg16
I6
sg17
I34
sbs(I7
I12
tp24
g1
(g10
g3
NtRp25
(dp26
g13
F-4.2927781956319233
sg14
I7
sg15
I01
sg16
I12
sg17
I102
sbs(I2
I8
tp27
g1
(g10
g3
NtRp28
(dp29
g13
F-23.718208333945647
sg14
I2
sg15
I01
sg16
I8
sg17
I46
sbs(I12
I12
tp30
g1
(g10
g3
NtRp31
(dp32
g13
F19.111814132207837
sg14
I12
sg15
I01
sg16
I12
sg17
I160
sbs(I3
I11
tp33
g1
(g10
g3
NtRp34
(dp35
g13
F-10.001413530806415
sg14
I3
sg15
I01
sg16
I11
sg17
I98
sbs(I8
I9
tp36
g1
(g10
g3
NtRp37
(dp38
g13
F-28.554693904146731
sg14
I8
sg15
I01
sg16
I9
sg17
I61
sbs(I13
I17
tp39
g1
(g10
g3
NtRp40
(dp41
g13
F-9.2239179598482615
sg14
I13
sg15
I01
sg16
I17
sg17
I183
sbs(I6
I2
tp42
g1
(g10
g3
NtRp43
(dp44
g13
F-6.6177759371485019
sg14
I6
sg15
I01
sg16
I2
sg17
I23
sbs(I12
I16
tp45
g1
(g10
g3
NtRp46
(dp47
g13
F3.5940550146682266
sg14
I12
sg15
I01
sg16
I16
sg17
I233
sbs(I2
I5
tp48
g1
(g10
g3
NtRp49
(dp50
g13
F-21.826829021714815
sg14
I2
sg15
I01
sg16
I5
sg17
I10
sbs(I6
I9
tp51
g1
(g10
g3
NtRp52
(dp53
g13
F13.053011644408864
sg14
I6
sg15
I01
sg16
I9
sg17
I56
sbs(I3
I14
tp54
g1
(g10
g3
NtRp55
(dp56
g13
F-11.55321739839599
sg14
I3
sg15
I01
sg16
I14
sg17
I157
sbs(I1
I2
tp57
g1
(g10
g3
NtRp58
(dp59
g13
F-7.4985506602200438
sg14
I1
sg15
I01
sg16
I2
sg17
I1
sbs(I14
I2
tp60
g1
(g10
g3
NtRp61
(dp62
g13
F14.31085317598407
sg14
I14
sg15
I01
sg16
I2
sg17
I130
sbs(I3
I3
tp63
g1
(g10
g3
NtRp64
(dp65
g13
F-11.736613966862855
sg14
I3
sg15
I01
sg16
I3
sg17
I6
sbs(I5
I12
tp66
g1
(g10
g3
NtRp67
(dp68
g13
F-6.527478098332983
sg14
I5
sg15
I01
sg16
I12
sg17
I87
sbs(I3
I4
tp69
g1
(g10
g3
NtRp70
(dp71
g13
F-0.36914956118642162
sg14
I3
sg15
I01
sg16
I4
sg17
I9
sbs(I6
I3
tp72
g1
(g10
g3
NtRp73
(dp74
g13
F-27.573777857304439
sg14
I6
sg15
I01
sg16
I3
sg17
I37
sbs(I1
I5
tp75
g1
(g10
g3
NtRp76
(dp77
g13
F-6.2303348746906471
sg14
I1
sg15
I01
sg16
I5
sg17
I14
sbs(I13
I7
tp78
g1
(g10
g3
NtRp79
(dp80
g13
F-2.4712465771058461
sg14
I13
sg15
I01
sg16
I7
sg17
I136
sbs(I7
I2
tp81
g1
(g10
g3
NtRp82
(dp83
g13
F-25.472132271639136
sg14
I7
sg15
I01
sg16
I2
sg17
I21
sbs(I18
I9
tp84
g1
(g10
g3
NtRp85
(dp86
g13
F1.9293723544099119
sg14
I18
sg15
I01
sg16
I9
sg17
I198
sbs(I2
I2
tp87
g1
(g10
g3
NtRp88
(dp89
g13
F17.415589763945675
sg14
I2
sg15
I01
sg16
I2
sg17
I4
sbs(I1
I10
tp90
g1
(g10
g3
NtRp91
(dp92
g13
F0.39987636902161849
sg14
I1
sg15
I01
sg16
I10
sg17
I65
sbs(I8
I6
tp93
g1
(g10
g3
NtRp94
(dp95
g13
F-17.913571049977403
sg14
I8
sg15
I01
sg16
I6
sg17
I51
sbs(I11
I13
tp96
g1
(g10
g3
NtRp97
(dp98
g13
F-29.379753890699188
sg14
I11
sg15
I01
sg16
I13
sg17
I156
sbs(I6
I4
tp99
g1
(g10
g3
NtRp100
(dp101
g13
F4.695343809273262
sg14
I6
sg15
I01
sg16
I4
sg17
I25
sbs(I3
I2
tp102
g1
(g10
g3
NtRp103
(dp104
g13
F7.5934963841367242
sg14
I3
sg15
I00
sg16
I2
sg17
I3
sbs(I2
I6
tp105
g1
(g10
g3
NtRp106
(dp107
g13
F-28.670743709403126
sg14
I2
sg15
I01
sg16
I6
sg17
I15
sbs(I9
I17
tp108
g1
(g10
g3
NtRp109
(dp110
g13
F10.784900411705925
sg14
I9
sg15
I01
sg16
I17
sg17
I236
sbs(I9
I3
tp111
g1
(g10
g3
NtRp112
(dp113
g13
F7.4006266206011651
sg14
I9
sg15
I00
sg16
I3
sg17
I95
sbs(I15
I10
tp114
g1
(g10
g3
NtRp115
(dp116
g13
F-14.983291376784429
sg14
I15
sg15
I01
sg16
I10
sg17
I189
sbs(I3
I9
tp117
g1
(g10
g3
NtRp118
(dp119
g13
F-7.022186502004689
sg14
I3
sg15
I00
sg16
I9
sg17
I54
sbs(I12
I10
tp120
g1
(g10
g3
NtRp121
(dp122
g13
F-28.389655287198369
sg14
I12
sg15
I00
sg16
I10
sg17
I103
sbs(I4
I2
tp123
g1
(g10
g3
NtRp124
(dp125
g13
F-0.12174362738212402
sg14
I4
sg15
I01
sg16
I2
sg17
I8
sbs(I2
I14
tp126
g1
(g10
g3
NtRp127
(dp128
g13
F11.82142855709194
sg14
I2
sg15
I01
sg16
I14
sg17
I129
sbs(I16
I10
tp129
g1
(g10
g3
NtRp130
(dp131
g13
F-25.334608143903871
sg14
I16
sg15
I01
sg16
I10
sg17
I225
sbs(I11
I7
tp132
g1
(g10
g3
NtRp133
(dp134
g13
F-19.990103979851458
sg14
I11
sg15
I01
sg16
I7
sg17
I107
sbs(I12
I15
tp135
g1
(g10
g3
NtRp136
(dp137
g13
F10.652110459103268
sg14
I12
sg15
I01
sg16
I15
sg17
I217
sbs(I5
I10
tp138
g1
(g10
g3
NtRp139
(dp140
g13
F5.5457426062998785
sg14
I5
sg15
I00
sg16
I10
sg17
I78
sbs(I9
I2
tp141
g1
(g10
g3
NtRp142
(dp143
g13
F28.168247804185715
sg14
I9
sg15
I01
sg16
I2
sg17
I59
sbs(I5
I2
tp144
g1
(g10
g3
NtRp145
(dp146
g13
F-24.55382547487946
sg14
I5
sg15
I01
sg16
I2
sg17
I11
sbs(I11
I3
tp147
g1
(g10
g3
NtRp148
(dp149
g13
F-13.427748302159868
sg14
I11
sg15
I01
sg16
I3
sg17
I99
sbs(I3
I8
tp150
g1
(g10
g3
NtRp151
(dp152
g13
F14.453568661811778
sg14
I3
sg15
I01
sg16
I8
sg17
I45
sbs(I3
I18
tp153
g1
(g10
g3
NtRp154
(dp155
g13
F0.65111612270730745
sg14
I3
sg15
I01
sg16
I18
sg17
I248
sbs(I17
I3
tp156
g1
(g10
g3
NtRp157
(dp158
g13
F14.269031823770209
sg14
I17
sg15
I01
sg16
I3
sg17
I237
sbs(I9
I5
tp159
g1
(g10
g3
NtRp160
(dp161
g13
F-0.68495322996906705
sg14
I9
sg15
I01
sg16
I5
sg17
I57
sbs(I7
I8
tp162
g1
(g10
g3
NtRp163
(dp164
g13
F16.138415758871844
sg14
I7
sg15
I01
sg16
I8
sg17
I52
sbs(I9
I12
tp165
g1
(g10
g3
NtRp166
(dp167
g13
F-6.348046549328564
sg14
I9
sg15
I01
sg16
I12
sg17
I82
sbs(I10
I2
tp168
g1
(g10
g3
NtRp169
(dp170
g13
F-14.799536217106699
sg14
I10
sg15
I01
sg16
I2
sg17
I64
sbssS'_input_nodes'
p171
I1
sS'_output_nodes'
p172
I1
sS'_node_gene_type'
p173
cneat.genome
NodeGene
p174
sS'_conn_gene_type'
p175
g10
sS'fitness'
p176
F0.98877643972706863
sS'parent2_id'
p177
I6651
sS'_id'
p178
I6666
sS'parent1_id'
p179
I6651
sS'_node_genes'
p180
(lp181
g1
(g174
g3
NtRp182
(dp183
S'_bias'
p184
I0
sS'_type'
p185
S'INPUT'
p186
sg178
I1
sS'_response'
p187
F4.9242730000000003
sS'_activation_type'
p188
Nsbag1
(g174
g3
NtRp189
(dp190
g184
F1.2939872528955423
sg185
S'OUTPUT'
p191
sg178
I2
sg187
F4.3296801522732249
sg188
S'tanh'
p192
sbag1
(g174
g3
NtRp193
(dp194
g184
F-3.5990324979411157
sg185
S'HIDDEN'
p195
sg178
I3
sg187
F13.113481632381706
sg188
g192
sbag1
(g174
g3
NtRp196
(dp197
g184
F5.407002228950514
sg185
g195
sg178
I4
sg187
F3.598425857624326
sg188
g192
sbag1
(g174
g3
NtRp198
(dp199
g184
F-0.49725392044300115
sg185
g195
sg178
I5
sg187
F-8.6421464795098544
sg188
g192
sbag1
(g174
g3
NtRp200
(dp201
g184
F-1.5043900449421794
sg185
g195
sg178
I6
sg187
F2.2556648760691691
sg188
g192
sbag1
(g174
g3
NtRp202
(dp203
g184
F2.6720369794003198
sg185
g195
sg178
I7
sg187
F5.3095822916769562
sg188
g192
sbag1
(g174
g3
NtRp204
(dp205
g184
F-3.7740550227105341
sg185
g195
sg178
I8
sg187
F7.7626473501614326
sg188
g192
sbag1
(g174
g3
NtRp206
(dp207
g184
F1.1785827573788068
sg185
g195
sg178
I9
sg187
F2.5815021285450248
sg188
g192
sbag1
(g174
g3
NtRp208
(dp209
g184
F0.91812732309004197
sg185
g195
sg178
I10
sg187
F7.4728887449642976
sg188
g192
sbag1
(g174
g3
NtRp210
(dp211
g184
F0.97250256725980255
sg185
g195
sg178
I11
sg187
F2.6848508700484186
sg188
g192
sbag1
(g174
g3
NtRp212
(dp213
g184
F2.3904820656983832
sg185
g195
sg178
I12
sg187
F6.5003983724443879
sg188
g192
sbag1
(g174
g3
NtRp214
(dp215
g184
F1.2288902707390512
sg185
g195
sg178
I13
sg187
F8.6382141661539471
sg188
g192
sbag1
(g174
g3
NtRp216
(dp217
g184
F-2.4093247187397973
sg185
g195
sg178
I14
sg187
F3.4260305537131726
sg188
g192
sbag1
(g174
g3
NtRp218
(dp219
g184
F1.2924560641427441
sg185
g195
sg178
I15
sg187
F3.7696614054910307
sg188
g192
sbag1
(g174
g3
NtRp220
(dp221
g184
F1.4402073701921605
sg185
g195
sg178
I16
sg187
F4.7682003818052578
sg188
g192
sbag1
(g174
g3
NtRp222
(dp223
g184
F-0.68151066137256999
sg185
g195
sg178
I17
sg187
F6.1072051955117193
sg188
g192
sbag1
(g174
g3
NtRp224
(dp225
g184
F-0.044152292263323352
sg185
g195
sg178
I18
sg187
F2.8957311456652084
sg188
g192
sbasb.