ccopy_reg
_reconstructor
p1
(cneat.chromosome
Chromosome
p2
c__builtin__
object
p3
NtRp4
(dp5
S'species_id'
p6
I19
sS'_connection_genes'
p7
(dp8
(I1
I2
tp9
g1
(cneat.genome
ConnectionGene
p10
g3
NtRp11
(dp12
S'_ConnectionGene__weight'
p13
F14.284205228331812
sS'_ConnectionGene__in'
p14
I1
sS'_ConnectionGene__enabled'
p15
I01
sS'_ConnectionGene__out'
p16
I2
sS'_ConnectionGene__innov_number'
p17
I1
sbs(I3
I2
tp18
g1
(g10
g3
NtRp19
(dp20
g13
F-9.7577774237886903
sg14
I3
sg15
I01
sg16
I2
sg17
I3
sbs(I1
I3
tp21
g1
(g10
g3
NtRp22
(dp23
g13
F1.379305991519018
sg14
I1
sg15
I01
sg16
I3
sg17
I2
sbs(I4
I6
tp24
g1
(g10
g3
NtRp25
(dp26
g13
F0.69114820297613555
sg14
I4
sg15
I01
sg16
I6
sg17
I50
sbs(I5
I2
tp27
g1
(g10
g3
NtRp28
(dp29
g13
F-23.415845647528158
sg14
I5
sg15
I01
sg16
I2
sg17
I11
sbs(I4
I4
tp30
g1
(g10
g3
NtRp31
(dp32
g13
F8.8282615249739003
sg14
I4
sg15
I01
sg16
I4
sg17
I26
sbs(I1
I5
tp33
g1
(g10
g3
NtRp34
(dp35
g13
F20.745436677386827
sg14
I1
sg15
I01
sg16
I5
sg17
I14
sbs(I2
I6
tp36
g1
(g10
g3
NtRp37
(dp38
g13
F-6.040557475913217
sg14
I2
sg15
I01
sg16
I6
sg17
I15
sbs(I2
I2
tp39
g1
(g10
g3
NtRp40
(dp41
g13
F-23.372022015713444
sg14
I2
sg15
I00
sg16
I2
sg17
I4
sbs(I4
I2
tp42
g1
(g10
g3
NtRp43
(dp44
g13
F-5.5022059612850134
sg14
I4
sg15
I01
sg16
I2
sg17
I8
sbs(I2
I5
tp45
g1
(g10
g3
NtRp46
(dp47
g13
F9.150953904851276
sg14
I2
sg15
I00
sg16
I5
sg17
I10
sbs(I3
I4
tp48
g1
(g10
g3
NtRp49
(dp50
g13
F-15.69389254211303
sg14
I3
sg15
I01
sg16
I4
sg17
I9
sbs(I6
I5
tp51
g1
(g10
g3
NtRp52
(dp53
g13
F9.1641870144449182
sg14
I6
sg15
I01
sg16
I5
sg17
I16
sbs(I3
I5
tp54
g1
(g10
g3
NtRp55
(dp56
g13
F-3.379061704064489
sg14
I3
sg15
I01
sg16
I5
sg17
I17
sbssS'_input_nodes'
p57
I1
sS'_output_nodes'
p58
I1
sS'_node_gene_type'
p59
cneat.genome
NodeGene
p60
sS'_conn_gene_type'
p61
g10
sS'fitness'
p62
F0.53303636360891193
sS'parent2_id'
p63
I1715
sS'_id'
p64
I1750
sS'parent1_id'
p65
I1715
sS'_node_genes'
p66
(lp67
g1
(g60
g3
NtRp68
(dp69
S'_bias'
p70
I0
sS'_type'
p71
S'INPUT'
p72
sg64
I1
sS'_response'
p73
F4.9242730000000003
sS'_activation_type'
p74
Nsbag1
(g60
g3
NtRp75
(dp76
g70
F-0.76956585072331629
sg71
S'OUTPUT'
p77
sg64
I2
sg73
F4.9944091074691626
sg74
S'tanh'
p78
sbag1
(g60
g3
NtRp79
(dp80
g70
F-2.0920087743255191
sg71
S'HIDDEN'
p81
sg64
I3
sg73
F2.9103626960575615
sg74
g78
sbag1
(g60
g3
NtRp82
(dp83
g70
F1.7100696130322715
sg71
g81
sg64
I4
sg73
F1.8227321172295334
sg74
g78
sbag1
(g60
g3
NtRp84
(dp85
g70
F-0.47556404663542218
sg71
g81
sg64
I5
sg73
F5.5687513712970551
sg74
g78
sbag1
(g60
g3
NtRp86
(dp87
g70
F-4.3171841280854268
sg71
g81
sg64
I6
sg73
F3.0647945331936004
sg74
g78
sbasb.