ccopy_reg
_reconstructor
p1
(cneat.chromosome
Chromosome
p2
c__builtin__
object
p3
NtRp4
(dp5
S'species_id'
p6
I64
sS'_connection_genes'
p7
(dp8
(I4
I7
tp9
g1
(cneat.genome
ConnectionGene
p10
g3
NtRp11
(dp12
S'_ConnectionGene__weight'
p13
F-3.8919017729127878
sS'_ConnectionGene__in'
p14
I4
sS'_ConnectionGene__enabled'
p15
I01
sS'_ConnectionGene__out'
p16
I7
sS'_ConnectionGene__innov_number'
p17
I29
sbs(I1
I3
tp18
g1
(g10
g3
NtRp19
(dp20
g13
F12.710502310947358
sg14
I1
sg15
I01
sg16
I3
sg17
I2
sbs(I8
I13
tp21
g1
(g10
g3
NtRp22
(dp23
g13
F13.51307625831118
sg14
I8
sg15
I01
sg16
I13
sg17
I124
sbs(I6
I6
tp24
g1
(g10
g3
NtRp25
(dp26
g13
F12.076138388570458
sg14
I6
sg15
I01
sg16
I6
sg17
I34
sbs(I7
I12
tp27
g1
(g10
g3
NtRp28
(dp29
g13
F-10.944735214273797
sg14
I7
sg15
I01
sg16
I12
sg17
I102
sbs(I2
I8
tp30
g1
(g10
g3
NtRp31
(dp32
g13
F-0.31568505891093945
sg14
I2
sg15
I01
sg16
I8
sg17
I46
sbs(I12
I12
tp33
g1
(g10
g3
NtRp34
(dp35
g13
F2.4128695899184329
sg14
I12
sg15
I01
sg16
I12
sg17
I160
sbs(I3
I11
tp36
g1
(g10
g3
NtRp37
(dp38
g13
F-10.992716056691213
sg14
I3
sg15
I01
sg16
I11
sg17
I98
sbs(I8
I9
tp39
g1
(g10
g3
NtRp40
(dp41
g13
F-29.231766879189419
sg14
I8
sg15
I01
sg16
I9
sg17
I61
sbs(I6
I2
tp42
g1
(g10
g3
NtRp43
(dp44
g13
F27.529455842318892
sg14
I6
sg15
I01
sg16
I2
sg17
I23
sbs(I20
I8
tp45
g1
(g10
g3
NtRp46
(dp47
g13
F3.0533582037334037
sg14
I20
sg15
I01
sg16
I8
sg17
I318
sbs(I18
I8
tp48
g1
(g10
g3
NtRp49
(dp50
g13
F16.240513452831475
sg14
I18
sg15
I01
sg16
I8
sg17
I206
sbs(I2
I5
tp51
g1
(g10
g3
NtRp52
(dp53
g13
F0.392528163186185
sg14
I2
sg15
I01
sg16
I5
sg17
I10
sbs(I3
I17
tp54
g1
(g10
g3
NtRp55
(dp56
g13
F25.247128891226794
sg14
I3
sg15
I01
sg16
I17
sg17
I271
sbs(I6
I9
tp57
g1
(g10
g3
NtRp58
(dp59
g13
F20.328375797874159
sg14
I6
sg15
I01
sg16
I9
sg17
I56
sbs(I3
I14
tp60
g1
(g10
g3
NtRp61
(dp62
g13
F-20.90776244826241
sg14
I3
sg15
I01
sg16
I14
sg17
I157
sbs(I1
I2
tp63
g1
(g10
g3
NtRp64
(dp65
g13
F21.581574461915238
sg14
I1
sg15
I01
sg16
I2
sg17
I1
sbs(I4
I13
tp66
g1
(g10
g3
NtRp67
(dp68
g13
F-7.958385518113424
sg14
I4
sg15
I01
sg16
I13
sg17
I135
sbs(I14
I2
tp69
g1
(g10
g3
NtRp70
(dp71
g13
F-1.2309857406561178
sg14
I14
sg15
I01
sg16
I2
sg17
I130
sbs(I3
I3
tp72
g1
(g10
g3
NtRp73
(dp74
g13
F3.6795914485722614
sg14
I3
sg15
I01
sg16
I3
sg17
I6
sbs(I1
I16
tp75
g1
(g10
g3
NtRp76
(dp77
g13
F22.160103125469927
sg14
I1
sg15
I01
sg16
I16
sg17
I245
sbs(I4
I4
tp78
g1
(g10
g3
NtRp79
(dp80
g13
F11.745513891167459
sg14
I4
sg15
I01
sg16
I4
sg17
I26
sbs(I3
I4
tp81
g1
(g10
g3
NtRp82
(dp83
g13
F10.833656160699018
sg14
I3
sg15
I01
sg16
I4
sg17
I9
sbs(I6
I3
tp84
g1
(g10
g3
NtRp85
(dp86
g13
F-20.289522499343271
sg14
I6
sg15
I01
sg16
I3
sg17
I37
sbs(I1
I5
tp87
g1
(g10
g3
NtRp88
(dp89
g13
F-2.9761324388938135
sg14
I1
sg15
I00
sg16
I5
sg17
I14
sbs(I13
I7
tp90
g1
(g10
g3
NtRp91
(dp92
g13
F19.065426551864636
sg14
I13
sg15
I01
sg16
I7
sg17
I136
sbs(I7
I2
tp93
g1
(g10
g3
NtRp94
(dp95
g13
F-20.486717210185631
sg14
I7
sg15
I01
sg16
I2
sg17
I21
sbs(I2
I2
tp96
g1
(g10
g3
NtRp97
(dp98
g13
F22.031386232667579
sg14
I2
sg15
I00
sg16
I2
sg17
I4
sbs(I1
I10
tp99
g1
(g10
g3
NtRp100
(dp101
g13
F-9.0459298584992318
sg14
I1
sg15
I01
sg16
I10
sg17
I65
sbs(I8
I6
tp102
g1
(g10
g3
NtRp103
(dp104
g13
F-28.178027392003109
sg14
I8
sg15
I01
sg16
I6
sg17
I51
sbs(I11
I13
tp105
g1
(g10
g3
NtRp106
(dp107
g13
F-10.467016250418595
sg14
I11
sg15
I01
sg16
I13
sg17
I156
sbs(I3
I2
tp108
g1
(g10
g3
NtRp109
(dp110
g13
F6.7812043335810923
sg14
I3
sg15
I01
sg16
I2
sg17
I3
sbs(I2
I6
tp111
g1
(g10
g3
NtRp112
(dp113
g13
F-20.683905754813395
sg14
I2
sg15
I00
sg16
I6
sg17
I15
sbs(I12
I14
tp114
g1
(g10
g3
NtRp115
(dp116
g13
F-14.393241280695699
sg14
I12
sg15
I01
sg16
I14
sg17
I221
sbs(I9
I3
tp117
g1
(g10
g3
NtRp118
(dp119
g13
F9.2084257064103454
sg14
I9
sg15
I01
sg16
I3
sg17
I95
sbs(I2
I20
tp120
g1
(g10
g3
NtRp121
(dp122
g13
F9.4668976312276953
sg14
I2
sg15
I01
sg16
I20
sg17
I300
sbs(I15
I10
tp123
g1
(g10
g3
NtRp124
(dp125
g13
F-3.9879656449643859
sg14
I15
sg15
I01
sg16
I10
sg17
I189
sbs(I17
I2
tp126
g1
(g10
g3
NtRp127
(dp128
g13
F10.634184018957384
sg14
I17
sg15
I01
sg16
I2
sg17
I239
sbs(I12
I10
tp129
g1
(g10
g3
NtRp130
(dp131
g13
F-29.487880582814277
sg14
I12
sg15
I01
sg16
I10
sg17
I103
sbs(I4
I2
tp132
g1
(g10
g3
NtRp133
(dp134
g13
F11.385088282244649
sg14
I4
sg15
I01
sg16
I2
sg17
I8
sbs(I2
I14
tp135
g1
(g10
g3
NtRp136
(dp137
g13
F4.6049393769177778
sg14
I2
sg15
I01
sg16
I14
sg17
I129
sbs(I5
I3
tp138
g1
(g10
g3
NtRp139
(dp140
g13
F3.4104670158132446
sg14
I5
sg15
I01
sg16
I3
sg17
I27
sbs(I11
I7
tp141
g1
(g10
g3
NtRp142
(dp143
g13
F-23.030826183663951
sg14
I11
sg15
I00
sg16
I7
sg17
I107
sbs(I12
I15
tp144
g1
(g10
g3
NtRp145
(dp146
g13
F13.303162124073296
sg14
I12
sg15
I01
sg16
I15
sg17
I217
sbs(I5
I10
tp147
g1
(g10
g3
NtRp148
(dp149
g13
F17.594786921855746
sg14
I5
sg15
I00
sg16
I10
sg17
I78
sbs(I16
I5
tp150
g1
(g10
g3
NtRp151
(dp152
g13
F-4.9526316063909883
sg14
I16
sg15
I01
sg16
I5
sg17
I178
sbs(I9
I2
tp153
g1
(g10
g3
NtRp154
(dp155
g13
F15.02325898831047
sg14
I9
sg15
I01
sg16
I2
sg17
I59
sbs(I5
I2
tp156
g1
(g10
g3
NtRp157
(dp158
g13
F-28.189531688651311
sg14
I5
sg15
I01
sg16
I2
sg17
I11
sbs(I16
I8
tp159
g1
(g10
g3
NtRp160
(dp161
g13
F-7.4452267698828427
sg14
I16
sg15
I01
sg16
I8
sg17
I172
sbs(I14
I7
tp162
g1
(g10
g3
NtRp163
(dp164
g13
F2.3265865244537784
sg14
I14
sg15
I01
sg16
I7
sg17
I263
sbs(I11
I3
tp165
g1
(g10
g3
NtRp166
(dp167
g13
F3.1794925292278902
sg14
I11
sg15
I01
sg16
I3
sg17
I99
sbs(I12
I19
tp168
g1
(g10
g3
NtRp169
(dp170
g13
F2.2010376043959647
sg14
I12
sg15
I01
sg16
I19
sg17
I281
sbs(I14
I8
tp171
g1
(g10
g3
NtRp172
(dp173
g13
F-2.2629185343247333
sg14
I14
sg15
I01
sg16
I8
sg17
I132
sbs(I3
I8
tp174
g1
(g10
g3
NtRp175
(dp176
g13
F-18.657752322264397
sg14
I3
sg15
I00
sg16
I8
sg17
I45
sbs(I3
I18
tp177
g1
(g10
g3
NtRp178
(dp179
g13
F-12.49737236372723
sg14
I3
sg15
I01
sg16
I18
sg17
I248
sbs(I19
I12
tp180
g1
(g10
g3
NtRp181
(dp182
g13
F9.7882381549660433
sg14
I19
sg15
I01
sg16
I12
sg17
I257
sbs(I20
I6
tp183
g1
(g10
g3
NtRp184
(dp185
g13
F-10.791560352948157
sg14
I20
sg15
I01
sg16
I6
sg17
I301
sbs(I9
I5
tp186
g1
(g10
g3
NtRp187
(dp188
g13
F9.1922716731172223
sg14
I9
sg15
I01
sg16
I5
sg17
I57
sbs(I7
I8
tp189
g1
(g10
g3
NtRp190
(dp191
g13
F9.1707081525770739
sg14
I7
sg15
I01
sg16
I8
sg17
I52
sbs(I5
I12
tp192
g1
(g10
g3
NtRp193
(dp194
g13
F-12.687618669754031
sg14
I5
sg15
I01
sg16
I12
sg17
I87
sbs(I9
I12
tp195
g1
(g10
g3
NtRp196
(dp197
g13
F-5.4685735713538168
sg14
I9
sg15
I01
sg16
I12
sg17
I82
sbs(I10
I2
tp198
g1
(g10
g3
NtRp199
(dp200
g13
F-5.1060667676625631
sg14
I10
sg15
I01
sg16
I2
sg17
I64
sbssS'_input_nodes'
p201
I1
sS'_output_nodes'
p202
I1
sS'_node_gene_type'
p203
cneat.genome
NodeGene
p204
sS'_conn_gene_type'
p205
g10
sS'fitness'
p206
F0.99880287664513345
sS'parent2_id'
p207
I8860
sS'_id'
p208
I8871
sS'parent1_id'
p209
I8860
sS'_node_genes'
p210
(lp211
g1
(g204
g3
NtRp212
(dp213
S'_bias'
p214
I0
sS'_type'
p215
S'INPUT'
p216
sg208
I1
sS'_response'
p217
F4.9242730000000003
sS'_activation_type'
p218
Nsbag1
(g204
g3
NtRp219
(dp220
g214
F-2.9584906521704037
sg215
S'OUTPUT'
p221
sg208
I2
sg217
F2.7069370489232902
sg218
S'tanh'
p222
sbag1
(g204
g3
NtRp223
(dp224
g214
F-5.0720204839664316
sg215
S'HIDDEN'
p225
sg208
I3
sg217
F15.983979769298791
sg218
g222
sbag1
(g204
g3
NtRp226
(dp227
g214
F6.3604155009959928
sg215
g225
sg208
I4
sg217
F4.5488088223010257
sg218
g222
sbag1
(g204
g3
NtRp228
(dp229
g214
F-4.7722336539615391
sg215
g225
sg208
I5
sg217
F-7.9767387872735966
sg218
g222
sbag1
(g204
g3
NtRp230
(dp231
g214
F-5.485251843901791
sg215
g225
sg208
I6
sg217
F0.096062680956112825
sg218
g222
sbag1
(g204
g3
NtRp232
(dp233
g214
F3.8307380694585618
sg215
g225
sg208
I7
sg217
F6.0390272994594509
sg218
g222
sbag1
(g204
g3
NtRp234
(dp235
g214
F-5.6981697768483812
sg215
g225
sg208
I8
sg217
F10.665275950089891
sg218
g222
sbag1
(g204
g3
NtRp236
(dp237
g214
F1.6009764191362246
sg215
g225
sg208
I9
sg217
F3.2974687728244407
sg218
g222
sbag1
(g204
g3
NtRp238
(dp239
g214
F-1.1457842316080842
sg215
g225
sg208
I10
sg217
F7.477254155304597
sg218
g222
sbag1
(g204
g3
NtRp240
(dp241
g214
F-1.4105587057630522
sg215
g225
sg208
I11
sg217
F1.103891267786951
sg218
g222
sbag1
(g204
g3
NtRp242
(dp243
g214
F-0.77119109116491158
sg215
g225
sg208
I12
sg217
F2.2637644062778102
sg218
g222
sbag1
(g204
g3
NtRp244
(dp245
g214
F2.6436595085769246
sg215
g225
sg208
I13
sg217
F8.1795779347437136
sg218
g222
sbag1
(g204
g3
NtRp246
(dp247
g214
F-2.5291409943272734
sg215
g225
sg208
I14
sg217
F5.4968644008198115
sg218
g222
sbag1
(g204
g3
NtRp248
(dp249
g214
F4.8708745232166395
sg215
g225
sg208
I15
sg217
F8.3181810334604069
sg218
g222
sbag1
(g204
g3
NtRp250
(dp251
g214
F-2.8655872616822196
sg215
g225
sg208
I16
sg217
F4.9221670312818109
sg218
g222
sbag1
(g204
g3
NtRp252
(dp253
g214
F-0.12585655532829434
sg215
g225
sg208
I17
sg217
F2.1060916341588509
sg218
g222
sbag1
(g204
g3
NtRp254
(dp255
g214
F-3.0679718448744762
sg215
g225
sg208
I18
sg217
F3.9588034674312209
sg218
g222
sbag1
(g204
g3
NtRp256
(dp257
g214
F2.4008293084478645
sg215
g225
sg208
I19
sg217
F3.0694184548880057
sg218
g222
sbag1
(g204
g3
NtRp258
(dp259
g214
F-1.1226746678304753
sg215
g225
sg208
I20
sg217
F5.6541015937910233
sg218
g222
sbasb.