ccopy_reg
_reconstructor
p1
(cneat.chromosome
Chromosome
p2
c__builtin__
object
p3
NtRp4
(dp5
S'species_id'
p6
I54
sS'_connection_genes'
p7
(dp8
(I7
I8
tp9
g1
(cneat.genome
ConnectionGene
p10
g3
NtRp11
(dp12
S'_ConnectionGene__weight'
p13
F1.1862657839866411
sS'_ConnectionGene__in'
p14
I7
sS'_ConnectionGene__enabled'
p15
I01
sS'_ConnectionGene__out'
p16
I8
sS'_ConnectionGene__innov_number'
p17
I52
sbs(I4
I7
tp18
g1
(g10
g3
NtRp19
(dp20
g13
F-1.1783138720316368
sg14
I4
sg15
I01
sg16
I7
sg17
I29
sbs(I1
I3
tp21
g1
(g10
g3
NtRp22
(dp23
g13
F11.54124291913366
sg14
I1
sg15
I01
sg16
I3
sg17
I2
sbs(I6
I6
tp24
g1
(g10
g3
NtRp25
(dp26
g13
F12.825990653127752
sg14
I6
sg15
I01
sg16
I6
sg17
I34
sbs(I7
I12
tp27
g1
(g10
g3
NtRp28
(dp29
g13
F-10.05176948876945
sg14
I7
sg15
I01
sg16
I12
sg17
I102
sbs(I2
I8
tp30
g1
(g10
g3
NtRp31
(dp32
g13
F-15.30653934614093
sg14
I2
sg15
I01
sg16
I8
sg17
I46
sbs(I12
I12
tp33
g1
(g10
g3
NtRp34
(dp35
g13
F3.5065737678385975
sg14
I12
sg15
I01
sg16
I12
sg17
I160
sbs(I3
I11
tp36
g1
(g10
g3
NtRp37
(dp38
g13
F-20.722623605742953
sg14
I3
sg15
I01
sg16
I11
sg17
I98
sbs(I8
I9
tp39
g1
(g10
g3
NtRp40
(dp41
g13
F-21.581953897683544
sg14
I8
sg15
I01
sg16
I9
sg17
I61
sbs(I6
I2
tp42
g1
(g10
g3
NtRp43
(dp44
g13
F6.8487545469935807
sg14
I6
sg15
I01
sg16
I2
sg17
I23
sbs(I2
I5
tp45
g1
(g10
g3
NtRp46
(dp47
g13
F-21.179453049374807
sg14
I2
sg15
I01
sg16
I5
sg17
I10
sbs(I3
I14
tp48
g1
(g10
g3
NtRp49
(dp50
g13
F-4.3578563850832737
sg14
I3
sg15
I01
sg16
I14
sg17
I157
sbs(I1
I2
tp51
g1
(g10
g3
NtRp52
(dp53
g13
F5.4784779136056478
sg14
I1
sg15
I01
sg16
I2
sg17
I1
sbs(I2
I14
tp54
g1
(g10
g3
NtRp55
(dp56
g13
F5.8271279974964703
sg14
I2
sg15
I01
sg16
I14
sg17
I129
sbs(I3
I3
tp57
g1
(g10
g3
NtRp58
(dp59
g13
F10.383289895675231
sg14
I3
sg15
I01
sg16
I3
sg17
I6
sbs(I5
I12
tp60
g1
(g10
g3
NtRp61
(dp62
g13
F2.6265354911215217
sg14
I5
sg15
I01
sg16
I12
sg17
I87
sbs(I6
I3
tp63
g1
(g10
g3
NtRp64
(dp65
g13
F-23.746310459296115
sg14
I6
sg15
I01
sg16
I3
sg17
I37
sbs(I1
I5
tp66
g1
(g10
g3
NtRp67
(dp68
g13
F5.4762973204969327
sg14
I1
sg15
I00
sg16
I5
sg17
I14
sbs(I13
I7
tp69
g1
(g10
g3
NtRp70
(dp71
g13
F2.414087044061612
sg14
I13
sg15
I01
sg16
I7
sg17
I136
sbs(I7
I2
tp72
g1
(g10
g3
NtRp73
(dp74
g13
F-23.450824074635122
sg14
I7
sg15
I01
sg16
I2
sg17
I21
sbs(I2
I2
tp75
g1
(g10
g3
NtRp76
(dp77
g13
F10.616727362223488
sg14
I2
sg15
I00
sg16
I2
sg17
I4
sbs(I1
I10
tp78
g1
(g10
g3
NtRp79
(dp80
g13
F-1.1220849244683953
sg14
I1
sg15
I01
sg16
I10
sg17
I65
sbs(I8
I6
tp81
g1
(g10
g3
NtRp82
(dp83
g13
F-28.092571916537651
sg14
I8
sg15
I01
sg16
I6
sg17
I51
sbs(I11
I13
tp84
g1
(g10
g3
NtRp85
(dp86
g13
F-24.376783945670788
sg14
I11
sg15
I01
sg16
I13
sg17
I156
sbs(I3
I2
tp87
g1
(g10
g3
NtRp88
(dp89
g13
F9.0552705577265371
sg14
I3
sg15
I00
sg16
I2
sg17
I3
sbs(I2
I6
tp90
g1
(g10
g3
NtRp91
(dp92
g13
F-20.841644548257932
sg14
I2
sg15
I01
sg16
I6
sg17
I15
sbs(I9
I3
tp93
g1
(g10
g3
NtRp94
(dp95
g13
F12.5273145235111
sg14
I9
sg15
I01
sg16
I3
sg17
I95
sbs(I12
I15
tp96
g1
(g10
g3
NtRp97
(dp98
g13
F2.0730646726929098
sg14
I12
sg15
I01
sg16
I15
sg17
I217
sbs(I15
I10
tp99
g1
(g10
g3
NtRp100
(dp101
g13
F-17.257882257550055
sg14
I15
sg15
I01
sg16
I10
sg17
I189
sbs(I12
I10
tp102
g1
(g10
g3
NtRp103
(dp104
g13
F-25.927138918006818
sg14
I12
sg15
I00
sg16
I10
sg17
I103
sbs(I4
I2
tp105
g1
(g10
g3
NtRp106
(dp107
g13
F3.0578005635138075
sg14
I4
sg15
I01
sg16
I2
sg17
I8
sbs(I14
I2
tp108
g1
(g10
g3
NtRp109
(dp110
g13
F16.828294606057014
sg14
I14
sg15
I01
sg16
I2
sg17
I130
sbs(I5
I3
tp111
g1
(g10
g3
NtRp112
(dp113
g13
F6.8499872468966077
sg14
I5
sg15
I01
sg16
I3
sg17
I27
sbs(I11
I7
tp114
g1
(g10
g3
NtRp115
(dp116
g13
F-28.075686451500008
sg14
I11
sg15
I00
sg16
I7
sg17
I107
sbs(I6
I9
tp117
g1
(g10
g3
NtRp118
(dp119
g13
F12.024746760627984
sg14
I6
sg15
I01
sg16
I9
sg17
I56
sbs(I5
I10
tp120
g1
(g10
g3
NtRp121
(dp122
g13
F9.0591083246353161
sg14
I5
sg15
I00
sg16
I10
sg17
I78
sbs(I16
I5
tp123
g1
(g10
g3
NtRp124
(dp125
g13
F-8.0652235248769184
sg14
I16
sg15
I01
sg16
I5
sg17
I178
sbs(I9
I2
tp126
g1
(g10
g3
NtRp127
(dp128
g13
F24.671425114855353
sg14
I9
sg15
I01
sg16
I2
sg17
I59
sbs(I5
I2
tp129
g1
(g10
g3
NtRp130
(dp131
g13
F-28.396839442156743
sg14
I5
sg15
I01
sg16
I2
sg17
I11
sbs(I16
I8
tp132
g1
(g10
g3
NtRp133
(dp134
g13
F1.969610005695996
sg14
I16
sg15
I01
sg16
I8
sg17
I172
sbs(I11
I3
tp135
g1
(g10
g3
NtRp136
(dp137
g13
F-9.356309446550517
sg14
I11
sg15
I01
sg16
I3
sg17
I99
sbs(I3
I8
tp138
g1
(g10
g3
NtRp139
(dp140
g13
F2.9385902968228783
sg14
I3
sg15
I01
sg16
I8
sg17
I45
sbs(I9
I5
tp141
g1
(g10
g3
NtRp142
(dp143
g13
F-0.47304770176981759
sg14
I9
sg15
I01
sg16
I5
sg17
I57
sbs(I3
I4
tp144
g1
(g10
g3
NtRp145
(dp146
g13
F5.4462649600029236
sg14
I3
sg15
I01
sg16
I4
sg17
I9
sbs(I1
I16
tp147
g1
(g10
g3
NtRp148
(dp149
g13
F3.1842914241285198
sg14
I1
sg15
I01
sg16
I16
sg17
I245
sbs(I9
I12
tp150
g1
(g10
g3
NtRp151
(dp152
g13
F6.5185958341612364
sg14
I9
sg15
I01
sg16
I12
sg17
I82
sbs(I10
I2
tp153
g1
(g10
g3
NtRp154
(dp155
g13
F-17.748645039950123
sg14
I10
sg15
I01
sg16
I2
sg17
I64
sbssS'_input_nodes'
p156
I1
sS'_output_nodes'
p157
I1
sS'_node_gene_type'
p158
cneat.genome
NodeGene
p159
sS'_conn_gene_type'
p160
g10
sS'fitness'
p161
F0.91257208190276085
sS'parent2_id'
p162
I6682
sS'_id'
p163
I6698
sS'parent1_id'
p164
I6682
sS'_node_genes'
p165
(lp166
g1
(g159
g3
NtRp167
(dp168
S'_bias'
p169
I0
sS'_type'
p170
S'INPUT'
p171
sg163
I1
sS'_response'
p172
F4.9242730000000003
sS'_activation_type'
p173
Nsbag1
(g159
g3
NtRp174
(dp175
g169
F0.89896915107195929
sg170
S'OUTPUT'
p176
sg163
I2
sg172
F4.990186586286721
sg173
S'tanh'
p177
sbag1
(g159
g3
NtRp178
(dp179
g169
F-3.1263474131614499
sg170
S'HIDDEN'
p180
sg163
I3
sg172
F15.515568456577371
sg173
g177
sbag1
(g159
g3
NtRp181
(dp182
g169
F5.9326472557452119
sg170
g180
sg163
I4
sg172
F3.9164864844430092
sg173
g177
sbag1
(g159
g3
NtRp183
(dp184
g169
F-3.057740567489645
sg170
g180
sg163
I5
sg172
F-7.0231164412759846
sg173
g177
sbag1
(g159
g3
NtRp185
(dp186
g169
F-2.1388374102446543
sg170
g180
sg163
I6
sg172
F2.2763268705397861
sg173
g177
sbag1
(g159
g3
NtRp187
(dp188
g169
F4.2435235715939008
sg170
g180
sg163
I7
sg172
F6.4293855634558543
sg173
g177
sbag1
(g159
g3
NtRp189
(dp190
g169
F-5.294710724484939
sg170
g180
sg163
I8
sg172
F8.7372976895414194
sg173
g177
sbag1
(g159
g3
NtRp191
(dp192
g169
F3.5321665730082032
sg170
g180
sg163
I9
sg172
F3.6685974484645767
sg173
g177
sbag1
(g159
g3
NtRp193
(dp194
g169
F-0.91351594989231721
sg170
g180
sg163
I10
sg172
F8.4742786437391029
sg173
g177
sbag1
(g159
g3
NtRp195
(dp196
g169
F-0.53988873443139906
sg170
g180
sg163
I11
sg172
F2.5982327143899737
sg173
g177
sbag1
(g159
g3
NtRp197
(dp198
g169
F2.3462230576137144
sg170
g180
sg163
I12
sg172
F5.3242599862388733
sg173
g177
sbag1
(g159
g3
NtRp199
(dp200
g169
F1.1390272470503147
sg170
g180
sg163
I13
sg172
F8.3243106631353072
sg173
g177
sbag1
(g159
g3
NtRp201
(dp202
g169
F-0.89781986084367404
sg170
g180
sg163
I14
sg172
F4.315799870642234
sg173
g177
sbag1
(g159
g3
NtRp203
(dp204
g169
F0.78749381710834898
sg170
g180
sg163
I15
sg172
F4.4009932587910434
sg173
g177
sbag1
(g159
g3
NtRp205
(dp206
g169
F-0.71852471786709393
sg170
g180
sg163
I16
sg172
F3.7451122934240608
sg173
g177
sbasb.