ccopy_reg
_reconstructor
p1
(cneat.chromosome
Chromosome
p2
c__builtin__
object
p3
NtRp4
(dp5
S'species_id'
p6
I35
sS'_connection_genes'
p7
(dp8
(I4
I7
tp9
g1
(cneat.genome
ConnectionGene
p10
g3
NtRp11
(dp12
S'_ConnectionGene__weight'
p13
F-27.195524728107397
sS'_ConnectionGene__in'
p14
I4
sS'_ConnectionGene__enabled'
p15
I01
sS'_ConnectionGene__out'
p16
I7
sS'_ConnectionGene__innov_number'
p17
I29
sbs(I1
I3
tp18
g1
(g10
g3
NtRp19
(dp20
g13
F-5.8901050651314337
sg14
I1
sg15
I01
sg16
I3
sg17
I2
sbs(I2
I8
tp21
g1
(g10
g3
NtRp22
(dp23
g13
F-26.47647650858455
sg14
I2
sg15
I01
sg16
I8
sg17
I46
sbs(I3
I11
tp24
g1
(g10
g3
NtRp25
(dp26
g13
F9.383870329950593
sg14
I3
sg15
I01
sg16
I11
sg17
I98
sbs(I8
I9
tp27
g1
(g10
g3
NtRp28
(dp29
g13
F-16.555353771929312
sg14
I8
sg15
I01
sg16
I9
sg17
I61
sbs(I6
I2
tp30
g1
(g10
g3
NtRp31
(dp32
g13
F12.220709621783248
sg14
I6
sg15
I01
sg16
I2
sg17
I23
sbs(I2
I5
tp33
g1
(g10
g3
NtRp34
(dp35
g13
F-10.293356207572408
sg14
I2
sg15
I01
sg16
I5
sg17
I10
sbs(I7
I2
tp36
g1
(g10
g3
NtRp37
(dp38
g13
F-5.1569081602393254
sg14
I7
sg15
I01
sg16
I2
sg17
I21
sbs(I1
I2
tp39
g1
(g10
g3
NtRp40
(dp41
g13
F-27.715208873246869
sg14
I1
sg15
I01
sg16
I2
sg17
I1
sbs(I3
I3
tp42
g1
(g10
g3
NtRp43
(dp44
g13
F-3.6665109074415843
sg14
I3
sg15
I01
sg16
I3
sg17
I6
sbs(I5
I12
tp45
g1
(g10
g3
NtRp46
(dp47
g13
F-5.520515292080642
sg14
I5
sg15
I01
sg16
I12
sg17
I87
sbs(I3
I4
tp48
g1
(g10
g3
NtRp49
(dp50
g13
F11.018111805486148
sg14
I3
sg15
I01
sg16
I4
sg17
I9
sbs(I6
I3
tp51
g1
(g10
g3
NtRp52
(dp53
g13
F-0.47957713780789879
sg14
I6
sg15
I01
sg16
I3
sg17
I37
sbs(I1
I5
tp54
g1
(g10
g3
NtRp55
(dp56
g13
F3.9317232163907887
sg14
I1
sg15
I01
sg16
I5
sg17
I14
sbs(I2
I2
tp57
g1
(g10
g3
NtRp58
(dp59
g13
F-13.038149311505169
sg14
I2
sg15
I01
sg16
I2
sg17
I4
sbs(I1
I10
tp60
g1
(g10
g3
NtRp61
(dp62
g13
F1.4790190954603188
sg14
I1
sg15
I01
sg16
I10
sg17
I65
sbs(I8
I6
tp63
g1
(g10
g3
NtRp64
(dp65
g13
F-11.567860159575012
sg14
I8
sg15
I01
sg16
I6
sg17
I51
sbs(I3
I2
tp66
g1
(g10
g3
NtRp67
(dp68
g13
F15.032227048167188
sg14
I3
sg15
I00
sg16
I2
sg17
I3
sbs(I2
I6
tp69
g1
(g10
g3
NtRp70
(dp71
g13
F-19.987062058523353
sg14
I2
sg15
I01
sg16
I6
sg17
I15
sbs(I12
I10
tp72
g1
(g10
g3
NtRp73
(dp74
g13
F-30
sg14
I12
sg15
I01
sg16
I10
sg17
I103
sbs(I4
I2
tp75
g1
(g10
g3
NtRp76
(dp77
g13
F-4.6243058016621852
sg14
I4
sg15
I01
sg16
I2
sg17
I8
sbs(I11
I7
tp78
g1
(g10
g3
NtRp79
(dp80
g13
F1.9563613918242257
sg14
I11
sg15
I01
sg16
I7
sg17
I107
sbs(I6
I9
tp81
g1
(g10
g3
NtRp82
(dp83
g13
F-9.6774439885923922
sg14
I6
sg15
I01
sg16
I9
sg17
I56
sbs(I5
I10
tp84
g1
(g10
g3
NtRp85
(dp86
g13
F-3.2359792091551611
sg14
I5
sg15
I00
sg16
I10
sg17
I78
sbs(I9
I2
tp87
g1
(g10
g3
NtRp88
(dp89
g13
F23.915895399685887
sg14
I9
sg15
I01
sg16
I2
sg17
I59
sbs(I5
I2
tp90
g1
(g10
g3
NtRp91
(dp92
g13
F-28.681862670164318
sg14
I5
sg15
I01
sg16
I2
sg17
I11
sbs(I11
I3
tp93
g1
(g10
g3
NtRp94
(dp95
g13
F-12.438114141160074
sg14
I11
sg15
I01
sg16
I3
sg17
I99
sbs(I9
I5
tp96
g1
(g10
g3
NtRp97
(dp98
g13
F-0.099693926807449706
sg14
I9
sg15
I01
sg16
I5
sg17
I57
sbs(I7
I8
tp99
g1
(g10
g3
NtRp100
(dp101
g13
F2.4080718357707971
sg14
I7
sg15
I01
sg16
I8
sg17
I52
sbs(I9
I12
tp102
g1
(g10
g3
NtRp103
(dp104
g13
F-2.5960756309067539
sg14
I9
sg15
I01
sg16
I12
sg17
I82
sbs(I10
I2
tp105
g1
(g10
g3
NtRp106
(dp107
g13
F-2.5536929658872332
sg14
I10
sg15
I01
sg16
I2
sg17
I64
sbssS'_input_nodes'
p108
I1
sS'_output_nodes'
p109
I1
sS'_node_gene_type'
p110
cneat.genome
NodeGene
p111
sS'_conn_gene_type'
p112
g10
sS'fitness'
p113
F0.81566839047037631
sS'parent2_id'
p114
I4091
sS'_id'
p115
I4101
sS'parent1_id'
p116
I4091
sS'_node_genes'
p117
(lp118
g1
(g111
g3
NtRp119
(dp120
S'_bias'
p121
I0
sS'_type'
p122
S'INPUT'
p123
sg115
I1
sS'_response'
p124
F4.9242730000000003
sS'_activation_type'
p125
Nsbag1
(g111
g3
NtRp126
(dp127
g121
F2.774757116689857
sg122
S'OUTPUT'
p128
sg115
I2
sg124
F3.943247567769296
sg125
S'tanh'
p129
sbag1
(g111
g3
NtRp130
(dp131
g121
F0.20181116872490495
sg122
S'HIDDEN'
p132
sg115
I3
sg124
F7.9731735391276999
sg125
g129
sbag1
(g111
g3
NtRp133
(dp134
g121
F5.3763555351556596
sg122
g132
sg115
I4
sg124
F4.3512336517423931
sg125
g129
sbag1
(g111
g3
NtRp135
(dp136
g121
F-0.40028843212170889
sg122
g132
sg115
I5
sg124
F-2.2503183326856382
sg125
g129
sbag1
(g111
g3
NtRp137
(dp138
g121
F-2.443929283580375
sg122
g132
sg115
I6
sg124
F-0.3226478328696884
sg125
g129
sbag1
(g111
g3
NtRp139
(dp140
g121
F1.126321423433807
sg122
g132
sg115
I7
sg124
F6.2062892933614942
sg125
g129
sbag1
(g111
g3
NtRp141
(dp142
g121
F-3.1479268976229373
sg122
g132
sg115
I8
sg124
F5.1909278980889546
sg125
g129
sbag1
(g111
g3
NtRp143
(dp144
g121
F-0.15007690842238608
sg122
g132
sg115
I9
sg124
F3.4334535677276419
sg125
g129
sbag1
(g111
g3
NtRp145
(dp146
g121
F0.58354275093700281
sg122
g132
sg115
I10
sg124
F6.8777590526618324
sg125
g129
sbag1
(g111
g3
NtRp147
(dp148
g121
F1.2957040651894858
sg122
g132
sg115
I11
sg124
F3.4501383538403312
sg125
g129
sbag1
(g111
g3
NtRp149
(dp150
g121
F-1.3280719930117209
sg122
g132
sg115
I12
sg124
F5.258087214168599
sg125
g129
sbasb.