ccopy_reg
_reconstructor
p1
(cneat.chromosome
Chromosome
p2
c__builtin__
object
p3
NtRp4
(dp5
S'species_id'
p6
I52
sS'_connection_genes'
p7
(dp8
(I5
I9
tp9
g1
(cneat.genome
ConnectionGene
p10
g3
NtRp11
(dp12
S'_ConnectionGene__weight'
p13
F10.683233813498834
sS'_ConnectionGene__in'
p14
I5
sS'_ConnectionGene__enabled'
p15
I01
sS'_ConnectionGene__out'
p16
I9
sS'_ConnectionGene__innov_number'
p17
I58
sbs(I4
I7
tp18
g1
(g10
g3
NtRp19
(dp20
g13
F-17.436438308616925
sg14
I4
sg15
I01
sg16
I7
sg17
I29
sbs(I1
I3
tp21
g1
(g10
g3
NtRp22
(dp23
g13
F21.448255837767324
sg14
I1
sg15
I01
sg16
I3
sg17
I2
sbs(I2
I18
tp24
g1
(g10
g3
NtRp25
(dp26
g13
F-11.928991821743152
sg14
I2
sg15
I01
sg16
I18
sg17
I191
sbs(I14
I4
tp27
g1
(g10
g3
NtRp28
(dp29
g13
F13.258908018380641
sg14
I14
sg15
I01
sg16
I4
sg17
I143
sbs(I13
I4
tp30
g1
(g10
g3
NtRp31
(dp32
g13
F28.454513972297597
sg14
I13
sg15
I01
sg16
I4
sg17
I120
sbs(I10
I6
tp33
g1
(g10
g3
NtRp34
(dp35
g13
F6.3160730312483846
sg14
I10
sg15
I01
sg16
I6
sg17
I81
sbs(I7
I8
tp36
g1
(g10
g3
NtRp37
(dp38
g13
F-8.489051219012099
sg14
I7
sg15
I01
sg16
I8
sg17
I52
sbs(I3
I11
tp39
g1
(g10
g3
NtRp40
(dp41
g13
F12.528240739534217
sg14
I3
sg15
I01
sg16
I11
sg17
I98
sbs(I1
I15
tp42
g1
(g10
g3
NtRp43
(dp44
g13
F1.9960679154169054
sg14
I1
sg15
I01
sg16
I15
sg17
I148
sbs(I13
I17
tp45
g1
(g10
g3
NtRp46
(dp47
g13
F10.636395205360031
sg14
I13
sg15
I01
sg16
I17
sg17
I183
sbs(I6
I2
tp48
g1
(g10
g3
NtRp49
(dp50
g13
F6.4676687038145966
sg14
I6
sg15
I01
sg16
I2
sg17
I23
sbs(I7
I16
tp51
g1
(g10
g3
NtRp52
(dp53
g13
F-14.570009417909194
sg14
I7
sg15
I01
sg16
I16
sg17
I171
sbs(I4
I2
tp54
g1
(g10
g3
NtRp55
(dp56
g13
F-29.252101243197934
sg14
I4
sg15
I01
sg16
I2
sg17
I8
sbs(I2
I5
tp57
g1
(g10
g3
NtRp58
(dp59
g13
F-1.7065703061032629
sg14
I2
sg15
I01
sg16
I5
sg17
I10
sbs(I15
I5
tp60
g1
(g10
g3
NtRp61
(dp62
g13
F3.8558319666490242
sg14
I15
sg15
I01
sg16
I5
sg17
I165
sbs(I7
I2
tp63
g1
(g10
g3
NtRp64
(dp65
g13
F-14.783707118800693
sg14
I7
sg15
I01
sg16
I2
sg17
I21
sbs(I1
I2
tp66
g1
(g10
g3
NtRp67
(dp68
g13
F-8.6463152854853185
sg14
I1
sg15
I01
sg16
I2
sg17
I1
sbs(I12
I2
tp69
g1
(g10
g3
NtRp70
(dp71
g13
F22.011774109459576
sg14
I12
sg15
I01
sg16
I2
sg17
I80
sbs(I3
I3
tp72
g1
(g10
g3
NtRp73
(dp74
g13
F-23.459399796121698
sg14
I3
sg15
I01
sg16
I3
sg17
I6
sbs(I1
I5
tp75
g1
(g10
g3
NtRp76
(dp77
g13
F-15.914849603363766
sg14
I1
sg15
I01
sg16
I5
sg17
I14
sbs(I6
I5
tp78
g1
(g10
g3
NtRp79
(dp80
g13
F-1.414896093381683
sg14
I6
sg15
I01
sg16
I5
sg17
I16
sbs(I2
I8
tp81
g1
(g10
g3
NtRp82
(dp83
g13
F-15.5018994935009
sg14
I2
sg15
I01
sg16
I8
sg17
I46
sbs(I8
I6
tp84
g1
(g10
g3
NtRp85
(dp86
g13
F22.307389343603312
sg14
I8
sg15
I01
sg16
I6
sg17
I51
sbs(I3
I2
tp87
g1
(g10
g3
NtRp88
(dp89
g13
F8.5575185991919192
sg14
I3
sg15
I01
sg16
I2
sg17
I3
sbs(I2
I6
tp90
g1
(g10
g3
NtRp91
(dp92
g13
F-4.7354970153369367
sg14
I2
sg15
I01
sg16
I6
sg17
I15
sbs(I3
I13
tp93
g1
(g10
g3
NtRp94
(dp95
g13
F10.157959067502624
sg14
I3
sg15
I01
sg16
I13
sg17
I105
sbs(I2
I2
tp96
g1
(g10
g3
NtRp97
(dp98
g13
F-14.760311747565698
sg14
I2
sg15
I01
sg16
I2
sg17
I4
sbs(I7
I5
tp99
g1
(g10
g3
NtRp100
(dp101
g13
F-2.9396776755399863
sg14
I7
sg15
I00
sg16
I5
sg17
I19
sbs(I8
I7
tp102
g1
(g10
g3
NtRp103
(dp104
g13
F5.6455675622328467
sg14
I8
sg15
I01
sg16
I7
sg17
I39
sbs(I6
I12
tp105
g1
(g10
g3
NtRp106
(dp107
g13
F-15.793579596506595
sg14
I6
sg15
I01
sg16
I12
sg17
I115
sbs(I17
I4
tp108
g1
(g10
g3
NtRp109
(dp110
g13
F18.132019674536814
sg14
I17
sg15
I01
sg16
I4
sg17
I184
sbs(I6
I9
tp111
g1
(g10
g3
NtRp112
(dp113
g13
F-21.130361894688768
sg14
I6
sg15
I01
sg16
I9
sg17
I56
sbs(I5
I10
tp114
g1
(g10
g3
NtRp115
(dp116
g13
F17.82767558709871
sg14
I5
sg15
I01
sg16
I10
sg17
I78
sbs(I6
I8
tp117
g1
(g10
g3
NtRp118
(dp119
g13
F4.0348045552900276
sg14
I6
sg15
I01
sg16
I8
sg17
I53
sbs(I16
I5
tp120
g1
(g10
g3
NtRp121
(dp122
g13
F-17.759971479901417
sg14
I16
sg15
I01
sg16
I5
sg17
I178
sbs(I9
I2
tp123
g1
(g10
g3
NtRp124
(dp125
g13
F24.65876889259377
sg14
I9
sg15
I01
sg16
I2
sg17
I59
sbs(I5
I2
tp126
g1
(g10
g3
NtRp127
(dp128
g13
F22.727118235443715
sg14
I5
sg15
I00
sg16
I2
sg17
I11
sbs(I10
I10
tp129
g1
(g10
g3
NtRp130
(dp131
g13
F1.4970163528212295
sg14
I10
sg15
I01
sg16
I10
sg17
I111
sbs(I11
I3
tp132
g1
(g10
g3
NtRp133
(dp134
g13
F25.980636861844722
sg14
I11
sg15
I01
sg16
I3
sg17
I99
sbs(I13
I14
tp135
g1
(g10
g3
NtRp136
(dp137
g13
F-9.5090603270088288
sg14
I13
sg15
I01
sg16
I14
sg17
I142
sbs(I18
I6
tp138
g1
(g10
g3
NtRp139
(dp140
g13
F-23.063297255536135
sg14
I18
sg15
I01
sg16
I6
sg17
I212
sbs(I3
I12
tp141
g1
(g10
g3
NtRp142
(dp143
g13
F-0.48836779104222405
sg14
I3
sg15
I01
sg16
I12
sg17
I108
sbs(I3
I4
tp144
g1
(g10
g3
NtRp145
(dp146
g13
F-12.49788719844158
sg14
I3
sg15
I01
sg16
I4
sg17
I9
sbs(I10
I2
tp147
g1
(g10
g3
NtRp148
(dp149
g13
F-5.1188672249230649
sg14
I10
sg15
I01
sg16
I2
sg17
I64
sbssS'_input_nodes'
p150
I1
sS'_output_nodes'
p151
I1
sS'_node_gene_type'
p152
cneat.genome
NodeGene
p153
sS'_conn_gene_type'
p154
g10
sS'fitness'
p155
F0.92769173204301547
sS'parent2_id'
p156
I6537
sS'_id'
p157
I6554
sS'parent1_id'
p158
I6537
sS'_node_genes'
p159
(lp160
g1
(g153
g3
NtRp161
(dp162
S'_bias'
p163
I0
sS'_type'
p164
S'INPUT'
p165
sg157
I1
sS'_response'
p166
F4.9242730000000003
sS'_activation_type'
p167
Nsbag1
(g153
g3
NtRp168
(dp169
g163
F-1.9624704015490082
sg164
S'OUTPUT'
p170
sg157
I2
sg166
F2.2870239901748741
sg167
S'tanh'
p171
sbag1
(g153
g3
NtRp172
(dp173
g163
F-2.1647614297087086
sg164
S'HIDDEN'
p174
sg157
I3
sg166
F11.105618290231934
sg167
g171
sbag1
(g153
g3
NtRp175
(dp176
g163
F2.2445196348832934
sg164
g174
sg157
I4
sg166
F8.3046753971977445
sg167
g171
sbag1
(g153
g3
NtRp177
(dp178
g163
F-2.3430235252584919
sg164
g174
sg157
I5
sg166
F-0.53327915058693875
sg167
g171
sbag1
(g153
g3
NtRp179
(dp180
g163
F2.7005252834384548
sg164
g174
sg157
I6
sg166
F6.3770984110138684
sg167
g171
sbag1
(g153
g3
NtRp181
(dp182
g163
F0.15411111873529085
sg164
g174
sg157
I7
sg166
F8.5363998153977061
sg167
g171
sbag1
(g153
g3
NtRp183
(dp184
g163
F3.1299718676246053
sg164
g174
sg157
I8
sg166
F-0.86536943941850142
sg167
g171
sbag1
(g153
g3
NtRp185
(dp186
g163
F-3.9184000236061927
sg164
g174
sg157
I9
sg166
F3.5154375823154438
sg167
g171
sbag1
(g153
g3
NtRp187
(dp188
g163
F-0.9779520462054575
sg164
g174
sg157
I10
sg166
F3.3820045844014563
sg167
g171
sbag1
(g153
g3
NtRp189
(dp190
g163
F-0.80164134666874154
sg164
g174
sg157
I11
sg166
F4.143904596764596
sg167
g171
sbag1
(g153
g3
NtRp191
(dp192
g163
F-0.27171398255777018
sg164
g174
sg157
I12
sg166
F10.033998374140333
sg167
g171
sbag1
(g153
g3
NtRp193
(dp194
g163
F1.1011932199001517
sg164
g174
sg157
I13
sg166
F7.031925076676564
sg167
g171
sbag1
(g153
g3
NtRp195
(dp196
g163
F0.55477902838494297
sg164
g174
sg157
I14
sg166
F4.2980064838094956
sg167
g171
sbag1
(g153
g3
NtRp197
(dp198
g163
F-0.51161944971914575
sg164
g174
sg157
I15
sg166
F5.0564916696117752
sg167
g171
sbag1
(g153
g3
NtRp199
(dp200
g163
F-0.34365730238272507
sg164
g174
sg157
I16
sg166
F2.3394173868234596
sg167
g171
sbag1
(g153
g3
NtRp201
(dp202
g163
F-0.49342916211873167
sg164
g174
sg157
I17
sg166
F6.0163798871586476
sg167
g171
sbag1
(g153
g3
NtRp203
(dp204
g163
F-3.4506742463589202
sg164
g174
sg157
I18
sg166
F4.013445178220076
sg167
g171
sbasb.