ccopy_reg
_reconstructor
p1
(cneat.chromosome
Chromosome
p2
c__builtin__
object
p3
NtRp4
(dp5
S'species_id'
p6
I24
sS'_connection_genes'
p7
(dp8
(I4
I7
tp9
g1
(cneat.genome
ConnectionGene
p10
g3
NtRp11
(dp12
S'_ConnectionGene__weight'
p13
F-21.997527838679321
sS'_ConnectionGene__in'
p14
I4
sS'_ConnectionGene__enabled'
p15
I01
sS'_ConnectionGene__out'
p16
I7
sS'_ConnectionGene__innov_number'
p17
I29
sbs(I1
I3
tp18
g1
(g10
g3
NtRp19
(dp20
g13
F6.9907138824862773
sg14
I1
sg15
I01
sg16
I3
sg17
I2
sbs(I2
I8
tp21
g1
(g10
g3
NtRp22
(dp23
g13
F-0.94650202348881329
sg14
I2
sg15
I00
sg16
I8
sg17
I46
sbs(I6
I9
tp24
g1
(g10
g3
NtRp25
(dp26
g13
F-5.682866679555346
sg14
I6
sg15
I01
sg16
I9
sg17
I56
sbs(I6
I2
tp27
g1
(g10
g3
NtRp28
(dp29
g13
F15.109443851915618
sg14
I6
sg15
I00
sg16
I2
sg17
I23
sbs(I2
I5
tp30
g1
(g10
g3
NtRp31
(dp32
g13
F-5.7811854089487484
sg14
I2
sg15
I01
sg16
I5
sg17
I10
sbs(I7
I2
tp33
g1
(g10
g3
NtRp34
(dp35
g13
F-7.8176545805664261
sg14
I7
sg15
I01
sg16
I2
sg17
I21
sbs(I1
I2
tp36
g1
(g10
g3
NtRp37
(dp38
g13
F-14.293668990623424
sg14
I1
sg15
I00
sg16
I2
sg17
I1
sbs(I3
I3
tp39
g1
(g10
g3
NtRp40
(dp41
g13
F-10.254875652717498
sg14
I3
sg15
I01
sg16
I3
sg17
I6
sbs(I7
I10
tp42
g1
(g10
g3
NtRp43
(dp44
g13
F-4.9408613814031597
sg14
I7
sg15
I01
sg16
I10
sg17
I75
sbs(I2
I2
tp45
g1
(g10
g3
NtRp46
(dp47
g13
F11.994695403076651
sg14
I2
sg15
I00
sg16
I2
sg17
I4
sbs(I8
I6
tp48
g1
(g10
g3
NtRp49
(dp50
g13
F-0.93479221360716425
sg14
I8
sg15
I01
sg16
I6
sg17
I51
sbs(I3
I2
tp51
g1
(g10
g3
NtRp52
(dp53
g13
F22.194865452703116
sg14
I3
sg15
I00
sg16
I2
sg17
I3
sbs(I2
I6
tp54
g1
(g10
g3
NtRp55
(dp56
g13
F3.7013799103390235
sg14
I2
sg15
I01
sg16
I6
sg17
I15
sbs(I9
I10
tp57
g1
(g10
g3
NtRp58
(dp59
g13
F-6.8209155347756365
sg14
I9
sg15
I01
sg16
I10
sg17
I67
sbs(I4
I2
tp60
g1
(g10
g3
NtRp61
(dp62
g13
F-7.7633591869968281
sg14
I4
sg15
I01
sg16
I2
sg17
I8
sbs(I9
I2
tp63
g1
(g10
g3
NtRp64
(dp65
g13
F28.049991815316101
sg14
I9
sg15
I00
sg16
I2
sg17
I59
sbs(I3
I4
tp66
g1
(g10
g3
NtRp67
(dp68
g13
F5.776167947135832
sg14
I3
sg15
I01
sg16
I4
sg17
I9
sbs(I2
I11
tp69
g1
(g10
g3
NtRp70
(dp71
g13
F-1.4317375309960971
sg14
I2
sg15
I01
sg16
I11
sg17
I71
sbs(I11
I8
tp72
g1
(g10
g3
NtRp73
(dp74
g13
F-0.35223848648734613
sg14
I11
sg15
I01
sg16
I8
sg17
I72
sbs(I5
I2
tp75
g1
(g10
g3
NtRp76
(dp77
g13
F4.7459263809032759
sg14
I5
sg15
I01
sg16
I2
sg17
I11
sbs(I10
I2
tp78
g1
(g10
g3
NtRp79
(dp80
g13
F29.705001799021684
sg14
I10
sg15
I01
sg16
I2
sg17
I64
sbssS'_input_nodes'
p81
I1
sS'_output_nodes'
p82
I1
sS'_node_gene_type'
p83
cneat.genome
NodeGene
p84
sS'_conn_gene_type'
p85
g10
sS'fitness'
p86
F0.84090248125621614
sS'parent2_id'
p87
I2126
sS'_id'
p88
I2145
sS'parent1_id'
p89
I2126
sS'_node_genes'
p90
(lp91
g1
(g84
g3
NtRp92
(dp93
S'_bias'
p94
I0
sS'_type'
p95
S'INPUT'
p96
sg88
I1
sS'_response'
p97
F4.9242730000000003
sS'_activation_type'
p98
Nsbag1
(g84
g3
NtRp99
(dp100
g94
F3.7601683387299936
sg95
S'OUTPUT'
p101
sg88
I2
sg97
F5.1200633823076407
sg98
S'tanh'
p102
sbag1
(g84
g3
NtRp103
(dp104
g94
F-0.57419503063854105
sg95
S'HIDDEN'
p105
sg88
I3
sg97
F7.9043336690244761
sg98
g102
sbag1
(g84
g3
NtRp106
(dp107
g94
F0.60370210102162536
sg95
g105
sg88
I4
sg97
F2.3917457829540787
sg98
g102
sbag1
(g84
g3
NtRp108
(dp109
g94
F1.6592642813028071
sg95
g105
sg88
I5
sg97
F3.8927439667534278
sg98
g102
sbag1
(g84
g3
NtRp110
(dp111
g94
F-0.76721135904776738
sg95
g105
sg88
I6
sg97
F4.2651888426204101
sg98
g102
sbag1
(g84
g3
NtRp112
(dp113
g94
F0.08314999459612904
sg95
g105
sg88
I7
sg97
F4.1583824811848462
sg98
g102
sbag1
(g84
g3
NtRp114
(dp115
g94
F-3.2019816809254436
sg95
g105
sg88
I8
sg97
F3.6177503885391502
sg98
g102
sbag1
(g84
g3
NtRp116
(dp117
g94
F-1.1881302144405625
sg95
g105
sg88
I9
sg97
F5.0767362159636162
sg98
g102
sbag1
(g84
g3
NtRp118
(dp119
g94
F-1.4939203215030221
sg95
g105
sg88
I10
sg97
F4.4198173081065928
sg98
g102
sbag1
(g84
g3
NtRp120
(dp121
g94
F-0.48280098272421074
sg95
g105
sg88
I11
sg97
F3.7569936811614988
sg98
g102
sbasb.