ccopy_reg
_reconstructor
p1
(cneat.chromosome
Chromosome
p2
c__builtin__
object
p3
NtRp4
(dp5
S'species_id'
p6
I42
sS'_connection_genes'
p7
(dp8
(I4
I7
tp9
g1
(cneat.genome
ConnectionGene
p10
g3
NtRp11
(dp12
S'_ConnectionGene__weight'
p13
F-17.646979826457184
sS'_ConnectionGene__in'
p14
I4
sS'_ConnectionGene__enabled'
p15
I01
sS'_ConnectionGene__out'
p16
I7
sS'_ConnectionGene__innov_number'
p17
I29
sbs(I1
I3
tp18
g1
(g10
g3
NtRp19
(dp20
g13
F-20.107253611767206
sg14
I1
sg15
I01
sg16
I3
sg17
I2
sbs(I6
I6
tp21
g1
(g10
g3
NtRp22
(dp23
g13
F-3.1384423674973014
sg14
I6
sg15
I01
sg16
I6
sg17
I34
sbs(I2
I8
tp24
g1
(g10
g3
NtRp25
(dp26
g13
F-28.945377475174617
sg14
I2
sg15
I01
sg16
I8
sg17
I46
sbs(I12
I12
tp27
g1
(g10
g3
NtRp28
(dp29
g13
F3.7821327155085354
sg14
I12
sg15
I01
sg16
I12
sg17
I160
sbs(I3
I11
tp30
g1
(g10
g3
NtRp31
(dp32
g13
F8.4178507375853098
sg14
I3
sg15
I01
sg16
I11
sg17
I98
sbs(I8
I9
tp33
g1
(g10
g3
NtRp34
(dp35
g13
F-18.622490107974816
sg14
I8
sg15
I01
sg16
I9
sg17
I61
sbs(I6
I2
tp36
g1
(g10
g3
NtRp37
(dp38
g13
F12.961931998466788
sg14
I6
sg15
I01
sg16
I2
sg17
I23
sbs(I2
I5
tp39
g1
(g10
g3
NtRp40
(dp41
g13
F-7.9896961700761695
sg14
I2
sg15
I01
sg16
I5
sg17
I10
sbs(I7
I2
tp42
g1
(g10
g3
NtRp43
(dp44
g13
F-13.203736262542098
sg14
I7
sg15
I01
sg16
I2
sg17
I21
sbs(I1
I2
tp45
g1
(g10
g3
NtRp46
(dp47
g13
F-23.668910794804003
sg14
I1
sg15
I01
sg16
I2
sg17
I1
sbs(I14
I2
tp48
g1
(g10
g3
NtRp49
(dp50
g13
F-7.0150896978670492
sg14
I14
sg15
I01
sg16
I2
sg17
I130
sbs(I3
I3
tp51
g1
(g10
g3
NtRp52
(dp53
g13
F0.54556133717658151
sg14
I3
sg15
I01
sg16
I3
sg17
I6
sbs(I5
I12
tp54
g1
(g10
g3
NtRp55
(dp56
g13
F-4.0546822731653487
sg14
I5
sg15
I01
sg16
I12
sg17
I87
sbs(I3
I4
tp57
g1
(g10
g3
NtRp58
(dp59
g13
F14.761562666666462
sg14
I3
sg15
I01
sg16
I4
sg17
I9
sbs(I6
I3
tp60
g1
(g10
g3
NtRp61
(dp62
g13
F6.3691124009215949
sg14
I6
sg15
I01
sg16
I3
sg17
I37
sbs(I1
I5
tp63
g1
(g10
g3
NtRp64
(dp65
g13
F-0.36210017195997557
sg14
I1
sg15
I01
sg16
I5
sg17
I14
sbs(I13
I7
tp66
g1
(g10
g3
NtRp67
(dp68
g13
F18.208219027422899
sg14
I13
sg15
I01
sg16
I7
sg17
I136
sbs(I2
I2
tp69
g1
(g10
g3
NtRp70
(dp71
g13
F-8.5607823943436312
sg14
I2
sg15
I00
sg16
I2
sg17
I4
sbs(I1
I10
tp72
g1
(g10
g3
NtRp73
(dp74
g13
F6.6874141364473987
sg14
I1
sg15
I01
sg16
I10
sg17
I65
sbs(I8
I6
tp75
g1
(g10
g3
NtRp76
(dp77
g13
F-19.675651823260676
sg14
I8
sg15
I01
sg16
I6
sg17
I51
sbs(I11
I13
tp78
g1
(g10
g3
NtRp79
(dp80
g13
F-12.884714697005128
sg14
I11
sg15
I01
sg16
I13
sg17
I156
sbs(I3
I2
tp81
g1
(g10
g3
NtRp82
(dp83
g13
F-0.088697975917476413
sg14
I3
sg15
I00
sg16
I2
sg17
I3
sbs(I2
I6
tp84
g1
(g10
g3
NtRp85
(dp86
g13
F-10.419161793774155
sg14
I2
sg15
I01
sg16
I6
sg17
I15
sbs(I9
I3
tp87
g1
(g10
g3
NtRp88
(dp89
g13
F1.5279494409024481
sg14
I9
sg15
I01
sg16
I3
sg17
I95
sbs(I12
I10
tp90
g1
(g10
g3
NtRp91
(dp92
g13
F-29.962785991621775
sg14
I12
sg15
I01
sg16
I10
sg17
I103
sbs(I4
I2
tp93
g1
(g10
g3
NtRp94
(dp95
g13
F-5.2102702051053296
sg14
I4
sg15
I01
sg16
I2
sg17
I8
sbs(I2
I14
tp96
g1
(g10
g3
NtRp97
(dp98
g13
F2.7649710152315903
sg14
I2
sg15
I01
sg16
I14
sg17
I129
sbs(I11
I7
tp99
g1
(g10
g3
NtRp100
(dp101
g13
F-9.1222605217952601
sg14
I11
sg15
I00
sg16
I7
sg17
I107
sbs(I6
I9
tp102
g1
(g10
g3
NtRp103
(dp104
g13
F-8.00657113863533
sg14
I6
sg15
I01
sg16
I9
sg17
I56
sbs(I5
I10
tp105
g1
(g10
g3
NtRp106
(dp107
g13
F-7.9698128701888677
sg14
I5
sg15
I01
sg16
I10
sg17
I78
sbs(I9
I2
tp108
g1
(g10
g3
NtRp109
(dp110
g13
F25.548837146121453
sg14
I9
sg15
I01
sg16
I2
sg17
I59
sbs(I5
I2
tp111
g1
(g10
g3
NtRp112
(dp113
g13
F-28.116853653287365
sg14
I5
sg15
I01
sg16
I2
sg17
I11
sbs(I11
I3
tp114
g1
(g10
g3
NtRp115
(dp116
g13
F-8.8850455601114025
sg14
I11
sg15
I01
sg16
I3
sg17
I99
sbs(I3
I8
tp117
g1
(g10
g3
NtRp118
(dp119
g13
F0.7385373806595128
sg14
I3
sg15
I01
sg16
I8
sg17
I45
sbs(I9
I5
tp120
g1
(g10
g3
NtRp121
(dp122
g13
F3.371478457295209
sg14
I9
sg15
I01
sg16
I5
sg17
I57
sbs(I7
I8
tp123
g1
(g10
g3
NtRp124
(dp125
g13
F15.537699276016795
sg14
I7
sg15
I01
sg16
I8
sg17
I52
sbs(I9
I12
tp126
g1
(g10
g3
NtRp127
(dp128
g13
F-7.2165338909926904
sg14
I9
sg15
I01
sg16
I12
sg17
I82
sbs(I10
I2
tp129
g1
(g10
g3
NtRp130
(dp131
g13
F-5.9030990435533637
sg14
I10
sg15
I01
sg16
I2
sg17
I64
sbssS'_input_nodes'
p132
I1
sS'_output_nodes'
p133
I1
sS'_node_gene_type'
p134
cneat.genome
NodeGene
p135
sS'_conn_gene_type'
p136
g10
sS'fitness'
p137
F0.82170961226777783
sS'parent2_id'
p138
I4898
sS'_id'
p139
I4953
sS'parent1_id'
p140
I4930
sS'_node_genes'
p141
(lp142
g1
(g135
g3
NtRp143
(dp144
S'_bias'
p145
I0
sS'_type'
p146
S'INPUT'
p147
sg139
I1
sS'_response'
p148
F4.9242730000000003
sS'_activation_type'
p149
Nsbag1
(g135
g3
NtRp150
(dp151
g145
F1.904909962837485
sg146
S'OUTPUT'
p152
sg139
I2
sg148
F4.2646852269215438
sg149
S'tanh'
p153
sbag1
(g135
g3
NtRp154
(dp155
g145
F-0.47323812584177838
sg146
S'HIDDEN'
p156
sg139
I3
sg148
F12.334799507452816
sg149
g153
sbag1
(g135
g3
NtRp157
(dp158
g145
F5.4702285527522099
sg146
g156
sg139
I4
sg148
F4.5635779006904915
sg149
g153
sbag1
(g135
g3
NtRp159
(dp160
g145
F0.25477896124030863
sg146
g156
sg139
I5
sg148
F-2.2658765207791305
sg149
g153
sbag1
(g135
g3
NtRp161
(dp162
g145
F-1.2939037107193379
sg146
g156
sg139
I6
sg148
F0.62334994679657252
sg149
g153
sbag1
(g135
g3
NtRp163
(dp164
g145
F0.67649569506826146
sg146
g156
sg139
I7
sg148
F5.1991067509093201
sg149
g153
sbag1
(g135
g3
NtRp165
(dp166
g145
F-2.4930491837019026
sg146
g156
sg139
I8
sg148
F4.0011657718275684
sg149
g153
sbag1
(g135
g3
NtRp167
(dp168
g145
F1.1043287524599628
sg146
g156
sg139
I9
sg148
F3.1771812500888252
sg149
g153
sbag1
(g135
g3
NtRp169
(dp170
g145
F-0.48334525942040801
sg146
g156
sg139
I10
sg148
F6.2564466620573524
sg149
g153
sbag1
(g135
g3
NtRp171
(dp172
g145
F0.45615046084390687
sg146
g156
sg139
I11
sg148
F4.1845004312028822
sg149
g153
sbag1
(g135
g3
NtRp173
(dp174
g145
F-1.2955291295680367
sg146
g156
sg139
I12
sg148
F4.7851958976387037
sg149
g153
sbag1
(g135
g3
NtRp175
(dp176
g145
F-0.36544173825474224
sg146
g156
sg139
I13
sg148
F5.3815294685770825
sg149
g153
sbag1
(g135
g3
NtRp177
(dp178
g145
F-0.21034774278351623
sg146
g156
sg139
I14
sg148
F3.5890483912856972
sg149
g153
sbasb.