ccopy_reg
_reconstructor
p1
(cneat.chromosome
Chromosome
p2
c__builtin__
object
p3
NtRp4
(dp5
S'species_id'
p6
I58
sS'_connection_genes'
p7
(dp8
(I7
I8
tp9
g1
(cneat.genome
ConnectionGene
p10
g3
NtRp11
(dp12
S'_ConnectionGene__weight'
p13
F12.067306988196897
sS'_ConnectionGene__in'
p14
I7
sS'_ConnectionGene__enabled'
p15
I01
sS'_ConnectionGene__out'
p16
I8
sS'_ConnectionGene__innov_number'
p17
I52
sbs(I4
I7
tp18
g1
(g10
g3
NtRp19
(dp20
g13
F7.8530350595408311
sg14
I4
sg15
I01
sg16
I7
sg17
I29
sbs(I1
I3
tp21
g1
(g10
g3
NtRp22
(dp23
g13
F14.468711689048131
sg14
I1
sg15
I01
sg16
I3
sg17
I2
sbs(I8
I13
tp24
g1
(g10
g3
NtRp25
(dp26
g13
F-0.76917021798748642
sg14
I8
sg15
I01
sg16
I13
sg17
I124
sbs(I6
I6
tp27
g1
(g10
g3
NtRp28
(dp29
g13
F2.1700842577145121
sg14
I6
sg15
I01
sg16
I6
sg17
I34
sbs(I7
I12
tp30
g1
(g10
g3
NtRp31
(dp32
g13
F-0.91833685553988831
sg14
I7
sg15
I01
sg16
I12
sg17
I102
sbs(I2
I8
tp33
g1
(g10
g3
NtRp34
(dp35
g13
F-10.670454232198887
sg14
I2
sg15
I01
sg16
I8
sg17
I46
sbs(I12
I12
tp36
g1
(g10
g3
NtRp37
(dp38
g13
F18.089868950024709
sg14
I12
sg15
I00
sg16
I12
sg17
I160
sbs(I3
I11
tp39
g1
(g10
g3
NtRp40
(dp41
g13
F-22.860409277644237
sg14
I3
sg15
I01
sg16
I11
sg17
I98
sbs(I8
I9
tp42
g1
(g10
g3
NtRp43
(dp44
g13
F-17.74394352293751
sg14
I8
sg15
I01
sg16
I9
sg17
I61
sbs(I6
I2
tp45
g1
(g10
g3
NtRp46
(dp47
g13
F13.478380856999632
sg14
I6
sg15
I01
sg16
I2
sg17
I23
sbs(I18
I8
tp48
g1
(g10
g3
NtRp49
(dp50
g13
F2.5529585335511462
sg14
I18
sg15
I01
sg16
I8
sg17
I206
sbs(I2
I5
tp51
g1
(g10
g3
NtRp52
(dp53
g13
F-12.832342884468124
sg14
I2
sg15
I01
sg16
I5
sg17
I10
sbs(I3
I17
tp54
g1
(g10
g3
NtRp55
(dp56
g13
F16.887942898895357
sg14
I3
sg15
I01
sg16
I17
sg17
I271
sbs(I3
I14
tp57
g1
(g10
g3
NtRp58
(dp59
g13
F-9.5195597190077113
sg14
I3
sg15
I00
sg16
I14
sg17
I157
sbs(I1
I2
tp60
g1
(g10
g3
NtRp61
(dp62
g13
F14.927769525321906
sg14
I1
sg15
I01
sg16
I2
sg17
I1
sbs(I17
I2
tp63
g1
(g10
g3
NtRp64
(dp65
g13
F-0.081550105205037138
sg14
I17
sg15
I01
sg16
I2
sg17
I239
sbs(I2
I14
tp66
g1
(g10
g3
NtRp67
(dp68
g13
F9.354466979411459
sg14
I2
sg15
I01
sg16
I14
sg17
I129
sbs(I3
I3
tp69
g1
(g10
g3
NtRp70
(dp71
g13
F18.164882904043516
sg14
I3
sg15
I01
sg16
I3
sg17
I6
sbs(I1
I16
tp72
g1
(g10
g3
NtRp73
(dp74
g13
F-4.0573009754571547
sg14
I1
sg15
I01
sg16
I16
sg17
I245
sbs(I4
I4
tp75
g1
(g10
g3
NtRp76
(dp77
g13
F-1.2819126361254629
sg14
I4
sg15
I01
sg16
I4
sg17
I26
sbs(I5
I12
tp78
g1
(g10
g3
NtRp79
(dp80
g13
F-12.375026737235327
sg14
I5
sg15
I01
sg16
I12
sg17
I87
sbs(I6
I3
tp81
g1
(g10
g3
NtRp82
(dp83
g13
F-28.80745237276771
sg14
I6
sg15
I01
sg16
I3
sg17
I37
sbs(I1
I5
tp84
g1
(g10
g3
NtRp85
(dp86
g13
F1.2914390876141972
sg14
I1
sg15
I00
sg16
I5
sg17
I14
sbs(I13
I7
tp87
g1
(g10
g3
NtRp88
(dp89
g13
F8.979504269246064
sg14
I13
sg15
I01
sg16
I7
sg17
I136
sbs(I7
I2
tp90
g1
(g10
g3
NtRp91
(dp92
g13
F-28.759546665050873
sg14
I7
sg15
I01
sg16
I2
sg17
I21
sbs(I2
I2
tp93
g1
(g10
g3
NtRp94
(dp95
g13
F30
sg14
I2
sg15
I00
sg16
I2
sg17
I4
sbs(I1
I10
tp96
g1
(g10
g3
NtRp97
(dp98
g13
F1.6304522814393345
sg14
I1
sg15
I01
sg16
I10
sg17
I65
sbs(I8
I6
tp99
g1
(g10
g3
NtRp100
(dp101
g13
F-22.077368553253265
sg14
I8
sg15
I01
sg16
I6
sg17
I51
sbs(I11
I13
tp102
g1
(g10
g3
NtRp103
(dp104
g13
F-11.311641518426766
sg14
I11
sg15
I01
sg16
I13
sg17
I156
sbs(I3
I2
tp105
g1
(g10
g3
NtRp106
(dp107
g13
F20.224817346616192
sg14
I3
sg15
I01
sg16
I2
sg17
I3
sbs(I2
I6
tp108
g1
(g10
g3
NtRp109
(dp110
g13
F-23.304533305819092
sg14
I2
sg15
I00
sg16
I6
sg17
I15
sbs(I12
I14
tp111
g1
(g10
g3
NtRp112
(dp113
g13
F-8.5364066317948346
sg14
I12
sg15
I01
sg16
I14
sg17
I221
sbs(I9
I3
tp114
g1
(g10
g3
NtRp115
(dp116
g13
F9.8939603168405608
sg14
I9
sg15
I01
sg16
I3
sg17
I95
sbs(I12
I15
tp117
g1
(g10
g3
NtRp118
(dp119
g13
F3.9287784928300438
sg14
I12
sg15
I01
sg16
I15
sg17
I217
sbs(I15
I10
tp120
g1
(g10
g3
NtRp121
(dp122
g13
F-1.8369806799566333
sg14
I15
sg15
I01
sg16
I10
sg17
I189
sbs(I2
I20
tp123
g1
(g10
g3
NtRp124
(dp125
g13
F1
sg14
I2
sg15
I01
sg16
I20
sg17
I300
sbs(I12
I10
tp126
g1
(g10
g3
NtRp127
(dp128
g13
F-25.082748710985644
sg14
I12
sg15
I01
sg16
I10
sg17
I103
sbs(I4
I2
tp129
g1
(g10
g3
NtRp130
(dp131
g13
F17.830574073173306
sg14
I4
sg15
I01
sg16
I2
sg17
I8
sbs(I14
I2
tp132
g1
(g10
g3
NtRp133
(dp134
g13
F23.490306997697338
sg14
I14
sg15
I01
sg16
I2
sg17
I130
sbs(I5
I3
tp135
g1
(g10
g3
NtRp136
(dp137
g13
F1.3501998279129808
sg14
I5
sg15
I01
sg16
I3
sg17
I27
sbs(I11
I7
tp138
g1
(g10
g3
NtRp139
(dp140
g13
F-19.411257853606379
sg14
I11
sg15
I00
sg16
I7
sg17
I107
sbs(I6
I9
tp141
g1
(g10
g3
NtRp142
(dp143
g13
F20.558159872809277
sg14
I6
sg15
I01
sg16
I9
sg17
I56
sbs(I5
I10
tp144
g1
(g10
g3
NtRp145
(dp146
g13
F25.597520252993515
sg14
I5
sg15
I00
sg16
I10
sg17
I78
sbs(I16
I5
tp147
g1
(g10
g3
NtRp148
(dp149
g13
F-7.8376529946283284
sg14
I16
sg15
I01
sg16
I5
sg17
I178
sbs(I9
I2
tp150
g1
(g10
g3
NtRp151
(dp152
g13
F30
sg14
I9
sg15
I01
sg16
I2
sg17
I59
sbs(I5
I2
tp153
g1
(g10
g3
NtRp154
(dp155
g13
F-30
sg14
I5
sg15
I01
sg16
I2
sg17
I11
sbs(I16
I8
tp156
g1
(g10
g3
NtRp157
(dp158
g13
F-14.887735961006721
sg14
I16
sg15
I01
sg16
I8
sg17
I172
sbs(I14
I7
tp159
g1
(g10
g3
NtRp160
(dp161
g13
F-11.638863155676516
sg14
I14
sg15
I01
sg16
I7
sg17
I263
sbs(I11
I3
tp162
g1
(g10
g3
NtRp163
(dp164
g13
F0.9574124729068052
sg14
I11
sg15
I01
sg16
I3
sg17
I99
sbs(I12
I19
tp165
g1
(g10
g3
NtRp166
(dp167
g13
F0.40422690425063212
sg14
I12
sg15
I01
sg16
I19
sg17
I281
sbs(I3
I8
tp168
g1
(g10
g3
NtRp169
(dp170
g13
F-7.5309080027661057
sg14
I3
sg15
I00
sg16
I8
sg17
I45
sbs(I3
I18
tp171
g1
(g10
g3
NtRp172
(dp173
g13
F-0.78585614035386597
sg14
I3
sg15
I01
sg16
I18
sg17
I248
sbs(I19
I12
tp174
g1
(g10
g3
NtRp175
(dp176
g13
F2.5194769440937304
sg14
I19
sg15
I01
sg16
I12
sg17
I257
sbs(I20
I6
tp177
g1
(g10
g3
NtRp178
(dp179
g13
F-23.304533305819092
sg14
I20
sg15
I01
sg16
I6
sg17
I301
sbs(I9
I5
tp180
g1
(g10
g3
NtRp181
(dp182
g13
F2.0031498653899265
sg14
I9
sg15
I01
sg16
I5
sg17
I57
sbs(I3
I4
tp183
g1
(g10
g3
NtRp184
(dp185
g13
F3.7765438592912086
sg14
I3
sg15
I01
sg16
I4
sg17
I9
sbs(I14
I8
tp186
g1
(g10
g3
NtRp187
(dp188
g13
F-1.9603743472037782
sg14
I14
sg15
I01
sg16
I8
sg17
I132
sbs(I9
I12
tp189
g1
(g10
g3
NtRp190
(dp191
g13
F-6.7264331898530223
sg14
I9
sg15
I01
sg16
I12
sg17
I82
sbs(I10
I2
tp192
g1
(g10
g3
NtRp193
(dp194
g13
F-13.491470888332252
sg14
I10
sg15
I01
sg16
I2
sg17
I64
sbssS'_input_nodes'
p195
I1
sS'_output_nodes'
p196
I1
sS'_node_gene_type'
p197
cneat.genome
NodeGene
p198
sS'_conn_gene_type'
p199
g10
sS'fitness'
p200
F0.98830178952542524
sS'parent2_id'
p201
I7785
sS'_id'
p202
I7797
sS'parent1_id'
p203
I7783
sS'_node_genes'
p204
(lp205
g1
(g198
g3
NtRp206
(dp207
S'_bias'
p208
I0
sS'_type'
p209
S'INPUT'
p210
sg202
I1
sS'_response'
p211
F4.9242730000000003
sS'_activation_type'
p212
Nsbag1
(g198
g3
NtRp213
(dp214
g208
F-0.76104278837530037
sg209
S'OUTPUT'
p215
sg202
I2
sg211
F4.2627414322116133
sg212
S'tanh'
p216
sbag1
(g198
g3
NtRp217
(dp218
g208
F-4.6691682412093378
sg209
S'HIDDEN'
p219
sg202
I3
sg211
F15.795015215581733
sg212
g216
sbag1
(g198
g3
NtRp220
(dp221
g208
F6.2726525959576174
sg209
g219
sg202
I4
sg211
F4.0435323084911179
sg212
g216
sbag1
(g198
g3
NtRp222
(dp223
g208
F-4.4902924473301304
sg209
g219
sg202
I5
sg211
F-7.1107134094059647
sg212
g216
sbag1
(g198
g3
NtRp224
(dp225
g208
F-4.7010460924054804
sg209
g219
sg202
I6
sg211
F-0.85336552543649224
sg212
g216
sbag1
(g198
g3
NtRp226
(dp227
g208
F6.3939569867082504
sg209
g219
sg202
I7
sg211
F5.3618396567016591
sg212
g216
sbag1
(g198
g3
NtRp228
(dp229
g208
F-5.4622458122935713
sg209
g219
sg202
I8
sg211
F10.783598550374426
sg212
g216
sbag1
(g198
g3
NtRp230
(dp231
g208
F0.94240529129062189
sg209
g219
sg202
I9
sg211
F3.0707310298064576
sg212
g216
sbag1
(g198
g3
NtRp232
(dp233
g208
F-0.31146138532793877
sg209
g219
sg202
I10
sg211
F6.4790101585066395
sg212
g216
sbag1
(g198
g3
NtRp234
(dp235
g208
F-0.50867155719586654
sg209
g219
sg202
I11
sg211
F2.5650684461414053
sg212
g216
sbag1
(g198
g3
NtRp236
(dp237
g208
F2.9662351075043567
sg209
g219
sg202
I12
sg211
F6.0228177263483955
sg212
g216
sbag1
(g198
g3
NtRp238
(dp239
g208
F2.2003524430078185
sg209
g219
sg202
I13
sg211
F7.0182110748249125
sg212
g216
sbag1
(g198
g3
NtRp240
(dp241
g208
F-1.1460146374853759
sg209
g219
sg202
I14
sg211
F4.345098721777684
sg212
g216
sbag1
(g198
g3
NtRp242
(dp243
g208
F1.5955246327250394
sg209
g219
sg202
I15
sg211
F4.2811953416783064
sg212
g216
sbag1
(g198
g3
NtRp244
(dp245
g208
F-3.6845521110690824
sg209
g219
sg202
I16
sg211
F5.5244319516360232
sg212
g216
sbag1
(g198
g3
NtRp246
(dp247
g208
F-0.6956665543776871
sg209
g219
sg202
I17
sg211
F4.1679994372648679
sg212
g216
sbag1
(g198
g3
NtRp248
(dp249
g208
F0.83583874807079817
sg209
g219
sg202
I18
sg211
F5.1181930555442197
sg212
g216
sbag1
(g198
g3
NtRp250
(dp251
g208
F1.5291749147595255
sg209
g219
sg202
I19
sg211
F4.9242730000000003
sg212
g216
sbag1
(g198
g3
NtRp252
(dp253
g208
I0
sg209
g219
sg202
I20
sg211
F4.9242730000000003
sg212
g216
sbasb.