ccopy_reg
_reconstructor
p1
(cneat.chromosome
Chromosome
p2
c__builtin__
object
p3
NtRp4
(dp5
S'species_id'
p6
I57
sS'_connection_genes'
p7
(dp8
(I4
I7
tp9
g1
(cneat.genome
ConnectionGene
p10
g3
NtRp11
(dp12
S'_ConnectionGene__weight'
p13
F-4.1112173289935878
sS'_ConnectionGene__in'
p14
I4
sS'_ConnectionGene__enabled'
p15
I01
sS'_ConnectionGene__out'
p16
I7
sS'_ConnectionGene__innov_number'
p17
I29
sbs(I1
I3
tp18
g1
(g10
g3
NtRp19
(dp20
g13
F4.9219914094779504
sg14
I1
sg15
I01
sg16
I3
sg17
I2
sbs(I8
I13
tp21
g1
(g10
g3
NtRp22
(dp23
g13
F0.71211042620759812
sg14
I8
sg15
I01
sg16
I13
sg17
I124
sbs(I3
I8
tp24
g1
(g10
g3
NtRp25
(dp26
g13
F-2.6394555456179241
sg14
I3
sg15
I01
sg16
I8
sg17
I45
sbs(I6
I6
tp27
g1
(g10
g3
NtRp28
(dp29
g13
F4.3171116735841544
sg14
I6
sg15
I01
sg16
I6
sg17
I34
sbs(I7
I12
tp30
g1
(g10
g3
NtRp31
(dp32
g13
F-17.269275649262052
sg14
I7
sg15
I01
sg16
I12
sg17
I102
sbs(I2
I8
tp33
g1
(g10
g3
NtRp34
(dp35
g13
F-18.12266458430889
sg14
I2
sg15
I01
sg16
I8
sg17
I46
sbs(I12
I12
tp36
g1
(g10
g3
NtRp37
(dp38
g13
F10.226386440044006
sg14
I12
sg15
I01
sg16
I12
sg17
I160
sbs(I3
I11
tp39
g1
(g10
g3
NtRp40
(dp41
g13
F-17.554574767041537
sg14
I3
sg15
I01
sg16
I11
sg17
I98
sbs(I8
I9
tp42
g1
(g10
g3
NtRp43
(dp44
g13
F-14.808579493150058
sg14
I8
sg15
I01
sg16
I9
sg17
I61
sbs(I6
I2
tp45
g1
(g10
g3
NtRp46
(dp47
g13
F5.6912830274708686
sg14
I6
sg15
I01
sg16
I2
sg17
I23
sbs(I2
I5
tp48
g1
(g10
g3
NtRp49
(dp50
g13
F-26.083834162605935
sg14
I2
sg15
I01
sg16
I5
sg17
I10
sbs(I6
I9
tp51
g1
(g10
g3
NtRp52
(dp53
g13
F13.468876585485511
sg14
I6
sg15
I01
sg16
I9
sg17
I56
sbs(I7
I2
tp54
g1
(g10
g3
NtRp55
(dp56
g13
F-22.040560080673913
sg14
I7
sg15
I01
sg16
I2
sg17
I21
sbs(I1
I2
tp57
g1
(g10
g3
NtRp58
(dp59
g13
F10.134337038617891
sg14
I1
sg15
I01
sg16
I2
sg17
I1
sbs(I17
I2
tp60
g1
(g10
g3
NtRp61
(dp62
g13
F-23.298842596755886
sg14
I17
sg15
I01
sg16
I2
sg17
I239
sbs(I14
I2
tp63
g1
(g10
g3
NtRp64
(dp65
g13
F15.954815901540716
sg14
I14
sg15
I01
sg16
I2
sg17
I130
sbs(I3
I3
tp66
g1
(g10
g3
NtRp67
(dp68
g13
F10.901731050397897
sg14
I3
sg15
I01
sg16
I3
sg17
I6
sbs(I5
I12
tp69
g1
(g10
g3
NtRp70
(dp71
g13
F7.035070218614119
sg14
I5
sg15
I01
sg16
I12
sg17
I87
sbs(I3
I4
tp72
g1
(g10
g3
NtRp73
(dp74
g13
F7.5065045282447054
sg14
I3
sg15
I01
sg16
I4
sg17
I9
sbs(I6
I3
tp75
g1
(g10
g3
NtRp76
(dp77
g13
F-27.360038353675492
sg14
I6
sg15
I01
sg16
I3
sg17
I37
sbs(I1
I5
tp78
g1
(g10
g3
NtRp79
(dp80
g13
F11.174624918972965
sg14
I1
sg15
I00
sg16
I5
sg17
I14
sbs(I13
I7
tp81
g1
(g10
g3
NtRp82
(dp83
g13
F1.3283794086014691
sg14
I13
sg15
I01
sg16
I7
sg17
I136
sbs(I3
I14
tp84
g1
(g10
g3
NtRp85
(dp86
g13
F-8.3620115363574996
sg14
I3
sg15
I01
sg16
I14
sg17
I157
sbs(I2
I2
tp87
g1
(g10
g3
NtRp88
(dp89
g13
F16.571734827502738
sg14
I2
sg15
I00
sg16
I2
sg17
I4
sbs(I1
I10
tp90
g1
(g10
g3
NtRp91
(dp92
g13
F-5.717229797809134
sg14
I1
sg15
I01
sg16
I10
sg17
I65
sbs(I8
I6
tp93
g1
(g10
g3
NtRp94
(dp95
g13
F-30
sg14
I8
sg15
I01
sg16
I6
sg17
I51
sbs(I11
I13
tp96
g1
(g10
g3
NtRp97
(dp98
g13
F-27.797105268454033
sg14
I11
sg15
I01
sg16
I13
sg17
I156
sbs(I3
I2
tp99
g1
(g10
g3
NtRp100
(dp101
g13
F6.0067548889845437
sg14
I3
sg15
I01
sg16
I2
sg17
I3
sbs(I2
I6
tp102
g1
(g10
g3
NtRp103
(dp104
g13
F-27.793519706635134
sg14
I2
sg15
I01
sg16
I6
sg17
I15
sbs(I12
I14
tp105
g1
(g10
g3
NtRp106
(dp107
g13
F-6.8513366510670295
sg14
I12
sg15
I01
sg16
I14
sg17
I221
sbs(I9
I3
tp108
g1
(g10
g3
NtRp109
(dp110
g13
F19.05507232033651
sg14
I9
sg15
I01
sg16
I3
sg17
I95
sbs(I15
I10
tp111
g1
(g10
g3
NtRp112
(dp113
g13
F-12.93497165484755
sg14
I15
sg15
I01
sg16
I10
sg17
I189
sbs(I12
I10
tp114
g1
(g10
g3
NtRp115
(dp116
g13
F-18.345964443746936
sg14
I12
sg15
I00
sg16
I10
sg17
I103
sbs(I4
I2
tp117
g1
(g10
g3
NtRp118
(dp119
g13
F6.9467442107673394
sg14
I4
sg15
I01
sg16
I2
sg17
I8
sbs(I2
I14
tp120
g1
(g10
g3
NtRp121
(dp122
g13
F11.270843251637544
sg14
I2
sg15
I01
sg16
I14
sg17
I129
sbs(I5
I3
tp123
g1
(g10
g3
NtRp124
(dp125
g13
F2.8187458634268472
sg14
I5
sg15
I01
sg16
I3
sg17
I27
sbs(I11
I7
tp126
g1
(g10
g3
NtRp127
(dp128
g13
F-30
sg14
I11
sg15
I00
sg16
I7
sg17
I107
sbs(I12
I15
tp129
g1
(g10
g3
NtRp130
(dp131
g13
F8.3980737139050365
sg14
I12
sg15
I01
sg16
I15
sg17
I217
sbs(I5
I10
tp132
g1
(g10
g3
NtRp133
(dp134
g13
F11.752960855273779
sg14
I5
sg15
I00
sg16
I10
sg17
I78
sbs(I16
I5
tp135
g1
(g10
g3
NtRp136
(dp137
g13
F-5.6508001688675122
sg14
I16
sg15
I01
sg16
I5
sg17
I178
sbs(I9
I2
tp138
g1
(g10
g3
NtRp139
(dp140
g13
F27.297531326599323
sg14
I9
sg15
I01
sg16
I2
sg17
I59
sbs(I5
I2
tp141
g1
(g10
g3
NtRp142
(dp143
g13
F-27.801709520422488
sg14
I5
sg15
I01
sg16
I2
sg17
I11
sbs(I16
I8
tp144
g1
(g10
g3
NtRp145
(dp146
g13
F5.2029898783489772
sg14
I16
sg15
I01
sg16
I8
sg17
I172
sbs(I14
I7
tp147
g1
(g10
g3
NtRp148
(dp149
g13
F-6.6919560957868081
sg14
I14
sg15
I01
sg16
I7
sg17
I263
sbs(I11
I3
tp150
g1
(g10
g3
NtRp151
(dp152
g13
F-12.974938082214987
sg14
I11
sg15
I01
sg16
I3
sg17
I99
sbs(I7
I4
tp153
g1
(g10
g3
NtRp154
(dp155
g13
F-5.1064620338674738
sg14
I7
sg15
I01
sg16
I4
sg17
I32
sbs(I7
I17
tp156
g1
(g10
g3
NtRp157
(dp158
g13
F1.846415773572484
sg14
I7
sg15
I01
sg16
I17
sg17
I238
sbs(I9
I5
tp159
g1
(g10
g3
NtRp160
(dp161
g13
F-9.379141706998702
sg14
I9
sg15
I01
sg16
I5
sg17
I57
sbs(I7
I8
tp162
g1
(g10
g3
NtRp163
(dp164
g13
F8.2153628788697795
sg14
I7
sg15
I01
sg16
I8
sg17
I52
sbs(I1
I16
tp165
g1
(g10
g3
NtRp166
(dp167
g13
F-0.59478835989943102
sg14
I1
sg15
I01
sg16
I16
sg17
I245
sbs(I9
I12
tp168
g1
(g10
g3
NtRp169
(dp170
g13
F0.79163962221064388
sg14
I9
sg15
I01
sg16
I12
sg17
I82
sbs(I10
I2
tp171
g1
(g10
g3
NtRp172
(dp173
g13
F-13.522604720736483
sg14
I10
sg15
I01
sg16
I2
sg17
I64
sbssS'_input_nodes'
p174
I1
sS'_output_nodes'
p175
I1
sS'_node_gene_type'
p176
cneat.genome
NodeGene
p177
sS'_conn_gene_type'
p178
g10
sS'fitness'
p179
F0.97536611616375724
sS'parent2_id'
p180
I7226
sS'_id'
p181
I7246
sS'parent1_id'
p182
I7226
sS'_node_genes'
p183
(lp184
g1
(g177
g3
NtRp185
(dp186
S'_bias'
p187
I0
sS'_type'
p188
S'INPUT'
p189
sg181
I1
sS'_response'
p190
F4.9242730000000003
sS'_activation_type'
p191
Nsbag1
(g177
g3
NtRp192
(dp193
g187
F-0.57307638944864092
sg188
S'OUTPUT'
p194
sg181
I2
sg190
F4.7539568171558786
sg191
S'tanh'
p195
sbag1
(g177
g3
NtRp196
(dp197
g187
F-5.1183667645796884
sg188
S'HIDDEN'
p198
sg181
I3
sg190
F12.615462618510019
sg191
g195
sbag1
(g177
g3
NtRp199
(dp200
g187
F6.5882130027671266
sg188
g198
sg181
I4
sg190
F4.7605786671298835
sg191
g195
sbag1
(g177
g3
NtRp201
(dp202
g187
F-3.4176559685016237
sg188
g198
sg181
I5
sg190
F-7.4547146222456453
sg191
g195
sbag1
(g177
g3
NtRp203
(dp204
g187
F-2.4954843597035286
sg188
g198
sg181
I6
sg190
F0.17260795027386477
sg191
g195
sbag1
(g177
g3
NtRp205
(dp206
g187
F3.0962865203264425
sg188
g198
sg181
I7
sg190
F6.8626087535663309
sg191
g195
sbag1
(g177
g3
NtRp207
(dp208
g187
F-4.7155125320410924
sg188
g198
sg181
I8
sg190
F10.346897048922896
sg191
g195
sbag1
(g177
g3
NtRp209
(dp210
g187
F3.6669604446526165
sg188
g198
sg181
I9
sg190
F4.8028122366704427
sg191
g195
sbag1
(g177
g3
NtRp211
(dp212
g187
F-0.056626844839891555
sg188
g198
sg181
I10
sg190
F7.0066871086447158
sg191
g195
sbag1
(g177
g3
NtRp213
(dp214
g187
F0.55265876070844544
sg188
g198
sg181
I11
sg190
F2.6828324413623803
sg191
g195
sbag1
(g177
g3
NtRp215
(dp216
g187
F1.8631092648177863
sg188
g198
sg181
I12
sg190
F5.9748673523686087
sg191
g195
sbag1
(g177
g3
NtRp217
(dp218
g187
F1.4677683605001683
sg188
g198
sg181
I13
sg190
F7.6982069598332634
sg191
g195
sbag1
(g177
g3
NtRp219
(dp220
g187
F-1.592168212701675
sg188
g198
sg181
I14
sg190
F4.2833989984330909
sg191
g195
sbag1
(g177
g3
NtRp221
(dp222
g187
F0.16581343165166024
sg188
g198
sg181
I15
sg190
F4.7876043601262372
sg191
g195
sbag1
(g177
g3
NtRp223
(dp224
g187
F-3.604765553706347
sg188
g198
sg181
I16
sg190
F5.4263552864266744
sg191
g195
sbag1
(g177
g3
NtRp225
(dp226
g187
F0.4379889610330876
sg188
g198
sg181
I17
sg190
F4.5098536200831401
sg191
g195
sbasb.