ccopy_reg
_reconstructor
p1
(cneat.chromosome
Chromosome
p2
c__builtin__
object
p3
NtRp4
(dp5
S'species_id'
p6
I54
sS'_connection_genes'
p7
(dp8
(I4
I7
tp9
g1
(cneat.genome
ConnectionGene
p10
g3
NtRp11
(dp12
S'_ConnectionGene__weight'
p13
F-0.93081646327189871
sS'_ConnectionGene__in'
p14
I4
sS'_ConnectionGene__enabled'
p15
I01
sS'_ConnectionGene__out'
p16
I7
sS'_ConnectionGene__innov_number'
p17
I29
sbs(I1
I3
tp18
g1
(g10
g3
NtRp19
(dp20
g13
F6.1006766212888586
sg14
I1
sg15
I01
sg16
I3
sg17
I2
sbs(I8
I13
tp21
g1
(g10
g3
NtRp22
(dp23
g13
F2.464178374920504
sg14
I8
sg15
I01
sg16
I13
sg17
I124
sbs(I6
I6
tp24
g1
(g10
g3
NtRp25
(dp26
g13
F9.2909531460207084
sg14
I6
sg15
I01
sg16
I6
sg17
I34
sbs(I7
I12
tp27
g1
(g10
g3
NtRp28
(dp29
g13
F-3.1342164564387867
sg14
I7
sg15
I01
sg16
I12
sg17
I102
sbs(I2
I8
tp30
g1
(g10
g3
NtRp31
(dp32
g13
F-12.895936022759889
sg14
I2
sg15
I01
sg16
I8
sg17
I46
sbs(I12
I12
tp33
g1
(g10
g3
NtRp34
(dp35
g13
F14.31595916500989
sg14
I12
sg15
I01
sg16
I12
sg17
I160
sbs(I3
I11
tp36
g1
(g10
g3
NtRp37
(dp38
g13
F-20.889182647065279
sg14
I3
sg15
I01
sg16
I11
sg17
I98
sbs(I8
I9
tp39
g1
(g10
g3
NtRp40
(dp41
g13
F-16.572091721957083
sg14
I8
sg15
I01
sg16
I9
sg17
I61
sbs(I6
I2
tp42
g1
(g10
g3
NtRp43
(dp44
g13
F2.3799846694587261
sg14
I6
sg15
I01
sg16
I2
sg17
I23
sbs(I2
I5
tp45
g1
(g10
g3
NtRp46
(dp47
g13
F-22.039908837399139
sg14
I2
sg15
I01
sg16
I5
sg17
I10
sbs(I6
I9
tp48
g1
(g10
g3
NtRp49
(dp50
g13
F7.7155203088727173
sg14
I6
sg15
I01
sg16
I9
sg17
I56
sbs(I7
I2
tp51
g1
(g10
g3
NtRp52
(dp53
g13
F-24.40377870755723
sg14
I7
sg15
I01
sg16
I2
sg17
I21
sbs(I1
I2
tp54
g1
(g10
g3
NtRp55
(dp56
g13
F9.2001319351220516
sg14
I1
sg15
I01
sg16
I2
sg17
I1
sbs(I14
I2
tp57
g1
(g10
g3
NtRp58
(dp59
g13
F15.441846513913115
sg14
I14
sg15
I01
sg16
I2
sg17
I130
sbs(I3
I3
tp60
g1
(g10
g3
NtRp61
(dp62
g13
F5.5368089234746716
sg14
I3
sg15
I01
sg16
I3
sg17
I6
sbs(I5
I12
tp63
g1
(g10
g3
NtRp64
(dp65
g13
F-1.7601389754710364
sg14
I5
sg15
I01
sg16
I12
sg17
I87
sbs(I3
I4
tp66
g1
(g10
g3
NtRp67
(dp68
g13
F5.0928353155507065
sg14
I3
sg15
I01
sg16
I4
sg17
I9
sbs(I6
I3
tp69
g1
(g10
g3
NtRp70
(dp71
g13
F-24.696486374445961
sg14
I6
sg15
I01
sg16
I3
sg17
I37
sbs(I1
I5
tp72
g1
(g10
g3
NtRp73
(dp74
g13
F4.9426482674395027
sg14
I1
sg15
I00
sg16
I5
sg17
I14
sbs(I13
I7
tp75
g1
(g10
g3
NtRp76
(dp77
g13
F6.7334677475552613
sg14
I13
sg15
I01
sg16
I7
sg17
I136
sbs(I3
I14
tp78
g1
(g10
g3
NtRp79
(dp80
g13
F-7.7019603082307428
sg14
I3
sg15
I01
sg16
I14
sg17
I157
sbs(I2
I2
tp81
g1
(g10
g3
NtRp82
(dp83
g13
F16.437373079629094
sg14
I2
sg15
I00
sg16
I2
sg17
I4
sbs(I1
I10
tp84
g1
(g10
g3
NtRp85
(dp86
g13
F-7.7140849249632319
sg14
I1
sg15
I01
sg16
I10
sg17
I65
sbs(I8
I6
tp87
g1
(g10
g3
NtRp88
(dp89
g13
F-27.459670010972708
sg14
I8
sg15
I01
sg16
I6
sg17
I51
sbs(I11
I13
tp90
g1
(g10
g3
NtRp91
(dp92
g13
F-29.404006778584286
sg14
I11
sg15
I01
sg16
I13
sg17
I156
sbs(I3
I2
tp93
g1
(g10
g3
NtRp94
(dp95
g13
F13.871868162648646
sg14
I3
sg15
I00
sg16
I2
sg17
I3
sbs(I2
I6
tp96
g1
(g10
g3
NtRp97
(dp98
g13
F-21.21445728642637
sg14
I2
sg15
I01
sg16
I6
sg17
I15
sbs(I12
I14
tp99
g1
(g10
g3
NtRp100
(dp101
g13
F-0.40599266247298615
sg14
I12
sg15
I01
sg16
I14
sg17
I221
sbs(I9
I3
tp102
g1
(g10
g3
NtRp103
(dp104
g13
F9.3717906412796381
sg14
I9
sg15
I01
sg16
I3
sg17
I95
sbs(I15
I10
tp105
g1
(g10
g3
NtRp106
(dp107
g13
F-20.979199992356769
sg14
I15
sg15
I01
sg16
I10
sg17
I189
sbs(I12
I10
tp108
g1
(g10
g3
NtRp109
(dp110
g13
F-30
sg14
I12
sg15
I00
sg16
I10
sg17
I103
sbs(I4
I2
tp111
g1
(g10
g3
NtRp112
(dp113
g13
F9.6332917095332338
sg14
I4
sg15
I01
sg16
I2
sg17
I8
sbs(I2
I14
tp114
g1
(g10
g3
NtRp115
(dp116
g13
F0.13248428847788762
sg14
I2
sg15
I01
sg16
I14
sg17
I129
sbs(I5
I3
tp117
g1
(g10
g3
NtRp118
(dp119
g13
F5.4830606593514988
sg14
I5
sg15
I01
sg16
I3
sg17
I27
sbs(I11
I7
tp120
g1
(g10
g3
NtRp121
(dp122
g13
F-25.454629126709982
sg14
I11
sg15
I00
sg16
I7
sg17
I107
sbs(I12
I15
tp123
g1
(g10
g3
NtRp124
(dp125
g13
F-3.1431857907839125
sg14
I12
sg15
I01
sg16
I15
sg17
I217
sbs(I5
I10
tp126
g1
(g10
g3
NtRp127
(dp128
g13
F12.062608467013549
sg14
I5
sg15
I00
sg16
I10
sg17
I78
sbs(I16
I5
tp129
g1
(g10
g3
NtRp130
(dp131
g13
F-6.710720514371995
sg14
I16
sg15
I01
sg16
I5
sg17
I178
sbs(I9
I2
tp132
g1
(g10
g3
NtRp133
(dp134
g13
F22.700461169338453
sg14
I9
sg15
I01
sg16
I2
sg17
I59
sbs(I5
I2
tp135
g1
(g10
g3
NtRp136
(dp137
g13
F-29.086279375270763
sg14
I5
sg15
I01
sg16
I2
sg17
I11
sbs(I16
I8
tp138
g1
(g10
g3
NtRp139
(dp140
g13
F1.272735492020445
sg14
I16
sg15
I01
sg16
I8
sg17
I172
sbs(I14
I7
tp141
g1
(g10
g3
NtRp142
(dp143
g13
F0.41808821848792588
sg14
I14
sg15
I01
sg16
I7
sg17
I263
sbs(I11
I3
tp144
g1
(g10
g3
NtRp145
(dp146
g13
F-13.736852709790409
sg14
I11
sg15
I01
sg16
I3
sg17
I99
sbs(I3
I8
tp147
g1
(g10
g3
NtRp148
(dp149
g13
F6.5724296681912167
sg14
I3
sg15
I01
sg16
I8
sg17
I45
sbs(I9
I5
tp150
g1
(g10
g3
NtRp151
(dp152
g13
F-5.7135387532268753
sg14
I9
sg15
I01
sg16
I5
sg17
I57
sbs(I7
I8
tp153
g1
(g10
g3
NtRp154
(dp155
g13
F1.1636263667082383
sg14
I7
sg15
I01
sg16
I8
sg17
I52
sbs(I1
I16
tp156
g1
(g10
g3
NtRp157
(dp158
g13
F-2.3192797221009585
sg14
I1
sg15
I01
sg16
I16
sg17
I245
sbs(I9
I12
tp159
g1
(g10
g3
NtRp160
(dp161
g13
F2.2768991224260997
sg14
I9
sg15
I01
sg16
I12
sg17
I82
sbs(I10
I2
tp162
g1
(g10
g3
NtRp163
(dp164
g13
F-16.506432876700902
sg14
I10
sg15
I01
sg16
I2
sg17
I64
sbssS'_input_nodes'
p165
I1
sS'_output_nodes'
p166
I1
sS'_node_gene_type'
p167
cneat.genome
NodeGene
p168
sS'_conn_gene_type'
p169
g10
sS'fitness'
p170
F0.85560759046584944
sS'parent2_id'
p171
I6872
sS'_id'
p172
I6886
sS'parent1_id'
p173
I6872
sS'_node_genes'
p174
(lp175
g1
(g168
g3
NtRp176
(dp177
S'_bias'
p178
I0
sS'_type'
p179
S'INPUT'
p180
sg172
I1
sS'_response'
p181
F4.9242730000000003
sS'_activation_type'
p182
Nsbag1
(g168
g3
NtRp183
(dp184
g178
F0.11521376139803513
sg179
S'OUTPUT'
p185
sg172
I2
sg181
F5.5727103282122794
sg182
S'tanh'
p186
sbag1
(g168
g3
NtRp187
(dp188
g178
F-3.5549968100827503
sg179
S'HIDDEN'
p189
sg172
I3
sg181
F14.153965531000113
sg182
g186
sbag1
(g168
g3
NtRp190
(dp191
g178
F5.6926130223877296
sg179
g189
sg172
I4
sg181
F4.2115180728394686
sg182
g186
sbag1
(g168
g3
NtRp192
(dp193
g178
F-3.4967957277267714
sg179
g189
sg172
I5
sg181
F-6.2093116273681472
sg182
g186
sbag1
(g168
g3
NtRp194
(dp195
g178
F-2.8525974814674662
sg179
g189
sg172
I6
sg181
F0.97651816420678905
sg182
g186
sbag1
(g168
g3
NtRp196
(dp197
g178
F3.2902918410684259
sg179
g189
sg172
I7
sg181
F6.8626087535663309
sg182
g186
sbag1
(g168
g3
NtRp198
(dp199
g178
F-5.294710724484939
sg179
g189
sg172
I8
sg181
F10.471376235668156
sg182
g186
sbag1
(g168
g3
NtRp200
(dp201
g178
F4.206730504243346
sg179
g189
sg172
I9
sg181
F3.6685974484645767
sg182
g186
sbag1
(g168
g3
NtRp202
(dp203
g178
F-0.86895213166559881
sg179
g189
sg172
I10
sg181
F8.3390831595130077
sg182
g186
sbag1
(g168
g3
NtRp204
(dp205
g178
F-0.53988873443139906
sg179
g189
sg172
I11
sg181
F2.2141266336971701
sg182
g186
sbag1
(g168
g3
NtRp206
(dp207
g178
F2.7192582907085194
sg179
g189
sg172
I12
sg181
F5.3242599862388733
sg182
g186
sbag1
(g168
g3
NtRp208
(dp209
g178
F1.1390272470503147
sg179
g189
sg172
I13
sg181
F7.9378131818147946
sg182
g186
sbag1
(g168
g3
NtRp210
(dp211
g178
F-1.1390686760870583
sg179
g189
sg172
I14
sg181
F4.315799870642234
sg182
g186
sbag1
(g168
g3
NtRp212
(dp213
g178
F0.95614905612062917
sg179
g189
sg172
I15
sg181
F4.2839059443388079
sg182
g186
sbag1
(g168
g3
NtRp214
(dp215
g178
F-2.9142734717599499
sg179
g189
sg172
I16
sg181
F3.8880680151333844
sg182
g186
sbasb.