ccopy_reg
_reconstructor
p1
(cneat.chromosome
Chromosome
p2
c__builtin__
object
p3
NtRp4
(dp5
S'species_id'
p6
I47
sS'_connection_genes'
p7
(dp8
(I7
I8
tp9
g1
(cneat.genome
ConnectionGene
p10
g3
NtRp11
(dp12
S'_ConnectionGene__weight'
p13
F9.2945211570081945
sS'_ConnectionGene__in'
p14
I7
sS'_ConnectionGene__enabled'
p15
I01
sS'_ConnectionGene__out'
p16
I8
sS'_ConnectionGene__innov_number'
p17
I52
sbs(I4
I7
tp18
g1
(g10
g3
NtRp19
(dp20
g13
F-2.3899510157513673
sg14
I4
sg15
I01
sg16
I7
sg17
I29
sbs(I1
I3
tp21
g1
(g10
g3
NtRp22
(dp23
g13
F4.0740464996750241
sg14
I1
sg15
I01
sg16
I3
sg17
I2
sbs(I6
I6
tp24
g1
(g10
g3
NtRp25
(dp26
g13
F1.5958160792335574
sg14
I6
sg15
I01
sg16
I6
sg17
I34
sbs(I7
I12
tp27
g1
(g10
g3
NtRp28
(dp29
g13
F-6.6283508299343055
sg14
I7
sg15
I01
sg16
I12
sg17
I102
sbs(I2
I8
tp30
g1
(g10
g3
NtRp31
(dp32
g13
F-20.75261867463043
sg14
I2
sg15
I01
sg16
I8
sg17
I46
sbs(I12
I12
tp33
g1
(g10
g3
NtRp34
(dp35
g13
F5.6015773891283933
sg14
I12
sg15
I01
sg16
I12
sg17
I160
sbs(I3
I11
tp36
g1
(g10
g3
NtRp37
(dp38
g13
F-5.6331873005225308
sg14
I3
sg15
I01
sg16
I11
sg17
I98
sbs(I8
I9
tp39
g1
(g10
g3
NtRp40
(dp41
g13
F-30
sg14
I8
sg15
I01
sg16
I9
sg17
I61
sbs(I6
I2
tp42
g1
(g10
g3
NtRp43
(dp44
g13
F7.0899192997741993
sg14
I6
sg15
I01
sg16
I2
sg17
I23
sbs(I2
I5
tp45
g1
(g10
g3
NtRp46
(dp47
g13
F-17.063795193131707
sg14
I2
sg15
I01
sg16
I5
sg17
I10
sbs(I3
I14
tp48
g1
(g10
g3
NtRp49
(dp50
g13
F-6.4220368309646663
sg14
I3
sg15
I01
sg16
I14
sg17
I157
sbs(I1
I2
tp51
g1
(g10
g3
NtRp52
(dp53
g13
F-12.916652855852851
sg14
I1
sg15
I01
sg16
I2
sg17
I1
sbs(I2
I14
tp54
g1
(g10
g3
NtRp55
(dp56
g13
F6.220459836936044
sg14
I2
sg15
I01
sg16
I14
sg17
I129
sbs(I3
I3
tp57
g1
(g10
g3
NtRp58
(dp59
g13
F5.7536632494129769
sg14
I3
sg15
I01
sg16
I3
sg17
I6
sbs(I5
I12
tp60
g1
(g10
g3
NtRp61
(dp62
g13
F-3.0587505056368594
sg14
I5
sg15
I01
sg16
I12
sg17
I87
sbs(I6
I3
tp63
g1
(g10
g3
NtRp64
(dp65
g13
F-13.521590872913976
sg14
I6
sg15
I01
sg16
I3
sg17
I37
sbs(I1
I5
tp66
g1
(g10
g3
NtRp67
(dp68
g13
F-15.787829826954185
sg14
I1
sg15
I01
sg16
I5
sg17
I14
sbs(I13
I7
tp69
g1
(g10
g3
NtRp70
(dp71
g13
F9.5621095516102912
sg14
I13
sg15
I01
sg16
I7
sg17
I136
sbs(I7
I2
tp72
g1
(g10
g3
NtRp73
(dp74
g13
F-15.153828102467529
sg14
I7
sg15
I01
sg16
I2
sg17
I21
sbs(I2
I2
tp75
g1
(g10
g3
NtRp76
(dp77
g13
F8.5080295058412787
sg14
I2
sg15
I00
sg16
I2
sg17
I4
sbs(I1
I10
tp78
g1
(g10
g3
NtRp79
(dp80
g13
F-2.5783884997019433
sg14
I1
sg15
I01
sg16
I10
sg17
I65
sbs(I8
I6
tp81
g1
(g10
g3
NtRp82
(dp83
g13
F-24.113427832296317
sg14
I8
sg15
I01
sg16
I6
sg17
I51
sbs(I11
I13
tp84
g1
(g10
g3
NtRp85
(dp86
g13
F-28.026551134058288
sg14
I11
sg15
I01
sg16
I13
sg17
I156
sbs(I3
I2
tp87
g1
(g10
g3
NtRp88
(dp89
g13
F6.2704513342432389
sg14
I3
sg15
I00
sg16
I2
sg17
I3
sbs(I2
I6
tp90
g1
(g10
g3
NtRp91
(dp92
g13
F-27.789281501806759
sg14
I2
sg15
I01
sg16
I6
sg17
I15
sbs(I9
I3
tp93
g1
(g10
g3
NtRp94
(dp95
g13
F6.6154836944578674
sg14
I9
sg15
I01
sg16
I3
sg17
I95
sbs(I12
I10
tp96
g1
(g10
g3
NtRp97
(dp98
g13
F-23.717539863027174
sg14
I12
sg15
I01
sg16
I10
sg17
I103
sbs(I4
I2
tp99
g1
(g10
g3
NtRp100
(dp101
g13
F-9.3359143098845347
sg14
I4
sg15
I01
sg16
I2
sg17
I8
sbs(I14
I2
tp102
g1
(g10
g3
NtRp103
(dp104
g13
F10.775604849771671
sg14
I14
sg15
I01
sg16
I2
sg17
I130
sbs(I11
I7
tp105
g1
(g10
g3
NtRp106
(dp107
g13
F-14.844076863796975
sg14
I11
sg15
I00
sg16
I7
sg17
I107
sbs(I6
I9
tp108
g1
(g10
g3
NtRp109
(dp110
g13
F3.1432059978839653
sg14
I6
sg15
I01
sg16
I9
sg17
I56
sbs(I5
I10
tp111
g1
(g10
g3
NtRp112
(dp113
g13
F6.5427723386870706
sg14
I5
sg15
I00
sg16
I10
sg17
I78
sbs(I9
I2
tp114
g1
(g10
g3
NtRp115
(dp116
g13
F24.740849843083744
sg14
I9
sg15
I01
sg16
I2
sg17
I59
sbs(I5
I2
tp117
g1
(g10
g3
NtRp118
(dp119
g13
F-30
sg14
I5
sg15
I01
sg16
I2
sg17
I11
sbs(I11
I3
tp120
g1
(g10
g3
NtRp121
(dp122
g13
F-3.8517524403532226
sg14
I11
sg15
I01
sg16
I3
sg17
I99
sbs(I3
I8
tp123
g1
(g10
g3
NtRp124
(dp125
g13
F4.8091288234095169
sg14
I3
sg15
I01
sg16
I8
sg17
I45
sbs(I9
I5
tp126
g1
(g10
g3
NtRp127
(dp128
g13
F1.706052941796147
sg14
I9
sg15
I01
sg16
I5
sg17
I57
sbs(I3
I4
tp129
g1
(g10
g3
NtRp130
(dp131
g13
F1.8198009350517919
sg14
I3
sg15
I01
sg16
I4
sg17
I9
sbs(I9
I12
tp132
g1
(g10
g3
NtRp133
(dp134
g13
F-9.2738996653155041
sg14
I9
sg15
I01
sg16
I12
sg17
I82
sbs(I10
I2
tp135
g1
(g10
g3
NtRp136
(dp137
g13
F-5.622478749685822
sg14
I10
sg15
I01
sg16
I2
sg17
I64
sbssS'_input_nodes'
p138
I1
sS'_output_nodes'
p139
I1
sS'_node_gene_type'
p140
cneat.genome
NodeGene
p141
sS'_conn_gene_type'
p142
g10
sS'fitness'
p143
F0.86975171697483555
sS'parent2_id'
p144
I5966
sS'_id'
p145
I5992
sS'parent1_id'
p146
I5966
sS'_node_genes'
p147
(lp148
g1
(g141
g3
NtRp149
(dp150
S'_bias'
p151
I0
sS'_type'
p152
S'INPUT'
p153
sg145
I1
sS'_response'
p154
F4.9242730000000003
sS'_activation_type'
p155
Nsbag1
(g141
g3
NtRp156
(dp157
g151
F0.45319121155479014
sg152
S'OUTPUT'
p158
sg145
I2
sg154
F4.2298628924725294
sg155
S'tanh'
p159
sbag1
(g141
g3
NtRp160
(dp161
g151
F-2.3739965026596139
sg152
S'HIDDEN'
p162
sg145
I3
sg154
F13.471262110120042
sg155
g159
sbag1
(g141
g3
NtRp163
(dp164
g151
F4.1187200027895008
sg152
g162
sg145
I4
sg154
F3.9482784251569809
sg155
g159
sbag1
(g141
g3
NtRp165
(dp166
g151
F-1.0765059612152927
sg152
g162
sg145
I5
sg154
F-6.0355177306009686
sg155
g159
sbag1
(g141
g3
NtRp167
(dp168
g151
F-2.0715647732531464
sg152
g162
sg145
I6
sg154
F-0.35222162215905117
sg155
g159
sbag1
(g141
g3
NtRp169
(dp170
g151
F2.362813379800055
sg152
g162
sg145
I7
sg154
F5.7094114034670174
sg155
g159
sbag1
(g141
g3
NtRp171
(dp172
g151
F-5.4992639740255536
sg152
g162
sg145
I8
sg154
F7.4878196629607681
sg155
g159
sbag1
(g141
g3
NtRp173
(dp174
g151
F1.1427037334980019
sg152
g162
sg145
I9
sg154
F3.5926204644731037
sg155
g159
sbag1
(g141
g3
NtRp175
(dp176
g151
F0.093024738285954589
sg152
g162
sg145
I10
sg154
F6.3355272227827903
sg155
g159
sbag1
(g141
g3
NtRp177
(dp178
g151
F-0.4455967619790201
sg152
g162
sg145
I11
sg154
F4.1049433527407322
sg155
g159
sbag1
(g141
g3
NtRp179
(dp180
g151
F1.2740184567527966
sg152
g162
sg145
I12
sg154
F6.2705241308061073
sg155
g159
sbag1
(g141
g3
NtRp181
(dp182
g151
F1.6899077171992549
sg152
g162
sg145
I13
sg154
F8.652821826349598
sg155
g159
sbag1
(g141
g3
NtRp183
(dp184
g151
F-1.8936645986177885
sg152
g162
sg145
I14
sg154
F3.8908466674346363
sg155
g159
sbasb.