ccopy_reg
_reconstructor
p1
(cneat.chromosome
Chromosome
p2
c__builtin__
object
p3
NtRp4
(dp5
S'species_id'
p6
I32
sS'_connection_genes'
p7
(dp8
(I7
I8
tp9
g1
(cneat.genome
ConnectionGene
p10
g3
NtRp11
(dp12
S'_ConnectionGene__weight'
p13
F-17.603362567018173
sS'_ConnectionGene__in'
p14
I7
sS'_ConnectionGene__enabled'
p15
I01
sS'_ConnectionGene__out'
p16
I8
sS'_ConnectionGene__innov_number'
p17
I52
sbs(I4
I7
tp18
g1
(g10
g3
NtRp19
(dp20
g13
F-24.286574223875114
sg14
I4
sg15
I01
sg16
I7
sg17
I29
sbs(I1
I3
tp21
g1
(g10
g3
NtRp22
(dp23
g13
F2.6349845093728548
sg14
I1
sg15
I01
sg16
I3
sg17
I2
sbs(I2
I8
tp24
g1
(g10
g3
NtRp25
(dp26
g13
F-1.6778718376052235
sg14
I2
sg15
I01
sg16
I8
sg17
I46
sbs(I13
I4
tp27
g1
(g10
g3
NtRp28
(dp29
g13
F7.8692627776663571
sg14
I13
sg15
I01
sg16
I4
sg17
I120
sbs(I3
I11
tp30
g1
(g10
g3
NtRp31
(dp32
g13
F2.2913286934721615
sg14
I3
sg15
I01
sg16
I11
sg17
I98
sbs(I6
I2
tp33
g1
(g10
g3
NtRp34
(dp35
g13
F26.140787501958837
sg14
I6
sg15
I01
sg16
I2
sg17
I23
sbs(I6
I12
tp36
g1
(g10
g3
NtRp37
(dp38
g13
F-1.4449340867813576
sg14
I6
sg15
I01
sg16
I12
sg17
I115
sbs(I2
I5
tp39
g1
(g10
g3
NtRp40
(dp41
g13
F6.4701741245924627
sg14
I2
sg15
I01
sg16
I5
sg17
I10
sbs(I7
I2
tp42
g1
(g10
g3
NtRp43
(dp44
g13
F-24.989052279786378
sg14
I7
sg15
I01
sg16
I2
sg17
I21
sbs(I1
I2
tp45
g1
(g10
g3
NtRp46
(dp47
g13
F-21.641169901642225
sg14
I1
sg15
I01
sg16
I2
sg17
I1
sbs(I12
I2
tp48
g1
(g10
g3
NtRp49
(dp50
g13
F27.440461507186562
sg14
I12
sg15
I01
sg16
I2
sg17
I80
sbs(I3
I3
tp51
g1
(g10
g3
NtRp52
(dp53
g13
F-3.2272437400865344
sg14
I3
sg15
I00
sg16
I3
sg17
I6
sbs(I1
I5
tp54
g1
(g10
g3
NtRp55
(dp56
g13
F-10.212264489050426
sg14
I1
sg15
I01
sg16
I5
sg17
I14
sbs(I2
I2
tp57
g1
(g10
g3
NtRp58
(dp59
g13
F-24.953947278351045
sg14
I2
sg15
I01
sg16
I2
sg17
I4
sbs(I8
I6
tp60
g1
(g10
g3
NtRp61
(dp62
g13
F12.610680972754276
sg14
I8
sg15
I01
sg16
I6
sg17
I51
sbs(I3
I2
tp63
g1
(g10
g3
NtRp64
(dp65
g13
F-6.4763186462901068
sg14
I3
sg15
I01
sg16
I2
sg17
I3
sbs(I2
I6
tp66
g1
(g10
g3
NtRp67
(dp68
g13
F-3.5461532682342676
sg14
I2
sg15
I01
sg16
I6
sg17
I15
sbs(I3
I13
tp69
g1
(g10
g3
NtRp70
(dp71
g13
F4.6593224882562376
sg14
I3
sg15
I01
sg16
I13
sg17
I105
sbs(I4
I2
tp72
g1
(g10
g3
NtRp73
(dp74
g13
F-7.9476102388768739
sg14
I4
sg15
I01
sg16
I2
sg17
I8
sbs(I6
I9
tp75
g1
(g10
g3
NtRp76
(dp77
g13
F-20.415952630583195
sg14
I6
sg15
I01
sg16
I9
sg17
I56
sbs(I5
I10
tp78
g1
(g10
g3
NtRp79
(dp80
g13
F-0.13608225033517263
sg14
I5
sg15
I01
sg16
I10
sg17
I78
sbs(I9
I2
tp81
g1
(g10
g3
NtRp82
(dp83
g13
F15.909611036417672
sg14
I9
sg15
I01
sg16
I2
sg17
I59
sbs(I5
I2
tp84
g1
(g10
g3
NtRp85
(dp86
g13
F10.672767999887332
sg14
I5
sg15
I00
sg16
I2
sg17
I11
sbs(I11
I3
tp87
g1
(g10
g3
NtRp88
(dp89
g13
F19.215894251947425
sg14
I11
sg15
I01
sg16
I3
sg17
I99
sbs(I3
I4
tp90
g1
(g10
g3
NtRp91
(dp92
g13
F7.023324162602063
sg14
I3
sg15
I01
sg16
I4
sg17
I9
sbs(I10
I2
tp93
g1
(g10
g3
NtRp94
(dp95
g13
F17.528214680903602
sg14
I10
sg15
I01
sg16
I2
sg17
I64
sbssS'_input_nodes'
p96
I1
sS'_output_nodes'
p97
I1
sS'_node_gene_type'
p98
cneat.genome
NodeGene
p99
sS'_conn_gene_type'
p100
g10
sS'fitness'
p101
F0.97696753850212548
sS'parent2_id'
p102
I3562
sS'_id'
p103
I3579
sS'parent1_id'
p104
I3562
sS'_node_genes'
p105
(lp106
g1
(g99
g3
NtRp107
(dp108
S'_bias'
p109
I0
sS'_type'
p110
S'INPUT'
p111
sg103
I1
sS'_response'
p112
F4.9242730000000003
sS'_activation_type'
p113
Nsbag1
(g99
g3
NtRp114
(dp115
g109
F0.40785790324702875
sg110
S'OUTPUT'
p116
sg103
I2
sg112
F1.4445889685037718
sg113
S'tanh'
p117
sbag1
(g99
g3
NtRp118
(dp119
g109
F0.0011829215198651821
sg110
S'HIDDEN'
p120
sg103
I3
sg112
F8.5088731896429728
sg113
g117
sbag1
(g99
g3
NtRp121
(dp122
g109
F3.1732265992538418
sg110
g120
sg103
I4
sg112
F1.5932783403898183
sg113
g117
sbag1
(g99
g3
NtRp123
(dp124
g109
F2.1271847440898957
sg110
g120
sg103
I5
sg112
F1.2532102523300257
sg113
g117
sbag1
(g99
g3
NtRp125
(dp126
g109
F-0.19809283374309283
sg110
g120
sg103
I6
sg112
F2.1053728902288924
sg113
g117
sbag1
(g99
g3
NtRp127
(dp128
g109
F-0.63981484211876716
sg110
g120
sg103
I7
sg112
F6.6480951454009078
sg113
g117
sbag1
(g99
g3
NtRp129
(dp130
g109
F1.1436458644043994
sg110
g120
sg103
I8
sg112
F1.6324309379488333
sg113
g117
sbag1
(g99
g3
NtRp131
(dp132
g109
F-0.62745662421479254
sg110
g120
sg103
I9
sg112
F3.7520343595886643
sg113
g117
sbag1
(g99
g3
NtRp133
(dp134
g109
F-0.21543283078426406
sg110
g120
sg103
I10
sg112
F4.6746590000527135
sg113
g117
sbag1
(g99
g3
NtRp135
(dp136
g109
F0.4155570823249749
sg110
g120
sg103
I11
sg112
F3.829301262229027
sg113
g117
sbag1
(g99
g3
NtRp137
(dp138
g109
F0.11558192913800541
sg110
g120
sg103
I12
sg112
F6.0613074833501299
sg113
g117
sbag1
(g99
g3
NtRp139
(dp140
g109
F0.7834455802671132
sg110
g120
sg103
I13
sg112
F5.5879443077577857
sg113
g117
sbasb.