ccopy_reg
_reconstructor
p1
(cneat.chromosome
Chromosome
p2
c__builtin__
object
p3
NtRp4
(dp5
S'species_id'
p6
I14
sS'_connection_genes'
p7
(dp8
(I1
I2
tp9
g1
(cneat.genome
ConnectionGene
p10
g3
NtRp11
(dp12
S'_ConnectionGene__weight'
p13
F8.5286991231068665
sS'_ConnectionGene__in'
p14
I1
sS'_ConnectionGene__enabled'
p15
I01
sS'_ConnectionGene__out'
p16
I2
sS'_ConnectionGene__innov_number'
p17
I1
sbs(I3
I2
tp18
g1
(g10
g3
NtRp19
(dp20
g13
F-6.4561777137890255
sg14
I3
sg15
I00
sg16
I2
sg17
I3
sbs(I1
I3
tp21
g1
(g10
g3
NtRp22
(dp23
g13
F5.7714919698365765
sg14
I1
sg15
I00
sg16
I3
sg17
I2
sbs(I4
I5
tp24
g1
(g10
g3
NtRp25
(dp26
g13
F10.31912224115182
sg14
I4
sg15
I01
sg16
I5
sg17
I28
sbs(I1
I5
tp27
g1
(g10
g3
NtRp28
(dp29
g13
F1.0685237142464608
sg14
I1
sg15
I01
sg16
I5
sg17
I14
sbs(I4
I3
tp30
g1
(g10
g3
NtRp31
(dp32
g13
F11.640383655853663
sg14
I4
sg15
I01
sg16
I3
sg17
I12
sbs(I2
I2
tp33
g1
(g10
g3
NtRp34
(dp35
g13
F3.5182043325922931
sg14
I2
sg15
I01
sg16
I2
sg17
I4
sbs(I4
I2
tp36
g1
(g10
g3
NtRp37
(dp38
g13
F-6.6502684724968875
sg14
I4
sg15
I01
sg16
I2
sg17
I8
sbs(I3
I4
tp39
g1
(g10
g3
NtRp40
(dp41
g13
F8.4666405201752486
sg14
I3
sg15
I01
sg16
I4
sg17
I9
sbs(I2
I4
tp42
g1
(g10
g3
NtRp43
(dp44
g13
F0.58261013953774721
sg14
I2
sg15
I01
sg16
I4
sg17
I33
sbs(I5
I3
tp45
g1
(g10
g3
NtRp46
(dp47
g13
F-1.9057324324869149
sg14
I5
sg15
I01
sg16
I3
sg17
I27
sbssS'_input_nodes'
p48
I1
sS'_output_nodes'
p49
I1
sS'_node_gene_type'
p50
cneat.genome
NodeGene
p51
sS'_conn_gene_type'
p52
g10
sS'fitness'
p53
F0.93649251487449503
sS'parent2_id'
p54
I1027
sS'_id'
p55
I1058
sS'parent1_id'
p56
I1027
sS'_node_genes'
p57
(lp58
g1
(g51
g3
NtRp59
(dp60
S'_bias'
p61
I0
sS'_type'
p62
S'INPUT'
p63
sg55
I1
sS'_response'
p64
F4.9242730000000003
sS'_activation_type'
p65
Nsbag1
(g51
g3
NtRp66
(dp67
g61
F-0.35030005210443721
sg62
S'OUTPUT'
p68
sg55
I2
sg64
F3.6041121908422467
sg65
S'tanh'
p69
sbag1
(g51
g3
NtRp70
(dp71
g61
F-0.6208126576443489
sg62
S'HIDDEN'
p72
sg55
I3
sg64
F4.4675045234308302
sg65
g69
sbag1
(g51
g3
NtRp73
(dp74
g61
F0.57364355947997747
sg62
g72
sg55
I4
sg64
F5.5343919991199915
sg65
g69
sbag1
(g51
g3
NtRp75
(dp76
g61
F-0.2426000724976303
sg62
g72
sg55
I5
sg64
F5.9645992908272536
sg65
g69
sbasb.