ccopy_reg
_reconstructor
p1
(cneat.chromosome
Chromosome
p2
c__builtin__
object
p3
NtRp4
(dp5
S'species_id'
p6
I46
sS'_connection_genes'
p7
(dp8
(I5
I9
tp9
g1
(cneat.genome
ConnectionGene
p10
g3
NtRp11
(dp12
S'_ConnectionGene__weight'
p13
F7.5499046083332244
sS'_ConnectionGene__in'
p14
I5
sS'_ConnectionGene__enabled'
p15
I01
sS'_ConnectionGene__out'
p16
I9
sS'_ConnectionGene__innov_number'
p17
I58
sbs(I4
I7
tp18
g1
(g10
g3
NtRp19
(dp20
g13
F-25.77018018903339
sg14
I4
sg15
I01
sg16
I7
sg17
I29
sbs(I1
I3
tp21
g1
(g10
g3
NtRp22
(dp23
g13
F12.660825661767623
sg14
I1
sg15
I01
sg16
I3
sg17
I2
sbs(I14
I4
tp24
g1
(g10
g3
NtRp25
(dp26
g13
F-0.18432303060061073
sg14
I14
sg15
I01
sg16
I4
sg17
I143
sbs(I13
I4
tp27
g1
(g10
g3
NtRp28
(dp29
g13
F26.391214195153502
sg14
I13
sg15
I01
sg16
I4
sg17
I120
sbs(I3
I11
tp30
g1
(g10
g3
NtRp31
(dp32
g13
F19.826087076312227
sg14
I3
sg15
I01
sg16
I11
sg17
I98
sbs(I1
I15
tp33
g1
(g10
g3
NtRp34
(dp35
g13
F-8.2828269768595142
sg14
I1
sg15
I01
sg16
I15
sg17
I148
sbs(I13
I17
tp36
g1
(g10
g3
NtRp37
(dp38
g13
F1.6471700301756127
sg14
I13
sg15
I01
sg16
I17
sg17
I183
sbs(I6
I2
tp39
g1
(g10
g3
NtRp40
(dp41
g13
F17.604783348340899
sg14
I6
sg15
I01
sg16
I2
sg17
I23
sbs(I7
I16
tp42
g1
(g10
g3
NtRp43
(dp44
g13
F-6.4115963807823508
sg14
I7
sg15
I01
sg16
I16
sg17
I171
sbs(I6
I12
tp45
g1
(g10
g3
NtRp46
(dp47
g13
F-11.320301640819386
sg14
I6
sg15
I01
sg16
I12
sg17
I115
sbs(I2
I5
tp48
g1
(g10
g3
NtRp49
(dp50
g13
F-5.0053407085945256
sg14
I2
sg15
I01
sg16
I5
sg17
I10
sbs(I15
I5
tp51
g1
(g10
g3
NtRp52
(dp53
g13
F2.2793971820238967
sg14
I15
sg15
I01
sg16
I5
sg17
I165
sbs(I7
I2
tp54
g1
(g10
g3
NtRp55
(dp56
g13
F-29.756911488618627
sg14
I7
sg15
I01
sg16
I2
sg17
I21
sbs(I1
I2
tp57
g1
(g10
g3
NtRp58
(dp59
g13
F-10.321587142571381
sg14
I1
sg15
I01
sg16
I2
sg17
I1
sbs(I12
I2
tp60
g1
(g10
g3
NtRp61
(dp62
g13
F24.479459676004758
sg14
I12
sg15
I01
sg16
I2
sg17
I80
sbs(I3
I3
tp63
g1
(g10
g3
NtRp64
(dp65
g13
F-7.1405740751962083
sg14
I3
sg15
I01
sg16
I3
sg17
I6
sbs(I2
I8
tp66
g1
(g10
g3
NtRp67
(dp68
g13
F-25.03096258564986
sg14
I2
sg15
I01
sg16
I8
sg17
I46
sbs(I1
I5
tp69
g1
(g10
g3
NtRp70
(dp71
g13
F-23.77804564283667
sg14
I1
sg15
I01
sg16
I5
sg17
I14
sbs(I17
I4
tp72
g1
(g10
g3
NtRp73
(dp74
g13
F19.261599905642438
sg14
I17
sg15
I01
sg16
I4
sg17
I184
sbs(I2
I2
tp75
g1
(g10
g3
NtRp76
(dp77
g13
F-15.303637250428727
sg14
I2
sg15
I01
sg16
I2
sg17
I4
sbs(I3
I4
tp78
g1
(g10
g3
NtRp79
(dp80
g13
F-24.344505506261847
sg14
I3
sg15
I01
sg16
I4
sg17
I9
sbs(I8
I6
tp81
g1
(g10
g3
NtRp82
(dp83
g13
F7.9215212916723861
sg14
I8
sg15
I01
sg16
I6
sg17
I51
sbs(I3
I2
tp84
g1
(g10
g3
NtRp85
(dp86
g13
F-3.2891546567990475
sg14
I3
sg15
I01
sg16
I2
sg17
I3
sbs(I2
I6
tp87
g1
(g10
g3
NtRp88
(dp89
g13
F-13.306313051653001
sg14
I2
sg15
I01
sg16
I6
sg17
I15
sbs(I3
I13
tp90
g1
(g10
g3
NtRp91
(dp92
g13
F13.302903274459076
sg14
I3
sg15
I01
sg16
I13
sg17
I105
sbs(I7
I5
tp93
g1
(g10
g3
NtRp94
(dp95
g13
F-5.9779160436402918
sg14
I7
sg15
I00
sg16
I5
sg17
I19
sbs(I4
I2
tp96
g1
(g10
g3
NtRp97
(dp98
g13
F-3.2657173072625483
sg14
I4
sg15
I01
sg16
I2
sg17
I8
sbs(I6
I5
tp99
g1
(g10
g3
NtRp100
(dp101
g13
F-0.77418342799981321
sg14
I6
sg15
I01
sg16
I5
sg17
I16
sbs(I6
I9
tp102
g1
(g10
g3
NtRp103
(dp104
g13
F-19.99322024919195
sg14
I6
sg15
I01
sg16
I9
sg17
I56
sbs(I5
I10
tp105
g1
(g10
g3
NtRp106
(dp107
g13
F9.9051198804160663
sg14
I5
sg15
I01
sg16
I10
sg17
I78
sbs(I6
I8
tp108
g1
(g10
g3
NtRp109
(dp110
g13
F-0.39115095666432981
sg14
I6
sg15
I01
sg16
I8
sg17
I53
sbs(I16
I5
tp111
g1
(g10
g3
NtRp112
(dp113
g13
F0.47876067394437433
sg14
I16
sg15
I01
sg16
I5
sg17
I178
sbs(I9
I2
tp114
g1
(g10
g3
NtRp115
(dp116
g13
F16.367603848444137
sg14
I9
sg15
I01
sg16
I2
sg17
I59
sbs(I5
I2
tp117
g1
(g10
g3
NtRp118
(dp119
g13
F16.699830485338822
sg14
I5
sg15
I00
sg16
I2
sg17
I11
sbs(I11
I3
tp120
g1
(g10
g3
NtRp121
(dp122
g13
F29.13275255710894
sg14
I11
sg15
I01
sg16
I3
sg17
I99
sbs(I13
I14
tp123
g1
(g10
g3
NtRp124
(dp125
g13
F2.3798542193141485
sg14
I13
sg15
I01
sg16
I14
sg17
I142
sbs(I7
I8
tp126
g1
(g10
g3
NtRp127
(dp128
g13
F-12.572283649494823
sg14
I7
sg15
I01
sg16
I8
sg17
I52
sbs(I10
I2
tp129
g1
(g10
g3
NtRp130
(dp131
g13
F9.114714479476433
sg14
I10
sg15
I01
sg16
I2
sg17
I64
sbssS'_input_nodes'
p132
I1
sS'_output_nodes'
p133
I1
sS'_node_gene_type'
p134
cneat.genome
NodeGene
p135
sS'_conn_gene_type'
p136
g10
sS'fitness'
p137
F0.95204210520310617
sS'parent2_id'
p138
I5496
sS'_id'
p139
I5515
sS'parent1_id'
p140
I5496
sS'_node_genes'
p141
(lp142
g1
(g135
g3
NtRp143
(dp144
S'_bias'
p145
I0
sS'_type'
p146
S'INPUT'
p147
sg139
I1
sS'_response'
p148
F4.9242730000000003
sS'_activation_type'
p149
Nsbag1
(g135
g3
NtRp150
(dp151
g145
F0.42065547715437401
sg146
S'OUTPUT'
p152
sg139
I2
sg148
F3.5030559798903842
sg149
S'tanh'
p153
sbag1
(g135
g3
NtRp154
(dp155
g145
F0.56163868215144697
sg146
S'HIDDEN'
p156
sg139
I3
sg148
F7.2379984731923495
sg149
g153
sbag1
(g135
g3
NtRp157
(dp158
g145
F1.0729107898454555
sg146
g156
sg139
I4
sg148
F5.6298893667536305
sg149
g153
sbag1
(g135
g3
NtRp159
(dp160
g145
F-0.73464766728644038
sg146
g156
sg139
I5
sg148
F0.78603965349214799
sg149
g153
sbag1
(g135
g3
NtRp161
(dp162
g145
F2.1960942978078997
sg146
g156
sg139
I6
sg148
F6.7054606730247723
sg149
g153
sbag1
(g135
g3
NtRp163
(dp164
g145
F-0.60633730625814386
sg146
g156
sg139
I7
sg148
F8.4524660657641366
sg149
g153
sbag1
(g135
g3
NtRp165
(dp166
g145
F0.29802654768993986
sg146
g156
sg139
I8
sg148
F0.14213974227505388
sg149
g153
sbag1
(g135
g3
NtRp167
(dp168
g145
F-5.3148137101676305
sg146
g156
sg139
I9
sg148
F4.2255856134889642
sg149
g153
sbag1
(g135
g3
NtRp169
(dp170
g145
F-1.258679380220991
sg146
g156
sg139
I10
sg148
F5.7551942151649902
sg149
g153
sbag1
(g135
g3
NtRp171
(dp172
g145
F-1.0619089573297997
sg146
g156
sg139
I11
sg148
F3.9195804590182064
sg149
g153
sbag1
(g135
g3
NtRp173
(dp174
g145
F-0.80977698690458821
sg146
g156
sg139
I12
sg148
F8.9920814297872429
sg149
g153
sbag1
(g135
g3
NtRp175
(dp176
g145
F2.7166656694852742
sg146
g156
sg139
I13
sg148
F7.1448369588872866
sg149
g153
sbag1
(g135
g3
NtRp177
(dp178
g145
F0.1225901724223466
sg146
g156
sg139
I14
sg148
F4.3752878570114433
sg149
g153
sbag1
(g135
g3
NtRp179
(dp180
g145
F-0.0056648669987402964
sg146
g156
sg139
I15
sg148
F4.4235935619970146
sg149
g153
sbag1
(g135
g3
NtRp181
(dp182
g145
F-1.3249883521617352
sg146
g156
sg139
I16
sg148
F5.7249432103833673
sg149
g153
sbag1
(g135
g3
NtRp183
(dp184
g145
F-1.8911886242222591
sg146
g156
sg139
I17
sg148
F5.5026833277208391
sg149
g153
sbasb.