ccopy_reg
_reconstructor
p1
(cneat.chromosome
Chromosome
p2
c__builtin__
object
p3
NtRp4
(dp5
S'species_id'
p6
I46
sS'_connection_genes'
p7
(dp8
(I5
I9
tp9
g1
(cneat.genome
ConnectionGene
p10
g3
NtRp11
(dp12
S'_ConnectionGene__weight'
p13
F5.4641845037072789
sS'_ConnectionGene__in'
p14
I5
sS'_ConnectionGene__enabled'
p15
I01
sS'_ConnectionGene__out'
p16
I9
sS'_ConnectionGene__innov_number'
p17
I58
sbs(I4
I7
tp18
g1
(g10
g3
NtRp19
(dp20
g13
F-22.844087954288671
sg14
I4
sg15
I01
sg16
I7
sg17
I29
sbs(I1
I3
tp21
g1
(g10
g3
NtRp22
(dp23
g13
F10.887128510505285
sg14
I1
sg15
I01
sg16
I3
sg17
I2
sbs(I14
I4
tp24
g1
(g10
g3
NtRp25
(dp26
g13
F-2.5390359876912338
sg14
I14
sg15
I01
sg16
I4
sg17
I143
sbs(I13
I4
tp27
g1
(g10
g3
NtRp28
(dp29
g13
F26.70181625954454
sg14
I13
sg15
I01
sg16
I4
sg17
I120
sbs(I7
I8
tp30
g1
(g10
g3
NtRp31
(dp32
g13
F-17.292325050242781
sg14
I7
sg15
I01
sg16
I8
sg17
I52
sbs(I3
I11
tp33
g1
(g10
g3
NtRp34
(dp35
g13
F10.168888093892187
sg14
I3
sg15
I01
sg16
I11
sg17
I98
sbs(I1
I15
tp36
g1
(g10
g3
NtRp37
(dp38
g13
F-12.033341632383845
sg14
I1
sg15
I01
sg16
I15
sg17
I148
sbs(I13
I17
tp39
g1
(g10
g3
NtRp40
(dp41
g13
F-1.8911360048618535
sg14
I13
sg15
I01
sg16
I17
sg17
I183
sbs(I6
I2
tp42
g1
(g10
g3
NtRp43
(dp44
g13
F20.042452552769557
sg14
I6
sg15
I01
sg16
I2
sg17
I23
sbs(I7
I16
tp45
g1
(g10
g3
NtRp46
(dp47
g13
F-2.9903179571990055
sg14
I7
sg15
I01
sg16
I16
sg17
I171
sbs(I4
I2
tp48
g1
(g10
g3
NtRp49
(dp50
g13
F-6.6589886028135661
sg14
I4
sg15
I01
sg16
I2
sg17
I8
sbs(I2
I5
tp51
g1
(g10
g3
NtRp52
(dp53
g13
F-5.0854387474288156
sg14
I2
sg15
I01
sg16
I5
sg17
I10
sbs(I15
I5
tp54
g1
(g10
g3
NtRp55
(dp56
g13
F-3.5552453180786596
sg14
I15
sg15
I01
sg16
I5
sg17
I165
sbs(I7
I2
tp57
g1
(g10
g3
NtRp58
(dp59
g13
F-23.785169200821997
sg14
I7
sg15
I01
sg16
I2
sg17
I21
sbs(I1
I2
tp60
g1
(g10
g3
NtRp61
(dp62
g13
F-10.856897551495713
sg14
I1
sg15
I01
sg16
I2
sg17
I1
sbs(I12
I2
tp63
g1
(g10
g3
NtRp64
(dp65
g13
F22.187762498886109
sg14
I12
sg15
I01
sg16
I2
sg17
I80
sbs(I3
I3
tp66
g1
(g10
g3
NtRp67
(dp68
g13
F2.1123896450859903
sg14
I3
sg15
I01
sg16
I3
sg17
I6
sbs(I2
I8
tp69
g1
(g10
g3
NtRp70
(dp71
g13
F-20.534197666584014
sg14
I2
sg15
I01
sg16
I8
sg17
I46
sbs(I1
I5
tp72
g1
(g10
g3
NtRp73
(dp74
g13
F-23.747801318882683
sg14
I1
sg15
I01
sg16
I5
sg17
I14
sbs(I2
I2
tp75
g1
(g10
g3
NtRp76
(dp77
g13
F-11.049778030415284
sg14
I2
sg15
I01
sg16
I2
sg17
I4
sbs(I8
I6
tp78
g1
(g10
g3
NtRp79
(dp80
g13
F11.224472057946507
sg14
I8
sg15
I01
sg16
I6
sg17
I51
sbs(I3
I2
tp81
g1
(g10
g3
NtRp82
(dp83
g13
F-5.0446406442533789
sg14
I3
sg15
I01
sg16
I2
sg17
I3
sbs(I2
I6
tp84
g1
(g10
g3
NtRp85
(dp86
g13
F-14.078160951207192
sg14
I2
sg15
I01
sg16
I6
sg17
I15
sbs(I3
I13
tp87
g1
(g10
g3
NtRp88
(dp89
g13
F19.578594306942989
sg14
I3
sg15
I01
sg16
I13
sg17
I105
sbs(I7
I5
tp90
g1
(g10
g3
NtRp91
(dp92
g13
F-5.4966715599650948
sg14
I7
sg15
I00
sg16
I5
sg17
I19
sbs(I6
I12
tp93
g1
(g10
g3
NtRp94
(dp95
g13
F-19.59820448226046
sg14
I6
sg15
I01
sg16
I12
sg17
I115
sbs(I17
I4
tp96
g1
(g10
g3
NtRp97
(dp98
g13
F23.795086016521402
sg14
I17
sg15
I01
sg16
I4
sg17
I184
sbs(I6
I9
tp99
g1
(g10
g3
NtRp100
(dp101
g13
F-25.639429945027818
sg14
I6
sg15
I01
sg16
I9
sg17
I56
sbs(I5
I10
tp102
g1
(g10
g3
NtRp103
(dp104
g13
F12.492078426202493
sg14
I5
sg15
I01
sg16
I10
sg17
I78
sbs(I16
I5
tp105
g1
(g10
g3
NtRp106
(dp107
g13
F-1.3400831705095055
sg14
I16
sg15
I01
sg16
I5
sg17
I178
sbs(I9
I2
tp108
g1
(g10
g3
NtRp109
(dp110
g13
F19.908505638218557
sg14
I9
sg15
I01
sg16
I2
sg17
I59
sbs(I5
I2
tp111
g1
(g10
g3
NtRp112
(dp113
g13
F16.696617689845198
sg14
I5
sg15
I00
sg16
I2
sg17
I11
sbs(I11
I3
tp114
g1
(g10
g3
NtRp115
(dp116
g13
F19.277754371361837
sg14
I11
sg15
I01
sg16
I3
sg17
I99
sbs(I13
I14
tp117
g1
(g10
g3
NtRp118
(dp119
g13
F2.0813578756158666
sg14
I13
sg15
I01
sg16
I14
sg17
I142
sbs(I3
I4
tp120
g1
(g10
g3
NtRp121
(dp122
g13
F-23.882351986163435
sg14
I3
sg15
I01
sg16
I4
sg17
I9
sbs(I10
I2
tp123
g1
(g10
g3
NtRp124
(dp125
g13
F11.394945532298841
sg14
I10
sg15
I01
sg16
I2
sg17
I64
sbssS'_input_nodes'
p126
I1
sS'_output_nodes'
p127
I1
sS'_node_gene_type'
p128
cneat.genome
NodeGene
p129
sS'_conn_gene_type'
p130
g10
sS'fitness'
p131
F0.96808114067914364
sS'parent2_id'
p132
I5267
sS'_id'
p133
I5286
sS'parent1_id'
p134
I5267
sS'_node_genes'
p135
(lp136
g1
(g129
g3
NtRp137
(dp138
S'_bias'
p139
I0
sS'_type'
p140
S'INPUT'
p141
sg133
I1
sS'_response'
p142
F4.9242730000000003
sS'_activation_type'
p143
Nsbag1
(g129
g3
NtRp144
(dp145
g139
F1.5682139525916312
sg140
S'OUTPUT'
p146
sg133
I2
sg142
F2.9156474022552383
sg143
S'tanh'
p147
sbag1
(g129
g3
NtRp148
(dp149
g139
F1.5168306495836605
sg140
S'HIDDEN'
p150
sg133
I3
sg142
F8.8003329653007771
sg143
g147
sbag1
(g129
g3
NtRp151
(dp152
g139
F0.93223111831906635
sg140
g150
sg133
I4
sg142
F5.5699124397600901
sg143
g147
sbag1
(g129
g3
NtRp153
(dp154
g139
F-0.73464766728644038
sg140
g150
sg133
I5
sg142
F1.0145301643016218
sg143
g147
sbag1
(g129
g3
NtRp155
(dp156
g139
F3.2282491663521493
sg140
g150
sg133
I6
sg142
F7.1525684486940504
sg143
g147
sbag1
(g129
g3
NtRp157
(dp158
g139
F0.03176894272787309
sg140
g150
sg133
I7
sg142
F7.7883449436651935
sg143
g147
sbag1
(g129
g3
NtRp159
(dp160
g139
F-0.12941121968591834
sg140
g150
sg133
I8
sg142
F0.54561803753664972
sg143
g147
sbag1
(g129
g3
NtRp161
(dp162
g139
F-2.9150283798113037
sg140
g150
sg133
I9
sg142
F4.2255856134889642
sg143
g147
sbag1
(g129
g3
NtRp163
(dp164
g139
F-1.7744357842601155
sg140
g150
sg133
I10
sg142
F5.3710143898791829
sg143
g147
sbag1
(g129
g3
NtRp165
(dp166
g139
F-1.2150000393711484
sg140
g150
sg133
I11
sg142
F4.2675203307119727
sg143
g147
sbag1
(g129
g3
NtRp167
(dp168
g139
F-0.24589504893553393
sg140
g150
sg133
I12
sg142
F9.2017934130456407
sg143
g147
sbag1
(g129
g3
NtRp169
(dp170
g139
F3.0321991375859141
sg140
g150
sg133
I13
sg142
F7.7458349390915018
sg143
g147
sbag1
(g129
g3
NtRp171
(dp172
g139
F1.024847801405194
sg140
g150
sg133
I14
sg142
F3.4232303577397589
sg143
g147
sbag1
(g129
g3
NtRp173
(dp174
g139
F-0.67233174824131758
sg140
g150
sg133
I15
sg142
F3.7459452652144125
sg143
g147
sbag1
(g129
g3
NtRp175
(dp176
g139
F-0.66903852760567561
sg140
g150
sg133
I16
sg142
F5.9642438215117588
sg143
g147
sbag1
(g129
g3
NtRp177
(dp178
g139
F-1.8911886242222591
sg140
g150
sg133
I17
sg142
F5.4052932834083958
sg143
g147
sbasb.