ccopy_reg
_reconstructor
p1
(cneat.chromosome
Chromosome
p2
c__builtin__
object
p3
NtRp4
(dp5
S'species_id'
p6
I58
sS'_connection_genes'
p7
(dp8
(I4
I7
tp9
g1
(cneat.genome
ConnectionGene
p10
g3
NtRp11
(dp12
S'_ConnectionGene__weight'
p13
F6.0957059989479303
sS'_ConnectionGene__in'
p14
I4
sS'_ConnectionGene__enabled'
p15
I01
sS'_ConnectionGene__out'
p16
I7
sS'_ConnectionGene__innov_number'
p17
I29
sbs(I1
I3
tp18
g1
(g10
g3
NtRp19
(dp20
g13
F10.599368984271397
sg14
I1
sg15
I01
sg16
I3
sg17
I2
sbs(I8
I13
tp21
g1
(g10
g3
NtRp22
(dp23
g13
F-1.6753099857743192
sg14
I8
sg15
I01
sg16
I13
sg17
I124
sbs(I6
I6
tp24
g1
(g10
g3
NtRp25
(dp26
g13
F1.1539557923512227
sg14
I6
sg15
I01
sg16
I6
sg17
I34
sbs(I7
I12
tp27
g1
(g10
g3
NtRp28
(dp29
g13
F-5.0322163203026928
sg14
I7
sg15
I01
sg16
I12
sg17
I102
sbs(I2
I8
tp30
g1
(g10
g3
NtRp31
(dp32
g13
F-10.190913251791947
sg14
I2
sg15
I01
sg16
I8
sg17
I46
sbs(I12
I12
tp33
g1
(g10
g3
NtRp34
(dp35
g13
F14.880810286655509
sg14
I12
sg15
I00
sg16
I12
sg17
I160
sbs(I3
I11
tp36
g1
(g10
g3
NtRp37
(dp38
g13
F-15.993604730642065
sg14
I3
sg15
I01
sg16
I11
sg17
I98
sbs(I8
I9
tp39
g1
(g10
g3
NtRp40
(dp41
g13
F-15.541449437454695
sg14
I8
sg15
I01
sg16
I9
sg17
I61
sbs(I6
I2
tp42
g1
(g10
g3
NtRp43
(dp44
g13
F6.2717897365276887
sg14
I6
sg15
I01
sg16
I2
sg17
I23
sbs(I18
I8
tp45
g1
(g10
g3
NtRp46
(dp47
g13
F3.8975126307535284
sg14
I18
sg15
I01
sg16
I8
sg17
I206
sbs(I2
I5
tp48
g1
(g10
g3
NtRp49
(dp50
g13
F-14.448301247836264
sg14
I2
sg15
I01
sg16
I5
sg17
I10
sbs(I3
I17
tp51
g1
(g10
g3
NtRp52
(dp53
g13
F20.273991684629483
sg14
I3
sg15
I01
sg16
I17
sg17
I271
sbs(I6
I9
tp54
g1
(g10
g3
NtRp55
(dp56
g13
F22.963877165394489
sg14
I6
sg15
I01
sg16
I9
sg17
I56
sbs(I3
I14
tp57
g1
(g10
g3
NtRp58
(dp59
g13
F-12.041020407864753
sg14
I3
sg15
I01
sg16
I14
sg17
I157
sbs(I1
I2
tp60
g1
(g10
g3
NtRp61
(dp62
g13
F15.514722322625058
sg14
I1
sg15
I01
sg16
I2
sg17
I1
sbs(I6
I3
tp63
g1
(g10
g3
NtRp64
(dp65
g13
F-23.449681436758439
sg14
I6
sg15
I01
sg16
I3
sg17
I37
sbs(I14
I2
tp66
g1
(g10
g3
NtRp67
(dp68
g13
F23.301869486423261
sg14
I14
sg15
I01
sg16
I2
sg17
I130
sbs(I3
I3
tp69
g1
(g10
g3
NtRp70
(dp71
g13
F18.214356103238188
sg14
I3
sg15
I01
sg16
I3
sg17
I6
sbs(I5
I12
tp72
g1
(g10
g3
NtRp73
(dp74
g13
F-13.941033574942788
sg14
I5
sg15
I01
sg16
I12
sg17
I87
sbs(I4
I4
tp75
g1
(g10
g3
NtRp76
(dp77
g13
F-1.2888088461033775
sg14
I4
sg15
I01
sg16
I4
sg17
I26
sbs(I3
I4
tp78
g1
(g10
g3
NtRp79
(dp80
g13
F6.0040153271221364
sg14
I3
sg15
I01
sg16
I4
sg17
I9
sbs(I17
I2
tp81
g1
(g10
g3
NtRp82
(dp83
g13
F1.3103495173087676
sg14
I17
sg15
I01
sg16
I2
sg17
I239
sbs(I1
I5
tp84
g1
(g10
g3
NtRp85
(dp86
g13
F-4.1041561636313988
sg14
I1
sg15
I00
sg16
I5
sg17
I14
sbs(I13
I7
tp87
g1
(g10
g3
NtRp88
(dp89
g13
F8.9959818698361076
sg14
I13
sg15
I01
sg16
I7
sg17
I136
sbs(I7
I2
tp90
g1
(g10
g3
NtRp91
(dp92
g13
F-29.158025737112222
sg14
I7
sg15
I01
sg16
I2
sg17
I21
sbs(I2
I2
tp93
g1
(g10
g3
NtRp94
(dp95
g13
F30
sg14
I2
sg15
I00
sg16
I2
sg17
I4
sbs(I1
I10
tp96
g1
(g10
g3
NtRp97
(dp98
g13
F-0.3143001177440663
sg14
I1
sg15
I01
sg16
I10
sg17
I65
sbs(I8
I6
tp99
g1
(g10
g3
NtRp100
(dp101
g13
F-19.247249333090515
sg14
I8
sg15
I01
sg16
I6
sg17
I51
sbs(I11
I13
tp102
g1
(g10
g3
NtRp103
(dp104
g13
F-16.473076408201898
sg14
I11
sg15
I01
sg16
I13
sg17
I156
sbs(I3
I2
tp105
g1
(g10
g3
NtRp106
(dp107
g13
F22.713154033784395
sg14
I3
sg15
I01
sg16
I2
sg17
I3
sbs(I2
I6
tp108
g1
(g10
g3
NtRp109
(dp110
g13
F-28.022179300916001
sg14
I2
sg15
I01
sg16
I6
sg17
I15
sbs(I12
I14
tp111
g1
(g10
g3
NtRp112
(dp113
g13
F-9.7602136180361878
sg14
I12
sg15
I01
sg16
I14
sg17
I221
sbs(I9
I3
tp114
g1
(g10
g3
NtRp115
(dp116
g13
F6.2631547341625842
sg14
I9
sg15
I01
sg16
I3
sg17
I95
sbs(I15
I10
tp117
g1
(g10
g3
NtRp118
(dp119
g13
F-0.71443293634168104
sg14
I15
sg15
I01
sg16
I10
sg17
I189
sbs(I12
I10
tp120
g1
(g10
g3
NtRp121
(dp122
g13
F-29.786248228467461
sg14
I12
sg15
I00
sg16
I10
sg17
I103
sbs(I4
I2
tp123
g1
(g10
g3
NtRp124
(dp125
g13
F20.030270139290312
sg14
I4
sg15
I01
sg16
I2
sg17
I8
sbs(I2
I14
tp126
g1
(g10
g3
NtRp127
(dp128
g13
F11.981722350406191
sg14
I2
sg15
I01
sg16
I14
sg17
I129
sbs(I5
I3
tp129
g1
(g10
g3
NtRp130
(dp131
g13
F1.0078629194274982
sg14
I5
sg15
I01
sg16
I3
sg17
I27
sbs(I11
I7
tp132
g1
(g10
g3
NtRp133
(dp134
g13
F-28.590849484325489
sg14
I11
sg15
I00
sg16
I7
sg17
I107
sbs(I12
I15
tp135
g1
(g10
g3
NtRp136
(dp137
g13
F-1.4432115088021744
sg14
I12
sg15
I01
sg16
I15
sg17
I217
sbs(I5
I10
tp138
g1
(g10
g3
NtRp139
(dp140
g13
F26.1368483070585
sg14
I5
sg15
I00
sg16
I10
sg17
I78
sbs(I16
I5
tp141
g1
(g10
g3
NtRp142
(dp143
g13
F-3.7755723554188809
sg14
I16
sg15
I01
sg16
I5
sg17
I178
sbs(I9
I2
tp144
g1
(g10
g3
NtRp145
(dp146
g13
F29.687898064132636
sg14
I9
sg15
I01
sg16
I2
sg17
I59
sbs(I5
I2
tp147
g1
(g10
g3
NtRp148
(dp149
g13
F-27.815365157899365
sg14
I5
sg15
I01
sg16
I2
sg17
I11
sbs(I16
I8
tp150
g1
(g10
g3
NtRp151
(dp152
g13
F-11.638979118035781
sg14
I16
sg15
I01
sg16
I8
sg17
I172
sbs(I14
I7
tp153
g1
(g10
g3
NtRp154
(dp155
g13
F-7.9487118870994271
sg14
I14
sg15
I01
sg16
I7
sg17
I263
sbs(I11
I3
tp156
g1
(g10
g3
NtRp157
(dp158
g13
F0.39373824417325309
sg14
I11
sg15
I01
sg16
I3
sg17
I99
sbs(I12
I19
tp159
g1
(g10
g3
NtRp160
(dp161
g13
F1.6120055170781749
sg14
I12
sg15
I01
sg16
I19
sg17
I281
sbs(I14
I8
tp162
g1
(g10
g3
NtRp163
(dp164
g13
F0.48189490114654521
sg14
I14
sg15
I01
sg16
I8
sg17
I132
sbs(I3
I8
tp165
g1
(g10
g3
NtRp166
(dp167
g13
F-3.6739671744909188
sg14
I3
sg15
I00
sg16
I8
sg17
I45
sbs(I3
I18
tp168
g1
(g10
g3
NtRp169
(dp170
g13
F0.98775956822770028
sg14
I3
sg15
I01
sg16
I18
sg17
I248
sbs(I19
I12
tp171
g1
(g10
g3
NtRp172
(dp173
g13
F3.6957780117171999
sg14
I19
sg15
I01
sg16
I12
sg17
I257
sbs(I9
I5
tp174
g1
(g10
g3
NtRp175
(dp176
g13
F-0.92851124761921189
sg14
I9
sg15
I01
sg16
I5
sg17
I57
sbs(I7
I8
tp177
g1
(g10
g3
NtRp178
(dp179
g13
F10.975429893712697
sg14
I7
sg15
I01
sg16
I8
sg17
I52
sbs(I1
I16
tp180
g1
(g10
g3
NtRp181
(dp182
g13
F2.2434607491081984
sg14
I1
sg15
I01
sg16
I16
sg17
I245
sbs(I9
I12
tp183
g1
(g10
g3
NtRp184
(dp185
g13
F-7.8607433767414561
sg14
I9
sg15
I01
sg16
I12
sg17
I82
sbs(I10
I2
tp186
g1
(g10
g3
NtRp187
(dp188
g13
F-12.934239854058934
sg14
I10
sg15
I01
sg16
I2
sg17
I64
sbssS'_input_nodes'
p189
I1
sS'_output_nodes'
p190
I1
sS'_node_gene_type'
p191
cneat.genome
NodeGene
p192
sS'_conn_gene_type'
p193
g10
sS'fitness'
p194
F0.99709849312616339
sS'parent2_id'
p195
I7640
sS'_id'
p196
I7665
sS'parent1_id'
p197
I7640
sS'_node_genes'
p198
(lp199
g1
(g192
g3
NtRp200
(dp201
S'_bias'
p202
I0
sS'_type'
p203
S'INPUT'
p204
sg196
I1
sS'_response'
p205
F4.9242730000000003
sS'_activation_type'
p206
Nsbag1
(g192
g3
NtRp207
(dp208
g202
F-1.2188793832513218
sg203
S'OUTPUT'
p209
sg196
I2
sg205
F3.8324858663993382
sg206
S'tanh'
p210
sbag1
(g192
g3
NtRp211
(dp212
g202
F-3.7936685726586363
sg203
S'HIDDEN'
p213
sg196
I3
sg205
F15.344184590721994
sg206
g210
sbag1
(g192
g3
NtRp214
(dp215
g202
F6.3939435731041314
sg203
g213
sg196
I4
sg205
F3.9831438012916891
sg206
g210
sbag1
(g192
g3
NtRp216
(dp217
g202
F-5.0948625854560046
sg203
g213
sg196
I5
sg205
F-7.1107134094059647
sg206
g210
sbag1
(g192
g3
NtRp218
(dp219
g202
F-3.8990841075042155
sg203
g213
sg196
I6
sg205
F-0.77023234900624682
sg206
g210
sbag1
(g192
g3
NtRp220
(dp221
g202
F5.1825590806047108
sg203
g213
sg196
I7
sg205
F5.1347108660177163
sg206
g210
sbag1
(g192
g3
NtRp222
(dp223
g202
F-4.9672698401618005
sg203
g213
sg196
I8
sg205
F10.783598550374426
sg206
g210
sbag1
(g192
g3
NtRp224
(dp225
g202
F2.2344396772580382
sg203
g213
sg196
I9
sg205
F3.0707310298064576
sg206
g210
sbag1
(g192
g3
NtRp226
(dp227
g202
F-0.94628544536075343
sg203
g213
sg196
I10
sg205
F6.4744804788843924
sg206
g210
sbag1
(g192
g3
NtRp228
(dp229
g202
F-0.5712215145310362
sg203
g213
sg196
I11
sg205
F2.0170284809618955
sg206
g210
sbag1
(g192
g3
NtRp230
(dp231
g202
F2.9662351075043567
sg203
g213
sg196
I12
sg205
F5.7727913636959194
sg206
g210
sbag1
(g192
g3
NtRp232
(dp233
g202
F2.1115474415088098
sg203
g213
sg196
I13
sg205
F7.6141715109964796
sg206
g210
sbag1
(g192
g3
NtRp234
(dp235
g202
F-1.214925842552135
sg203
g213
sg196
I14
sg205
F4.1589111534855272
sg206
g210
sbag1
(g192
g3
NtRp236
(dp237
g202
F1.5955246327250394
sg203
g213
sg196
I15
sg205
F4.9764593051277561
sg206
g210
sbag1
(g192
g3
NtRp238
(dp239
g202
F-3.4535174126594592
sg203
g213
sg196
I16
sg205
F5.5244319516360232
sg206
g210
sbag1
(g192
g3
NtRp240
(dp241
g202
F0.73384406852420503
sg203
g213
sg196
I17
sg205
F4.1679994372648679
sg206
g210
sbag1
(g192
g3
NtRp242
(dp243
g202
F0.79304001729255014
sg203
g213
sg196
I18
sg205
F4.1906991753691498
sg206
g210
sbag1
(g192
g3
NtRp244
(dp245
g202
F1.1886713483263223
sg203
g213
sg196
I19
sg205
F4.9242730000000003
sg206
g210
sbasb.