ccopy_reg
_reconstructor
p1
(cneat.chromosome
Chromosome
p2
c__builtin__
object
p3
NtRp4
(dp5
S'species_id'
p6
I35
sS'_connection_genes'
p7
(dp8
(I7
I8
tp9
g1
(cneat.genome
ConnectionGene
p10
g3
NtRp11
(dp12
S'_ConnectionGene__weight'
p13
F-0.094658159226682914
sS'_ConnectionGene__in'
p14
I7
sS'_ConnectionGene__enabled'
p15
I01
sS'_ConnectionGene__out'
p16
I8
sS'_ConnectionGene__innov_number'
p17
I52
sbs(I4
I7
tp18
g1
(g10
g3
NtRp19
(dp20
g13
F-27.129838072748537
sg14
I4
sg15
I01
sg16
I7
sg17
I29
sbs(I1
I3
tp21
g1
(g10
g3
NtRp22
(dp23
g13
F-9.5106502717822359
sg14
I1
sg15
I01
sg16
I3
sg17
I2
sbs(I2
I8
tp24
g1
(g10
g3
NtRp25
(dp26
g13
F-29.428309763992246
sg14
I2
sg15
I01
sg16
I8
sg17
I46
sbs(I3
I11
tp27
g1
(g10
g3
NtRp28
(dp29
g13
F11.01604142847923
sg14
I3
sg15
I01
sg16
I11
sg17
I98
sbs(I8
I9
tp30
g1
(g10
g3
NtRp31
(dp32
g13
F-16.105878997010542
sg14
I8
sg15
I01
sg16
I9
sg17
I61
sbs(I6
I2
tp33
g1
(g10
g3
NtRp34
(dp35
g13
F16.123596364896056
sg14
I6
sg15
I01
sg16
I2
sg17
I23
sbs(I2
I5
tp36
g1
(g10
g3
NtRp37
(dp38
g13
F-8.1965348301466214
sg14
I2
sg15
I01
sg16
I5
sg17
I10
sbs(I7
I2
tp39
g1
(g10
g3
NtRp40
(dp41
g13
F-7.994608484796446
sg14
I7
sg15
I01
sg16
I2
sg17
I21
sbs(I1
I2
tp42
g1
(g10
g3
NtRp43
(dp44
g13
F-23.819392319001075
sg14
I1
sg15
I01
sg16
I2
sg17
I1
sbs(I3
I3
tp45
g1
(g10
g3
NtRp46
(dp47
g13
F-5.3029690639397291
sg14
I3
sg15
I01
sg16
I3
sg17
I6
sbs(I5
I12
tp48
g1
(g10
g3
NtRp49
(dp50
g13
F-8.0216555458748431
sg14
I5
sg15
I01
sg16
I12
sg17
I87
sbs(I6
I3
tp51
g1
(g10
g3
NtRp52
(dp53
g13
F0.57218483215646543
sg14
I6
sg15
I01
sg16
I3
sg17
I37
sbs(I1
I5
tp54
g1
(g10
g3
NtRp55
(dp56
g13
F5.712317593572708
sg14
I1
sg15
I01
sg16
I5
sg17
I14
sbs(I2
I2
tp57
g1
(g10
g3
NtRp58
(dp59
g13
F-12.448094486629266
sg14
I2
sg15
I01
sg16
I2
sg17
I4
sbs(I1
I10
tp60
g1
(g10
g3
NtRp61
(dp62
g13
F1.6216706129759648
sg14
I1
sg15
I01
sg16
I10
sg17
I65
sbs(I8
I6
tp63
g1
(g10
g3
NtRp64
(dp65
g13
F-9.4678254420393628
sg14
I8
sg15
I01
sg16
I6
sg17
I51
sbs(I3
I2
tp66
g1
(g10
g3
NtRp67
(dp68
g13
F19.083697661355981
sg14
I3
sg15
I00
sg16
I2
sg17
I3
sbs(I2
I6
tp69
g1
(g10
g3
NtRp70
(dp71
g13
F-20.750964641562383
sg14
I2
sg15
I01
sg16
I6
sg17
I15
sbs(I12
I10
tp72
g1
(g10
g3
NtRp73
(dp74
g13
F-28.319935715138953
sg14
I12
sg15
I01
sg16
I10
sg17
I103
sbs(I4
I2
tp75
g1
(g10
g3
NtRp76
(dp77
g13
F-6.696125211916458
sg14
I4
sg15
I01
sg16
I2
sg17
I8
sbs(I6
I9
tp78
g1
(g10
g3
NtRp79
(dp80
g13
F-11.687655617607131
sg14
I6
sg15
I01
sg16
I9
sg17
I56
sbs(I5
I10
tp81
g1
(g10
g3
NtRp82
(dp83
g13
F-3.1232758704325647
sg14
I5
sg15
I00
sg16
I10
sg17
I78
sbs(I9
I2
tp84
g1
(g10
g3
NtRp85
(dp86
g13
F22.373688303859147
sg14
I9
sg15
I01
sg16
I2
sg17
I59
sbs(I5
I2
tp87
g1
(g10
g3
NtRp88
(dp89
g13
F-27.481859788070306
sg14
I5
sg15
I01
sg16
I2
sg17
I11
sbs(I11
I3
tp90
g1
(g10
g3
NtRp91
(dp92
g13
F-12.848958336342434
sg14
I11
sg15
I01
sg16
I3
sg17
I99
sbs(I9
I5
tp93
g1
(g10
g3
NtRp94
(dp95
g13
F2.0653824053917749
sg14
I9
sg15
I01
sg16
I5
sg17
I57
sbs(I3
I4
tp96
g1
(g10
g3
NtRp97
(dp98
g13
F8.5796349276481614
sg14
I3
sg15
I01
sg16
I4
sg17
I9
sbs(I9
I12
tp99
g1
(g10
g3
NtRp100
(dp101
g13
F-1.3205117149837962
sg14
I9
sg15
I01
sg16
I12
sg17
I82
sbs(I10
I2
tp102
g1
(g10
g3
NtRp103
(dp104
g13
F0.10685899863872228
sg14
I10
sg15
I01
sg16
I2
sg17
I64
sbssS'_input_nodes'
p105
I1
sS'_output_nodes'
p106
I1
sS'_node_gene_type'
p107
cneat.genome
NodeGene
p108
sS'_conn_gene_type'
p109
g10
sS'fitness'
p110
F0.91246027805486019
sS'parent2_id'
p111
I3962
sS'_id'
p112
I4001
sS'parent1_id'
p113
I3984
sS'_node_genes'
p114
(lp115
g1
(g108
g3
NtRp116
(dp117
S'_bias'
p118
I0
sS'_type'
p119
S'INPUT'
p120
sg112
I1
sS'_response'
p121
F4.9242730000000003
sS'_activation_type'
p122
Nsbag1
(g108
g3
NtRp123
(dp124
g118
F2.1218938020245854
sg119
S'OUTPUT'
p125
sg112
I2
sg121
F3.4416937399120044
sg122
S'tanh'
p126
sbag1
(g108
g3
NtRp127
(dp128
g118
F0.56567957224864263
sg119
S'HIDDEN'
p129
sg112
I3
sg121
F7.6059535385749903
sg122
g126
sbag1
(g108
g3
NtRp130
(dp131
g118
F5.3763555351556596
sg119
g129
sg112
I4
sg121
F4.3255952323655187
sg122
g126
sbag1
(g108
g3
NtRp132
(dp133
g118
F-0.40028843212170889
sg119
g129
sg112
I5
sg121
F-1.3059392490719084
sg122
g126
sbag1
(g108
g3
NtRp134
(dp135
g118
F-3.005085287525219
sg119
g129
sg112
I6
sg121
F-0.38240012068883988
sg122
g126
sbag1
(g108
g3
NtRp136
(dp137
g118
F0.045502892202671508
sg119
g129
sg112
I7
sg121
F6.2062892933614942
sg122
g126
sbag1
(g108
g3
NtRp138
(dp139
g118
F-2.3114476886781268
sg119
g129
sg112
I8
sg121
F4.3802582847480966
sg122
g126
sbag1
(g108
g3
NtRp140
(dp141
g118
F0.3833500334654858
sg119
g129
sg112
I9
sg121
F3.2813373484671273
sg122
g126
sbag1
(g108
g3
NtRp142
(dp143
g118
F0.24015256224724629
sg119
g129
sg112
I10
sg121
F7.5577894545875095
sg122
g126
sbag1
(g108
g3
NtRp144
(dp145
g118
F1.2957040651894858
sg119
g129
sg112
I11
sg121
F3.4501383538403312
sg122
g126
sbag1
(g108
g3
NtRp146
(dp147
g118
F-1.2169205995385841
sg119
g129
sg112
I12
sg121
F3.6501452397805778
sg122
g126
sbasb.