ccopy_reg
_reconstructor
p1
(cneat.chromosome
Chromosome
p2
c__builtin__
object
p3
NtRp4
(dp5
S'species_id'
p6
I50
sS'_connection_genes'
p7
(dp8
(I4
I7
tp9
g1
(cneat.genome
ConnectionGene
p10
g3
NtRp11
(dp12
S'_ConnectionGene__weight'
p13
F-3.8641978018866499
sS'_ConnectionGene__in'
p14
I4
sS'_ConnectionGene__enabled'
p15
I01
sS'_ConnectionGene__out'
p16
I7
sS'_ConnectionGene__innov_number'
p17
I29
sbs(I1
I3
tp18
g1
(g10
g3
NtRp19
(dp20
g13
F17.276263803564394
sg14
I1
sg15
I01
sg16
I3
sg17
I2
sbs(I6
I6
tp21
g1
(g10
g3
NtRp22
(dp23
g13
F14.766721937947382
sg14
I6
sg15
I01
sg16
I6
sg17
I34
sbs(I7
I12
tp24
g1
(g10
g3
NtRp25
(dp26
g13
F-9.4844135537689258
sg14
I7
sg15
I01
sg16
I12
sg17
I102
sbs(I2
I8
tp27
g1
(g10
g3
NtRp28
(dp29
g13
F-23.116898674109617
sg14
I2
sg15
I01
sg16
I8
sg17
I46
sbs(I12
I12
tp30
g1
(g10
g3
NtRp31
(dp32
g13
F15.114484133848938
sg14
I12
sg15
I01
sg16
I12
sg17
I160
sbs(I3
I11
tp33
g1
(g10
g3
NtRp34
(dp35
g13
F-7.4957080120301107
sg14
I3
sg15
I01
sg16
I11
sg17
I98
sbs(I8
I9
tp36
g1
(g10
g3
NtRp37
(dp38
g13
F-26.162739566439534
sg14
I8
sg15
I01
sg16
I9
sg17
I61
sbs(I13
I17
tp39
g1
(g10
g3
NtRp40
(dp41
g13
F-2.8909484047415441
sg14
I13
sg15
I01
sg16
I17
sg17
I183
sbs(I6
I2
tp42
g1
(g10
g3
NtRp43
(dp44
g13
F-0.20289551011203222
sg14
I6
sg15
I01
sg16
I2
sg17
I23
sbs(I12
I16
tp45
g1
(g10
g3
NtRp46
(dp47
g13
F1.0657042536861865
sg14
I12
sg15
I01
sg16
I16
sg17
I233
sbs(I2
I5
tp48
g1
(g10
g3
NtRp49
(dp50
g13
F-17.104356018259704
sg14
I2
sg15
I01
sg16
I5
sg17
I10
sbs(I6
I9
tp51
g1
(g10
g3
NtRp52
(dp53
g13
F11.048259359168567
sg14
I6
sg15
I01
sg16
I9
sg17
I56
sbs(I3
I14
tp54
g1
(g10
g3
NtRp55
(dp56
g13
F-10.912624599965463
sg14
I3
sg15
I01
sg16
I14
sg17
I157
sbs(I1
I2
tp57
g1
(g10
g3
NtRp58
(dp59
g13
F-7.7487110186982857
sg14
I1
sg15
I01
sg16
I2
sg17
I1
sbs(I14
I2
tp60
g1
(g10
g3
NtRp61
(dp62
g13
F13.97147571726353
sg14
I14
sg15
I01
sg16
I2
sg17
I130
sbs(I3
I3
tp63
g1
(g10
g3
NtRp64
(dp65
g13
F-10.36237177467846
sg14
I3
sg15
I01
sg16
I3
sg17
I6
sbs(I5
I12
tp66
g1
(g10
g3
NtRp67
(dp68
g13
F-4.0927027167239345
sg14
I5
sg15
I01
sg16
I12
sg17
I87
sbs(I3
I4
tp69
g1
(g10
g3
NtRp70
(dp71
g13
F-4.4899736259406096
sg14
I3
sg15
I01
sg16
I4
sg17
I9
sbs(I6
I3
tp72
g1
(g10
g3
NtRp73
(dp74
g13
F-23.557691132516126
sg14
I6
sg15
I01
sg16
I3
sg17
I37
sbs(I1
I5
tp75
g1
(g10
g3
NtRp76
(dp77
g13
F-0.50236100644151782
sg14
I1
sg15
I01
sg16
I5
sg17
I14
sbs(I13
I7
tp78
g1
(g10
g3
NtRp79
(dp80
g13
F-1.1866638210710352
sg14
I13
sg15
I01
sg16
I7
sg17
I136
sbs(I7
I2
tp81
g1
(g10
g3
NtRp82
(dp83
g13
F-28.97932548801796
sg14
I7
sg15
I01
sg16
I2
sg17
I21
sbs(I18
I9
tp84
g1
(g10
g3
NtRp85
(dp86
g13
F-0.064089052101732491
sg14
I18
sg15
I01
sg16
I9
sg17
I198
sbs(I2
I2
tp87
g1
(g10
g3
NtRp88
(dp89
g13
F14.854854830570297
sg14
I2
sg15
I01
sg16
I2
sg17
I4
sbs(I1
I10
tp90
g1
(g10
g3
NtRp91
(dp92
g13
F1.5215608336383015
sg14
I1
sg15
I01
sg16
I10
sg17
I65
sbs(I8
I6
tp93
g1
(g10
g3
NtRp94
(dp95
g13
F-21.246148152249731
sg14
I8
sg15
I01
sg16
I6
sg17
I51
sbs(I11
I13
tp96
g1
(g10
g3
NtRp97
(dp98
g13
F-30
sg14
I11
sg15
I01
sg16
I13
sg17
I156
sbs(I3
I2
tp99
g1
(g10
g3
NtRp100
(dp101
g13
F-0.35041497346352524
sg14
I3
sg15
I00
sg16
I2
sg17
I3
sbs(I2
I6
tp102
g1
(g10
g3
NtRp103
(dp104
g13
F-26.931470546997673
sg14
I2
sg15
I01
sg16
I6
sg17
I15
sbs(I9
I17
tp105
g1
(g10
g3
NtRp106
(dp107
g13
F10.282579703003311
sg14
I9
sg15
I01
sg16
I17
sg17
I236
sbs(I9
I3
tp108
g1
(g10
g3
NtRp109
(dp110
g13
F7.9379394113127475
sg14
I9
sg15
I00
sg16
I3
sg17
I95
sbs(I15
I10
tp111
g1
(g10
g3
NtRp112
(dp113
g13
F-14.43013796643141
sg14
I15
sg15
I01
sg16
I10
sg17
I189
sbs(I3
I9
tp114
g1
(g10
g3
NtRp115
(dp116
g13
F-4.0478507875080894
sg14
I3
sg15
I00
sg16
I9
sg17
I54
sbs(I12
I10
tp117
g1
(g10
g3
NtRp118
(dp119
g13
F-30
sg14
I12
sg15
I00
sg16
I10
sg17
I103
sbs(I4
I2
tp120
g1
(g10
g3
NtRp121
(dp122
g13
F0.84453082181424555
sg14
I4
sg15
I01
sg16
I2
sg17
I8
sbs(I2
I14
tp123
g1
(g10
g3
NtRp124
(dp125
g13
F7.5551777567016334
sg14
I2
sg15
I01
sg16
I14
sg17
I129
sbs(I16
I10
tp126
g1
(g10
g3
NtRp127
(dp128
g13
F-22.258634086531053
sg14
I16
sg15
I01
sg16
I10
sg17
I225
sbs(I11
I7
tp129
g1
(g10
g3
NtRp130
(dp131
g13
F-21.727811753956498
sg14
I11
sg15
I00
sg16
I7
sg17
I107
sbs(I12
I15
tp132
g1
(g10
g3
NtRp133
(dp134
g13
F9.6049474379915569
sg14
I12
sg15
I01
sg16
I15
sg17
I217
sbs(I5
I10
tp135
g1
(g10
g3
NtRp136
(dp137
g13
F6.1502444605911473
sg14
I5
sg15
I00
sg16
I10
sg17
I78
sbs(I9
I2
tp138
g1
(g10
g3
NtRp139
(dp140
g13
F28.348011314854343
sg14
I9
sg15
I01
sg16
I2
sg17
I59
sbs(I5
I2
tp141
g1
(g10
g3
NtRp142
(dp143
g13
F-29.099036965841321
sg14
I5
sg15
I01
sg16
I2
sg17
I11
sbs(I11
I3
tp144
g1
(g10
g3
NtRp145
(dp146
g13
F-6.7067802468942581
sg14
I11
sg15
I01
sg16
I3
sg17
I99
sbs(I3
I8
tp147
g1
(g10
g3
NtRp148
(dp149
g13
F5.5069370933694053
sg14
I3
sg15
I01
sg16
I8
sg17
I45
sbs(I3
I18
tp150
g1
(g10
g3
NtRp151
(dp152
g13
F1.2937390088396392
sg14
I3
sg15
I01
sg16
I18
sg17
I248
sbs(I17
I3
tp153
g1
(g10
g3
NtRp154
(dp155
g13
F16.051605130105873
sg14
I17
sg15
I01
sg16
I3
sg17
I237
sbs(I9
I5
tp156
g1
(g10
g3
NtRp157
(dp158
g13
F4.5391109157159937
sg14
I9
sg15
I01
sg16
I5
sg17
I57
sbs(I7
I8
tp159
g1
(g10
g3
NtRp160
(dp161
g13
F14.26085666195522
sg14
I7
sg15
I01
sg16
I8
sg17
I52
sbs(I9
I12
tp162
g1
(g10
g3
NtRp163
(dp164
g13
F-8.3966248754079231
sg14
I9
sg15
I01
sg16
I12
sg17
I82
sbs(I10
I2
tp165
g1
(g10
g3
NtRp166
(dp167
g13
F-14.62150908460098
sg14
I10
sg15
I01
sg16
I2
sg17
I64
sbssS'_input_nodes'
p168
I1
sS'_output_nodes'
p169
I1
sS'_node_gene_type'
p170
cneat.genome
NodeGene
p171
sS'_conn_gene_type'
p172
g10
sS'fitness'
p173
F0.9640841351571644
sS'parent2_id'
p174
I6496
sS'_id'
p175
I6514
sS'parent1_id'
p176
I6496
sS'_node_genes'
p177
(lp178
g1
(g171
g3
NtRp179
(dp180
S'_bias'
p181
I0
sS'_type'
p182
S'INPUT'
p183
sg175
I1
sS'_response'
p184
F4.9242730000000003
sS'_activation_type'
p185
Nsbag1
(g171
g3
NtRp186
(dp187
g181
F0.49996364453376463
sg182
S'OUTPUT'
p188
sg175
I2
sg184
F4.5138356705596392
sg185
S'tanh'
p189
sbag1
(g171
g3
NtRp190
(dp191
g181
F-3.4939065047790159
sg182
S'HIDDEN'
p192
sg175
I3
sg184
F13.870845165951719
sg185
g189
sbag1
(g171
g3
NtRp193
(dp194
g181
F5.407002228950514
sg182
g192
sg175
I4
sg184
F4.8341262161923915
sg185
g189
sbag1
(g171
g3
NtRp195
(dp196
g181
F-0.49725392044300115
sg182
g192
sg175
I5
sg184
F-9.1862846465373984
sg185
g189
sbag1
(g171
g3
NtRp197
(dp198
g181
F-2.0702975484955992
sg182
g192
sg175
I6
sg184
F2.2628805373601741
sg185
g189
sbag1
(g171
g3
NtRp199
(dp200
g181
F3.259227225487396
sg182
g192
sg175
I7
sg184
F6.464380865369864
sg185
g189
sbag1
(g171
g3
NtRp201
(dp202
g181
F-3.7740550227105341
sg182
g192
sg175
I8
sg184
F7.7141680439134843
sg185
g189
sbag1
(g171
g3
NtRp203
(dp204
g181
F1.8758974523316689
sg182
g192
sg175
I9
sg184
F1.9680975246638373
sg185
g189
sbag1
(g171
g3
NtRp205
(dp206
g181
F0.91812732309004197
sg182
g192
sg175
I10
sg184
F7.4728887449642976
sg185
g189
sbag1
(g171
g3
NtRp207
(dp208
g181
F1.0977788388468241
sg182
g192
sg175
I11
sg184
F2.9512753733278041
sg185
g189
sbag1
(g171
g3
NtRp209
(dp210
g181
F1.8426406677554019
sg182
g192
sg175
I12
sg184
F6.5003983724443879
sg185
g189
sbag1
(g171
g3
NtRp211
(dp212
g181
F1.3407375263049282
sg182
g192
sg175
I13
sg184
F8.4062078340023429
sg185
g189
sbag1
(g171
g3
NtRp213
(dp214
g181
F-2.5410246163151555
sg182
g192
sg175
I14
sg184
F4.2455426410802337
sg185
g189
sbag1
(g171
g3
NtRp215
(dp216
g181
F0.61842441347938526
sg182
g192
sg175
I15
sg184
F4.3864623787223698
sg185
g189
sbag1
(g171
g3
NtRp217
(dp218
g181
F0.17245512235236563
sg182
g192
sg175
I16
sg184
F5.0108148471144283
sg185
g189
sbag1
(g171
g3
NtRp219
(dp220
g181
F0.14747908902054985
sg182
g192
sg175
I17
sg184
F6.0367932794947707
sg185
g189
sbag1
(g171
g3
NtRp221
(dp222
g181
I0
sg182
g192
sg175
I18
sg184
F4.6523675490475958
sg185
g189
sbasb.