ccopy_reg
_reconstructor
p1
(cneat.chromosome
Chromosome
p2
c__builtin__
object
p3
NtRp4
(dp5
S'species_id'
p6
I29
sS'_connection_genes'
p7
(dp8
(I1
I2
tp9
g1
(cneat.genome
ConnectionGene
p10
g3
NtRp11
(dp12
S'_ConnectionGene__weight'
p13
F-15.786924170463406
sS'_ConnectionGene__in'
p14
I1
sS'_ConnectionGene__enabled'
p15
I01
sS'_ConnectionGene__out'
p16
I2
sS'_ConnectionGene__innov_number'
p17
I1
sbs(I7
I8
tp18
g1
(g10
g3
NtRp19
(dp20
g13
F-7.6262377874327631
sg14
I7
sg15
I01
sg16
I8
sg17
I52
sbs(I3
I2
tp21
g1
(g10
g3
NtRp22
(dp23
g13
F15.245484043251881
sg14
I3
sg15
I00
sg16
I2
sg17
I3
sbs(I1
I3
tp24
g1
(g10
g3
NtRp25
(dp26
g13
F1.9879521931376507
sg14
I1
sg15
I01
sg16
I3
sg17
I2
sbs(I3
I3
tp27
g1
(g10
g3
NtRp28
(dp29
g13
F-0.76304433268119687
sg14
I3
sg15
I01
sg16
I3
sg17
I6
sbs(I9
I2
tp30
g1
(g10
g3
NtRp31
(dp32
g13
F18.846820153440884
sg14
I9
sg15
I01
sg16
I2
sg17
I59
sbs(I2
I8
tp33
g1
(g10
g3
NtRp34
(dp35
g13
F-12.156035633999906
sg14
I2
sg15
I01
sg16
I8
sg17
I46
sbs(I4
I2
tp36
g1
(g10
g3
NtRp37
(dp38
g13
F-9.4982398487390078
sg14
I4
sg15
I01
sg16
I2
sg17
I8
sbs(I5
I2
tp39
g1
(g10
g3
NtRp40
(dp41
g13
F3.5144964632013931
sg14
I5
sg15
I01
sg16
I2
sg17
I11
sbs(I4
I7
tp42
g1
(g10
g3
NtRp43
(dp44
g13
F-22.567345361166272
sg14
I4
sg15
I01
sg16
I7
sg17
I29
sbs(I1
I5
tp45
g1
(g10
g3
NtRp46
(dp47
g13
F-0.53299021564750548
sg14
I1
sg15
I01
sg16
I5
sg17
I14
sbs(I2
I6
tp48
g1
(g10
g3
NtRp49
(dp50
g13
F-16.890966846299342
sg14
I2
sg15
I01
sg16
I6
sg17
I15
sbs(I2
I2
tp51
g1
(g10
g3
NtRp52
(dp53
g13
F-10.845297310965801
sg14
I2
sg15
I00
sg16
I2
sg17
I4
sbs(I6
I2
tp54
g1
(g10
g3
NtRp55
(dp56
g13
F29.040932299611985
sg14
I6
sg15
I00
sg16
I2
sg17
I23
sbs(I8
I6
tp57
g1
(g10
g3
NtRp58
(dp59
g13
F2.6433567445739516
sg14
I8
sg15
I00
sg16
I6
sg17
I51
sbs(I2
I5
tp60
g1
(g10
g3
NtRp61
(dp62
g13
F-5.6485445873195088
sg14
I2
sg15
I01
sg16
I5
sg17
I10
sbs(I3
I4
tp63
g1
(g10
g3
NtRp64
(dp65
g13
F5.8312753072401478
sg14
I3
sg15
I01
sg16
I4
sg17
I9
sbs(I6
I9
tp66
g1
(g10
g3
NtRp67
(dp68
g13
F-0.66461323759738611
sg14
I6
sg15
I01
sg16
I9
sg17
I56
sbs(I7
I2
tp69
g1
(g10
g3
NtRp70
(dp71
g13
F-5.7062025067794364
sg14
I7
sg15
I01
sg16
I2
sg17
I21
sbssS'_input_nodes'
p72
I1
sS'_output_nodes'
p73
I1
sS'_node_gene_type'
p74
cneat.genome
NodeGene
p75
sS'_conn_gene_type'
p76
g10
sS'fitness'
p77
F0.94238185223843951
sS'parent2_id'
p78
I2420
sS'_id'
p79
I2443
sS'parent1_id'
p80
I2423
sS'_node_genes'
p81
(lp82
g1
(g75
g3
NtRp83
(dp84
S'_bias'
p85
I0
sS'_type'
p86
S'INPUT'
p87
sg79
I1
sS'_response'
p88
F4.9242730000000003
sS'_activation_type'
p89
Nsbag1
(g75
g3
NtRp90
(dp91
g85
F2.3967761341005165
sg86
S'OUTPUT'
p92
sg79
I2
sg88
F2.2513392486211266
sg89
S'tanh'
p93
sbag1
(g75
g3
NtRp94
(dp95
g85
F-0.80890951843144843
sg86
S'HIDDEN'
p96
sg79
I3
sg88
F8.5217803417350755
sg89
g93
sbag1
(g75
g3
NtRp97
(dp98
g85
F2.9925482366842706
sg86
g96
sg79
I4
sg88
F2.8471500154844955
sg89
g93
sbag1
(g75
g3
NtRp99
(dp100
g85
F1.4612744734531882
sg86
g96
sg79
I5
sg88
F2.0163818676163738
sg89
g93
sbag1
(g75
g3
NtRp101
(dp102
g85
F-0.27880936241083876
sg86
g96
sg79
I6
sg88
F-0.038086475704980138
sg89
g93
sbag1
(g75
g3
NtRp103
(dp104
g85
F-0.29281010377072547
sg86
g96
sg79
I7
sg88
F4.5202004182953139
sg89
g93
sbag1
(g75
g3
NtRp105
(dp106
g85
F-2.6896871047879101
sg86
g96
sg79
I8
sg88
F3.9279205145525395
sg89
g93
sbag1
(g75
g3
NtRp107
(dp108
g85
F0.39427555231102757
sg86
g96
sg79
I9
sg88
F5.0165529907731603
sg89
g93
sbasb.