ccopy_reg
_reconstructor
p1
(cneat.chromosome
Chromosome
p2
c__builtin__
object
p3
NtRp4
(dp5
S'species_id'
p6
I30
sS'_connection_genes'
p7
(dp8
(I4
I7
tp9
g1
(cneat.genome
ConnectionGene
p10
g3
NtRp11
(dp12
S'_ConnectionGene__weight'
p13
F-21.526760250982711
sS'_ConnectionGene__in'
p14
I4
sS'_ConnectionGene__enabled'
p15
I01
sS'_ConnectionGene__out'
p16
I7
sS'_ConnectionGene__innov_number'
p17
I29
sbs(I1
I3
tp18
g1
(g10
g3
NtRp19
(dp20
g13
F-3.2643282581645794
sg14
I1
sg15
I01
sg16
I3
sg17
I2
sbs(I2
I8
tp21
g1
(g10
g3
NtRp22
(dp23
g13
F-15.830427118656777
sg14
I2
sg15
I01
sg16
I8
sg17
I46
sbs(I3
I11
tp24
g1
(g10
g3
NtRp25
(dp26
g13
F8.3455583813298002
sg14
I3
sg15
I01
sg16
I11
sg17
I98
sbs(I6
I2
tp27
g1
(g10
g3
NtRp28
(dp29
g13
F26.093479993830641
sg14
I6
sg15
I00
sg16
I2
sg17
I23
sbs(I2
I5
tp30
g1
(g10
g3
NtRp31
(dp32
g13
F-8.4951347500826948
sg14
I2
sg15
I01
sg16
I5
sg17
I10
sbs(I7
I2
tp33
g1
(g10
g3
NtRp34
(dp35
g13
F-10.373783578629212
sg14
I7
sg15
I01
sg16
I2
sg17
I21
sbs(I1
I2
tp36
g1
(g10
g3
NtRp37
(dp38
g13
F-15.605692784996663
sg14
I1
sg15
I01
sg16
I2
sg17
I1
sbs(I3
I3
tp39
g1
(g10
g3
NtRp40
(dp41
g13
F4.907544031749274
sg14
I3
sg15
I00
sg16
I3
sg17
I6
sbs(I1
I5
tp42
g1
(g10
g3
NtRp43
(dp44
g13
F0.20370244432997087
sg14
I1
sg15
I01
sg16
I5
sg17
I14
sbs(I2
I2
tp45
g1
(g10
g3
NtRp46
(dp47
g13
F-10.909225448579315
sg14
I2
sg15
I01
sg16
I2
sg17
I4
sbs(I3
I4
tp48
g1
(g10
g3
NtRp49
(dp50
g13
F4.367295176032246
sg14
I3
sg15
I01
sg16
I4
sg17
I9
sbs(I8
I6
tp51
g1
(g10
g3
NtRp52
(dp53
g13
F2.1180805202672608
sg14
I8
sg15
I00
sg16
I6
sg17
I51
sbs(I3
I2
tp54
g1
(g10
g3
NtRp55
(dp56
g13
F9.3411755700394927
sg14
I3
sg15
I00
sg16
I2
sg17
I3
sbs(I2
I6
tp57
g1
(g10
g3
NtRp58
(dp59
g13
F-9.5909174709059108
sg14
I2
sg15
I01
sg16
I6
sg17
I15
sbs(I4
I2
tp60
g1
(g10
g3
NtRp61
(dp62
g13
F-6.6983687298274734
sg14
I4
sg15
I01
sg16
I2
sg17
I8
sbs(I6
I9
tp63
g1
(g10
g3
NtRp64
(dp65
g13
F-6.8468088243584875
sg14
I6
sg15
I01
sg16
I9
sg17
I56
sbs(I5
I10
tp66
g1
(g10
g3
NtRp67
(dp68
g13
F-2.250168816534265
sg14
I5
sg15
I00
sg16
I10
sg17
I78
sbs(I9
I2
tp69
g1
(g10
g3
NtRp70
(dp71
g13
F26.173636231093049
sg14
I9
sg15
I01
sg16
I2
sg17
I59
sbs(I5
I2
tp72
g1
(g10
g3
NtRp73
(dp74
g13
F14.131357712094527
sg14
I5
sg15
I00
sg16
I2
sg17
I11
sbs(I11
I3
tp75
g1
(g10
g3
NtRp76
(dp77
g13
F1.7301423525156456
sg14
I11
sg15
I01
sg16
I3
sg17
I99
sbs(I7
I8
tp78
g1
(g10
g3
NtRp79
(dp80
g13
F-10.488746000162484
sg14
I7
sg15
I01
sg16
I8
sg17
I52
sbs(I10
I2
tp81
g1
(g10
g3
NtRp82
(dp83
g13
F9.4363383270298442
sg14
I10
sg15
I01
sg16
I2
sg17
I64
sbssS'_input_nodes'
p84
I1
sS'_output_nodes'
p85
I1
sS'_node_gene_type'
p86
cneat.genome
NodeGene
p87
sS'_conn_gene_type'
p88
g10
sS'fitness'
p89
F0.96971696071048885
sS'parent2_id'
p90
I2728
sS'_id'
p91
I2742
sS'parent1_id'
p92
I2728
sS'_node_genes'
p93
(lp94
g1
(g87
g3
NtRp95
(dp96
S'_bias'
p97
I0
sS'_type'
p98
S'INPUT'
p99
sg91
I1
sS'_response'
p100
F4.9242730000000003
sS'_activation_type'
p101
Nsbag1
(g87
g3
NtRp102
(dp103
g97
F1.3841639028916857
sg98
S'OUTPUT'
p104
sg91
I2
sg100
F2.3296572765484713
sg101
S'tanh'
p105
sbag1
(g87
g3
NtRp106
(dp107
g97
F0.36937573431895476
sg98
S'HIDDEN'
p108
sg91
I3
sg100
F7.4369459194189655
sg101
g105
sbag1
(g87
g3
NtRp109
(dp110
g97
F4.0807249324457215
sg98
g108
sg91
I4
sg100
F1.0191633814301535
sg101
g105
sbag1
(g87
g3
NtRp111
(dp112
g97
F2.4874984163786631
sg98
g108
sg91
I5
sg100
F2.0060544136680711
sg101
g105
sbag1
(g87
g3
NtRp113
(dp114
g97
F-0.4027428607353869
sg98
g108
sg91
I6
sg100
F-0.038086475704980138
sg101
g105
sbag1
(g87
g3
NtRp115
(dp116
g97
F-0.32499509411079264
sg98
g108
sg91
I7
sg100
F5.7327822924216498
sg101
g105
sbag1
(g87
g3
NtRp117
(dp118
g97
F-2.6294054074182638
sg98
g108
sg91
I8
sg100
F3.9491275310471416
sg101
g105
sbag1
(g87
g3
NtRp119
(dp120
g97
F1.3949888070496548
sg98
g108
sg91
I9
sg100
F5.0165529907731603
sg101
g105
sbag1
(g87
g3
NtRp121
(dp122
g97
F-0.03049850844934382
sg98
g108
sg91
I10
sg100
F4.1083893046822535
sg101
g105
sbag1
(g87
g3
NtRp123
(dp124
g97
F0.54509498514151244
sg98
g108
sg91
I11
sg100
F5.1170628470276824
sg101
g105
sbasb.