ccopy_reg
_reconstructor
p1
(cneat.chromosome
Chromosome
p2
c__builtin__
object
p3
NtRp4
(dp5
S'species_id'
p6
I60
sS'_connection_genes'
p7
(dp8
(I4
I7
tp9
g1
(cneat.genome
ConnectionGene
p10
g3
NtRp11
(dp12
S'_ConnectionGene__weight'
p13
F-8.0610970149301977
sS'_ConnectionGene__in'
p14
I4
sS'_ConnectionGene__enabled'
p15
I01
sS'_ConnectionGene__out'
p16
I7
sS'_ConnectionGene__innov_number'
p17
I29
sbs(I1
I3
tp18
g1
(g10
g3
NtRp19
(dp20
g13
F19.351133223320367
sg14
I1
sg15
I01
sg16
I3
sg17
I2
sbs(I8
I13
tp21
g1
(g10
g3
NtRp22
(dp23
g13
F12.847319532632779
sg14
I8
sg15
I01
sg16
I13
sg17
I124
sbs(I6
I6
tp24
g1
(g10
g3
NtRp25
(dp26
g13
F1.2823463495871783
sg14
I6
sg15
I01
sg16
I6
sg17
I34
sbs(I7
I12
tp27
g1
(g10
g3
NtRp28
(dp29
g13
F-15.782697058022741
sg14
I7
sg15
I01
sg16
I12
sg17
I102
sbs(I2
I8
tp30
g1
(g10
g3
NtRp31
(dp32
g13
F-2.3208975645138223
sg14
I2
sg15
I01
sg16
I8
sg17
I46
sbs(I12
I12
tp33
g1
(g10
g3
NtRp34
(dp35
g13
F5.1909311892881194
sg14
I12
sg15
I01
sg16
I12
sg17
I160
sbs(I3
I11
tp36
g1
(g10
g3
NtRp37
(dp38
g13
F-17.262546333712613
sg14
I3
sg15
I01
sg16
I11
sg17
I98
sbs(I8
I9
tp39
g1
(g10
g3
NtRp40
(dp41
g13
F-26.262109574807777
sg14
I8
sg15
I01
sg16
I9
sg17
I61
sbs(I6
I2
tp42
g1
(g10
g3
NtRp43
(dp44
g13
F20.638065470144323
sg14
I6
sg15
I01
sg16
I2
sg17
I23
sbs(I20
I8
tp45
g1
(g10
g3
NtRp46
(dp47
g13
F-1.1598431608960249
sg14
I20
sg15
I01
sg16
I8
sg17
I318
sbs(I18
I8
tp48
g1
(g10
g3
NtRp49
(dp50
g13
F13.866466477192079
sg14
I18
sg15
I01
sg16
I8
sg17
I206
sbs(I2
I5
tp51
g1
(g10
g3
NtRp52
(dp53
g13
F3.0537459921429599
sg14
I2
sg15
I01
sg16
I5
sg17
I10
sbs(I3
I17
tp54
g1
(g10
g3
NtRp55
(dp56
g13
F30
sg14
I3
sg15
I01
sg16
I17
sg17
I271
sbs(I6
I9
tp57
g1
(g10
g3
NtRp58
(dp59
g13
F21.654312527061741
sg14
I6
sg15
I01
sg16
I9
sg17
I56
sbs(I3
I14
tp60
g1
(g10
g3
NtRp61
(dp62
g13
F-24.795382678515363
sg14
I3
sg15
I01
sg16
I14
sg17
I157
sbs(I1
I2
tp63
g1
(g10
g3
NtRp64
(dp65
g13
F23.011078834590784
sg14
I1
sg15
I01
sg16
I2
sg17
I1
sbs(I4
I13
tp66
g1
(g10
g3
NtRp67
(dp68
g13
F-7.0551072394875352
sg14
I4
sg15
I01
sg16
I13
sg17
I135
sbs(I14
I2
tp69
g1
(g10
g3
NtRp70
(dp71
g13
F9.954275145412959
sg14
I14
sg15
I01
sg16
I2
sg17
I130
sbs(I3
I3
tp72
g1
(g10
g3
NtRp73
(dp74
g13
F11.21762852049465
sg14
I3
sg15
I01
sg16
I3
sg17
I6
sbs(I1
I16
tp75
g1
(g10
g3
NtRp76
(dp77
g13
F19.364434975491154
sg14
I1
sg15
I01
sg16
I16
sg17
I245
sbs(I4
I4
tp78
g1
(g10
g3
NtRp79
(dp80
g13
F11.484986721776231
sg14
I4
sg15
I01
sg16
I4
sg17
I26
sbs(I3
I4
tp81
g1
(g10
g3
NtRp82
(dp83
g13
F8.8280344155779247
sg14
I3
sg15
I01
sg16
I4
sg17
I9
sbs(I6
I3
tp84
g1
(g10
g3
NtRp85
(dp86
g13
F-27.485645175438812
sg14
I6
sg15
I01
sg16
I3
sg17
I37
sbs(I1
I5
tp87
g1
(g10
g3
NtRp88
(dp89
g13
F-1.3696082994128198
sg14
I1
sg15
I00
sg16
I5
sg17
I14
sbs(I13
I7
tp90
g1
(g10
g3
NtRp91
(dp92
g13
F15.375021015829169
sg14
I13
sg15
I01
sg16
I7
sg17
I136
sbs(I7
I2
tp93
g1
(g10
g3
NtRp94
(dp95
g13
F-25.898944694857228
sg14
I7
sg15
I01
sg16
I2
sg17
I21
sbs(I2
I2
tp96
g1
(g10
g3
NtRp97
(dp98
g13
F30
sg14
I2
sg15
I00
sg16
I2
sg17
I4
sbs(I1
I10
tp99
g1
(g10
g3
NtRp100
(dp101
g13
F3.4204189684968904
sg14
I1
sg15
I01
sg16
I10
sg17
I65
sbs(I8
I6
tp102
g1
(g10
g3
NtRp103
(dp104
g13
F-28.710826934033399
sg14
I8
sg15
I01
sg16
I6
sg17
I51
sbs(I11
I13
tp105
g1
(g10
g3
NtRp106
(dp107
g13
F-7.5003582036515555
sg14
I11
sg15
I01
sg16
I13
sg17
I156
sbs(I3
I2
tp108
g1
(g10
g3
NtRp109
(dp110
g13
F10.890182441755194
sg14
I3
sg15
I01
sg16
I2
sg17
I3
sbs(I2
I6
tp111
g1
(g10
g3
NtRp112
(dp113
g13
F-20.319723738189062
sg14
I2
sg15
I00
sg16
I6
sg17
I15
sbs(I12
I14
tp114
g1
(g10
g3
NtRp115
(dp116
g13
F-12.347334458677166
sg14
I12
sg15
I01
sg16
I14
sg17
I221
sbs(I9
I3
tp117
g1
(g10
g3
NtRp118
(dp119
g13
F12.123580029055567
sg14
I9
sg15
I01
sg16
I3
sg17
I95
sbs(I2
I20
tp120
g1
(g10
g3
NtRp121
(dp122
g13
F5.4444857808838574
sg14
I2
sg15
I01
sg16
I20
sg17
I300
sbs(I15
I10
tp123
g1
(g10
g3
NtRp124
(dp125
g13
F-3.8745874261913946
sg14
I15
sg15
I01
sg16
I10
sg17
I189
sbs(I17
I2
tp126
g1
(g10
g3
NtRp127
(dp128
g13
F2.0126942263997147
sg14
I17
sg15
I01
sg16
I2
sg17
I239
sbs(I12
I10
tp129
g1
(g10
g3
NtRp130
(dp131
g13
F-16.691899462039416
sg14
I12
sg15
I01
sg16
I10
sg17
I103
sbs(I4
I2
tp132
g1
(g10
g3
NtRp133
(dp134
g13
F25.517072257046049
sg14
I4
sg15
I01
sg16
I2
sg17
I8
sbs(I2
I14
tp135
g1
(g10
g3
NtRp136
(dp137
g13
F-2.127348800506383
sg14
I2
sg15
I01
sg16
I14
sg17
I129
sbs(I5
I3
tp138
g1
(g10
g3
NtRp139
(dp140
g13
F8.4855426216867702
sg14
I5
sg15
I01
sg16
I3
sg17
I27
sbs(I11
I7
tp141
g1
(g10
g3
NtRp142
(dp143
g13
F-23.550295961486853
sg14
I11
sg15
I00
sg16
I7
sg17
I107
sbs(I12
I15
tp144
g1
(g10
g3
NtRp145
(dp146
g13
F11.108783921473719
sg14
I12
sg15
I01
sg16
I15
sg17
I217
sbs(I5
I10
tp147
g1
(g10
g3
NtRp148
(dp149
g13
F16.240514124225939
sg14
I5
sg15
I00
sg16
I10
sg17
I78
sbs(I16
I5
tp150
g1
(g10
g3
NtRp151
(dp152
g13
F-9.5412421883722409
sg14
I16
sg15
I01
sg16
I5
sg17
I178
sbs(I9
I2
tp153
g1
(g10
g3
NtRp154
(dp155
g13
F9.741707565572451
sg14
I9
sg15
I01
sg16
I2
sg17
I59
sbs(I5
I2
tp156
g1
(g10
g3
NtRp157
(dp158
g13
F-30
sg14
I5
sg15
I01
sg16
I2
sg17
I11
sbs(I16
I8
tp159
g1
(g10
g3
NtRp160
(dp161
g13
F-14.455615517112394
sg14
I16
sg15
I01
sg16
I8
sg17
I172
sbs(I14
I7
tp162
g1
(g10
g3
NtRp163
(dp164
g13
F6.8067971103908285
sg14
I14
sg15
I01
sg16
I7
sg17
I263
sbs(I11
I3
tp165
g1
(g10
g3
NtRp166
(dp167
g13
F3.2874858366241115
sg14
I11
sg15
I01
sg16
I3
sg17
I99
sbs(I12
I19
tp168
g1
(g10
g3
NtRp169
(dp170
g13
F6.8673729064768594
sg14
I12
sg15
I01
sg16
I19
sg17
I281
sbs(I14
I8
tp171
g1
(g10
g3
NtRp172
(dp173
g13
F1.4769281672170131
sg14
I14
sg15
I01
sg16
I8
sg17
I132
sbs(I3
I8
tp174
g1
(g10
g3
NtRp175
(dp176
g13
F-16.308511002433651
sg14
I3
sg15
I00
sg16
I8
sg17
I45
sbs(I3
I18
tp177
g1
(g10
g3
NtRp178
(dp179
g13
F-13.001250864877367
sg14
I3
sg15
I01
sg16
I18
sg17
I248
sbs(I19
I12
tp180
g1
(g10
g3
NtRp181
(dp182
g13
F6.0361863868413712
sg14
I19
sg15
I01
sg16
I12
sg17
I257
sbs(I20
I6
tp183
g1
(g10
g3
NtRp184
(dp185
g13
F-17.421880713005802
sg14
I20
sg15
I01
sg16
I6
sg17
I301
sbs(I9
I5
tp186
g1
(g10
g3
NtRp187
(dp188
g13
F6.6317855494167262
sg14
I9
sg15
I01
sg16
I5
sg17
I57
sbs(I7
I8
tp189
g1
(g10
g3
NtRp190
(dp191
g13
F19.147513401315138
sg14
I7
sg15
I01
sg16
I8
sg17
I52
sbs(I5
I12
tp192
g1
(g10
g3
NtRp193
(dp194
g13
F-13.984285492713077
sg14
I5
sg15
I01
sg16
I12
sg17
I87
sbs(I9
I12
tp195
g1
(g10
g3
NtRp196
(dp197
g13
F-12.022699465608412
sg14
I9
sg15
I01
sg16
I12
sg17
I82
sbs(I10
I2
tp198
g1
(g10
g3
NtRp199
(dp200
g13
F-0.25456062050610029
sg14
I10
sg15
I01
sg16
I2
sg17
I64
sbssS'_input_nodes'
p201
I1
sS'_output_nodes'
p202
I1
sS'_node_gene_type'
p203
cneat.genome
NodeGene
p204
sS'_conn_gene_type'
p205
g10
sS'fitness'
p206
F0.9715772436038711
sS'parent2_id'
p207
I8523
sS'_id'
p208
I8552
sS'parent1_id'
p209
I8523
sS'_node_genes'
p210
(lp211
g1
(g204
g3
NtRp212
(dp213
S'_bias'
p214
I0
sS'_type'
p215
S'INPUT'
p216
sg208
I1
sS'_response'
p217
F4.9242730000000003
sS'_activation_type'
p218
Nsbag1
(g204
g3
NtRp219
(dp220
g214
F-1.4776822566135461
sg215
S'OUTPUT'
p221
sg208
I2
sg217
F3.017019674763437
sg218
S'tanh'
p222
sbag1
(g204
g3
NtRp223
(dp224
g214
F-4.1176104248992731
sg215
S'HIDDEN'
p225
sg208
I3
sg217
F16.265702431386607
sg218
g222
sbag1
(g204
g3
NtRp226
(dp227
g214
F6.2289893199582096
sg215
g225
sg208
I4
sg217
F3.3193402482321792
sg218
g222
sbag1
(g204
g3
NtRp228
(dp229
g214
F-5.9643451670954715
sg215
g225
sg208
I5
sg217
F-8.4514267937968395
sg218
g222
sbag1
(g204
g3
NtRp230
(dp231
g214
F-4.5687481128286453
sg215
g225
sg208
I6
sg217
F0.35781304070870112
sg218
g222
sbag1
(g204
g3
NtRp232
(dp233
g214
F3.9734212324552227
sg215
g225
sg208
I7
sg217
F7.0358023609705445
sg218
g222
sbag1
(g204
g3
NtRp234
(dp235
g214
F-5.595181686986848
sg215
g225
sg208
I8
sg217
F10.010464416934679
sg218
g222
sbag1
(g204
g3
NtRp236
(dp237
g214
F2.0938760893981043
sg215
g225
sg208
I9
sg217
F2.1130384303102816
sg218
g222
sbag1
(g204
g3
NtRp238
(dp239
g214
F-2.3684276756174727
sg215
g225
sg208
I10
sg217
F8.4442275528902524
sg218
g222
sbag1
(g204
g3
NtRp240
(dp241
g214
F-2.4179254653638349
sg215
g225
sg208
I11
sg217
F3.6787439347922009
sg218
g222
sbag1
(g204
g3
NtRp242
(dp243
g214
F0.085963100511931206
sg215
g225
sg208
I12
sg217
F3.259166609791019
sg218
g222
sbag1
(g204
g3
NtRp244
(dp245
g214
F2.0036639173887933
sg215
g225
sg208
I13
sg217
F6.7632962976124276
sg218
g222
sbag1
(g204
g3
NtRp246
(dp247
g214
F-1.7071722801188138
sg215
g225
sg208
I14
sg217
F5.1934861926442455
sg218
g222
sbag1
(g204
g3
NtRp248
(dp249
g214
F4.2639912044112176
sg215
g225
sg208
I15
sg217
F6.0498418162863663
sg218
g222
sbag1
(g204
g3
NtRp250
(dp251
g214
F-2.5926066983506688
sg215
g225
sg208
I16
sg217
F6.7690805109262691
sg218
g222
sbag1
(g204
g3
NtRp252
(dp253
g214
F-0.64043639783645234
sg215
g225
sg208
I17
sg217
F1.973016172634976
sg218
g222
sbag1
(g204
g3
NtRp254
(dp255
g214
F-1.0507590738770758
sg215
g225
sg208
I18
sg217
F2.8197733262961799
sg218
g222
sbag1
(g204
g3
NtRp256
(dp257
g214
F1.8272427411838434
sg215
g225
sg208
I19
sg217
F2.9205638901106976
sg218
g222
sbag1
(g204
g3
NtRp258
(dp259
g214
F-1.1226746678304753
sg215
g225
sg208
I20
sg217
F5.6541015937910233
sg218
g222
sbasb.