ccopy_reg
_reconstructor
p1
(cneat.chromosome
Chromosome
p2
c__builtin__
object
p3
NtRp4
(dp5
S'species_id'
p6
I46
sS'_connection_genes'
p7
(dp8
(I5
I9
tp9
g1
(cneat.genome
ConnectionGene
p10
g3
NtRp11
(dp12
S'_ConnectionGene__weight'
p13
F7.5499046083332244
sS'_ConnectionGene__in'
p14
I5
sS'_ConnectionGene__enabled'
p15
I01
sS'_ConnectionGene__out'
p16
I9
sS'_ConnectionGene__innov_number'
p17
I58
sbs(I4
I7
tp18
g1
(g10
g3
NtRp19
(dp20
g13
F-25.77018018903339
sg14
I4
sg15
I01
sg16
I7
sg17
I29
sbs(I1
I3
tp21
g1
(g10
g3
NtRp22
(dp23
g13
F12.660825661767623
sg14
I1
sg15
I01
sg16
I3
sg17
I2
sbs(I14
I4
tp24
g1
(g10
g3
NtRp25
(dp26
g13
F0.01780550410113288
sg14
I14
sg15
I01
sg16
I4
sg17
I143
sbs(I13
I4
tp27
g1
(g10
g3
NtRp28
(dp29
g13
F25.843866470202315
sg14
I13
sg15
I01
sg16
I4
sg17
I120
sbs(I7
I8
tp30
g1
(g10
g3
NtRp31
(dp32
g13
F-9.6858295542222415
sg14
I7
sg15
I01
sg16
I8
sg17
I52
sbs(I3
I11
tp33
g1
(g10
g3
NtRp34
(dp35
g13
F17.855651700926945
sg14
I3
sg15
I01
sg16
I11
sg17
I98
sbs(I1
I15
tp36
g1
(g10
g3
NtRp37
(dp38
g13
F-9.2536077671232118
sg14
I1
sg15
I01
sg16
I15
sg17
I148
sbs(I13
I17
tp39
g1
(g10
g3
NtRp40
(dp41
g13
F0.11076468813608109
sg14
I13
sg15
I01
sg16
I17
sg17
I183
sbs(I6
I2
tp42
g1
(g10
g3
NtRp43
(dp44
g13
F18.258705634328042
sg14
I6
sg15
I01
sg16
I2
sg17
I23
sbs(I7
I16
tp45
g1
(g10
g3
NtRp46
(dp47
g13
F-4.8880568411509859
sg14
I7
sg15
I01
sg16
I16
sg17
I171
sbs(I4
I2
tp48
g1
(g10
g3
NtRp49
(dp50
g13
F-5.7519235524507319
sg14
I4
sg15
I01
sg16
I2
sg17
I8
sbs(I2
I5
tp51
g1
(g10
g3
NtRp52
(dp53
g13
F-6.3989226258683667
sg14
I2
sg15
I01
sg16
I5
sg17
I10
sbs(I15
I5
tp54
g1
(g10
g3
NtRp55
(dp56
g13
F2.2793971820238967
sg14
I15
sg15
I01
sg16
I5
sg17
I165
sbs(I7
I2
tp57
g1
(g10
g3
NtRp58
(dp59
g13
F-29.696227375554066
sg14
I7
sg15
I01
sg16
I2
sg17
I21
sbs(I1
I2
tp60
g1
(g10
g3
NtRp61
(dp62
g13
F-10.321587142571381
sg14
I1
sg15
I01
sg16
I2
sg17
I1
sbs(I12
I2
tp63
g1
(g10
g3
NtRp64
(dp65
g13
F24.479459676004758
sg14
I12
sg15
I01
sg16
I2
sg17
I80
sbs(I3
I3
tp66
g1
(g10
g3
NtRp67
(dp68
g13
F-8.1851990802281875
sg14
I3
sg15
I01
sg16
I3
sg17
I6
sbs(I2
I8
tp69
g1
(g10
g3
NtRp70
(dp71
g13
F-23.120677261201216
sg14
I2
sg15
I01
sg16
I8
sg17
I46
sbs(I1
I5
tp72
g1
(g10
g3
NtRp73
(dp74
g13
F-23.77804564283667
sg14
I1
sg15
I01
sg16
I5
sg17
I14
sbs(I6
I5
tp75
g1
(g10
g3
NtRp76
(dp77
g13
F-1.8669844610042332
sg14
I6
sg15
I01
sg16
I5
sg17
I16
sbs(I2
I2
tp78
g1
(g10
g3
NtRp79
(dp80
g13
F-15.303637250428727
sg14
I2
sg15
I01
sg16
I2
sg17
I4
sbs(I8
I6
tp81
g1
(g10
g3
NtRp82
(dp83
g13
F10.374272470758036
sg14
I8
sg15
I01
sg16
I6
sg17
I51
sbs(I3
I2
tp84
g1
(g10
g3
NtRp85
(dp86
g13
F-2.5181431446769746
sg14
I3
sg15
I01
sg16
I2
sg17
I3
sbs(I2
I6
tp87
g1
(g10
g3
NtRp88
(dp89
g13
F-11.968362640679644
sg14
I2
sg15
I01
sg16
I6
sg17
I15
sbs(I3
I13
tp90
g1
(g10
g3
NtRp91
(dp92
g13
F13.302903274459076
sg14
I3
sg15
I01
sg16
I13
sg17
I105
sbs(I7
I5
tp93
g1
(g10
g3
NtRp94
(dp95
g13
F-6.334922432144463
sg14
I7
sg15
I00
sg16
I5
sg17
I19
sbs(I6
I12
tp96
g1
(g10
g3
NtRp97
(dp98
g13
F-10.748691540440408
sg14
I6
sg15
I01
sg16
I12
sg17
I115
sbs(I17
I4
tp99
g1
(g10
g3
NtRp100
(dp101
g13
F20.977621502209079
sg14
I17
sg15
I01
sg16
I4
sg17
I184
sbs(I6
I9
tp102
g1
(g10
g3
NtRp103
(dp104
g13
F-21.547075386004959
sg14
I6
sg15
I01
sg16
I9
sg17
I56
sbs(I5
I10
tp105
g1
(g10
g3
NtRp106
(dp107
g13
F7.4546807136729942
sg14
I5
sg15
I01
sg16
I10
sg17
I78
sbs(I6
I8
tp108
g1
(g10
g3
NtRp109
(dp110
g13
F-0.96286931647776663
sg14
I6
sg15
I01
sg16
I8
sg17
I53
sbs(I16
I5
tp111
g1
(g10
g3
NtRp112
(dp113
g13
F1.1732233707154089
sg14
I16
sg15
I01
sg16
I5
sg17
I178
sbs(I9
I2
tp114
g1
(g10
g3
NtRp115
(dp116
g13
F18.50521235309002
sg14
I9
sg15
I01
sg16
I2
sg17
I59
sbs(I5
I2
tp117
g1
(g10
g3
NtRp118
(dp119
g13
F16.699830485338822
sg14
I5
sg15
I00
sg16
I2
sg17
I11
sbs(I11
I3
tp120
g1
(g10
g3
NtRp121
(dp122
g13
F30
sg14
I11
sg15
I01
sg16
I3
sg17
I99
sbs(I13
I14
tp123
g1
(g10
g3
NtRp124
(dp125
g13
F3.6319514316708759
sg14
I13
sg15
I01
sg16
I14
sg17
I142
sbs(I3
I4
tp126
g1
(g10
g3
NtRp127
(dp128
g13
F-21.916214954743349
sg14
I3
sg15
I01
sg16
I4
sg17
I9
sbs(I10
I2
tp129
g1
(g10
g3
NtRp130
(dp131
g13
F7.4794890110123244
sg14
I10
sg15
I01
sg16
I2
sg17
I64
sbssS'_input_nodes'
p132
I1
sS'_output_nodes'
p133
I1
sS'_node_gene_type'
p134
cneat.genome
NodeGene
p135
sS'_conn_gene_type'
p136
g10
sS'fitness'
p137
F0.99130683579302115
sS'parent2_id'
p138
I5515
sS'_id'
p139
I5537
sS'parent1_id'
p140
I5515
sS'_node_genes'
p141
(lp142
g1
(g135
g3
NtRp143
(dp144
S'_bias'
p145
I0
sS'_type'
p146
S'INPUT'
p147
sg139
I1
sS'_response'
p148
F4.9242730000000003
sS'_activation_type'
p149
Nsbag1
(g135
g3
NtRp150
(dp151
g145
F0.42065547715437401
sg146
S'OUTPUT'
p152
sg139
I2
sg148
F3.5030559798903842
sg149
S'tanh'
p153
sbag1
(g135
g3
NtRp154
(dp155
g145
F0.56163868215144697
sg146
S'HIDDEN'
p156
sg139
I3
sg148
F7.2732818968113619
sg149
g153
sbag1
(g135
g3
NtRp157
(dp158
g145
F1.0729107898454555
sg146
g156
sg139
I4
sg148
F5.6298893667536305
sg149
g153
sbag1
(g135
g3
NtRp159
(dp160
g145
F-0.73464766728644038
sg146
g156
sg139
I5
sg148
F0.78603965349214799
sg149
g153
sbag1
(g135
g3
NtRp161
(dp162
g145
F2.1960942978078997
sg146
g156
sg139
I6
sg148
F6.7054606730247723
sg149
g153
sbag1
(g135
g3
NtRp163
(dp164
g145
F-0.41487690039342501
sg146
g156
sg139
I7
sg148
F8.4524660657641366
sg149
g153
sbag1
(g135
g3
NtRp165
(dp166
g145
F0.65302779002021416
sg146
g156
sg139
I8
sg148
F0.14213974227505388
sg149
g153
sbag1
(g135
g3
NtRp167
(dp168
g145
F-5.3148137101676305
sg146
g156
sg139
I9
sg148
F4.5021299951777625
sg149
g153
sbag1
(g135
g3
NtRp169
(dp170
g145
F-1.258679380220991
sg146
g156
sg139
I10
sg148
F5.7551942151649902
sg149
g153
sbag1
(g135
g3
NtRp171
(dp172
g145
F-1.0619089573297997
sg146
g156
sg139
I11
sg148
F3.9195804590182064
sg149
g153
sbag1
(g135
g3
NtRp173
(dp174
g145
F-0.80977698690458821
sg146
g156
sg139
I12
sg148
F8.9920814297872429
sg149
g153
sbag1
(g135
g3
NtRp175
(dp176
g145
F2.7166656694852742
sg146
g156
sg139
I13
sg148
F7.1448369588872866
sg149
g153
sbag1
(g135
g3
NtRp177
(dp178
g145
F0.1225901724223466
sg146
g156
sg139
I14
sg148
F4.3752878570114433
sg149
g153
sbag1
(g135
g3
NtRp179
(dp180
g145
F-0.0056648669987402964
sg146
g156
sg139
I15
sg148
F4.4235935619970146
sg149
g153
sbag1
(g135
g3
NtRp181
(dp182
g145
F-1.3249883521617352
sg146
g156
sg139
I16
sg148
F5.7249432103833673
sg149
g153
sbag1
(g135
g3
NtRp183
(dp184
g145
F-1.8911886242222591
sg146
g156
sg139
I17
sg148
F5.5026833277208391
sg149
g153
sbasb.