ccopy_reg
_reconstructor
p1
(cneat.chromosome
Chromosome
p2
c__builtin__
object
p3
NtRp4
(dp5
S'species_id'
p6
I54
sS'_connection_genes'
p7
(dp8
(I4
I7
tp9
g1
(cneat.genome
ConnectionGene
p10
g3
NtRp11
(dp12
S'_ConnectionGene__weight'
p13
F-3.535378957830742
sS'_ConnectionGene__in'
p14
I4
sS'_ConnectionGene__enabled'
p15
I01
sS'_ConnectionGene__out'
p16
I7
sS'_ConnectionGene__innov_number'
p17
I29
sbs(I1
I3
tp18
g1
(g10
g3
NtRp19
(dp20
g13
F8.872522109947159
sg14
I1
sg15
I01
sg16
I3
sg17
I2
sbs(I8
I13
tp21
g1
(g10
g3
NtRp22
(dp23
g13
F3.4453429700277858
sg14
I8
sg15
I01
sg16
I13
sg17
I124
sbs(I6
I6
tp24
g1
(g10
g3
NtRp25
(dp26
g13
F8.8658640619024069
sg14
I6
sg15
I01
sg16
I6
sg17
I34
sbs(I7
I12
tp27
g1
(g10
g3
NtRp28
(dp29
g13
F-8.2483499228727144
sg14
I7
sg15
I01
sg16
I12
sg17
I102
sbs(I2
I8
tp30
g1
(g10
g3
NtRp31
(dp32
g13
F-17.644225582848659
sg14
I2
sg15
I01
sg16
I8
sg17
I46
sbs(I12
I12
tp33
g1
(g10
g3
NtRp34
(dp35
g13
F11.603919347056276
sg14
I12
sg15
I01
sg16
I12
sg17
I160
sbs(I3
I11
tp36
g1
(g10
g3
NtRp37
(dp38
g13
F-20.902410795102401
sg14
I3
sg15
I01
sg16
I11
sg17
I98
sbs(I8
I9
tp39
g1
(g10
g3
NtRp40
(dp41
g13
F-19.402002565568115
sg14
I8
sg15
I01
sg16
I9
sg17
I61
sbs(I6
I2
tp42
g1
(g10
g3
NtRp43
(dp44
g13
F2.7041430544062797
sg14
I6
sg15
I01
sg16
I2
sg17
I23
sbs(I2
I5
tp45
g1
(g10
g3
NtRp46
(dp47
g13
F-18.787088046050229
sg14
I2
sg15
I01
sg16
I5
sg17
I10
sbs(I6
I9
tp48
g1
(g10
g3
NtRp49
(dp50
g13
F8.8802847348275868
sg14
I6
sg15
I01
sg16
I9
sg17
I56
sbs(I7
I2
tp51
g1
(g10
g3
NtRp52
(dp53
g13
F-23.619552084912385
sg14
I7
sg15
I01
sg16
I2
sg17
I21
sbs(I1
I2
tp54
g1
(g10
g3
NtRp55
(dp56
g13
F9.7137430711549708
sg14
I1
sg15
I01
sg16
I2
sg17
I1
sbs(I14
I2
tp57
g1
(g10
g3
NtRp58
(dp59
g13
F13.881865596075482
sg14
I14
sg15
I01
sg16
I2
sg17
I130
sbs(I3
I3
tp60
g1
(g10
g3
NtRp61
(dp62
g13
F11.652152499908579
sg14
I3
sg15
I01
sg16
I3
sg17
I6
sbs(I5
I12
tp63
g1
(g10
g3
NtRp64
(dp65
g13
F-0.13583116740784112
sg14
I5
sg15
I01
sg16
I12
sg17
I87
sbs(I3
I4
tp66
g1
(g10
g3
NtRp67
(dp68
g13
F5.0023692312913193
sg14
I3
sg15
I01
sg16
I4
sg17
I9
sbs(I6
I3
tp69
g1
(g10
g3
NtRp70
(dp71
g13
F-25.558222907834111
sg14
I6
sg15
I01
sg16
I3
sg17
I37
sbs(I1
I5
tp72
g1
(g10
g3
NtRp73
(dp74
g13
F5.8752180182738183
sg14
I1
sg15
I00
sg16
I5
sg17
I14
sbs(I13
I7
tp75
g1
(g10
g3
NtRp76
(dp77
g13
F3.8968687322967366
sg14
I13
sg15
I01
sg16
I7
sg17
I136
sbs(I3
I14
tp78
g1
(g10
g3
NtRp79
(dp80
g13
F-8.2232064959611471
sg14
I3
sg15
I01
sg16
I14
sg17
I157
sbs(I2
I2
tp81
g1
(g10
g3
NtRp82
(dp83
g13
F14.394718836352482
sg14
I2
sg15
I00
sg16
I2
sg17
I4
sbs(I1
I10
tp84
g1
(g10
g3
NtRp85
(dp86
g13
F-4.8983144026695662
sg14
I1
sg15
I01
sg16
I10
sg17
I65
sbs(I8
I6
tp87
g1
(g10
g3
NtRp88
(dp89
g13
F-26.828238812007086
sg14
I8
sg15
I01
sg16
I6
sg17
I51
sbs(I11
I13
tp90
g1
(g10
g3
NtRp91
(dp92
g13
F-30
sg14
I11
sg15
I01
sg16
I13
sg17
I156
sbs(I3
I2
tp93
g1
(g10
g3
NtRp94
(dp95
g13
F13.874295826912288
sg14
I3
sg15
I00
sg16
I2
sg17
I3
sbs(I2
I6
tp96
g1
(g10
g3
NtRp97
(dp98
g13
F-22.148821331909936
sg14
I2
sg15
I01
sg16
I6
sg17
I15
sbs(I9
I3
tp99
g1
(g10
g3
NtRp100
(dp101
g13
F7.4447282685722564
sg14
I9
sg15
I01
sg16
I3
sg17
I95
sbs(I15
I10
tp102
g1
(g10
g3
NtRp103
(dp104
g13
F-17.979661030398642
sg14
I15
sg15
I01
sg16
I10
sg17
I189
sbs(I12
I10
tp105
g1
(g10
g3
NtRp106
(dp107
g13
F-29.661351190807594
sg14
I12
sg15
I00
sg16
I10
sg17
I103
sbs(I4
I2
tp108
g1
(g10
g3
NtRp109
(dp110
g13
F1.9220649206567983
sg14
I4
sg15
I01
sg16
I2
sg17
I8
sbs(I2
I14
tp111
g1
(g10
g3
NtRp112
(dp113
g13
F3.7873733481853065
sg14
I2
sg15
I01
sg16
I14
sg17
I129
sbs(I5
I3
tp114
g1
(g10
g3
NtRp115
(dp116
g13
F7.1608386814916489
sg14
I5
sg15
I01
sg16
I3
sg17
I27
sbs(I11
I7
tp117
g1
(g10
g3
NtRp118
(dp119
g13
F-24.406899325524751
sg14
I11
sg15
I00
sg16
I7
sg17
I107
sbs(I12
I15
tp120
g1
(g10
g3
NtRp121
(dp122
g13
F-0.89058989749542983
sg14
I12
sg15
I01
sg16
I15
sg17
I217
sbs(I5
I10
tp123
g1
(g10
g3
NtRp124
(dp125
g13
F9.4477621095540556
sg14
I5
sg15
I00
sg16
I10
sg17
I78
sbs(I16
I5
tp126
g1
(g10
g3
NtRp127
(dp128
g13
F-7.965383701290297
sg14
I16
sg15
I01
sg16
I5
sg17
I178
sbs(I9
I2
tp129
g1
(g10
g3
NtRp130
(dp131
g13
F22.199090067622041
sg14
I9
sg15
I01
sg16
I2
sg17
I59
sbs(I5
I2
tp132
g1
(g10
g3
NtRp133
(dp134
g13
F-26.60791968199619
sg14
I5
sg15
I01
sg16
I2
sg17
I11
sbs(I16
I8
tp135
g1
(g10
g3
NtRp136
(dp137
g13
F-0.38933638234247409
sg14
I16
sg15
I01
sg16
I8
sg17
I172
sbs(I14
I7
tp138
g1
(g10
g3
NtRp139
(dp140
g13
F-0.27258349642065127
sg14
I14
sg15
I01
sg16
I7
sg17
I263
sbs(I11
I3
tp141
g1
(g10
g3
NtRp142
(dp143
g13
F-12.322606125563718
sg14
I11
sg15
I01
sg16
I3
sg17
I99
sbs(I3
I8
tp144
g1
(g10
g3
NtRp145
(dp146
g13
F5.96361556210804
sg14
I3
sg15
I01
sg16
I8
sg17
I45
sbs(I9
I5
tp147
g1
(g10
g3
NtRp148
(dp149
g13
F-5.3677712617442488
sg14
I9
sg15
I01
sg16
I5
sg17
I57
sbs(I7
I8
tp150
g1
(g10
g3
NtRp151
(dp152
g13
F3.5611907770903115
sg14
I7
sg15
I01
sg16
I8
sg17
I52
sbs(I1
I16
tp153
g1
(g10
g3
NtRp154
(dp155
g13
F-1.7620300746820838
sg14
I1
sg15
I01
sg16
I16
sg17
I245
sbs(I9
I12
tp156
g1
(g10
g3
NtRp157
(dp158
g13
F2.8731012010854373
sg14
I9
sg15
I01
sg16
I12
sg17
I82
sbs(I10
I2
tp159
g1
(g10
g3
NtRp160
(dp161
g13
F-18.245134609274878
sg14
I10
sg15
I01
sg16
I2
sg17
I64
sbssS'_input_nodes'
p162
I1
sS'_output_nodes'
p163
I1
sS'_node_gene_type'
p164
cneat.genome
NodeGene
p165
sS'_conn_gene_type'
p166
g10
sS'fitness'
p167
F0.98442363834162894
sS'parent2_id'
p168
I6798
sS'_id'
p169
I6820
sS'parent1_id'
p170
I6798
sS'_node_genes'
p171
(lp172
g1
(g165
g3
NtRp173
(dp174
S'_bias'
p175
I0
sS'_type'
p176
S'INPUT'
p177
sg169
I1
sS'_response'
p178
F4.9242730000000003
sS'_activation_type'
p179
Nsbag1
(g165
g3
NtRp180
(dp181
g175
F0.11521376139803513
sg176
S'OUTPUT'
p182
sg169
I2
sg178
F4.990186586286721
sg179
S'tanh'
p183
sbag1
(g165
g3
NtRp184
(dp185
g175
F-3.5549968100827503
sg176
S'HIDDEN'
p186
sg169
I3
sg178
F15.073973509372136
sg179
g183
sbag1
(g165
g3
NtRp187
(dp188
g175
F7.3473044170269493
sg176
g186
sg169
I4
sg178
F3.9164864844430092
sg179
g183
sbag1
(g165
g3
NtRp189
(dp190
g175
F-3.2000021561082579
sg176
g186
sg169
I5
sg178
F-6.2093116273681472
sg179
g183
sbag1
(g165
g3
NtRp191
(dp192
g175
F-2.8525974814674662
sg176
g186
sg169
I6
sg178
F1.5347854920691477
sg179
g183
sbag1
(g165
g3
NtRp193
(dp194
g175
F3.2902918410684259
sg176
g186
sg169
I7
sg178
F6.4293855634558543
sg179
g183
sbag1
(g165
g3
NtRp195
(dp196
g175
F-5.294710724484939
sg176
g186
sg169
I8
sg178
F10.471376235668156
sg179
g183
sbag1
(g165
g3
NtRp197
(dp198
g175
F3.7992024266038129
sg176
g186
sg169
I9
sg178
F3.6685974484645767
sg179
g183
sbag1
(g165
g3
NtRp199
(dp200
g175
F-0.86895213166559881
sg176
g186
sg169
I10
sg178
F8.3390831595130077
sg179
g183
sbag1
(g165
g3
NtRp201
(dp202
g175
F-0.53988873443139906
sg176
g186
sg169
I11
sg178
F2.3820666357084161
sg179
g183
sbag1
(g165
g3
NtRp203
(dp204
g175
F2.7192582907085194
sg176
g186
sg169
I12
sg178
F5.3242599862388733
sg179
g183
sbag1
(g165
g3
NtRp205
(dp206
g175
F1.1390272470503147
sg176
g186
sg169
I13
sg178
F7.9378131818147946
sg179
g183
sbag1
(g165
g3
NtRp207
(dp208
g175
F-1.1390686760870583
sg176
g186
sg169
I14
sg178
F4.315799870642234
sg179
g183
sbag1
(g165
g3
NtRp209
(dp210
g175
F0.64368063346741655
sg176
g186
sg169
I15
sg178
F4.2839059443388079
sg179
g183
sbag1
(g165
g3
NtRp211
(dp212
g175
F-2.2751898246330562
sg176
g186
sg169
I16
sg178
F3.8880680151333844
sg179
g183
sbasb.