ccopy_reg
_reconstructor
p1
(cneat.chromosome
Chromosome
p2
c__builtin__
object
p3
NtRp4
(dp5
S'species_id'
p6
I55
sS'_connection_genes'
p7
(dp8
(I4
I7
tp9
g1
(cneat.genome
ConnectionGene
p10
g3
NtRp11
(dp12
S'_ConnectionGene__weight'
p13
F5.0120428913892283
sS'_ConnectionGene__in'
p14
I4
sS'_ConnectionGene__enabled'
p15
I01
sS'_ConnectionGene__out'
p16
I7
sS'_ConnectionGene__innov_number'
p17
I29
sbs(I1
I3
tp18
g1
(g10
g3
NtRp19
(dp20
g13
F10.964092069811279
sg14
I1
sg15
I01
sg16
I3
sg17
I2
sbs(I8
I13
tp21
g1
(g10
g3
NtRp22
(dp23
g13
F-5.2115590896309856
sg14
I8
sg15
I01
sg16
I13
sg17
I124
sbs(I6
I6
tp24
g1
(g10
g3
NtRp25
(dp26
g13
F-4.6709099770028804
sg14
I6
sg15
I01
sg16
I6
sg17
I34
sbs(I7
I12
tp27
g1
(g10
g3
NtRp28
(dp29
g13
F-13.31018994165909
sg14
I7
sg15
I01
sg16
I12
sg17
I102
sbs(I2
I8
tp30
g1
(g10
g3
NtRp31
(dp32
g13
F-10.695173183018722
sg14
I2
sg15
I01
sg16
I8
sg17
I46
sbs(I12
I12
tp33
g1
(g10
g3
NtRp34
(dp35
g13
F4.5692940840489475
sg14
I12
sg15
I00
sg16
I12
sg17
I160
sbs(I3
I11
tp36
g1
(g10
g3
NtRp37
(dp38
g13
F-12.835825604233809
sg14
I3
sg15
I01
sg16
I11
sg17
I98
sbs(I8
I9
tp39
g1
(g10
g3
NtRp40
(dp41
g13
F-17.296701634835511
sg14
I8
sg15
I01
sg16
I9
sg17
I61
sbs(I6
I2
tp42
g1
(g10
g3
NtRp43
(dp44
g13
F-1.1046971908779257
sg14
I6
sg15
I01
sg16
I2
sg17
I23
sbs(I18
I8
tp45
g1
(g10
g3
NtRp46
(dp47
g13
F3.782848595916656
sg14
I18
sg15
I01
sg16
I8
sg17
I206
sbs(I2
I5
tp48
g1
(g10
g3
NtRp49
(dp50
g13
F-14.05505234344232
sg14
I2
sg15
I01
sg16
I5
sg17
I10
sbs(I3
I17
tp51
g1
(g10
g3
NtRp52
(dp53
g13
F9.721918796284136
sg14
I3
sg15
I01
sg16
I17
sg17
I271
sbs(I6
I9
tp54
g1
(g10
g3
NtRp55
(dp56
g13
F20.694306764569216
sg14
I6
sg15
I01
sg16
I9
sg17
I56
sbs(I3
I14
tp57
g1
(g10
g3
NtRp58
(dp59
g13
F2.0529597103070847
sg14
I3
sg15
I01
sg16
I14
sg17
I157
sbs(I1
I2
tp60
g1
(g10
g3
NtRp61
(dp62
g13
F16.559662755975417
sg14
I1
sg15
I01
sg16
I2
sg17
I1
sbs(I6
I3
tp63
g1
(g10
g3
NtRp64
(dp65
g13
F-25.89526747028264
sg14
I6
sg15
I01
sg16
I3
sg17
I37
sbs(I14
I2
tp66
g1
(g10
g3
NtRp67
(dp68
g13
F23.680728572117555
sg14
I14
sg15
I01
sg16
I2
sg17
I130
sbs(I3
I3
tp69
g1
(g10
g3
NtRp70
(dp71
g13
F14.137596421110484
sg14
I3
sg15
I01
sg16
I3
sg17
I6
sbs(I5
I12
tp72
g1
(g10
g3
NtRp73
(dp74
g13
F-8.0467171223668075
sg14
I5
sg15
I01
sg16
I12
sg17
I87
sbs(I4
I4
tp75
g1
(g10
g3
NtRp76
(dp77
g13
F7.439947111922681
sg14
I4
sg15
I01
sg16
I4
sg17
I26
sbs(I3
I4
tp78
g1
(g10
g3
NtRp79
(dp80
g13
F3.6876075403251578
sg14
I3
sg15
I01
sg16
I4
sg17
I9
sbs(I17
I2
tp81
g1
(g10
g3
NtRp82
(dp83
g13
F-0.23786765521725739
sg14
I17
sg15
I01
sg16
I2
sg17
I239
sbs(I1
I5
tp84
g1
(g10
g3
NtRp85
(dp86
g13
F-5.0538104336947223
sg14
I1
sg15
I00
sg16
I5
sg17
I14
sbs(I13
I7
tp87
g1
(g10
g3
NtRp88
(dp89
g13
F7.8524353562920179
sg14
I13
sg15
I01
sg16
I7
sg17
I136
sbs(I7
I2
tp90
g1
(g10
g3
NtRp91
(dp92
g13
F-24.981193389288709
sg14
I7
sg15
I01
sg16
I2
sg17
I21
sbs(I2
I2
tp93
g1
(g10
g3
NtRp94
(dp95
g13
F27.316997326619468
sg14
I2
sg15
I00
sg16
I2
sg17
I4
sbs(I1
I10
tp96
g1
(g10
g3
NtRp97
(dp98
g13
F3.2635660604505006
sg14
I1
sg15
I01
sg16
I10
sg17
I65
sbs(I8
I6
tp99
g1
(g10
g3
NtRp100
(dp101
g13
F-20.646433595846357
sg14
I8
sg15
I01
sg16
I6
sg17
I51
sbs(I11
I13
tp102
g1
(g10
g3
NtRp103
(dp104
g13
F-17.842691999802206
sg14
I11
sg15
I01
sg16
I13
sg17
I156
sbs(I3
I2
tp105
g1
(g10
g3
NtRp106
(dp107
g13
F19.038994042176896
sg14
I3
sg15
I01
sg16
I2
sg17
I3
sbs(I2
I6
tp108
g1
(g10
g3
NtRp109
(dp110
g13
F-30
sg14
I2
sg15
I01
sg16
I6
sg17
I15
sbs(I12
I14
tp111
g1
(g10
g3
NtRp112
(dp113
g13
F-9.6344407850900424
sg14
I12
sg15
I01
sg16
I14
sg17
I221
sbs(I9
I3
tp114
g1
(g10
g3
NtRp115
(dp116
g13
F2.1781634525390583
sg14
I9
sg15
I01
sg16
I3
sg17
I95
sbs(I15
I10
tp117
g1
(g10
g3
NtRp118
(dp119
g13
F-1.0355481949630585
sg14
I15
sg15
I01
sg16
I10
sg17
I189
sbs(I12
I10
tp120
g1
(g10
g3
NtRp121
(dp122
g13
F-29.912372251086516
sg14
I12
sg15
I00
sg16
I10
sg17
I103
sbs(I4
I2
tp123
g1
(g10
g3
NtRp124
(dp125
g13
F11.643379479009752
sg14
I4
sg15
I01
sg16
I2
sg17
I8
sbs(I2
I14
tp126
g1
(g10
g3
NtRp127
(dp128
g13
F13.155196076505174
sg14
I2
sg15
I01
sg16
I14
sg17
I129
sbs(I5
I3
tp129
g1
(g10
g3
NtRp130
(dp131
g13
F-3.9767043930187791
sg14
I5
sg15
I01
sg16
I3
sg17
I27
sbs(I11
I7
tp132
g1
(g10
g3
NtRp133
(dp134
g13
F-29.166277319165449
sg14
I11
sg15
I00
sg16
I7
sg17
I107
sbs(I12
I15
tp135
g1
(g10
g3
NtRp136
(dp137
g13
F-1.8748277752891542
sg14
I12
sg15
I01
sg16
I15
sg17
I217
sbs(I5
I10
tp138
g1
(g10
g3
NtRp139
(dp140
g13
F16.077880453636805
sg14
I5
sg15
I00
sg16
I10
sg17
I78
sbs(I16
I5
tp141
g1
(g10
g3
NtRp142
(dp143
g13
F-7.2984183915377061
sg14
I16
sg15
I01
sg16
I5
sg17
I178
sbs(I9
I2
tp144
g1
(g10
g3
NtRp145
(dp146
g13
F27.995438073776381
sg14
I9
sg15
I01
sg16
I2
sg17
I59
sbs(I5
I2
tp147
g1
(g10
g3
NtRp148
(dp149
g13
F-27.890980651857209
sg14
I5
sg15
I01
sg16
I2
sg17
I11
sbs(I16
I8
tp150
g1
(g10
g3
NtRp151
(dp152
g13
F-2.0458756966252181
sg14
I16
sg15
I01
sg16
I8
sg17
I172
sbs(I14
I7
tp153
g1
(g10
g3
NtRp154
(dp155
g13
F-8.5569664683623596
sg14
I14
sg15
I01
sg16
I7
sg17
I263
sbs(I11
I3
tp156
g1
(g10
g3
NtRp157
(dp158
g13
F-15.874237186386162
sg14
I11
sg15
I01
sg16
I3
sg17
I99
sbs(I12
I19
tp159
g1
(g10
g3
NtRp160
(dp161
g13
F4.749064913731103
sg14
I12
sg15
I01
sg16
I19
sg17
I281
sbs(I3
I8
tp162
g1
(g10
g3
NtRp163
(dp164
g13
F0.060907024619920369
sg14
I3
sg15
I00
sg16
I8
sg17
I45
sbs(I3
I18
tp165
g1
(g10
g3
NtRp166
(dp167
g13
F3.3817967121900105
sg14
I3
sg15
I01
sg16
I18
sg17
I248
sbs(I19
I12
tp168
g1
(g10
g3
NtRp169
(dp170
g13
F8.7456826021285963
sg14
I19
sg15
I01
sg16
I12
sg17
I257
sbs(I9
I5
tp171
g1
(g10
g3
NtRp172
(dp173
g13
F-3.1512238634657828
sg14
I9
sg15
I01
sg16
I5
sg17
I57
sbs(I7
I8
tp174
g1
(g10
g3
NtRp175
(dp176
g13
F8.5816797249615995
sg14
I7
sg15
I01
sg16
I8
sg17
I52
sbs(I1
I16
tp177
g1
(g10
g3
NtRp178
(dp179
g13
F-0.95644041767483601
sg14
I1
sg15
I01
sg16
I16
sg17
I245
sbs(I9
I12
tp180
g1
(g10
g3
NtRp181
(dp182
g13
F-1.8461622358001162
sg14
I9
sg15
I01
sg16
I12
sg17
I82
sbs(I10
I2
tp183
g1
(g10
g3
NtRp184
(dp185
g13
F-13.450038052685107
sg14
I10
sg15
I01
sg16
I2
sg17
I64
sbssS'_input_nodes'
p186
I1
sS'_output_nodes'
p187
I1
sS'_node_gene_type'
p188
cneat.genome
NodeGene
p189
sS'_conn_gene_type'
p190
g10
sS'fitness'
p191
F0.88456313600952485
sS'parent2_id'
p192
I7415
sS'_id'
p193
I7433
sS'parent1_id'
p194
I7415
sS'_node_genes'
p195
(lp196
g1
(g189
g3
NtRp197
(dp198
S'_bias'
p199
I0
sS'_type'
p200
S'INPUT'
p201
sg193
I1
sS'_response'
p202
F4.9242730000000003
sS'_activation_type'
p203
Nsbag1
(g189
g3
NtRp204
(dp205
g199
F-0.74716203645881796
sg200
S'OUTPUT'
p206
sg193
I2
sg202
F4.7193764151661419
sg203
S'tanh'
p207
sbag1
(g189
g3
NtRp208
(dp209
g199
F-3.9120705726226674
sg200
S'HIDDEN'
p210
sg193
I3
sg202
F15.926183279371147
sg203
g207
sbag1
(g189
g3
NtRp211
(dp212
g199
F7.1213379850909817
sg200
g210
sg193
I4
sg202
F3.7271706952606869
sg203
g207
sbag1
(g189
g3
NtRp213
(dp214
g199
F-5.1056161888352207
sg200
g210
sg193
I5
sg202
F-7.1107134094059647
sg203
g207
sbag1
(g189
g3
NtRp215
(dp216
g199
F-3.0700043526770218
sg200
g210
sg193
I6
sg202
F-0.44940032319030981
sg203
g207
sbag1
(g189
g3
NtRp217
(dp218
g199
F3.7642208584166488
sg200
g210
sg193
I7
sg202
F7.099755063673725
sg203
g207
sbag1
(g189
g3
NtRp219
(dp220
g199
F-4.7103848074188104
sg200
g210
sg193
I8
sg202
F10.306326587830956
sg203
g207
sbag1
(g189
g3
NtRp221
(dp222
g199
F2.2067285028161328
sg200
g210
sg193
I9
sg202
F2.709817073126374
sg203
g207
sbag1
(g189
g3
NtRp223
(dp224
g199
F-0.79635689814012167
sg200
g210
sg193
I10
sg202
F6.4877354218666117
sg203
g207
sbag1
(g189
g3
NtRp225
(dp226
g199
F-0.50618338943348862
sg200
g210
sg193
I11
sg202
F1.4888593816684135
sg203
g207
sbag1
(g189
g3
NtRp227
(dp228
g199
F2.8517589205466098
sg200
g210
sg193
I12
sg202
F5.7375503177904781
sg203
g207
sbag1
(g189
g3
NtRp229
(dp230
g199
F2.1115474415088098
sg200
g210
sg193
I13
sg202
F7.6141715109964796
sg203
g207
sbag1
(g189
g3
NtRp231
(dp232
g199
F-0.72066019502653789
sg200
g210
sg193
I14
sg202
F4.5835430384234517
sg203
g207
sbag1
(g189
g3
NtRp233
(dp234
g199
F1.6766980348790308
sg200
g210
sg193
I15
sg202
F4.8458989947314777
sg203
g207
sbag1
(g189
g3
NtRp235
(dp236
g199
F-2.6988495395654417
sg200
g210
sg193
I16
sg202
F5.4059699399339909
sg203
g207
sbag1
(g189
g3
NtRp237
(dp238
g199
F0.59062297483194925
sg200
g210
sg193
I17
sg202
F4.5306768549803182
sg203
g207
sbag1
(g189
g3
NtRp239
(dp240
g199
F0.23248645362818479
sg200
g210
sg193
I18
sg202
F4.0942257920854566
sg203
g207
sbag1
(g189
g3
NtRp241
(dp242
g199
F0.9259745410717134
sg200
g210
sg193
I19
sg202
F4.9242730000000003
sg203
g207
sbasb.