ccopy_reg
_reconstructor
p1
(cneat.chromosome
Chromosome
p2
c__builtin__
object
p3
NtRp4
(dp5
S'species_id'
p6
I57
sS'_connection_genes'
p7
(dp8
(I7
I8
tp9
g1
(cneat.genome
ConnectionGene
p10
g3
NtRp11
(dp12
S'_ConnectionGene__weight'
p13
F4.7282491439033549
sS'_ConnectionGene__in'
p14
I7
sS'_ConnectionGene__enabled'
p15
I01
sS'_ConnectionGene__out'
p16
I8
sS'_ConnectionGene__innov_number'
p17
I52
sbs(I4
I7
tp18
g1
(g10
g3
NtRp19
(dp20
g13
F-4.1517505843367886
sg14
I4
sg15
I01
sg16
I7
sg17
I29
sbs(I1
I3
tp21
g1
(g10
g3
NtRp22
(dp23
g13
F3.9010834061827251
sg14
I1
sg15
I01
sg16
I3
sg17
I2
sbs(I8
I13
tp24
g1
(g10
g3
NtRp25
(dp26
g13
F-0.7174621411422768
sg14
I8
sg15
I01
sg16
I13
sg17
I124
sbs(I6
I6
tp27
g1
(g10
g3
NtRp28
(dp29
g13
F-1.2704297065951544
sg14
I6
sg15
I01
sg16
I6
sg17
I34
sbs(I7
I12
tp30
g1
(g10
g3
NtRp31
(dp32
g13
F-19.528151959941276
sg14
I7
sg15
I01
sg16
I12
sg17
I102
sbs(I2
I8
tp33
g1
(g10
g3
NtRp34
(dp35
g13
F-14.183321027736623
sg14
I2
sg15
I01
sg16
I8
sg17
I46
sbs(I12
I12
tp36
g1
(g10
g3
NtRp37
(dp38
g13
F9.5359255154776541
sg14
I12
sg15
I01
sg16
I12
sg17
I160
sbs(I3
I11
tp39
g1
(g10
g3
NtRp40
(dp41
g13
F-26.088621193858728
sg14
I3
sg15
I01
sg16
I11
sg17
I98
sbs(I8
I9
tp42
g1
(g10
g3
NtRp43
(dp44
g13
F-15.722966533466749
sg14
I8
sg15
I01
sg16
I9
sg17
I61
sbs(I6
I2
tp45
g1
(g10
g3
NtRp46
(dp47
g13
F6.9565318451951823
sg14
I6
sg15
I01
sg16
I2
sg17
I23
sbs(I2
I5
tp48
g1
(g10
g3
NtRp49
(dp50
g13
F-19.316124787599144
sg14
I2
sg15
I01
sg16
I5
sg17
I10
sbs(I7
I2
tp51
g1
(g10
g3
NtRp52
(dp53
g13
F-16.621044926653017
sg14
I7
sg15
I01
sg16
I2
sg17
I21
sbs(I1
I2
tp54
g1
(g10
g3
NtRp55
(dp56
g13
F3.5877994208939059
sg14
I1
sg15
I01
sg16
I2
sg17
I1
sbs(I17
I2
tp57
g1
(g10
g3
NtRp58
(dp59
g13
F-28.490996106036558
sg14
I17
sg15
I01
sg16
I2
sg17
I239
sbs(I2
I14
tp60
g1
(g10
g3
NtRp61
(dp62
g13
F9.3375245873472856
sg14
I2
sg15
I01
sg16
I14
sg17
I129
sbs(I3
I3
tp63
g1
(g10
g3
NtRp64
(dp65
g13
F11.74932885564842
sg14
I3
sg15
I01
sg16
I3
sg17
I6
sbs(I5
I12
tp66
g1
(g10
g3
NtRp67
(dp68
g13
F8.4527308315649101
sg14
I5
sg15
I01
sg16
I12
sg17
I87
sbs(I7
I4
tp69
g1
(g10
g3
NtRp70
(dp71
g13
F0.84515449958366995
sg14
I7
sg15
I01
sg16
I4
sg17
I32
sbs(I6
I3
tp72
g1
(g10
g3
NtRp73
(dp74
g13
F-26.737144288411233
sg14
I6
sg15
I01
sg16
I3
sg17
I37
sbs(I1
I5
tp75
g1
(g10
g3
NtRp76
(dp77
g13
F9.1233672071972922
sg14
I1
sg15
I00
sg16
I5
sg17
I14
sbs(I13
I7
tp78
g1
(g10
g3
NtRp79
(dp80
g13
F1.6619536917467626
sg14
I13
sg15
I01
sg16
I7
sg17
I136
sbs(I3
I14
tp81
g1
(g10
g3
NtRp82
(dp83
g13
F-7.6668608712032329
sg14
I3
sg15
I01
sg16
I14
sg17
I157
sbs(I2
I2
tp84
g1
(g10
g3
NtRp85
(dp86
g13
F12.247944253695962
sg14
I2
sg15
I00
sg16
I2
sg17
I4
sbs(I1
I10
tp87
g1
(g10
g3
NtRp88
(dp89
g13
F-6.251602257025195
sg14
I1
sg15
I01
sg16
I10
sg17
I65
sbs(I8
I6
tp90
g1
(g10
g3
NtRp91
(dp92
g13
F-30
sg14
I8
sg15
I01
sg16
I6
sg17
I51
sbs(I11
I13
tp93
g1
(g10
g3
NtRp94
(dp95
g13
F-24.931957604383555
sg14
I11
sg15
I01
sg16
I13
sg17
I156
sbs(I3
I2
tp96
g1
(g10
g3
NtRp97
(dp98
g13
F7.55618599558274
sg14
I3
sg15
I01
sg16
I2
sg17
I3
sbs(I2
I6
tp99
g1
(g10
g3
NtRp100
(dp101
g13
F-21.722839685045219
sg14
I2
sg15
I01
sg16
I6
sg17
I15
sbs(I12
I14
tp102
g1
(g10
g3
NtRp103
(dp104
g13
F1.5464019690278636
sg14
I12
sg15
I01
sg16
I14
sg17
I221
sbs(I9
I3
tp105
g1
(g10
g3
NtRp106
(dp107
g13
F18.499885867525496
sg14
I9
sg15
I01
sg16
I3
sg17
I95
sbs(I12
I15
tp108
g1
(g10
g3
NtRp109
(dp110
g13
F11.17835843866769
sg14
I12
sg15
I01
sg16
I15
sg17
I217
sbs(I15
I10
tp111
g1
(g10
g3
NtRp112
(dp113
g13
F-11.744716002248122
sg14
I15
sg15
I01
sg16
I10
sg17
I189
sbs(I12
I10
tp114
g1
(g10
g3
NtRp115
(dp116
g13
F-17.502443232428949
sg14
I12
sg15
I00
sg16
I10
sg17
I103
sbs(I4
I2
tp117
g1
(g10
g3
NtRp118
(dp119
g13
F9.5277608868602641
sg14
I4
sg15
I01
sg16
I2
sg17
I8
sbs(I14
I2
tp120
g1
(g10
g3
NtRp121
(dp122
g13
F14.945517897404914
sg14
I14
sg15
I01
sg16
I2
sg17
I130
sbs(I17
I4
tp123
g1
(g10
g3
NtRp124
(dp125
g13
F-3.4344479841268281
sg14
I17
sg15
I01
sg16
I4
sg17
I184
sbs(I5
I3
tp126
g1
(g10
g3
NtRp127
(dp128
g13
F5.4030734214549696
sg14
I5
sg15
I01
sg16
I3
sg17
I27
sbs(I11
I7
tp129
g1
(g10
g3
NtRp130
(dp131
g13
F-23.45076919489015
sg14
I11
sg15
I00
sg16
I7
sg17
I107
sbs(I6
I9
tp132
g1
(g10
g3
NtRp133
(dp134
g13
F19.217071877023219
sg14
I6
sg15
I01
sg16
I9
sg17
I56
sbs(I5
I10
tp135
g1
(g10
g3
NtRp136
(dp137
g13
F10.335423808132749
sg14
I5
sg15
I00
sg16
I10
sg17
I78
sbs(I16
I5
tp138
g1
(g10
g3
NtRp139
(dp140
g13
F-5.1185453757924346
sg14
I16
sg15
I01
sg16
I5
sg17
I178
sbs(I9
I2
tp141
g1
(g10
g3
NtRp142
(dp143
g13
F26.858785934788973
sg14
I9
sg15
I01
sg16
I2
sg17
I59
sbs(I5
I2
tp144
g1
(g10
g3
NtRp145
(dp146
g13
F-28.65872159729923
sg14
I5
sg15
I01
sg16
I2
sg17
I11
sbs(I16
I8
tp147
g1
(g10
g3
NtRp148
(dp149
g13
F0.8563901658491031
sg14
I16
sg15
I01
sg16
I8
sg17
I172
sbs(I14
I7
tp150
g1
(g10
g3
NtRp151
(dp152
g13
F-14.548448431032707
sg14
I14
sg15
I01
sg16
I7
sg17
I263
sbs(I11
I3
tp153
g1
(g10
g3
NtRp154
(dp155
g13
F-9.3221390059008868
sg14
I11
sg15
I01
sg16
I3
sg17
I99
sbs(I3
I8
tp156
g1
(g10
g3
NtRp157
(dp158
g13
F-0.15780601298859187
sg14
I3
sg15
I01
sg16
I8
sg17
I45
sbs(I7
I17
tp159
g1
(g10
g3
NtRp160
(dp161
g13
F5.7751564064358227
sg14
I7
sg15
I01
sg16
I17
sg17
I238
sbs(I9
I5
tp162
g1
(g10
g3
NtRp163
(dp164
g13
F-9.0615029173094754
sg14
I9
sg15
I01
sg16
I5
sg17
I57
sbs(I3
I4
tp165
g1
(g10
g3
NtRp166
(dp167
g13
F9.3549556573166655
sg14
I3
sg15
I01
sg16
I4
sg17
I9
sbs(I1
I16
tp168
g1
(g10
g3
NtRp169
(dp170
g13
F-4.8599491723707144
sg14
I1
sg15
I01
sg16
I16
sg17
I245
sbs(I9
I12
tp171
g1
(g10
g3
NtRp172
(dp173
g13
F-4.2184110404113113
sg14
I9
sg15
I01
sg16
I12
sg17
I82
sbs(I10
I2
tp174
g1
(g10
g3
NtRp175
(dp176
g13
F-19.050362171353701
sg14
I10
sg15
I01
sg16
I2
sg17
I64
sbssS'_input_nodes'
p177
I1
sS'_output_nodes'
p178
I1
sS'_node_gene_type'
p179
cneat.genome
NodeGene
p180
sS'_conn_gene_type'
p181
g10
sS'fitness'
p182
F0.98894948995308884
sS'parent2_id'
p183
I7404
sS'_id'
p184
I7424
sS'parent1_id'
p185
I7404
sS'_node_genes'
p186
(lp187
g1
(g180
g3
NtRp188
(dp189
S'_bias'
p190
I0
sS'_type'
p191
S'INPUT'
p192
sg184
I1
sS'_response'
p193
F4.9242730000000003
sS'_activation_type'
p194
Nsbag1
(g180
g3
NtRp195
(dp196
g190
F0.45073835860612127
sg191
S'OUTPUT'
p197
sg184
I2
sg193
F4.8663912863344327
sg194
S'tanh'
p198
sbag1
(g180
g3
NtRp199
(dp200
g190
F-4.2086648762798182
sg191
S'HIDDEN'
p201
sg184
I3
sg193
F12.445376056485118
sg194
g198
sbag1
(g180
g3
NtRp202
(dp203
g190
F8.2581854101740966
sg191
g201
sg184
I4
sg193
F5.698067613050128
sg194
g198
sbag1
(g180
g3
NtRp204
(dp205
g190
F-3.5363280870149785
sg191
g201
sg184
I5
sg193
F-8.3204638667640101
sg194
g198
sbag1
(g180
g3
NtRp206
(dp207
g190
F-2.4954843597035286
sg191
g201
sg184
I6
sg193
F0.17260795027386477
sg194
g198
sbag1
(g180
g3
NtRp208
(dp209
g190
F3.2719030106337543
sg191
g201
sg184
I7
sg193
F6.8626087535663309
sg194
g198
sbag1
(g180
g3
NtRp210
(dp211
g190
F-4.6119590717057219
sg191
g201
sg184
I8
sg193
F9.0247632011040579
sg194
g198
sbag1
(g180
g3
NtRp212
(dp213
g190
F4.3616899378714358
sg191
g201
sg184
I9
sg193
F5.395238000303336
sg194
g198
sbag1
(g180
g3
NtRp214
(dp215
g190
F0.030100689580239502
sg191
g201
sg184
I10
sg193
F7.5311404674739215
sg194
g198
sbag1
(g180
g3
NtRp216
(dp217
g190
F0.55265876070844544
sg191
g201
sg184
I11
sg193
F1.5258781172915949
sg194
g198
sbag1
(g180
g3
NtRp218
(dp219
g190
F1.5560651909985808
sg191
g201
sg184
I12
sg193
F6.1397442877224284
sg194
g198
sbag1
(g180
g3
NtRp220
(dp221
g190
F1.4677683605001683
sg191
g201
sg184
I13
sg193
F7.0611262686650678
sg194
g198
sbag1
(g180
g3
NtRp222
(dp223
g190
F-2.2104803008948775
sg191
g201
sg184
I14
sg193
F3.0244235718817536
sg194
g198
sbag1
(g180
g3
NtRp224
(dp225
g190
F-0.0051418552822249664
sg191
g201
sg184
I15
sg193
F5.4110825781546872
sg194
g198
sbag1
(g180
g3
NtRp226
(dp227
g190
F-3.5021718285736019
sg191
g201
sg184
I16
sg193
F6.2134879839343906
sg194
g198
sbag1
(g180
g3
NtRp228
(dp229
g190
F0.74564946061861048
sg191
g201
sg184
I17
sg193
F4.5098536200831401
sg194
g198
sbasb.