ccopy_reg
_reconstructor
p1
(cneat.chromosome
Chromosome
p2
c__builtin__
object
p3
NtRp4
(dp5
S'species_id'
p6
I53
sS'_connection_genes'
p7
(dp8
(I4
I7
tp9
g1
(cneat.genome
ConnectionGene
p10
g3
NtRp11
(dp12
S'_ConnectionGene__weight'
p13
F-2.1396219751365546
sS'_ConnectionGene__in'
p14
I4
sS'_ConnectionGene__enabled'
p15
I01
sS'_ConnectionGene__out'
p16
I7
sS'_ConnectionGene__innov_number'
p17
I29
sbs(I1
I3
tp18
g1
(g10
g3
NtRp19
(dp20
g13
F15.299763296669758
sg14
I1
sg15
I01
sg16
I3
sg17
I2
sbs(I6
I6
tp21
g1
(g10
g3
NtRp22
(dp23
g13
F7.8570256304523056
sg14
I6
sg15
I01
sg16
I6
sg17
I34
sbs(I7
I12
tp24
g1
(g10
g3
NtRp25
(dp26
g13
F-8.686562090311444
sg14
I7
sg15
I01
sg16
I12
sg17
I102
sbs(I2
I8
tp27
g1
(g10
g3
NtRp28
(dp29
g13
F-15.000740736402992
sg14
I2
sg15
I01
sg16
I8
sg17
I46
sbs(I12
I12
tp30
g1
(g10
g3
NtRp31
(dp32
g13
F7.2488593640744217
sg14
I12
sg15
I01
sg16
I12
sg17
I160
sbs(I3
I11
tp33
g1
(g10
g3
NtRp34
(dp35
g13
F-22.75320864492932
sg14
I3
sg15
I01
sg16
I11
sg17
I98
sbs(I8
I9
tp36
g1
(g10
g3
NtRp37
(dp38
g13
F-17.025965554005715
sg14
I8
sg15
I01
sg16
I9
sg17
I61
sbs(I6
I2
tp39
g1
(g10
g3
NtRp40
(dp41
g13
F6.4413645014870253
sg14
I6
sg15
I01
sg16
I2
sg17
I23
sbs(I2
I5
tp42
g1
(g10
g3
NtRp43
(dp44
g13
F-18.072186201486076
sg14
I2
sg15
I01
sg16
I5
sg17
I10
sbs(I6
I9
tp45
g1
(g10
g3
NtRp46
(dp47
g13
F4.8951458071900298
sg14
I6
sg15
I01
sg16
I9
sg17
I56
sbs(I7
I2
tp48
g1
(g10
g3
NtRp49
(dp50
g13
F-24.67784635198317
sg14
I7
sg15
I01
sg16
I2
sg17
I21
sbs(I1
I2
tp51
g1
(g10
g3
NtRp52
(dp53
g13
F7.2336605123855637
sg14
I1
sg15
I01
sg16
I2
sg17
I1
sbs(I14
I2
tp54
g1
(g10
g3
NtRp55
(dp56
g13
F13.413014109397158
sg14
I14
sg15
I01
sg16
I2
sg17
I130
sbs(I3
I3
tp57
g1
(g10
g3
NtRp58
(dp59
g13
F6.9167662514176511
sg14
I3
sg15
I01
sg16
I3
sg17
I6
sbs(I5
I12
tp60
g1
(g10
g3
NtRp61
(dp62
g13
F0.17983572182948077
sg14
I5
sg15
I01
sg16
I12
sg17
I87
sbs(I3
I4
tp63
g1
(g10
g3
NtRp64
(dp65
g13
F-6.0486276129376906
sg14
I3
sg15
I01
sg16
I4
sg17
I9
sbs(I6
I3
tp66
g1
(g10
g3
NtRp67
(dp68
g13
F-17.825088921040336
sg14
I6
sg15
I01
sg16
I3
sg17
I37
sbs(I1
I5
tp69
g1
(g10
g3
NtRp70
(dp71
g13
F-0.31500543907145373
sg14
I1
sg15
I00
sg16
I5
sg17
I14
sbs(I13
I7
tp72
g1
(g10
g3
NtRp73
(dp74
g13
F-0.51943274594030076
sg14
I13
sg15
I01
sg16
I7
sg17
I136
sbs(I3
I14
tp75
g1
(g10
g3
NtRp76
(dp77
g13
F-4.2299974918953351
sg14
I3
sg15
I01
sg16
I14
sg17
I157
sbs(I2
I2
tp78
g1
(g10
g3
NtRp79
(dp80
g13
F5.1601037869961575
sg14
I2
sg15
I00
sg16
I2
sg17
I4
sbs(I1
I10
tp81
g1
(g10
g3
NtRp82
(dp83
g13
F-1.5559118567522376
sg14
I1
sg15
I01
sg16
I10
sg17
I65
sbs(I8
I6
tp84
g1
(g10
g3
NtRp85
(dp86
g13
F-30
sg14
I8
sg15
I01
sg16
I6
sg17
I51
sbs(I11
I13
tp87
g1
(g10
g3
NtRp88
(dp89
g13
F-30
sg14
I11
sg15
I01
sg16
I13
sg17
I156
sbs(I3
I2
tp90
g1
(g10
g3
NtRp91
(dp92
g13
F6.1857787320558195
sg14
I3
sg15
I00
sg16
I2
sg17
I3
sbs(I2
I6
tp93
g1
(g10
g3
NtRp94
(dp95
g13
F-17.155101253527121
sg14
I2
sg15
I01
sg16
I6
sg17
I15
sbs(I9
I3
tp96
g1
(g10
g3
NtRp97
(dp98
g13
F11.140680496868978
sg14
I9
sg15
I01
sg16
I3
sg17
I95
sbs(I15
I10
tp99
g1
(g10
g3
NtRp100
(dp101
g13
F-19.094671173274204
sg14
I15
sg15
I01
sg16
I10
sg17
I189
sbs(I12
I10
tp102
g1
(g10
g3
NtRp103
(dp104
g13
F-25.775534564173483
sg14
I12
sg15
I00
sg16
I10
sg17
I103
sbs(I4
I2
tp105
g1
(g10
g3
NtRp106
(dp107
g13
F-0.13640110789836446
sg14
I4
sg15
I01
sg16
I2
sg17
I8
sbs(I2
I14
tp108
g1
(g10
g3
NtRp109
(dp110
g13
F8.0436474943477272
sg14
I2
sg15
I01
sg16
I14
sg17
I129
sbs(I11
I7
tp111
g1
(g10
g3
NtRp112
(dp113
g13
F-30
sg14
I11
sg15
I00
sg16
I7
sg17
I107
sbs(I12
I15
tp114
g1
(g10
g3
NtRp115
(dp116
g13
F7.0162963490236345
sg14
I12
sg15
I01
sg16
I15
sg17
I217
sbs(I5
I10
tp117
g1
(g10
g3
NtRp118
(dp119
g13
F10.115155221270841
sg14
I5
sg15
I00
sg16
I10
sg17
I78
sbs(I16
I5
tp120
g1
(g10
g3
NtRp121
(dp122
g13
F-0.31500543907145373
sg14
I16
sg15
I01
sg16
I5
sg17
I178
sbs(I9
I2
tp123
g1
(g10
g3
NtRp124
(dp125
g13
F26.634097826485839
sg14
I9
sg15
I01
sg16
I2
sg17
I59
sbs(I5
I2
tp126
g1
(g10
g3
NtRp127
(dp128
g13
F-30
sg14
I5
sg15
I01
sg16
I2
sg17
I11
sbs(I11
I3
tp129
g1
(g10
g3
NtRp130
(dp131
g13
F-5.0378231207140791
sg14
I11
sg15
I01
sg16
I3
sg17
I99
sbs(I3
I8
tp132
g1
(g10
g3
NtRp133
(dp134
g13
F5.8006595054854575
sg14
I3
sg15
I01
sg16
I8
sg17
I45
sbs(I9
I5
tp135
g1
(g10
g3
NtRp136
(dp137
g13
F4.4782866007374249
sg14
I9
sg15
I01
sg16
I5
sg17
I57
sbs(I7
I8
tp138
g1
(g10
g3
NtRp139
(dp140
g13
F4.1271353107657287
sg14
I7
sg15
I01
sg16
I8
sg17
I52
sbs(I1
I16
tp141
g1
(g10
g3
NtRp142
(dp143
g13
F1
sg14
I1
sg15
I01
sg16
I16
sg17
I245
sbs(I9
I12
tp144
g1
(g10
g3
NtRp145
(dp146
g13
F1.9046251465647566
sg14
I9
sg15
I01
sg16
I12
sg17
I82
sbs(I10
I2
tp147
g1
(g10
g3
NtRp148
(dp149
g13
F-14.560109061296099
sg14
I10
sg15
I01
sg16
I2
sg17
I64
sbssS'_input_nodes'
p150
I1
sS'_output_nodes'
p151
I1
sS'_node_gene_type'
p152
cneat.genome
NodeGene
p153
sS'_conn_gene_type'
p154
g10
sS'fitness'
p155
F0.75553533115287541
sS'parent2_id'
p156
I6488
sS'_id'
p157
I6501
sS'parent1_id'
p158
I6488
sS'_node_genes'
p159
(lp160
g1
(g153
g3
NtRp161
(dp162
S'_bias'
p163
I0
sS'_type'
p164
S'INPUT'
p165
sg157
I1
sS'_response'
p166
F4.9242730000000003
sS'_activation_type'
p167
Nsbag1
(g153
g3
NtRp168
(dp169
g163
F0.89896915107195929
sg164
S'OUTPUT'
p170
sg157
I2
sg166
F5.7185074843258565
sg167
S'tanh'
p171
sbag1
(g153
g3
NtRp172
(dp173
g163
F-2.9205466706764867
sg164
S'HIDDEN'
p174
sg157
I3
sg166
F15.371604774073694
sg167
g171
sbag1
(g153
g3
NtRp175
(dp176
g163
F4.7586915989176726
sg164
g174
sg157
I4
sg166
F3.6479899699077394
sg167
g171
sbag1
(g153
g3
NtRp177
(dp178
g163
F-3.4991233154650061
sg164
g174
sg157
I5
sg166
F-7.0231164412759846
sg167
g171
sbag1
(g153
g3
NtRp179
(dp180
g163
F-2.6130906911821947
sg164
g174
sg157
I6
sg166
F1.813477907244772
sg167
g171
sbag1
(g153
g3
NtRp181
(dp182
g163
F3.4148789204354362
sg164
g174
sg157
I7
sg166
F6.4293855634558543
sg167
g171
sbag1
(g153
g3
NtRp183
(dp184
g163
F-5.3232506469987273
sg164
g174
sg157
I8
sg166
F7.0254210999664437
sg167
g171
sbag1
(g153
g3
NtRp185
(dp186
g163
F2.8993654041117769
sg164
g174
sg157
I9
sg166
F3.4624241500895909
sg167
g171
sbag1
(g153
g3
NtRp187
(dp188
g163
F-1.0992461085705338
sg164
g174
sg157
I10
sg166
F7.1492287506856238
sg167
g171
sbag1
(g153
g3
NtRp189
(dp190
g163
F-0.42300510876220487
sg164
g174
sg157
I11
sg166
F3.1320563407116384
sg167
g171
sbag1
(g153
g3
NtRp191
(dp192
g163
F1.3737952342532895
sg164
g174
sg157
I12
sg166
F6.3961249093091617
sg167
g171
sbag1
(g153
g3
NtRp193
(dp194
g163
F1.9525160928329621
sg164
g174
sg157
I13
sg166
F7.7367783883012189
sg167
g171
sbag1
(g153
g3
NtRp195
(dp196
g163
F-1.3476274609142633
sg164
g174
sg157
I14
sg166
F4.4510975850234242
sg167
g171
sbag1
(g153
g3
NtRp197
(dp198
g163
F-0.19348717462906506
sg164
g174
sg157
I15
sg166
F4.4009932587910434
sg167
g171
sbag1
(g153
g3
NtRp199
(dp200
g163
I0
sg164
g174
sg157
I16
sg166
F4.9242730000000003
sg167
g171
sbasb.