ccopy_reg
_reconstructor
p1
(cneat.chromosome
Chromosome
p2
c__builtin__
object
p3
NtRp4
(dp5
S'species_id'
p6
I37
sS'_connection_genes'
p7
(dp8
(I7
I8
tp9
g1
(cneat.genome
ConnectionGene
p10
g3
NtRp11
(dp12
S'_ConnectionGene__weight'
p13
F2.8683658369640948
sS'_ConnectionGene__in'
p14
I7
sS'_ConnectionGene__enabled'
p15
I01
sS'_ConnectionGene__out'
p16
I8
sS'_ConnectionGene__innov_number'
p17
I52
sbs(I4
I7
tp18
g1
(g10
g3
NtRp19
(dp20
g13
F-20.565480630888779
sg14
I4
sg15
I01
sg16
I7
sg17
I29
sbs(I1
I3
tp21
g1
(g10
g3
NtRp22
(dp23
g13
F-14.464352933643212
sg14
I1
sg15
I01
sg16
I3
sg17
I2
sbs(I2
I8
tp24
g1
(g10
g3
NtRp25
(dp26
g13
F-28.129940662312762
sg14
I2
sg15
I01
sg16
I8
sg17
I46
sbs(I12
I12
tp27
g1
(g10
g3
NtRp28
(dp29
g13
F0.44708199976915003
sg14
I12
sg15
I01
sg16
I12
sg17
I160
sbs(I3
I11
tp30
g1
(g10
g3
NtRp31
(dp32
g13
F10.315281782161541
sg14
I3
sg15
I01
sg16
I11
sg17
I98
sbs(I8
I9
tp33
g1
(g10
g3
NtRp34
(dp35
g13
F-21.581155593135048
sg14
I8
sg15
I01
sg16
I9
sg17
I61
sbs(I6
I2
tp36
g1
(g10
g3
NtRp37
(dp38
g13
F6.9410816121678254
sg14
I6
sg15
I01
sg16
I2
sg17
I23
sbs(I2
I5
tp39
g1
(g10
g3
NtRp40
(dp41
g13
F-5.5886697442924778
sg14
I2
sg15
I01
sg16
I5
sg17
I10
sbs(I7
I2
tp42
g1
(g10
g3
NtRp43
(dp44
g13
F-4.5886312345329321
sg14
I7
sg15
I01
sg16
I2
sg17
I21
sbs(I1
I2
tp45
g1
(g10
g3
NtRp46
(dp47
g13
F-24.917879681313742
sg14
I1
sg15
I01
sg16
I2
sg17
I1
sbs(I3
I3
tp48
g1
(g10
g3
NtRp49
(dp50
g13
F0.86904122314910426
sg14
I3
sg15
I01
sg16
I3
sg17
I6
sbs(I5
I12
tp51
g1
(g10
g3
NtRp52
(dp53
g13
F-7.4782274727038871
sg14
I5
sg15
I01
sg16
I12
sg17
I87
sbs(I6
I3
tp54
g1
(g10
g3
NtRp55
(dp56
g13
F4.727049466340743
sg14
I6
sg15
I01
sg16
I3
sg17
I37
sbs(I1
I5
tp57
g1
(g10
g3
NtRp58
(dp59
g13
F3.2988283070864144
sg14
I1
sg15
I01
sg16
I5
sg17
I14
sbs(I13
I7
tp60
g1
(g10
g3
NtRp61
(dp62
g13
F15.894005619115379
sg14
I13
sg15
I01
sg16
I7
sg17
I136
sbs(I2
I2
tp63
g1
(g10
g3
NtRp64
(dp65
g13
F-8.8046872677590358
sg14
I2
sg15
I01
sg16
I2
sg17
I4
sbs(I1
I10
tp66
g1
(g10
g3
NtRp67
(dp68
g13
F2.4365493174310155
sg14
I1
sg15
I01
sg16
I10
sg17
I65
sbs(I8
I6
tp69
g1
(g10
g3
NtRp70
(dp71
g13
F-9.7391272359094057
sg14
I8
sg15
I01
sg16
I6
sg17
I51
sbs(I11
I13
tp72
g1
(g10
g3
NtRp73
(dp74
g13
F-3.8032453840244829
sg14
I11
sg15
I01
sg16
I13
sg17
I156
sbs(I3
I2
tp75
g1
(g10
g3
NtRp76
(dp77
g13
F5.56591970503474
sg14
I3
sg15
I00
sg16
I2
sg17
I3
sbs(I2
I6
tp78
g1
(g10
g3
NtRp79
(dp80
g13
F-19.382226821899881
sg14
I2
sg15
I01
sg16
I6
sg17
I15
sbs(I12
I10
tp81
g1
(g10
g3
NtRp82
(dp83
g13
F-20.310275514079077
sg14
I12
sg15
I01
sg16
I10
sg17
I103
sbs(I4
I2
tp84
g1
(g10
g3
NtRp85
(dp86
g13
F-6.9826202409496254
sg14
I4
sg15
I01
sg16
I2
sg17
I8
sbs(I11
I7
tp87
g1
(g10
g3
NtRp88
(dp89
g13
F1.559873380867675
sg14
I11
sg15
I00
sg16
I7
sg17
I107
sbs(I6
I9
tp90
g1
(g10
g3
NtRp91
(dp92
g13
F-10.813396695261979
sg14
I6
sg15
I01
sg16
I9
sg17
I56
sbs(I5
I10
tp93
g1
(g10
g3
NtRp94
(dp95
g13
F-5.8826129401505547
sg14
I5
sg15
I00
sg16
I10
sg17
I78
sbs(I9
I2
tp96
g1
(g10
g3
NtRp97
(dp98
g13
F28.502587152256574
sg14
I9
sg15
I01
sg16
I2
sg17
I59
sbs(I5
I2
tp99
g1
(g10
g3
NtRp100
(dp101
g13
F-30
sg14
I5
sg15
I01
sg16
I2
sg17
I11
sbs(I11
I3
tp102
g1
(g10
g3
NtRp103
(dp104
g13
F-6.5296959237672185
sg14
I11
sg15
I01
sg16
I3
sg17
I99
sbs(I9
I5
tp105
g1
(g10
g3
NtRp106
(dp107
g13
F-1.3916071192932669
sg14
I9
sg15
I01
sg16
I5
sg17
I57
sbs(I3
I4
tp108
g1
(g10
g3
NtRp109
(dp110
g13
F18.39989831363463
sg14
I3
sg15
I01
sg16
I4
sg17
I9
sbs(I9
I12
tp111
g1
(g10
g3
NtRp112
(dp113
g13
F-9.3402923473334827
sg14
I9
sg15
I01
sg16
I12
sg17
I82
sbs(I10
I2
tp114
g1
(g10
g3
NtRp115
(dp116
g13
F-1.6011167344196584
sg14
I10
sg15
I01
sg16
I2
sg17
I64
sbssS'_input_nodes'
p117
I1
sS'_output_nodes'
p118
I1
sS'_node_gene_type'
p119
cneat.genome
NodeGene
p120
sS'_conn_gene_type'
p121
g10
sS'fitness'
p122
F0.94720512154042114
sS'parent2_id'
p123
I4461
sS'_id'
p124
I4484
sS'parent1_id'
p125
I4461
sS'_node_genes'
p126
(lp127
g1
(g120
g3
NtRp128
(dp129
S'_bias'
p130
I0
sS'_type'
p131
S'INPUT'
p132
sg124
I1
sS'_response'
p133
F4.9242730000000003
sS'_activation_type'
p134
Nsbag1
(g120
g3
NtRp135
(dp136
g130
F2.5968702609407357
sg131
S'OUTPUT'
p137
sg124
I2
sg133
F4.7311607834036451
sg134
S'tanh'
p138
sbag1
(g120
g3
NtRp139
(dp140
g130
F-0.33606679271896372
sg131
S'HIDDEN'
p141
sg124
I3
sg133
F9.4953048076977478
sg134
g138
sbag1
(g120
g3
NtRp142
(dp143
g130
F5.4174055803437398
sg131
g141
sg124
I4
sg133
F3.6163679084258322
sg134
g138
sbag1
(g120
g3
NtRp144
(dp145
g130
F0.1725932315589413
sg131
g141
sg124
I5
sg133
F-2.5702694116313958
sg134
g138
sbag1
(g120
g3
NtRp146
(dp147
g130
F-2.3955303847013711
sg131
g141
sg124
I6
sg133
F-0.21522159787455863
sg134
g138
sbag1
(g120
g3
NtRp148
(dp149
g130
F1.4627278383616544
sg131
g141
sg124
I7
sg133
F6.2488920929652112
sg134
g138
sbag1
(g120
g3
NtRp150
(dp151
g130
F-2.2793264956107779
sg131
g141
sg124
I8
sg133
F3.7898407373893441
sg134
g138
sbag1
(g120
g3
NtRp152
(dp153
g130
F-0.59996522436195077
sg131
g141
sg124
I9
sg133
F3.8248157659528017
sg134
g138
sbag1
(g120
g3
NtRp154
(dp155
g130
F-0.38937785255759416
sg131
g141
sg124
I10
sg133
F6.7087594987662342
sg134
g138
sbag1
(g120
g3
NtRp156
(dp157
g130
F0.45615046084390687
sg131
g141
sg124
I11
sg133
F3.7081047363697479
sg134
g138
sbag1
(g120
g3
NtRp158
(dp159
g130
F-0.43867676487086349
sg131
g141
sg124
I12
sg133
F5.9007599474403474
sg134
g138
sbag1
(g120
g3
NtRp160
(dp161
g130
I0
sg131
g141
sg124
I13
sg133
F6.1698656427598486
sg134
g138
sbasb.