ccopy_reg
_reconstructor
p1
(cneat.chromosome
Chromosome
p2
c__builtin__
object
p3
NtRp4
(dp5
S'species_id'
p6
I39
sS'_connection_genes'
p7
(dp8
(I7
I8
tp9
g1
(cneat.genome
ConnectionGene
p10
g3
NtRp11
(dp12
S'_ConnectionGene__weight'
p13
F8.0925294059183983
sS'_ConnectionGene__in'
p14
I7
sS'_ConnectionGene__enabled'
p15
I01
sS'_ConnectionGene__out'
p16
I8
sS'_ConnectionGene__innov_number'
p17
I52
sbs(I4
I7
tp18
g1
(g10
g3
NtRp19
(dp20
g13
F-23.252833680550275
sg14
I4
sg15
I01
sg16
I7
sg17
I29
sbs(I1
I3
tp21
g1
(g10
g3
NtRp22
(dp23
g13
F-16.734064939992287
sg14
I1
sg15
I01
sg16
I3
sg17
I2
sbs(I2
I8
tp24
g1
(g10
g3
NtRp25
(dp26
g13
F-28.407906559950924
sg14
I2
sg15
I01
sg16
I8
sg17
I46
sbs(I12
I12
tp27
g1
(g10
g3
NtRp28
(dp29
g13
F-0.68574766135731857
sg14
I12
sg15
I01
sg16
I12
sg17
I160
sbs(I3
I11
tp30
g1
(g10
g3
NtRp31
(dp32
g13
F10.286885838646112
sg14
I3
sg15
I01
sg16
I11
sg17
I98
sbs(I8
I9
tp33
g1
(g10
g3
NtRp34
(dp35
g13
F-18.95273093508462
sg14
I8
sg15
I01
sg16
I9
sg17
I61
sbs(I6
I2
tp36
g1
(g10
g3
NtRp37
(dp38
g13
F11.795628770564605
sg14
I6
sg15
I01
sg16
I2
sg17
I23
sbs(I2
I5
tp39
g1
(g10
g3
NtRp40
(dp41
g13
F-5.6949538670834885
sg14
I2
sg15
I01
sg16
I5
sg17
I10
sbs(I7
I2
tp42
g1
(g10
g3
NtRp43
(dp44
g13
F-10.658804844624663
sg14
I7
sg15
I01
sg16
I2
sg17
I21
sbs(I1
I2
tp45
g1
(g10
g3
NtRp46
(dp47
g13
F-24.743323987095696
sg14
I1
sg15
I01
sg16
I2
sg17
I1
sbs(I2
I14
tp48
g1
(g10
g3
NtRp49
(dp50
g13
F2.24268601698037
sg14
I2
sg15
I01
sg16
I14
sg17
I129
sbs(I3
I3
tp51
g1
(g10
g3
NtRp52
(dp53
g13
F0.14284712825520635
sg14
I3
sg15
I01
sg16
I3
sg17
I6
sbs(I5
I12
tp54
g1
(g10
g3
NtRp55
(dp56
g13
F-3.2856899165179385
sg14
I5
sg15
I01
sg16
I12
sg17
I87
sbs(I6
I3
tp57
g1
(g10
g3
NtRp58
(dp59
g13
F6.1154134317543694
sg14
I6
sg15
I01
sg16
I3
sg17
I37
sbs(I1
I5
tp60
g1
(g10
g3
NtRp61
(dp62
g13
F0.85077857235403442
sg14
I1
sg15
I01
sg16
I5
sg17
I14
sbs(I13
I7
tp63
g1
(g10
g3
NtRp64
(dp65
g13
F17.098856419471662
sg14
I13
sg15
I01
sg16
I7
sg17
I136
sbs(I2
I2
tp66
g1
(g10
g3
NtRp67
(dp68
g13
F-8.2872212911247853
sg14
I2
sg15
I00
sg16
I2
sg17
I4
sbs(I1
I10
tp69
g1
(g10
g3
NtRp70
(dp71
g13
F4.8952716865293597
sg14
I1
sg15
I01
sg16
I10
sg17
I65
sbs(I8
I6
tp72
g1
(g10
g3
NtRp73
(dp74
g13
F-12.74725537562507
sg14
I8
sg15
I01
sg16
I6
sg17
I51
sbs(I11
I13
tp75
g1
(g10
g3
NtRp76
(dp77
g13
F-5.2851067862299352
sg14
I11
sg15
I01
sg16
I13
sg17
I156
sbs(I3
I2
tp78
g1
(g10
g3
NtRp79
(dp80
g13
F1.3893408504428637
sg14
I3
sg15
I00
sg16
I2
sg17
I3
sbs(I2
I6
tp81
g1
(g10
g3
NtRp82
(dp83
g13
F-18.650570386355533
sg14
I2
sg15
I01
sg16
I6
sg17
I15
sbs(I12
I10
tp84
g1
(g10
g3
NtRp85
(dp86
g13
F-25.175507821929635
sg14
I12
sg15
I01
sg16
I10
sg17
I103
sbs(I4
I2
tp87
g1
(g10
g3
NtRp88
(dp89
g13
F-4.0938125423681644
sg14
I4
sg15
I01
sg16
I2
sg17
I8
sbs(I14
I2
tp90
g1
(g10
g3
NtRp91
(dp92
g13
F-4.4175802451628403
sg14
I14
sg15
I01
sg16
I2
sg17
I130
sbs(I11
I7
tp93
g1
(g10
g3
NtRp94
(dp95
g13
F-1.8554014174845108
sg14
I11
sg15
I00
sg16
I7
sg17
I107
sbs(I6
I9
tp96
g1
(g10
g3
NtRp97
(dp98
g13
F-10.847128576392494
sg14
I6
sg15
I01
sg16
I9
sg17
I56
sbs(I5
I10
tp99
g1
(g10
g3
NtRp100
(dp101
g13
F-7.8946914807569151
sg14
I5
sg15
I00
sg16
I10
sg17
I78
sbs(I9
I2
tp102
g1
(g10
g3
NtRp103
(dp104
g13
F26.315405479276755
sg14
I9
sg15
I01
sg16
I2
sg17
I59
sbs(I5
I2
tp105
g1
(g10
g3
NtRp106
(dp107
g13
F-22.524502104662012
sg14
I5
sg15
I01
sg16
I2
sg17
I11
sbs(I11
I3
tp108
g1
(g10
g3
NtRp109
(dp110
g13
F-4.6571767586030219
sg14
I11
sg15
I01
sg16
I3
sg17
I99
sbs(I3
I8
tp111
g1
(g10
g3
NtRp112
(dp113
g13
F-0.12554476125299963
sg14
I3
sg15
I01
sg16
I8
sg17
I45
sbs(I9
I5
tp114
g1
(g10
g3
NtRp115
(dp116
g13
F-5.8347700527707067
sg14
I9
sg15
I01
sg16
I5
sg17
I57
sbs(I3
I4
tp117
g1
(g10
g3
NtRp118
(dp119
g13
F10.450022112702932
sg14
I3
sg15
I01
sg16
I4
sg17
I9
sbs(I9
I12
tp120
g1
(g10
g3
NtRp121
(dp122
g13
F-4.3529930642847905
sg14
I9
sg15
I01
sg16
I12
sg17
I82
sbs(I10
I2
tp123
g1
(g10
g3
NtRp124
(dp125
g13
F-4.065920230271427
sg14
I10
sg15
I01
sg16
I2
sg17
I64
sbssS'_input_nodes'
p126
I1
sS'_output_nodes'
p127
I1
sS'_node_gene_type'
p128
cneat.genome
NodeGene
p129
sS'_conn_gene_type'
p130
g10
sS'fitness'
p131
F0.97452013688369465
sS'parent2_id'
p132
I4682
sS'_id'
p133
I4719
sS'parent1_id'
p134
I4682
sS'_node_genes'
p135
(lp136
g1
(g129
g3
NtRp137
(dp138
S'_bias'
p139
I0
sS'_type'
p140
S'INPUT'
p141
sg133
I1
sS'_response'
p142
F4.9242730000000003
sS'_activation_type'
p143
Nsbag1
(g129
g3
NtRp144
(dp145
g139
F2.8476654192459567
sg140
S'OUTPUT'
p146
sg133
I2
sg142
F4.5236023466920745
sg143
S'tanh'
p147
sbag1
(g129
g3
NtRp148
(dp149
g139
F-0.47323812584177838
sg140
S'HIDDEN'
p150
sg133
I3
sg142
F9.9356033833385933
sg143
g147
sbag1
(g129
g3
NtRp151
(dp152
g139
F5.6236759811031876
sg140
g150
sg133
I4
sg142
F4.0394466293161537
sg143
g147
sbag1
(g129
g3
NtRp153
(dp154
g139
F0.46625122370499633
sg140
g150
sg133
I5
sg142
F-2.5702694116313958
sg143
g147
sbag1
(g129
g3
NtRp155
(dp156
g139
F-2.3955303847013711
sg140
g150
sg133
I6
sg142
F0.1605849167798557
sg143
g147
sbag1
(g129
g3
NtRp157
(dp158
g139
F1.6295085543203653
sg140
g150
sg133
I7
sg142
F6.1188127047726608
sg143
g147
sbag1
(g129
g3
NtRp159
(dp160
g139
F-2.1669944309635145
sg140
g150
sg133
I8
sg142
F3.7898407373893441
sg143
g147
sbag1
(g129
g3
NtRp161
(dp162
g139
F0.46759023830316759
sg140
g150
sg133
I9
sg142
F3.1724527484888108
sg143
g147
sbag1
(g129
g3
NtRp163
(dp164
g139
F-0.48334525942040801
sg140
g150
sg133
I10
sg142
F5.9941885535850723
sg143
g147
sbag1
(g129
g3
NtRp165
(dp166
g139
F0.45615046084390687
sg140
g150
sg133
I11
sg142
F4.1845004312028822
sg143
g147
sbag1
(g129
g3
NtRp167
(dp168
g139
F-0.80605678072840126
sg140
g150
sg133
I12
sg142
F6.3003296794934283
sg143
g147
sbag1
(g129
g3
NtRp169
(dp170
g139
F-0.36544173825474224
sg140
g150
sg133
I13
sg142
F6.1698656427598486
sg143
g147
sbag1
(g129
g3
NtRp171
(dp172
g139
I0
sg140
g150
sg133
I14
sg142
F4.9242730000000003
sg143
g147
sbasb.