ccopy_reg
_reconstructor
p1
(cneat.chromosome
Chromosome
p2
c__builtin__
object
p3
NtRp4
(dp5
S'species_id'
p6
I59
sS'_connection_genes'
p7
(dp8
(I7
I8
tp9
g1
(cneat.genome
ConnectionGene
p10
g3
NtRp11
(dp12
S'_ConnectionGene__weight'
p13
F16.38494248407082
sS'_ConnectionGene__in'
p14
I7
sS'_ConnectionGene__enabled'
p15
I01
sS'_ConnectionGene__out'
p16
I8
sS'_ConnectionGene__innov_number'
p17
I52
sbs(I4
I7
tp18
g1
(g10
g3
NtRp19
(dp20
g13
F3.2297490719266366
sg14
I4
sg15
I01
sg16
I7
sg17
I29
sbs(I1
I3
tp21
g1
(g10
g3
NtRp22
(dp23
g13
F7.8096593736455198
sg14
I1
sg15
I01
sg16
I3
sg17
I2
sbs(I8
I13
tp24
g1
(g10
g3
NtRp25
(dp26
g13
F-6.7409076686668801
sg14
I8
sg15
I01
sg16
I13
sg17
I124
sbs(I6
I6
tp27
g1
(g10
g3
NtRp28
(dp29
g13
F0.0024831631628077222
sg14
I6
sg15
I01
sg16
I6
sg17
I34
sbs(I7
I12
tp30
g1
(g10
g3
NtRp31
(dp32
g13
F-8.9627478621471433
sg14
I7
sg15
I01
sg16
I12
sg17
I102
sbs(I2
I8
tp33
g1
(g10
g3
NtRp34
(dp35
g13
F-9.8014032856828877
sg14
I2
sg15
I01
sg16
I8
sg17
I46
sbs(I12
I12
tp36
g1
(g10
g3
NtRp37
(dp38
g13
F18.438802810285924
sg14
I12
sg15
I00
sg16
I12
sg17
I160
sbs(I3
I11
tp39
g1
(g10
g3
NtRp40
(dp41
g13
F-22.430098918032709
sg14
I3
sg15
I01
sg16
I11
sg17
I98
sbs(I8
I9
tp42
g1
(g10
g3
NtRp43
(dp44
g13
F-11.372901188864628
sg14
I8
sg15
I01
sg16
I9
sg17
I61
sbs(I6
I2
tp45
g1
(g10
g3
NtRp46
(dp47
g13
F16.171468278549579
sg14
I6
sg15
I01
sg16
I2
sg17
I23
sbs(I18
I8
tp48
g1
(g10
g3
NtRp49
(dp50
g13
F-1.7016015301627854
sg14
I18
sg15
I01
sg16
I8
sg17
I206
sbs(I2
I5
tp51
g1
(g10
g3
NtRp52
(dp53
g13
F-15.031082444449293
sg14
I2
sg15
I01
sg16
I5
sg17
I10
sbs(I3
I17
tp54
g1
(g10
g3
NtRp55
(dp56
g13
F23.701645263098701
sg14
I3
sg15
I01
sg16
I17
sg17
I271
sbs(I3
I14
tp57
g1
(g10
g3
NtRp58
(dp59
g13
F-2.8912743319966894
sg14
I3
sg15
I01
sg16
I14
sg17
I157
sbs(I1
I2
tp60
g1
(g10
g3
NtRp61
(dp62
g13
F15.793108238729904
sg14
I1
sg15
I01
sg16
I2
sg17
I1
sbs(I17
I2
tp63
g1
(g10
g3
NtRp64
(dp65
g13
F-5.2098951660608339
sg14
I17
sg15
I01
sg16
I2
sg17
I239
sbs(I2
I14
tp66
g1
(g10
g3
NtRp67
(dp68
g13
F13.25925711484371
sg14
I2
sg15
I01
sg16
I14
sg17
I129
sbs(I3
I3
tp69
g1
(g10
g3
NtRp70
(dp71
g13
F19.791225315478815
sg14
I3
sg15
I01
sg16
I3
sg17
I6
sbs(I1
I16
tp72
g1
(g10
g3
NtRp73
(dp74
g13
F-2.8534818491491438
sg14
I1
sg15
I01
sg16
I16
sg17
I245
sbs(I4
I4
tp75
g1
(g10
g3
NtRp76
(dp77
g13
F6.506278342602088
sg14
I4
sg15
I01
sg16
I4
sg17
I26
sbs(I3
I20
tp78
g1
(g10
g3
NtRp79
(dp80
g13
F-5.933853966115354
sg14
I3
sg15
I01
sg16
I20
sg17
I291
sbs(I5
I12
tp81
g1
(g10
g3
NtRp82
(dp83
g13
F-15.122542010868623
sg14
I5
sg15
I01
sg16
I12
sg17
I87
sbs(I6
I3
tp84
g1
(g10
g3
NtRp85
(dp86
g13
F-29.743339556681555
sg14
I6
sg15
I01
sg16
I3
sg17
I37
sbs(I1
I5
tp87
g1
(g10
g3
NtRp88
(dp89
g13
F-2.568439760923356
sg14
I1
sg15
I00
sg16
I5
sg17
I14
sbs(I13
I7
tp90
g1
(g10
g3
NtRp91
(dp92
g13
F-2.5736617635385475
sg14
I13
sg15
I01
sg16
I7
sg17
I136
sbs(I7
I2
tp93
g1
(g10
g3
NtRp94
(dp95
g13
F-30
sg14
I7
sg15
I01
sg16
I2
sg17
I21
sbs(I2
I2
tp96
g1
(g10
g3
NtRp97
(dp98
g13
F28.078246831406595
sg14
I2
sg15
I00
sg16
I2
sg17
I4
sbs(I1
I10
tp99
g1
(g10
g3
NtRp100
(dp101
g13
F8.9125724789890679
sg14
I1
sg15
I01
sg16
I10
sg17
I65
sbs(I8
I6
tp102
g1
(g10
g3
NtRp103
(dp104
g13
F-19.246866794048447
sg14
I8
sg15
I01
sg16
I6
sg17
I51
sbs(I11
I13
tp105
g1
(g10
g3
NtRp106
(dp107
g13
F-12.173733279630991
sg14
I11
sg15
I01
sg16
I13
sg17
I156
sbs(I3
I2
tp108
g1
(g10
g3
NtRp109
(dp110
g13
F22.516380131646653
sg14
I3
sg15
I01
sg16
I2
sg17
I3
sbs(I2
I6
tp111
g1
(g10
g3
NtRp112
(dp113
g13
F-25.706987146336971
sg14
I2
sg15
I01
sg16
I6
sg17
I15
sbs(I12
I14
tp114
g1
(g10
g3
NtRp115
(dp116
g13
F-0.8590748872013696
sg14
I12
sg15
I01
sg16
I14
sg17
I221
sbs(I9
I3
tp117
g1
(g10
g3
NtRp118
(dp119
g13
F6.8756418143476852
sg14
I9
sg15
I01
sg16
I3
sg17
I95
sbs(I12
I15
tp120
g1
(g10
g3
NtRp121
(dp122
g13
F0.91643800249239771
sg14
I12
sg15
I01
sg16
I15
sg17
I217
sbs(I15
I10
tp123
g1
(g10
g3
NtRp124
(dp125
g13
F-7.7162400611480413
sg14
I15
sg15
I01
sg16
I10
sg17
I189
sbs(I12
I10
tp126
g1
(g10
g3
NtRp127
(dp128
g13
F-24.38547053659768
sg14
I12
sg15
I01
sg16
I10
sg17
I103
sbs(I4
I2
tp129
g1
(g10
g3
NtRp130
(dp131
g13
F10.520805135570077
sg14
I4
sg15
I01
sg16
I2
sg17
I8
sbs(I14
I2
tp132
g1
(g10
g3
NtRp133
(dp134
g13
F26.567167983588927
sg14
I14
sg15
I01
sg16
I2
sg17
I130
sbs(I20
I14
tp135
g1
(g10
g3
NtRp136
(dp137
g13
F-5.0652941389989206
sg14
I20
sg15
I01
sg16
I14
sg17
I297
sbs(I5
I3
tp138
g1
(g10
g3
NtRp139
(dp140
g13
F-2.9439086080355539
sg14
I5
sg15
I01
sg16
I3
sg17
I27
sbs(I11
I7
tp141
g1
(g10
g3
NtRp142
(dp143
g13
F-15.717862575323174
sg14
I11
sg15
I01
sg16
I7
sg17
I107
sbs(I6
I9
tp144
g1
(g10
g3
NtRp145
(dp146
g13
F27.326790277483621
sg14
I6
sg15
I01
sg16
I9
sg17
I56
sbs(I5
I10
tp147
g1
(g10
g3
NtRp148
(dp149
g13
F30
sg14
I5
sg15
I01
sg16
I10
sg17
I78
sbs(I16
I5
tp150
g1
(g10
g3
NtRp151
(dp152
g13
F-7.4796289733095893
sg14
I16
sg15
I01
sg16
I5
sg17
I178
sbs(I9
I2
tp153
g1
(g10
g3
NtRp154
(dp155
g13
F30
sg14
I9
sg15
I01
sg16
I2
sg17
I59
sbs(I5
I2
tp156
g1
(g10
g3
NtRp157
(dp158
g13
F-21.568545510226777
sg14
I5
sg15
I01
sg16
I2
sg17
I11
sbs(I16
I8
tp159
g1
(g10
g3
NtRp160
(dp161
g13
F-11.950965803398992
sg14
I16
sg15
I01
sg16
I8
sg17
I172
sbs(I14
I7
tp162
g1
(g10
g3
NtRp163
(dp164
g13
F-16.691960109899142
sg14
I14
sg15
I01
sg16
I7
sg17
I263
sbs(I11
I3
tp165
g1
(g10
g3
NtRp166
(dp167
g13
F-0.23237741675821311
sg14
I11
sg15
I01
sg16
I3
sg17
I99
sbs(I12
I19
tp168
g1
(g10
g3
NtRp169
(dp170
g13
F2.5790068480315655
sg14
I12
sg15
I01
sg16
I19
sg17
I281
sbs(I3
I8
tp171
g1
(g10
g3
NtRp172
(dp173
g13
F-4.3253993255796175
sg14
I3
sg15
I00
sg16
I8
sg17
I45
sbs(I3
I18
tp174
g1
(g10
g3
NtRp175
(dp176
g13
F-2.2625348043070215
sg14
I3
sg15
I01
sg16
I18
sg17
I248
sbs(I19
I12
tp177
g1
(g10
g3
NtRp178
(dp179
g13
F10.270983631225507
sg14
I19
sg15
I01
sg16
I12
sg17
I257
sbs(I9
I5
tp180
g1
(g10
g3
NtRp181
(dp182
g13
F-5.2901622948686127
sg14
I9
sg15
I01
sg16
I5
sg17
I57
sbs(I3
I4
tp183
g1
(g10
g3
NtRp184
(dp185
g13
F13.324473295033835
sg14
I3
sg15
I01
sg16
I4
sg17
I9
sbs(I14
I8
tp186
g1
(g10
g3
NtRp187
(dp188
g13
F0.72409953913106417
sg14
I14
sg15
I01
sg16
I8
sg17
I132
sbs(I9
I12
tp189
g1
(g10
g3
NtRp190
(dp191
g13
F-7.025933322487468
sg14
I9
sg15
I01
sg16
I12
sg17
I82
sbs(I10
I2
tp192
g1
(g10
g3
NtRp193
(dp194
g13
F-22.662040357616217
sg14
I10
sg15
I01
sg16
I2
sg17
I64
sbssS'_input_nodes'
p195
I1
sS'_output_nodes'
p196
I1
sS'_node_gene_type'
p197
cneat.genome
NodeGene
p198
sS'_conn_gene_type'
p199
g10
sS'fitness'
p200
F0.98748579946768078
sS'parent2_id'
p201
I7982
sS'_id'
p202
I8000
sS'parent1_id'
p203
I7982
sS'_node_genes'
p204
(lp205
g1
(g198
g3
NtRp206
(dp207
S'_bias'
p208
I0
sS'_type'
p209
S'INPUT'
p210
sg202
I1
sS'_response'
p211
F4.9242730000000003
sS'_activation_type'
p212
Nsbag1
(g198
g3
NtRp213
(dp214
g208
F1.620305166319548
sg209
S'OUTPUT'
p215
sg202
I2
sg211
F6.2392409278009247
sg212
S'tanh'
p216
sbag1
(g198
g3
NtRp217
(dp218
g208
F-3.5946191860409402
sg209
S'HIDDEN'
p219
sg202
I3
sg211
F16.447588360499161
sg212
g216
sbag1
(g198
g3
NtRp220
(dp221
g208
F5.0134165690421799
sg209
g219
sg202
I4
sg211
F4.471636182675935
sg212
g216
sbag1
(g198
g3
NtRp222
(dp223
g208
F-4.4902924473301304
sg209
g219
sg202
I5
sg211
F-7.9385066736554677
sg212
g216
sbag1
(g198
g3
NtRp224
(dp225
g208
F-4.1022738710921542
sg209
g219
sg202
I6
sg211
F-0.26536074928641551
sg212
g216
sbag1
(g198
g3
NtRp226
(dp227
g208
F6.2403180090232597
sg209
g219
sg202
I7
sg211
F5.8175393823625701
sg212
g216
sbag1
(g198
g3
NtRp228
(dp229
g208
F-4.4854885549930463
sg209
g219
sg202
I8
sg211
F10.905474726322838
sg212
g216
sbag1
(g198
g3
NtRp230
(dp231
g208
F2.5401798396751065
sg209
g219
sg202
I9
sg211
F4.0068727951468368
sg212
g216
sbag1
(g198
g3
NtRp232
(dp233
g208
F0.15512494299609952
sg209
g219
sg202
I10
sg211
F4.8768542676744717
sg212
g216
sbag1
(g198
g3
NtRp234
(dp235
g208
F0.13457638883942369
sg209
g219
sg202
I11
sg211
F1.2424117803720542
sg212
g216
sbag1
(g198
g3
NtRp236
(dp237
g208
F3.0959801570347985
sg209
g219
sg202
I12
sg211
F6.3188712923300985
sg212
g216
sbag1
(g198
g3
NtRp238
(dp239
g208
F0.99712505516474759
sg209
g219
sg202
I13
sg211
F7.0182110748249125
sg212
g216
sbag1
(g198
g3
NtRp240
(dp241
g208
F-0.96930551089337369
sg209
g219
sg202
I14
sg211
F4.345098721777684
sg212
g216
sbag1
(g198
g3
NtRp242
(dp243
g208
F1.7315060004227496
sg209
g219
sg202
I15
sg211
F4.9602584273924437
sg212
g216
sbag1
(g198
g3
NtRp244
(dp245
g208
F-3.8460583749396107
sg209
g219
sg202
I16
sg211
F5.5244319516360232
sg212
g216
sbag1
(g198
g3
NtRp246
(dp247
g208
F-0.017086634872219619
sg209
g219
sg202
I17
sg211
F4.1679994372648679
sg212
g216
sbag1
(g198
g3
NtRp248
(dp249
g208
F3.7385443316411493
sg209
g219
sg202
I18
sg211
F7.159093482404284
sg212
g216
sbag1
(g198
g3
NtRp250
(dp251
g208
F1.3170043872076842
sg209
g219
sg202
I19
sg211
F4.9242730000000003
sg212
g216
sbag1
(g198
g3
NtRp252
(dp253
g208
F-0.17263638336809195
sg209
g219
sg202
I20
sg211
F4.9242730000000003
sg212
g216
sbasb.