ccopy_reg
_reconstructor
p1
(cneat.chromosome
Chromosome
p2
c__builtin__
object
p3
NtRp4
(dp5
S'species_id'
p6
I42
sS'_connection_genes'
p7
(dp8
(I4
I7
tp9
g1
(cneat.genome
ConnectionGene
p10
g3
NtRp11
(dp12
S'_ConnectionGene__weight'
p13
F-17.094444769814888
sS'_ConnectionGene__in'
p14
I4
sS'_ConnectionGene__enabled'
p15
I01
sS'_ConnectionGene__out'
p16
I7
sS'_ConnectionGene__innov_number'
p17
I29
sbs(I1
I3
tp18
g1
(g10
g3
NtRp19
(dp20
g13
F-18.166405356541468
sg14
I1
sg15
I01
sg16
I3
sg17
I2
sbs(I6
I6
tp21
g1
(g10
g3
NtRp22
(dp23
g13
F3.00010126550454
sg14
I6
sg15
I01
sg16
I6
sg17
I34
sbs(I7
I12
tp24
g1
(g10
g3
NtRp25
(dp26
g13
F-1.8152749930849346
sg14
I7
sg15
I01
sg16
I12
sg17
I102
sbs(I2
I8
tp27
g1
(g10
g3
NtRp28
(dp29
g13
F-28.073879792440916
sg14
I2
sg15
I01
sg16
I8
sg17
I46
sbs(I12
I12
tp30
g1
(g10
g3
NtRp31
(dp32
g13
F-2.8185159253932088
sg14
I12
sg15
I01
sg16
I12
sg17
I160
sbs(I3
I11
tp33
g1
(g10
g3
NtRp34
(dp35
g13
F8.5167564184135323
sg14
I3
sg15
I01
sg16
I11
sg17
I98
sbs(I8
I9
tp36
g1
(g10
g3
NtRp37
(dp38
g13
F-23.13901616145705
sg14
I8
sg15
I01
sg16
I9
sg17
I61
sbs(I6
I2
tp39
g1
(g10
g3
NtRp40
(dp41
g13
F6.949351971316271
sg14
I6
sg15
I01
sg16
I2
sg17
I23
sbs(I2
I5
tp42
g1
(g10
g3
NtRp43
(dp44
g13
F-13.75515074518672
sg14
I2
sg15
I01
sg16
I5
sg17
I10
sbs(I7
I2
tp45
g1
(g10
g3
NtRp46
(dp47
g13
F-14.685680659496812
sg14
I7
sg15
I01
sg16
I2
sg17
I21
sbs(I1
I2
tp48
g1
(g10
g3
NtRp49
(dp50
g13
F-21.978496775109988
sg14
I1
sg15
I01
sg16
I2
sg17
I1
sbs(I14
I2
tp51
g1
(g10
g3
NtRp52
(dp53
g13
F1.8758416185246847
sg14
I14
sg15
I01
sg16
I2
sg17
I130
sbs(I3
I3
tp54
g1
(g10
g3
NtRp55
(dp56
g13
F-3.2699687280016105
sg14
I3
sg15
I01
sg16
I3
sg17
I6
sbs(I5
I12
tp57
g1
(g10
g3
NtRp58
(dp59
g13
F0.28435840029137749
sg14
I5
sg15
I01
sg16
I12
sg17
I87
sbs(I3
I4
tp60
g1
(g10
g3
NtRp61
(dp62
g13
F5.6938991041642337
sg14
I3
sg15
I01
sg16
I4
sg17
I9
sbs(I6
I3
tp63
g1
(g10
g3
NtRp64
(dp65
g13
F-10.823295294334367
sg14
I6
sg15
I01
sg16
I3
sg17
I37
sbs(I1
I5
tp66
g1
(g10
g3
NtRp67
(dp68
g13
F0.55798482188812482
sg14
I1
sg15
I01
sg16
I5
sg17
I14
sbs(I13
I7
tp69
g1
(g10
g3
NtRp70
(dp71
g13
F16.049277531497982
sg14
I13
sg15
I01
sg16
I7
sg17
I136
sbs(I2
I2
tp72
g1
(g10
g3
NtRp73
(dp74
g13
F-6.7144328802557816
sg14
I2
sg15
I00
sg16
I2
sg17
I4
sbs(I1
I10
tp75
g1
(g10
g3
NtRp76
(dp77
g13
F-3.8652694124683791
sg14
I1
sg15
I01
sg16
I10
sg17
I65
sbs(I8
I6
tp78
g1
(g10
g3
NtRp79
(dp80
g13
F-12.774426611139798
sg14
I8
sg15
I01
sg16
I6
sg17
I51
sbs(I11
I13
tp81
g1
(g10
g3
NtRp82
(dp83
g13
F-26.526276247287012
sg14
I11
sg15
I01
sg16
I13
sg17
I156
sbs(I3
I2
tp84
g1
(g10
g3
NtRp85
(dp86
g13
F1.264645880870781
sg14
I3
sg15
I00
sg16
I2
sg17
I3
sbs(I2
I6
tp87
g1
(g10
g3
NtRp88
(dp89
g13
F-27.59137497150839
sg14
I2
sg15
I01
sg16
I6
sg17
I15
sbs(I9
I3
tp90
g1
(g10
g3
NtRp91
(dp92
g13
F3.3454160022135078
sg14
I9
sg15
I01
sg16
I3
sg17
I95
sbs(I12
I10
tp93
g1
(g10
g3
NtRp94
(dp95
g13
F-22.208725466836157
sg14
I12
sg15
I01
sg16
I10
sg17
I103
sbs(I4
I2
tp96
g1
(g10
g3
NtRp97
(dp98
g13
F-12.740066232731461
sg14
I4
sg15
I01
sg16
I2
sg17
I8
sbs(I2
I14
tp99
g1
(g10
g3
NtRp100
(dp101
g13
F13.266199512845947
sg14
I2
sg15
I01
sg16
I14
sg17
I129
sbs(I11
I7
tp102
g1
(g10
g3
NtRp103
(dp104
g13
F-15.913208846013111
sg14
I11
sg15
I00
sg16
I7
sg17
I107
sbs(I6
I9
tp105
g1
(g10
g3
NtRp106
(dp107
g13
F-3.3358484387139633
sg14
I6
sg15
I01
sg16
I9
sg17
I56
sbs(I5
I10
tp108
g1
(g10
g3
NtRp109
(dp110
g13
F-8.2722884897372779
sg14
I5
sg15
I00
sg16
I10
sg17
I78
sbs(I9
I2
tp111
g1
(g10
g3
NtRp112
(dp113
g13
F28.521551772942434
sg14
I9
sg15
I01
sg16
I2
sg17
I59
sbs(I5
I2
tp114
g1
(g10
g3
NtRp115
(dp116
g13
F-30
sg14
I5
sg15
I01
sg16
I2
sg17
I11
sbs(I11
I3
tp117
g1
(g10
g3
NtRp118
(dp119
g13
F-10.469616247151468
sg14
I11
sg15
I01
sg16
I3
sg17
I99
sbs(I3
I8
tp120
g1
(g10
g3
NtRp121
(dp122
g13
F-4.4881537575141808
sg14
I3
sg15
I01
sg16
I8
sg17
I45
sbs(I9
I5
tp123
g1
(g10
g3
NtRp124
(dp125
g13
F5.6885667648728369
sg14
I9
sg15
I01
sg16
I5
sg17
I57
sbs(I7
I8
tp126
g1
(g10
g3
NtRp127
(dp128
g13
F17.455965745373241
sg14
I7
sg15
I01
sg16
I8
sg17
I52
sbs(I9
I12
tp129
g1
(g10
g3
NtRp130
(dp131
g13
F-1.6090683227125298
sg14
I9
sg15
I01
sg16
I12
sg17
I82
sbs(I10
I2
tp132
g1
(g10
g3
NtRp133
(dp134
g13
F-4.0304468763223822
sg14
I10
sg15
I01
sg16
I2
sg17
I64
sbssS'_input_nodes'
p135
I1
sS'_output_nodes'
p136
I1
sS'_node_gene_type'
p137
cneat.genome
NodeGene
p138
sS'_conn_gene_type'
p139
g10
sS'fitness'
p140
F0.97074922606363423
sS'parent2_id'
p141
I5382
sS'_id'
p142
I5401
sS'parent1_id'
p143
I5382
sS'_node_genes'
p144
(lp145
g1
(g138
g3
NtRp146
(dp147
S'_bias'
p148
I0
sS'_type'
p149
S'INPUT'
p150
sg142
I1
sS'_response'
p151
F4.9242730000000003
sS'_activation_type'
p152
Nsbag1
(g138
g3
NtRp153
(dp154
g148
F1.6858539582610872
sg149
S'OUTPUT'
p155
sg142
I2
sg151
F3.8391114373931279
sg152
S'tanh'
p156
sbag1
(g138
g3
NtRp157
(dp158
g148
F-1.6784950558670126
sg149
S'HIDDEN'
p159
sg142
I3
sg151
F13.676297993023171
sg152
g156
sbag1
(g138
g3
NtRp160
(dp161
g148
F4.1187200027895008
sg149
g159
sg142
I4
sg151
F4.5163867856497788
sg152
g156
sbag1
(g138
g3
NtRp162
(dp163
g148
F0.56139146154617936
sg149
g159
sg142
I5
sg151
F-3.7619562281923606
sg152
g156
sbag1
(g138
g3
NtRp164
(dp165
g148
F-1.6401593146668088
sg149
g159
sg142
I6
sg151
F1.9577462262823466
sg152
g156
sbag1
(g138
g3
NtRp166
(dp167
g148
F1.3400511297227955
sg149
g159
sg142
I7
sg151
F6.6359656282360291
sg152
g156
sbag1
(g138
g3
NtRp168
(dp169
g148
F-3.6163154342298283
sg149
g159
sg142
I8
sg151
F4.3946767990833653
sg152
g156
sbag1
(g138
g3
NtRp170
(dp171
g148
F0.87980108120762657
sg149
g159
sg142
I9
sg151
F3.9951738270782049
sg152
g156
sbag1
(g138
g3
NtRp172
(dp173
g148
F0.40131048885559284
sg149
g159
sg142
I10
sg151
F6.2564466620573524
sg152
g156
sbag1
(g138
g3
NtRp174
(dp175
g148
F0.011692795308218207
sg149
g159
sg142
I11
sg151
F3.5435779248271033
sg152
g156
sbag1
(g138
g3
NtRp176
(dp177
g148
F-0.5482587831037784
sg149
g159
sg142
I12
sg151
F4.5668533069596062
sg152
g156
sbag1
(g138
g3
NtRp178
(dp179
g148
F0.24363175874647069
sg149
g159
sg142
I13
sg151
F9.0729189267814014
sg152
g156
sbag1
(g138
g3
NtRp180
(dp181
g148
F-1.0536592752230938
sg149
g159
sg142
I14
sg151
F3.5890483912856972
sg152
g156
sbasb.