ccopy_reg
_reconstructor
p1
(cneat.chromosome
Chromosome
p2
c__builtin__
object
p3
NtRp4
(dp5
S'species_id'
p6
I31
sS'_connection_genes'
p7
(dp8
(I4
I7
tp9
g1
(cneat.genome
ConnectionGene
p10
g3
NtRp11
(dp12
S'_ConnectionGene__weight'
p13
F-21.298636504257473
sS'_ConnectionGene__in'
p14
I4
sS'_ConnectionGene__enabled'
p15
I01
sS'_ConnectionGene__out'
p16
I7
sS'_ConnectionGene__innov_number'
p17
I29
sbs(I1
I3
tp18
g1
(g10
g3
NtRp19
(dp20
g13
F0.86162678619100741
sg14
I1
sg15
I01
sg16
I3
sg17
I2
sbs(I2
I8
tp21
g1
(g10
g3
NtRp22
(dp23
g13
F-11.148708667572041
sg14
I2
sg15
I01
sg16
I8
sg17
I46
sbs(I3
I11
tp24
g1
(g10
g3
NtRp25
(dp26
g13
F-3.7267643178579775
sg14
I3
sg15
I01
sg16
I11
sg17
I98
sbs(I6
I2
tp27
g1
(g10
g3
NtRp28
(dp29
g13
F17.526619469241563
sg14
I6
sg15
I00
sg16
I2
sg17
I23
sbs(I2
I5
tp30
g1
(g10
g3
NtRp31
(dp32
g13
F-4.5856516600449932
sg14
I2
sg15
I01
sg16
I5
sg17
I10
sbs(I7
I2
tp33
g1
(g10
g3
NtRp34
(dp35
g13
F-3.6786877099290449
sg14
I7
sg15
I01
sg16
I2
sg17
I21
sbs(I1
I2
tp36
g1
(g10
g3
NtRp37
(dp38
g13
F-16.93408227841811
sg14
I1
sg15
I01
sg16
I2
sg17
I1
sbs(I3
I3
tp39
g1
(g10
g3
NtRp40
(dp41
g13
F-5.6511121247911724
sg14
I3
sg15
I01
sg16
I3
sg17
I6
sbs(I5
I12
tp42
g1
(g10
g3
NtRp43
(dp44
g13
F-4.3647179545998469
sg14
I5
sg15
I01
sg16
I12
sg17
I87
sbs(I1
I5
tp45
g1
(g10
g3
NtRp46
(dp47
g13
F-2.5285109063316713
sg14
I1
sg15
I01
sg16
I5
sg17
I14
sbs(I2
I2
tp48
g1
(g10
g3
NtRp49
(dp50
g13
F-18.251558152960019
sg14
I2
sg15
I01
sg16
I2
sg17
I4
sbs(I8
I6
tp51
g1
(g10
g3
NtRp52
(dp53
g13
F-4.7523184398439691
sg14
I8
sg15
I00
sg16
I6
sg17
I51
sbs(I3
I2
tp54
g1
(g10
g3
NtRp55
(dp56
g13
F15.917751581598331
sg14
I3
sg15
I00
sg16
I2
sg17
I3
sbs(I2
I6
tp57
g1
(g10
g3
NtRp58
(dp59
g13
F-15.680706431485561
sg14
I2
sg15
I01
sg16
I6
sg17
I15
sbs(I12
I10
tp60
g1
(g10
g3
NtRp61
(dp62
g13
F-9.499465812467589
sg14
I12
sg15
I01
sg16
I10
sg17
I103
sbs(I4
I2
tp63
g1
(g10
g3
NtRp64
(dp65
g13
F-5.8025388040929808
sg14
I4
sg15
I01
sg16
I2
sg17
I8
sbs(I6
I9
tp66
g1
(g10
g3
NtRp67
(dp68
g13
F-3.1370355174784863
sg14
I6
sg15
I01
sg16
I9
sg17
I56
sbs(I5
I10
tp69
g1
(g10
g3
NtRp70
(dp71
g13
F2.5516955886345829
sg14
I5
sg15
I00
sg16
I10
sg17
I78
sbs(I9
I2
tp72
g1
(g10
g3
NtRp73
(dp74
g13
F26.724583915889308
sg14
I9
sg15
I01
sg16
I2
sg17
I59
sbs(I7
I8
tp75
g1
(g10
g3
NtRp76
(dp77
g13
F-9.09926323401986
sg14
I7
sg15
I01
sg16
I8
sg17
I52
sbs(I5
I2
tp78
g1
(g10
g3
NtRp79
(dp80
g13
F2.4627125066392499
sg14
I5
sg15
I00
sg16
I2
sg17
I11
sbs(I11
I3
tp81
g1
(g10
g3
NtRp82
(dp83
g13
F0.52553059225401344
sg14
I11
sg15
I01
sg16
I3
sg17
I99
sbs(I3
I4
tp84
g1
(g10
g3
NtRp85
(dp86
g13
F4.1642856045417824
sg14
I3
sg15
I01
sg16
I4
sg17
I9
sbs(I10
I2
tp87
g1
(g10
g3
NtRp88
(dp89
g13
F7.5301316485787764
sg14
I10
sg15
I01
sg16
I2
sg17
I64
sbssS'_input_nodes'
p90
I1
sS'_output_nodes'
p91
I1
sS'_node_gene_type'
p92
cneat.genome
NodeGene
p93
sS'_conn_gene_type'
p94
g10
sS'fitness'
p95
F0.92300581520823088
sS'parent2_id'
p96
I2896
sS'_id'
p97
I2917
sS'parent1_id'
p98
I2896
sS'_node_genes'
p99
(lp100
g1
(g93
g3
NtRp101
(dp102
S'_bias'
p103
I0
sS'_type'
p104
S'INPUT'
p105
sg97
I1
sS'_response'
p106
F4.9242730000000003
sS'_activation_type'
p107
Nsbag1
(g93
g3
NtRp108
(dp109
g103
F0.47883611490523437
sg104
S'OUTPUT'
p110
sg97
I2
sg106
F2.9783272166756865
sg107
S'tanh'
p111
sbag1
(g93
g3
NtRp112
(dp113
g103
F-0.46305445373864196
sg104
S'HIDDEN'
p114
sg97
I3
sg106
F6.8370486634552723
sg107
g111
sbag1
(g93
g3
NtRp115
(dp116
g103
F4.7023444366423321
sg104
g114
sg97
I4
sg106
F2.2848439747985796
sg107
g111
sbag1
(g93
g3
NtRp117
(dp118
g103
F1.9447195629793366
sg104
g114
sg97
I5
sg106
F1.4832084465453326
sg107
g111
sbag1
(g93
g3
NtRp119
(dp120
g103
F-0.37893411230261442
sg104
g114
sg97
I6
sg106
F-0.8402414966778049
sg107
g111
sbag1
(g93
g3
NtRp121
(dp122
g103
F0.094519789942301063
sg104
g114
sg97
I7
sg106
F5.9985880297816809
sg107
g111
sbag1
(g93
g3
NtRp123
(dp124
g103
F-3.3593447367222362
sg104
g114
sg97
I8
sg106
F3.7144168704665774
sg107
g111
sbag1
(g93
g3
NtRp125
(dp126
g103
F1.1836141506687266
sg104
g114
sg97
I9
sg106
F5.6688121887213159
sg107
g111
sbag1
(g93
g3
NtRp127
(dp128
g103
F-0.29930407564912681
sg104
g114
sg97
I10
sg106
F5.8492682242232865
sg107
g111
sbag1
(g93
g3
NtRp129
(dp130
g103
F0.52493314049857021
sg104
g114
sg97
I11
sg106
F4.7495928629632953
sg107
g111
sbag1
(g93
g3
NtRp131
(dp132
g103
F-0.22044341976463724
sg104
g114
sg97
I12
sg106
F4.5064936161332634
sg107
g111
sbasb.