ccopy_reg
_reconstructor
p1
(cneat.chromosome
Chromosome
p2
c__builtin__
object
p3
NtRp4
(dp5
S'species_id'
p6
I36
sS'_connection_genes'
p7
(dp8
(I7
I8
tp9
g1
(cneat.genome
ConnectionGene
p10
g3
NtRp11
(dp12
S'_ConnectionGene__weight'
p13
F-18.030103865242012
sS'_ConnectionGene__in'
p14
I7
sS'_ConnectionGene__enabled'
p15
I01
sS'_ConnectionGene__out'
p16
I8
sS'_ConnectionGene__innov_number'
p17
I52
sbs(I4
I7
tp18
g1
(g10
g3
NtRp19
(dp20
g13
F-23.821798709426471
sg14
I4
sg15
I01
sg16
I7
sg17
I29
sbs(I1
I3
tp21
g1
(g10
g3
NtRp22
(dp23
g13
F5.649292213945067
sg14
I1
sg15
I01
sg16
I3
sg17
I2
sbs(I2
I8
tp24
g1
(g10
g3
NtRp25
(dp26
g13
F-11.176679522891165
sg14
I2
sg15
I01
sg16
I8
sg17
I46
sbs(I13
I4
tp27
g1
(g10
g3
NtRp28
(dp29
g13
F-1.8217770257282022
sg14
I13
sg15
I01
sg16
I4
sg17
I120
sbs(I3
I11
tp30
g1
(g10
g3
NtRp31
(dp32
g13
F2.8184003936582922
sg14
I3
sg15
I01
sg16
I11
sg17
I98
sbs(I6
I2
tp33
g1
(g10
g3
NtRp34
(dp35
g13
F30
sg14
I6
sg15
I01
sg16
I2
sg17
I23
sbs(I6
I12
tp36
g1
(g10
g3
NtRp37
(dp38
g13
F-3.7083063523947066
sg14
I6
sg15
I01
sg16
I12
sg17
I115
sbs(I2
I5
tp39
g1
(g10
g3
NtRp40
(dp41
g13
F0.53470143614762145
sg14
I2
sg15
I01
sg16
I5
sg17
I10
sbs(I7
I2
tp42
g1
(g10
g3
NtRp43
(dp44
g13
F-20.415144357317011
sg14
I7
sg15
I01
sg16
I2
sg17
I21
sbs(I1
I2
tp45
g1
(g10
g3
NtRp46
(dp47
g13
F-21.928871238797491
sg14
I1
sg15
I01
sg16
I2
sg17
I1
sbs(I12
I2
tp48
g1
(g10
g3
NtRp49
(dp50
g13
F19.442543157179156
sg14
I12
sg15
I01
sg16
I2
sg17
I80
sbs(I3
I3
tp51
g1
(g10
g3
NtRp52
(dp53
g13
F-1.5226780181162725
sg14
I3
sg15
I00
sg16
I3
sg17
I6
sbs(I1
I5
tp54
g1
(g10
g3
NtRp55
(dp56
g13
F-10.072077863250385
sg14
I1
sg15
I01
sg16
I5
sg17
I14
sbs(I2
I2
tp57
g1
(g10
g3
NtRp58
(dp59
g13
F-18.56579731824193
sg14
I2
sg15
I01
sg16
I2
sg17
I4
sbs(I8
I6
tp60
g1
(g10
g3
NtRp61
(dp62
g13
F10.694564677635391
sg14
I8
sg15
I01
sg16
I6
sg17
I51
sbs(I3
I2
tp63
g1
(g10
g3
NtRp64
(dp65
g13
F-2.7150144371953431
sg14
I3
sg15
I01
sg16
I2
sg17
I3
sbs(I2
I6
tp66
g1
(g10
g3
NtRp67
(dp68
g13
F-1.0560581410003405
sg14
I2
sg15
I01
sg16
I6
sg17
I15
sbs(I3
I13
tp69
g1
(g10
g3
NtRp70
(dp71
g13
F7.9267932644738579
sg14
I3
sg15
I01
sg16
I13
sg17
I105
sbs(I4
I2
tp72
g1
(g10
g3
NtRp73
(dp74
g13
F-9.2585752064326758
sg14
I4
sg15
I01
sg16
I2
sg17
I8
sbs(I6
I9
tp75
g1
(g10
g3
NtRp76
(dp77
g13
F-22.780706991544843
sg14
I6
sg15
I01
sg16
I9
sg17
I56
sbs(I5
I10
tp78
g1
(g10
g3
NtRp79
(dp80
g13
F-7.4397681991994506
sg14
I5
sg15
I01
sg16
I10
sg17
I78
sbs(I9
I2
tp81
g1
(g10
g3
NtRp82
(dp83
g13
F12.148585703757236
sg14
I9
sg15
I01
sg16
I2
sg17
I59
sbs(I5
I2
tp84
g1
(g10
g3
NtRp85
(dp86
g13
F8.3345930401749708
sg14
I5
sg15
I00
sg16
I2
sg17
I11
sbs(I11
I3
tp87
g1
(g10
g3
NtRp88
(dp89
g13
F20.547096479048406
sg14
I11
sg15
I01
sg16
I3
sg17
I99
sbs(I3
I4
tp90
g1
(g10
g3
NtRp91
(dp92
g13
F8.778617332057248
sg14
I3
sg15
I01
sg16
I4
sg17
I9
sbs(I10
I2
tp93
g1
(g10
g3
NtRp94
(dp95
g13
F21.597733606573552
sg14
I10
sg15
I01
sg16
I2
sg17
I64
sbssS'_input_nodes'
p96
I1
sS'_output_nodes'
p97
I1
sS'_node_gene_type'
p98
cneat.genome
NodeGene
p99
sS'_conn_gene_type'
p100
g10
sS'fitness'
p101
F0.97708394237200968
sS'parent2_id'
p102
I3864
sS'_id'
p103
I3879
sS'parent1_id'
p104
I3864
sS'_node_genes'
p105
(lp106
g1
(g99
g3
NtRp107
(dp108
S'_bias'
p109
I0
sS'_type'
p110
S'INPUT'
p111
sg103
I1
sS'_response'
p112
F4.9242730000000003
sS'_activation_type'
p113
Nsbag1
(g99
g3
NtRp114
(dp115
g109
F2.3303275463898503
sg110
S'OUTPUT'
p116
sg103
I2
sg112
F1.3972033525399616
sg113
S'tanh'
p117
sbag1
(g99
g3
NtRp118
(dp119
g109
F-0.72892005390281245
sg110
S'HIDDEN'
p120
sg103
I3
sg112
F8.5472369270447786
sg113
g117
sbag1
(g99
g3
NtRp121
(dp122
g109
F3.2532850029938238
sg110
g120
sg103
I4
sg112
F1.6011584157916159
sg113
g117
sbag1
(g99
g3
NtRp123
(dp124
g109
F-0.0028957564719191975
sg110
g120
sg103
I5
sg112
F1.448831311781885
sg113
g117
sbag1
(g99
g3
NtRp125
(dp126
g109
F0.73479931627234818
sg110
g120
sg103
I6
sg112
F3.3392403119466159
sg113
g117
sbag1
(g99
g3
NtRp127
(dp128
g109
F-0.050973160058962963
sg110
g120
sg103
I7
sg112
F6.0291637647521421
sg113
g117
sbag1
(g99
g3
NtRp129
(dp130
g109
F1.2323236706576288
sg110
g120
sg103
I8
sg112
F3.0521712294097698
sg113
g117
sbag1
(g99
g3
NtRp131
(dp132
g109
F-0.62745662421479254
sg110
g120
sg103
I9
sg112
F2.9854988007039376
sg113
g117
sbag1
(g99
g3
NtRp133
(dp134
g109
F0.04571998719306225
sg110
g120
sg103
I10
sg112
F4.1285564290296541
sg113
g117
sbag1
(g99
g3
NtRp135
(dp136
g109
F0.36444389246992293
sg110
g120
sg103
I11
sg112
F3.829301262229027
sg113
g117
sbag1
(g99
g3
NtRp137
(dp138
g109
F0.33684720942951829
sg110
g120
sg103
I12
sg112
F6.3120015581732307
sg113
g117
sbag1
(g99
g3
NtRp139
(dp140
g109
F1.5572572661895843
sg110
g120
sg103
I13
sg112
F7.0538391179936548
sg113
g117
sbasb.