ccopy_reg
_reconstructor
p1
(cneat.chromosome
Chromosome
p2
c__builtin__
object
p3
NtRp4
(dp5
S'species_id'
p6
I30
sS'_connection_genes'
p7
(dp8
(I4
I7
tp9
g1
(cneat.genome
ConnectionGene
p10
g3
NtRp11
(dp12
S'_ConnectionGene__weight'
p13
F-23.458321940587187
sS'_ConnectionGene__in'
p14
I4
sS'_ConnectionGene__enabled'
p15
I01
sS'_ConnectionGene__out'
p16
I7
sS'_ConnectionGene__innov_number'
p17
I29
sbs(I1
I3
tp18
g1
(g10
g3
NtRp19
(dp20
g13
F-6.6989210932338246
sg14
I1
sg15
I01
sg16
I3
sg17
I2
sbs(I2
I8
tp21
g1
(g10
g3
NtRp22
(dp23
g13
F-3.6514214494165551
sg14
I2
sg15
I01
sg16
I8
sg17
I46
sbs(I3
I11
tp24
g1
(g10
g3
NtRp25
(dp26
g13
F15.441150005509751
sg14
I3
sg15
I01
sg16
I11
sg17
I98
sbs(I6
I2
tp27
g1
(g10
g3
NtRp28
(dp29
g13
F24.376131936294307
sg14
I6
sg15
I00
sg16
I2
sg17
I23
sbs(I6
I12
tp30
g1
(g10
g3
NtRp31
(dp32
g13
F1
sg14
I6
sg15
I01
sg16
I12
sg17
I115
sbs(I2
I5
tp33
g1
(g10
g3
NtRp34
(dp35
g13
F5.2397316483332244
sg14
I2
sg15
I01
sg16
I5
sg17
I10
sbs(I7
I2
tp36
g1
(g10
g3
NtRp37
(dp38
g13
F-23.757260532527507
sg14
I7
sg15
I01
sg16
I2
sg17
I21
sbs(I1
I2
tp39
g1
(g10
g3
NtRp40
(dp41
g13
F-24.763323539291978
sg14
I1
sg15
I01
sg16
I2
sg17
I1
sbs(I12
I2
tp42
g1
(g10
g3
NtRp43
(dp44
g13
F24.376131936294307
sg14
I12
sg15
I01
sg16
I2
sg17
I80
sbs(I3
I3
tp45
g1
(g10
g3
NtRp46
(dp47
g13
F2.8383755684830443
sg14
I3
sg15
I00
sg16
I3
sg17
I6
sbs(I1
I5
tp48
g1
(g10
g3
NtRp49
(dp50
g13
F-3.5650595341744893
sg14
I1
sg15
I01
sg16
I5
sg17
I14
sbs(I2
I2
tp51
g1
(g10
g3
NtRp52
(dp53
g13
F-17.863866032487493
sg14
I2
sg15
I01
sg16
I2
sg17
I4
sbs(I3
I4
tp54
g1
(g10
g3
NtRp55
(dp56
g13
F10.734099569069526
sg14
I3
sg15
I01
sg16
I4
sg17
I9
sbs(I8
I6
tp57
g1
(g10
g3
NtRp58
(dp59
g13
F6.3581207153880044
sg14
I8
sg15
I01
sg16
I6
sg17
I51
sbs(I3
I2
tp60
g1
(g10
g3
NtRp61
(dp62
g13
F10.844756477378436
sg14
I3
sg15
I01
sg16
I2
sg17
I3
sbs(I2
I6
tp63
g1
(g10
g3
NtRp64
(dp65
g13
F-5.0606522764304458
sg14
I2
sg15
I01
sg16
I6
sg17
I15
sbs(I4
I2
tp66
g1
(g10
g3
NtRp67
(dp68
g13
F-2.2363318822409184
sg14
I4
sg15
I01
sg16
I2
sg17
I8
sbs(I6
I9
tp69
g1
(g10
g3
NtRp70
(dp71
g13
F-14.578554065768463
sg14
I6
sg15
I01
sg16
I9
sg17
I56
sbs(I5
I10
tp72
g1
(g10
g3
NtRp73
(dp74
g13
F2.2419820847283436
sg14
I5
sg15
I01
sg16
I10
sg17
I78
sbs(I9
I2
tp75
g1
(g10
g3
NtRp76
(dp77
g13
F20.888283758090296
sg14
I9
sg15
I01
sg16
I2
sg17
I59
sbs(I5
I2
tp78
g1
(g10
g3
NtRp79
(dp80
g13
F13.510441632249758
sg14
I5
sg15
I00
sg16
I2
sg17
I11
sbs(I11
I3
tp81
g1
(g10
g3
NtRp82
(dp83
g13
F11.342003604055602
sg14
I11
sg15
I01
sg16
I3
sg17
I99
sbs(I7
I8
tp84
g1
(g10
g3
NtRp85
(dp86
g13
F-11.952312817701362
sg14
I7
sg15
I01
sg16
I8
sg17
I52
sbs(I10
I2
tp87
g1
(g10
g3
NtRp88
(dp89
g13
F8.9100258063562094
sg14
I10
sg15
I01
sg16
I2
sg17
I64
sbssS'_input_nodes'
p90
I1
sS'_output_nodes'
p91
I1
sS'_node_gene_type'
p92
cneat.genome
NodeGene
p93
sS'_conn_gene_type'
p94
g10
sS'fitness'
p95
F0.95650559209362873
sS'parent2_id'
p96
I3140
sS'_id'
p97
I3156
sS'parent1_id'
p98
I3140
sS'_node_genes'
p99
(lp100
g1
(g93
g3
NtRp101
(dp102
S'_bias'
p103
I0
sS'_type'
p104
S'INPUT'
p105
sg97
I1
sS'_response'
p106
F4.9242730000000003
sS'_activation_type'
p107
Nsbag1
(g93
g3
NtRp108
(dp109
g103
F0.42010641736718429
sg104
S'OUTPUT'
p110
sg97
I2
sg106
F2.1780989285681112
sg107
S'tanh'
p111
sbag1
(g93
g3
NtRp112
(dp113
g103
F-0.035245205392963622
sg104
S'HIDDEN'
p114
sg97
I3
sg106
F8.0742150593440627
sg107
g111
sbag1
(g93
g3
NtRp115
(dp116
g103
F3.293091697467073
sg104
g114
sg97
I4
sg106
F0.46873287986607604
sg107
g111
sbag1
(g93
g3
NtRp117
(dp118
g103
F3.440700453355424
sg104
g114
sg97
I5
sg106
F1.893755038755407
sg107
g111
sbag1
(g93
g3
NtRp119
(dp120
g103
F-0.2220743274407268
sg104
g114
sg97
I6
sg106
F0.72539682869382804
sg107
g111
sbag1
(g93
g3
NtRp121
(dp122
g103
F-0.5262801713981291
sg104
g114
sg97
I7
sg106
F6.1543350159736052
sg107
g111
sbag1
(g93
g3
NtRp123
(dp124
g103
F0.28197037519277346
sg104
g114
sg97
I8
sg106
F2.3824714517070005
sg107
g111
sbag1
(g93
g3
NtRp125
(dp126
g103
F-0.396067992219161
sg104
g114
sg97
I9
sg106
F4.317782865686608
sg107
g111
sbag1
(g93
g3
NtRp127
(dp128
g103
F-0.19544601982398496
sg104
g114
sg97
I10
sg106
F3.8402732323437236
sg107
g111
sbag1
(g93
g3
NtRp129
(dp130
g103
F0.42093425677092644
sg104
g114
sg97
I11
sg106
F4.0505102353900586
sg107
g111
sbag1
(g93
g3
NtRp131
(dp132
g103
I0
sg104
g114
sg97
I12
sg106
F4.9242730000000003
sg107
g111
sbasb.