ccopy_reg
_reconstructor
p1
(cneat.chromosome
Chromosome
p2
c__builtin__
object
p3
NtRp4
(dp5
S'species_id'
p6
I54
sS'_connection_genes'
p7
(dp8
(I4
I7
tp9
g1
(cneat.genome
ConnectionGene
p10
g3
NtRp11
(dp12
S'_ConnectionGene__weight'
p13
F-1.9185880085601608
sS'_ConnectionGene__in'
p14
I4
sS'_ConnectionGene__enabled'
p15
I01
sS'_ConnectionGene__out'
p16
I7
sS'_ConnectionGene__innov_number'
p17
I29
sbs(I1
I3
tp18
g1
(g10
g3
NtRp19
(dp20
g13
F9.0405679686244405
sg14
I1
sg15
I01
sg16
I3
sg17
I2
sbs(I6
I6
tp21
g1
(g10
g3
NtRp22
(dp23
g13
F11.309812298098276
sg14
I6
sg15
I01
sg16
I6
sg17
I34
sbs(I7
I12
tp24
g1
(g10
g3
NtRp25
(dp26
g13
F-8.3967167724569975
sg14
I7
sg15
I01
sg16
I12
sg17
I102
sbs(I2
I8
tp27
g1
(g10
g3
NtRp28
(dp29
g13
F-17.801322523270642
sg14
I2
sg15
I01
sg16
I8
sg17
I46
sbs(I12
I12
tp30
g1
(g10
g3
NtRp31
(dp32
g13
F5.1920467908385994
sg14
I12
sg15
I01
sg16
I12
sg17
I160
sbs(I3
I11
tp33
g1
(g10
g3
NtRp34
(dp35
g13
F-20.722623605742953
sg14
I3
sg15
I01
sg16
I11
sg17
I98
sbs(I8
I9
tp36
g1
(g10
g3
NtRp37
(dp38
g13
F-19.599709520945005
sg14
I8
sg15
I01
sg16
I9
sg17
I61
sbs(I6
I2
tp39
g1
(g10
g3
NtRp40
(dp41
g13
F5.8105684672041402
sg14
I6
sg15
I01
sg16
I2
sg17
I23
sbs(I2
I5
tp42
g1
(g10
g3
NtRp43
(dp44
g13
F-22.483927861846599
sg14
I2
sg15
I01
sg16
I5
sg17
I10
sbs(I6
I9
tp45
g1
(g10
g3
NtRp46
(dp47
g13
F11.82555143801836
sg14
I6
sg15
I01
sg16
I9
sg17
I56
sbs(I7
I2
tp48
g1
(g10
g3
NtRp49
(dp50
g13
F-21.748105388246024
sg14
I7
sg15
I01
sg16
I2
sg17
I21
sbs(I1
I2
tp51
g1
(g10
g3
NtRp52
(dp53
g13
F7.1924941802273192
sg14
I1
sg15
I01
sg16
I2
sg17
I1
sbs(I14
I2
tp54
g1
(g10
g3
NtRp55
(dp56
g13
F15.365647599216103
sg14
I14
sg15
I01
sg16
I2
sg17
I130
sbs(I3
I3
tp57
g1
(g10
g3
NtRp58
(dp59
g13
F10.826101706527528
sg14
I3
sg15
I01
sg16
I3
sg17
I6
sbs(I5
I12
tp60
g1
(g10
g3
NtRp61
(dp62
g13
F2.3090880741763522
sg14
I5
sg15
I01
sg16
I12
sg17
I87
sbs(I3
I4
tp63
g1
(g10
g3
NtRp64
(dp65
g13
F4.9174840229258319
sg14
I3
sg15
I01
sg16
I4
sg17
I9
sbs(I6
I3
tp66
g1
(g10
g3
NtRp67
(dp68
g13
F-22.965398186115614
sg14
I6
sg15
I01
sg16
I3
sg17
I37
sbs(I1
I5
tp69
g1
(g10
g3
NtRp70
(dp71
g13
F6.4352771957292294
sg14
I1
sg15
I00
sg16
I5
sg17
I14
sbs(I13
I7
tp72
g1
(g10
g3
NtRp73
(dp74
g13
F4.3108826450028239
sg14
I13
sg15
I01
sg16
I7
sg17
I136
sbs(I3
I14
tp75
g1
(g10
g3
NtRp76
(dp77
g13
F-5.3558091716989109
sg14
I3
sg15
I01
sg16
I14
sg17
I157
sbs(I2
I2
tp78
g1
(g10
g3
NtRp79
(dp80
g13
F11.251733509972281
sg14
I2
sg15
I00
sg16
I2
sg17
I4
sbs(I1
I10
tp81
g1
(g10
g3
NtRp82
(dp83
g13
F-3.3945215176782559
sg14
I1
sg15
I01
sg16
I10
sg17
I65
sbs(I8
I6
tp84
g1
(g10
g3
NtRp85
(dp86
g13
F-30
sg14
I8
sg15
I01
sg16
I6
sg17
I51
sbs(I11
I13
tp87
g1
(g10
g3
NtRp88
(dp89
g13
F-23.663337205276857
sg14
I11
sg15
I01
sg16
I13
sg17
I156
sbs(I3
I2
tp90
g1
(g10
g3
NtRp91
(dp92
g13
F11.493639471577822
sg14
I3
sg15
I00
sg16
I2
sg17
I3
sbs(I2
I6
tp93
g1
(g10
g3
NtRp94
(dp95
g13
F-20.272733546491438
sg14
I2
sg15
I01
sg16
I6
sg17
I15
sbs(I9
I3
tp96
g1
(g10
g3
NtRp97
(dp98
g13
F11.702799142904327
sg14
I9
sg15
I01
sg16
I3
sg17
I95
sbs(I15
I10
tp99
g1
(g10
g3
NtRp100
(dp101
g13
F-18.05157950572039
sg14
I15
sg15
I01
sg16
I10
sg17
I189
sbs(I12
I10
tp102
g1
(g10
g3
NtRp103
(dp104
g13
F-26.119645219966504
sg14
I12
sg15
I00
sg16
I10
sg17
I103
sbs(I4
I2
tp105
g1
(g10
g3
NtRp106
(dp107
g13
F2.9813587946343914
sg14
I4
sg15
I01
sg16
I2
sg17
I8
sbs(I2
I14
tp108
g1
(g10
g3
NtRp109
(dp110
g13
F6.2277013182357406
sg14
I2
sg15
I01
sg16
I14
sg17
I129
sbs(I5
I3
tp111
g1
(g10
g3
NtRp112
(dp113
g13
F7.1684859669925274
sg14
I5
sg15
I01
sg16
I3
sg17
I27
sbs(I11
I7
tp114
g1
(g10
g3
NtRp115
(dp116
g13
F-27.098126694623847
sg14
I11
sg15
I00
sg16
I7
sg17
I107
sbs(I12
I15
tp117
g1
(g10
g3
NtRp118
(dp119
g13
F1.8133379167021473
sg14
I12
sg15
I01
sg16
I15
sg17
I217
sbs(I5
I10
tp120
g1
(g10
g3
NtRp121
(dp122
g13
F6.9285718892933215
sg14
I5
sg15
I00
sg16
I10
sg17
I78
sbs(I16
I5
tp123
g1
(g10
g3
NtRp124
(dp125
g13
F-7.7866764788619882
sg14
I16
sg15
I01
sg16
I5
sg17
I178
sbs(I9
I2
tp126
g1
(g10
g3
NtRp127
(dp128
g13
F24.492592958122291
sg14
I9
sg15
I01
sg16
I2
sg17
I59
sbs(I5
I2
tp129
g1
(g10
g3
NtRp130
(dp131
g13
F-27.313004007671889
sg14
I5
sg15
I01
sg16
I2
sg17
I11
sbs(I16
I8
tp132
g1
(g10
g3
NtRp133
(dp134
g13
F2.5478223400910665
sg14
I16
sg15
I01
sg16
I8
sg17
I172
sbs(I11
I3
tp135
g1
(g10
g3
NtRp136
(dp137
g13
F-7.9544936907391337
sg14
I11
sg15
I01
sg16
I3
sg17
I99
sbs(I3
I8
tp138
g1
(g10
g3
NtRp139
(dp140
g13
F3.6960274170697041
sg14
I3
sg15
I01
sg16
I8
sg17
I45
sbs(I9
I5
tp141
g1
(g10
g3
NtRp142
(dp143
g13
F-4.4206361834322809
sg14
I9
sg15
I01
sg16
I5
sg17
I57
sbs(I7
I8
tp144
g1
(g10
g3
NtRp145
(dp146
g13
F3.0616623874625484
sg14
I7
sg15
I01
sg16
I8
sg17
I52
sbs(I1
I16
tp147
g1
(g10
g3
NtRp148
(dp149
g13
F3.1842914241285198
sg14
I1
sg15
I01
sg16
I16
sg17
I245
sbs(I9
I12
tp150
g1
(g10
g3
NtRp151
(dp152
g13
F3.6286545743949263
sg14
I9
sg15
I01
sg16
I12
sg17
I82
sbs(I10
I2
tp153
g1
(g10
g3
NtRp154
(dp155
g13
F-15.640532469861611
sg14
I10
sg15
I01
sg16
I2
sg17
I64
sbssS'_input_nodes'
p156
I1
sS'_output_nodes'
p157
I1
sS'_node_gene_type'
p158
cneat.genome
NodeGene
p159
sS'_conn_gene_type'
p160
g10
sS'fitness'
p161
F0.99200791999264082
sS'parent2_id'
p162
I6698
sS'_id'
p163
I6713
sS'parent1_id'
p164
I6698
sS'_node_genes'
p165
(lp166
g1
(g159
g3
NtRp167
(dp168
S'_bias'
p169
I0
sS'_type'
p170
S'INPUT'
p171
sg163
I1
sS'_response'
p172
F4.9242730000000003
sS'_activation_type'
p173
Nsbag1
(g159
g3
NtRp174
(dp175
g169
F0.51284535706804824
sg170
S'OUTPUT'
p176
sg163
I2
sg172
F4.990186586286721
sg173
S'tanh'
p177
sbag1
(g159
g3
NtRp178
(dp179
g169
F-3.1263474131614499
sg170
S'HIDDEN'
p180
sg163
I3
sg172
F15.037530877296611
sg173
g177
sbag1
(g159
g3
NtRp181
(dp182
g169
F6.5985892802570891
sg170
g180
sg163
I4
sg172
F3.9164864844430092
sg173
g177
sbag1
(g159
g3
NtRp183
(dp184
g169
F-3.057740567489645
sg170
g180
sg163
I5
sg172
F-7.0231164412759846
sg173
g177
sbag1
(g159
g3
NtRp185
(dp186
g169
F-2.1388374102446543
sg170
g180
sg163
I6
sg172
F1.5433285096319471
sg173
g177
sbag1
(g159
g3
NtRp187
(dp188
g169
F4.2435235715939008
sg170
g180
sg163
I7
sg172
F6.4293855634558543
sg173
g177
sbag1
(g159
g3
NtRp189
(dp190
g169
F-5.294710724484939
sg170
g180
sg163
I8
sg172
F9.295385173921872
sg173
g177
sbag1
(g159
g3
NtRp191
(dp192
g169
F3.7992024266038129
sg170
g180
sg163
I9
sg172
F3.6685974484645767
sg173
g177
sbag1
(g159
g3
NtRp193
(dp194
g169
F-0.91351594989231721
sg170
g180
sg163
I10
sg172
F8.6182589972354346
sg173
g177
sbag1
(g159
g3
NtRp195
(dp196
g169
F-0.53988873443139906
sg170
g180
sg163
I11
sg172
F2.5982327143899737
sg173
g177
sbag1
(g159
g3
NtRp197
(dp198
g169
F2.3462230576137144
sg170
g180
sg163
I12
sg172
F5.3242599862388733
sg173
g177
sbag1
(g159
g3
NtRp199
(dp200
g169
F1.1390272470503147
sg170
g180
sg163
I13
sg172
F8.3243106631353072
sg173
g177
sbag1
(g159
g3
NtRp201
(dp202
g169
F-0.89781986084367404
sg170
g180
sg163
I14
sg172
F4.315799870642234
sg173
g177
sbag1
(g159
g3
NtRp203
(dp204
g169
F0.88817539753568098
sg170
g180
sg163
I15
sg172
F4.3283377524297855
sg173
g177
sbag1
(g159
g3
NtRp205
(dp206
g169
F-2.2751898246330562
sg170
g180
sg163
I16
sg172
F3.8880680151333844
sg173
g177
sbasb.