ccopy_reg
_reconstructor
p1
(cneat.chromosome
Chromosome
p2
c__builtin__
object
p3
NtRp4
(dp5
S'species_id'
p6
I47
sS'_connection_genes'
p7
(dp8
(I7
I8
tp9
g1
(cneat.genome
ConnectionGene
p10
g3
NtRp11
(dp12
S'_ConnectionGene__weight'
p13
F4.1656349224297173
sS'_ConnectionGene__in'
p14
I7
sS'_ConnectionGene__enabled'
p15
I01
sS'_ConnectionGene__out'
p16
I8
sS'_ConnectionGene__innov_number'
p17
I52
sbs(I4
I7
tp18
g1
(g10
g3
NtRp19
(dp20
g13
F-5.1036786788404607
sg14
I4
sg15
I01
sg16
I7
sg17
I29
sbs(I1
I3
tp21
g1
(g10
g3
NtRp22
(dp23
g13
F11.173383371700627
sg14
I1
sg15
I01
sg16
I3
sg17
I2
sbs(I6
I6
tp24
g1
(g10
g3
NtRp25
(dp26
g13
F8.216285827414648
sg14
I6
sg15
I01
sg16
I6
sg17
I34
sbs(I7
I12
tp27
g1
(g10
g3
NtRp28
(dp29
g13
F-3.7828606380392911
sg14
I7
sg15
I01
sg16
I12
sg17
I102
sbs(I2
I8
tp30
g1
(g10
g3
NtRp31
(dp32
g13
F-16.76882265285025
sg14
I2
sg15
I01
sg16
I8
sg17
I46
sbs(I12
I12
tp33
g1
(g10
g3
NtRp34
(dp35
g13
F9.0677755258901591
sg14
I12
sg15
I01
sg16
I12
sg17
I160
sbs(I3
I11
tp36
g1
(g10
g3
NtRp37
(dp38
g13
F-11.794849998001833
sg14
I3
sg15
I01
sg16
I11
sg17
I98
sbs(I8
I9
tp39
g1
(g10
g3
NtRp40
(dp41
g13
F-27.961155768377452
sg14
I8
sg15
I01
sg16
I9
sg17
I61
sbs(I6
I2
tp42
g1
(g10
g3
NtRp43
(dp44
g13
F11.625419999770386
sg14
I6
sg15
I01
sg16
I2
sg17
I23
sbs(I2
I5
tp45
g1
(g10
g3
NtRp46
(dp47
g13
F-18.062307686485003
sg14
I2
sg15
I01
sg16
I5
sg17
I10
sbs(I3
I14
tp48
g1
(g10
g3
NtRp49
(dp50
g13
F-3.5497680135585044
sg14
I3
sg15
I01
sg16
I14
sg17
I157
sbs(I1
I2
tp51
g1
(g10
g3
NtRp52
(dp53
g13
F-8.7620379137032245
sg14
I1
sg15
I01
sg16
I2
sg17
I1
sbs(I2
I14
tp54
g1
(g10
g3
NtRp55
(dp56
g13
F6.6854373882967462
sg14
I2
sg15
I01
sg16
I14
sg17
I129
sbs(I3
I3
tp57
g1
(g10
g3
NtRp58
(dp59
g13
F4.6201497149598065
sg14
I3
sg15
I01
sg16
I3
sg17
I6
sbs(I5
I12
tp60
g1
(g10
g3
NtRp61
(dp62
g13
F0.80765448178318389
sg14
I5
sg15
I01
sg16
I12
sg17
I87
sbs(I6
I3
tp63
g1
(g10
g3
NtRp64
(dp65
g13
F-16.575026434947993
sg14
I6
sg15
I01
sg16
I3
sg17
I37
sbs(I1
I5
tp66
g1
(g10
g3
NtRp67
(dp68
g13
F-10.713601409113776
sg14
I1
sg15
I01
sg16
I5
sg17
I14
sbs(I13
I7
tp69
g1
(g10
g3
NtRp70
(dp71
g13
F4.440796457838128
sg14
I13
sg15
I01
sg16
I7
sg17
I136
sbs(I7
I2
tp72
g1
(g10
g3
NtRp73
(dp74
g13
F-19.480644776987262
sg14
I7
sg15
I01
sg16
I2
sg17
I21
sbs(I2
I2
tp75
g1
(g10
g3
NtRp76
(dp77
g13
F9.965429590237159
sg14
I2
sg15
I00
sg16
I2
sg17
I4
sbs(I1
I10
tp78
g1
(g10
g3
NtRp79
(dp80
g13
F-1.3379314725320433
sg14
I1
sg15
I01
sg16
I10
sg17
I65
sbs(I8
I6
tp81
g1
(g10
g3
NtRp82
(dp83
g13
F-23.697372857852425
sg14
I8
sg15
I01
sg16
I6
sg17
I51
sbs(I11
I13
tp84
g1
(g10
g3
NtRp85
(dp86
g13
F-27.545504594544077
sg14
I11
sg15
I01
sg16
I13
sg17
I156
sbs(I3
I2
tp87
g1
(g10
g3
NtRp88
(dp89
g13
F3.361610341016096
sg14
I3
sg15
I00
sg16
I2
sg17
I3
sbs(I2
I6
tp90
g1
(g10
g3
NtRp91
(dp92
g13
F-24.9635804880145
sg14
I2
sg15
I01
sg16
I6
sg17
I15
sbs(I9
I3
tp93
g1
(g10
g3
NtRp94
(dp95
g13
F8.035058820490514
sg14
I9
sg15
I01
sg16
I3
sg17
I95
sbs(I12
I15
tp96
g1
(g10
g3
NtRp97
(dp98
g13
F9.6596827081112266
sg14
I12
sg15
I01
sg16
I15
sg17
I217
sbs(I15
I10
tp99
g1
(g10
g3
NtRp100
(dp101
g13
F-26.441640411769267
sg14
I15
sg15
I01
sg16
I10
sg17
I189
sbs(I12
I10
tp102
g1
(g10
g3
NtRp103
(dp104
g13
F-27.48421592582071
sg14
I12
sg15
I00
sg16
I10
sg17
I103
sbs(I4
I2
tp105
g1
(g10
g3
NtRp106
(dp107
g13
F-5.5693657995934736
sg14
I4
sg15
I01
sg16
I2
sg17
I8
sbs(I14
I2
tp108
g1
(g10
g3
NtRp109
(dp110
g13
F7.9349787410206609
sg14
I14
sg15
I01
sg16
I2
sg17
I130
sbs(I11
I7
tp111
g1
(g10
g3
NtRp112
(dp113
g13
F-11.837766257847314
sg14
I11
sg15
I00
sg16
I7
sg17
I107
sbs(I6
I9
tp114
g1
(g10
g3
NtRp115
(dp116
g13
F3.7690921553567183
sg14
I6
sg15
I01
sg16
I9
sg17
I56
sbs(I5
I10
tp117
g1
(g10
g3
NtRp118
(dp119
g13
F2.4766707631526987
sg14
I5
sg15
I00
sg16
I10
sg17
I78
sbs(I9
I2
tp120
g1
(g10
g3
NtRp121
(dp122
g13
F23.467547696788074
sg14
I9
sg15
I01
sg16
I2
sg17
I59
sbs(I5
I2
tp123
g1
(g10
g3
NtRp124
(dp125
g13
F-28.159441141501343
sg14
I5
sg15
I01
sg16
I2
sg17
I11
sbs(I11
I3
tp126
g1
(g10
g3
NtRp127
(dp128
g13
F-5.9037206835340159
sg14
I11
sg15
I01
sg16
I3
sg17
I99
sbs(I3
I8
tp129
g1
(g10
g3
NtRp130
(dp131
g13
F6.2250061795967735
sg14
I3
sg15
I01
sg16
I8
sg17
I45
sbs(I9
I5
tp132
g1
(g10
g3
NtRp133
(dp134
g13
F2.7459236038595254
sg14
I9
sg15
I01
sg16
I5
sg17
I57
sbs(I3
I4
tp135
g1
(g10
g3
NtRp136
(dp137
g13
F-4.726679626527539
sg14
I3
sg15
I01
sg16
I4
sg17
I9
sbs(I9
I12
tp138
g1
(g10
g3
NtRp139
(dp140
g13
F-2.8189594651103507
sg14
I9
sg15
I01
sg16
I12
sg17
I82
sbs(I10
I2
tp141
g1
(g10
g3
NtRp142
(dp143
g13
F-10.758230134112488
sg14
I10
sg15
I01
sg16
I2
sg17
I64
sbssS'_input_nodes'
p144
I1
sS'_output_nodes'
p145
I1
sS'_node_gene_type'
p146
cneat.genome
NodeGene
p147
sS'_conn_gene_type'
p148
g10
sS'fitness'
p149
F0.99530281233006257
sS'parent2_id'
p150
I6112
sS'_id'
p151
I6132
sS'parent1_id'
p152
I6112
sS'_node_genes'
p153
(lp154
g1
(g147
g3
NtRp155
(dp156
S'_bias'
p157
I0
sS'_type'
p158
S'INPUT'
p159
sg151
I1
sS'_response'
p160
F4.9242730000000003
sS'_activation_type'
p161
Nsbag1
(g147
g3
NtRp162
(dp163
g157
F0.49996364453376463
sg158
S'OUTPUT'
p164
sg151
I2
sg160
F2.8893267183630571
sg161
S'tanh'
p165
sbag1
(g147
g3
NtRp166
(dp167
g157
F-3.4736967871041813
sg158
S'HIDDEN'
p168
sg151
I3
sg160
F14.723259927040496
sg161
g165
sbag1
(g147
g3
NtRp169
(dp170
g157
F3.9762677251586966
sg158
g168
sg151
I4
sg160
F4.4509907476935267
sg161
g165
sbag1
(g147
g3
NtRp171
(dp172
g157
F-0.78760325852708157
sg158
g168
sg151
I5
sg160
F-6.0355177306009686
sg161
g165
sbag1
(g147
g3
NtRp173
(dp174
g157
F-1.3948157975700775
sg158
g168
sg151
I6
sg160
F1.133015270512679
sg161
g165
sbag1
(g147
g3
NtRp175
(dp176
g157
F2.362813379800055
sg158
g168
sg151
I7
sg160
F5.9616469717097251
sg161
g165
sbag1
(g147
g3
NtRp177
(dp178
g157
F-5.4740165807116092
sg158
g168
sg151
I8
sg160
F7.9682613554938193
sg161
g165
sbag1
(g147
g3
NtRp179
(dp180
g157
F1.5964166626984486
sg158
g168
sg151
I9
sg160
F3.5926204644731037
sg161
g165
sbag1
(g147
g3
NtRp181
(dp182
g157
F0.093024738285954589
sg158
g168
sg151
I10
sg160
F7.1836698379997248
sg161
g165
sbag1
(g147
g3
NtRp183
(dp184
g157
F-0.45885486100133099
sg158
g168
sg151
I11
sg160
F3.8616271032490825
sg161
g165
sbag1
(g147
g3
NtRp185
(dp186
g157
F1.0767999861861506
sg158
g168
sg151
I12
sg160
F6.5003983724443879
sg161
g165
sbag1
(g147
g3
NtRp187
(dp188
g157
F0.96461021442621997
sg158
g168
sg151
I13
sg160
F8.652821826349598
sg161
g165
sbag1
(g147
g3
NtRp189
(dp190
g157
F-3.3499988514804331
sg158
g168
sg151
I14
sg160
F3.8940256835271185
sg161
g165
sbag1
(g147
g3
NtRp191
(dp192
g157
F0.25960585964497945
sg158
g168
sg151
I15
sg160
F4.9242730000000003
sg161
g165
sbasb.