ccopy_reg
_reconstructor
p1
(cneat.chromosome
Chromosome
p2
c__builtin__
object
p3
NtRp4
(dp5
S'species_id'
p6
I41
sS'_connection_genes'
p7
(dp8
(I5
I9
tp9
g1
(cneat.genome
ConnectionGene
p10
g3
NtRp11
(dp12
S'_ConnectionGene__weight'
p13
F5.6541928670097068
sS'_ConnectionGene__in'
p14
I5
sS'_ConnectionGene__enabled'
p15
I01
sS'_ConnectionGene__out'
p16
I9
sS'_ConnectionGene__innov_number'
p17
I58
sbs(I4
I7
tp18
g1
(g10
g3
NtRp19
(dp20
g13
F-17.910674768345487
sg14
I4
sg15
I01
sg16
I7
sg17
I29
sbs(I1
I3
tp21
g1
(g10
g3
NtRp22
(dp23
g13
F3.495573605002297
sg14
I1
sg15
I01
sg16
I3
sg17
I2
sbs(I14
I4
tp24
g1
(g10
g3
NtRp25
(dp26
g13
F0.37012152667602427
sg14
I14
sg15
I01
sg16
I4
sg17
I143
sbs(I13
I4
tp27
g1
(g10
g3
NtRp28
(dp29
g13
F22.669949199282037
sg14
I13
sg15
I00
sg16
I4
sg17
I120
sbs(I3
I11
tp30
g1
(g10
g3
NtRp31
(dp32
g13
F12.231088539572493
sg14
I3
sg15
I01
sg16
I11
sg17
I98
sbs(I1
I15
tp33
g1
(g10
g3
NtRp34
(dp35
g13
F-9.9705045199632174
sg14
I1
sg15
I01
sg16
I15
sg17
I148
sbs(I6
I2
tp36
g1
(g10
g3
NtRp37
(dp38
g13
F19.013425932604456
sg14
I6
sg15
I01
sg16
I2
sg17
I23
sbs(I7
I16
tp39
g1
(g10
g3
NtRp40
(dp41
g13
F1.2467451238750173
sg14
I7
sg15
I01
sg16
I16
sg17
I171
sbs(I6
I12
tp42
g1
(g10
g3
NtRp43
(dp44
g13
F-24.373906672146092
sg14
I6
sg15
I01
sg16
I12
sg17
I115
sbs(I2
I5
tp45
g1
(g10
g3
NtRp46
(dp47
g13
F-0.22461819427534113
sg14
I2
sg15
I01
sg16
I5
sg17
I10
sbs(I15
I5
tp48
g1
(g10
g3
NtRp49
(dp50
g13
F-4.777057312342361
sg14
I15
sg15
I01
sg16
I5
sg17
I165
sbs(I7
I2
tp51
g1
(g10
g3
NtRp52
(dp53
g13
F-29.671743442050939
sg14
I7
sg15
I01
sg16
I2
sg17
I21
sbs(I1
I2
tp54
g1
(g10
g3
NtRp55
(dp56
g13
F-10.325346138983903
sg14
I1
sg15
I01
sg16
I2
sg17
I1
sbs(I12
I2
tp57
g1
(g10
g3
NtRp58
(dp59
g13
F21.835052605331846
sg14
I12
sg15
I01
sg16
I2
sg17
I80
sbs(I3
I3
tp60
g1
(g10
g3
NtRp61
(dp62
g13
F-2.1674863590377282
sg14
I3
sg15
I01
sg16
I3
sg17
I6
sbs(I2
I8
tp63
g1
(g10
g3
NtRp64
(dp65
g13
F-19.836798601498788
sg14
I2
sg15
I01
sg16
I8
sg17
I46
sbs(I1
I5
tp66
g1
(g10
g3
NtRp67
(dp68
g13
F-14.081723582998418
sg14
I1
sg15
I00
sg16
I5
sg17
I14
sbs(I2
I2
tp69
g1
(g10
g3
NtRp70
(dp71
g13
F-9.4838889492358582
sg14
I2
sg15
I01
sg16
I2
sg17
I4
sbs(I3
I4
tp72
g1
(g10
g3
NtRp73
(dp74
g13
F-14.984368726545998
sg14
I3
sg15
I01
sg16
I4
sg17
I9
sbs(I8
I6
tp75
g1
(g10
g3
NtRp76
(dp77
g13
F16.217370754224731
sg14
I8
sg15
I01
sg16
I6
sg17
I51
sbs(I3
I2
tp78
g1
(g10
g3
NtRp79
(dp80
g13
F-4.2434389288614556
sg14
I3
sg15
I01
sg16
I2
sg17
I3
sbs(I2
I6
tp81
g1
(g10
g3
NtRp82
(dp83
g13
F-17.767528850729573
sg14
I2
sg15
I01
sg16
I6
sg17
I15
sbs(I3
I13
tp84
g1
(g10
g3
NtRp85
(dp86
g13
F14.509033556274858
sg14
I3
sg15
I01
sg16
I13
sg17
I105
sbs(I7
I5
tp87
g1
(g10
g3
NtRp88
(dp89
g13
F-2.9558779681832235
sg14
I7
sg15
I00
sg16
I5
sg17
I19
sbs(I4
I2
tp90
g1
(g10
g3
NtRp91
(dp92
g13
F-9.5760472124033313
sg14
I4
sg15
I01
sg16
I2
sg17
I8
sbs(I6
I9
tp93
g1
(g10
g3
NtRp94
(dp95
g13
F-25.425338671633504
sg14
I6
sg15
I01
sg16
I9
sg17
I56
sbs(I5
I10
tp96
g1
(g10
g3
NtRp97
(dp98
g13
F9.5298914833159589
sg14
I5
sg15
I01
sg16
I10
sg17
I78
sbs(I16
I5
tp99
g1
(g10
g3
NtRp100
(dp101
g13
F-3.1169760060220302
sg14
I16
sg15
I01
sg16
I5
sg17
I178
sbs(I9
I2
tp102
g1
(g10
g3
NtRp103
(dp104
g13
F23.971862118660756
sg14
I9
sg15
I01
sg16
I2
sg17
I59
sbs(I5
I2
tp105
g1
(g10
g3
NtRp106
(dp107
g13
F13.572518954839563
sg14
I5
sg15
I00
sg16
I2
sg17
I11
sbs(I11
I3
tp108
g1
(g10
g3
NtRp109
(dp110
g13
F19.676165902121454
sg14
I11
sg15
I01
sg16
I3
sg17
I99
sbs(I13
I14
tp111
g1
(g10
g3
NtRp112
(dp113
g13
F3.1093569817712945
sg14
I13
sg15
I01
sg16
I14
sg17
I142
sbs(I7
I8
tp114
g1
(g10
g3
NtRp115
(dp116
g13
F-21.075489623475057
sg14
I7
sg15
I01
sg16
I8
sg17
I52
sbs(I10
I2
tp117
g1
(g10
g3
NtRp118
(dp119
g13
F8.4005313916916382
sg14
I10
sg15
I01
sg16
I2
sg17
I64
sbssS'_input_nodes'
p120
I1
sS'_output_nodes'
p121
I1
sS'_node_gene_type'
p122
cneat.genome
NodeGene
p123
sS'_conn_gene_type'
p124
g10
sS'fitness'
p125
F0.95982579026551074
sS'parent2_id'
p126
I4954
sS'_id'
p127
I4962
sS'parent1_id'
p128
I4957
sS'_node_genes'
p129
(lp130
g1
(g123
g3
NtRp131
(dp132
S'_bias'
p133
I0
sS'_type'
p134
S'INPUT'
p135
sg127
I1
sS'_response'
p136
F4.9242730000000003
sS'_activation_type'
p137
Nsbag1
(g123
g3
NtRp138
(dp139
g133
F2.9049123787103293
sg134
S'OUTPUT'
p140
sg127
I2
sg136
F3.018392016934011
sg137
S'tanh'
p141
sbag1
(g123
g3
NtRp142
(dp143
g133
F1.7579660815629901
sg134
S'HIDDEN'
p144
sg127
I3
sg136
F7.393945662084989
sg137
g141
sbag1
(g123
g3
NtRp145
(dp146
g133
F1.285636110523571
sg134
g144
sg127
I4
sg136
F4.9723922935908744
sg137
g141
sbag1
(g123
g3
NtRp147
(dp148
g133
F1.7986250671619122
sg134
g144
sg127
I5
sg136
F0.92560023785092338
sg137
g141
sbag1
(g123
g3
NtRp149
(dp150
g133
F3.0560454270542401
sg134
g144
sg127
I6
sg136
F6.6624453740486347
sg137
g141
sbag1
(g123
g3
NtRp151
(dp152
g133
F-0.098301739942012106
sg134
g144
sg127
I7
sg136
F9.5125085997571404
sg137
g141
sbag1
(g123
g3
NtRp153
(dp154
g133
F-0.72471050540091131
sg134
g144
sg127
I8
sg136
F2.098296107605969
sg137
g141
sbag1
(g123
g3
NtRp155
(dp156
g133
F-0.78469396829419225
sg134
g144
sg127
I9
sg136
F3.9379181153765574
sg137
g141
sbag1
(g123
g3
NtRp157
(dp158
g133
F-3.0268346369255683
sg134
g144
sg127
I10
sg136
F5.3710143898791829
sg137
g141
sbag1
(g123
g3
NtRp159
(dp160
g133
F-1.0239111076201737
sg134
g144
sg127
I11
sg136
F4.6688788534757952
sg137
g141
sbag1
(g123
g3
NtRp161
(dp162
g133
F0.46973468587421596
sg134
g144
sg127
I12
sg136
F9.2017934130456407
sg137
g141
sbag1
(g123
g3
NtRp163
(dp164
g133
F4.3244353728880691
sg134
g144
sg127
I13
sg136
F8.413072199535371
sg137
g141
sbag1
(g123
g3
NtRp165
(dp166
g133
F0.50966828713538492
sg134
g144
sg127
I14
sg136
F3.4232303577397589
sg137
g141
sbag1
(g123
g3
NtRp167
(dp168
g133
F-0.67233174824131758
sg134
g144
sg127
I15
sg136
F4.9826625866043068
sg137
g141
sbag1
(g123
g3
NtRp169
(dp170
g133
I0
sg134
g144
sg127
I16
sg136
F4.9242730000000003
sg137
g141
sbasb.