ccopy_reg
_reconstructor
p1
(cneat.chromosome
Chromosome
p2
c__builtin__
object
p3
NtRp4
(dp5
S'species_id'
p6
I54
sS'_connection_genes'
p7
(dp8
(I4
I7
tp9
g1
(cneat.genome
ConnectionGene
p10
g3
NtRp11
(dp12
S'_ConnectionGene__weight'
p13
F-1.9632902680621798
sS'_ConnectionGene__in'
p14
I4
sS'_ConnectionGene__enabled'
p15
I01
sS'_ConnectionGene__out'
p16
I7
sS'_ConnectionGene__innov_number'
p17
I29
sbs(I1
I3
tp18
g1
(g10
g3
NtRp19
(dp20
g13
F14.171004219864813
sg14
I1
sg15
I01
sg16
I3
sg17
I2
sbs(I8
I13
tp21
g1
(g10
g3
NtRp22
(dp23
g13
F4.5699629401132782
sg14
I8
sg15
I01
sg16
I13
sg17
I124
sbs(I6
I6
tp24
g1
(g10
g3
NtRp25
(dp26
g13
F5.2402770778728414
sg14
I6
sg15
I01
sg16
I6
sg17
I34
sbs(I7
I12
tp27
g1
(g10
g3
NtRp28
(dp29
g13
F-2.6837342299530689
sg14
I7
sg15
I01
sg16
I12
sg17
I102
sbs(I2
I8
tp30
g1
(g10
g3
NtRp31
(dp32
g13
F-18.519764992001754
sg14
I2
sg15
I01
sg16
I8
sg17
I46
sbs(I12
I12
tp33
g1
(g10
g3
NtRp34
(dp35
g13
F12.652193753660917
sg14
I12
sg15
I01
sg16
I12
sg17
I160
sbs(I3
I11
tp36
g1
(g10
g3
NtRp37
(dp38
g13
F-20.372719125228965
sg14
I3
sg15
I01
sg16
I11
sg17
I98
sbs(I8
I9
tp39
g1
(g10
g3
NtRp40
(dp41
g13
F-13.535292321887923
sg14
I8
sg15
I01
sg16
I9
sg17
I61
sbs(I6
I2
tp42
g1
(g10
g3
NtRp43
(dp44
g13
F3.4442451605350501
sg14
I6
sg15
I01
sg16
I2
sg17
I23
sbs(I2
I5
tp45
g1
(g10
g3
NtRp46
(dp47
g13
F-18.908276678511484
sg14
I2
sg15
I01
sg16
I5
sg17
I10
sbs(I6
I9
tp48
g1
(g10
g3
NtRp49
(dp50
g13
F6.4817877332373879
sg14
I6
sg15
I01
sg16
I9
sg17
I56
sbs(I7
I2
tp51
g1
(g10
g3
NtRp52
(dp53
g13
F-29.084999927032769
sg14
I7
sg15
I01
sg16
I2
sg17
I21
sbs(I1
I2
tp54
g1
(g10
g3
NtRp55
(dp56
g13
F11.83538860071736
sg14
I1
sg15
I01
sg16
I2
sg17
I1
sbs(I14
I2
tp57
g1
(g10
g3
NtRp58
(dp59
g13
F13.223451121174186
sg14
I14
sg15
I01
sg16
I2
sg17
I130
sbs(I3
I3
tp60
g1
(g10
g3
NtRp61
(dp62
g13
F7.7398695961354056
sg14
I3
sg15
I01
sg16
I3
sg17
I6
sbs(I5
I12
tp63
g1
(g10
g3
NtRp64
(dp65
g13
F-0.13278860681992355
sg14
I5
sg15
I01
sg16
I12
sg17
I87
sbs(I3
I4
tp66
g1
(g10
g3
NtRp67
(dp68
g13
F10.04188895401764
sg14
I3
sg15
I01
sg16
I4
sg17
I9
sbs(I6
I3
tp69
g1
(g10
g3
NtRp70
(dp71
g13
F-28.092029757834844
sg14
I6
sg15
I01
sg16
I3
sg17
I37
sbs(I1
I5
tp72
g1
(g10
g3
NtRp73
(dp74
g13
F6.9140206459574305
sg14
I1
sg15
I00
sg16
I5
sg17
I14
sbs(I13
I7
tp75
g1
(g10
g3
NtRp76
(dp77
g13
F6.7876511489807303
sg14
I13
sg15
I01
sg16
I7
sg17
I136
sbs(I3
I14
tp78
g1
(g10
g3
NtRp79
(dp80
g13
F-6.3934618403591665
sg14
I3
sg15
I01
sg16
I14
sg17
I157
sbs(I2
I2
tp81
g1
(g10
g3
NtRp82
(dp83
g13
F21.278696375693183
sg14
I2
sg15
I00
sg16
I2
sg17
I4
sbs(I1
I10
tp84
g1
(g10
g3
NtRp85
(dp86
g13
F-12.66009460102285
sg14
I1
sg15
I01
sg16
I10
sg17
I65
sbs(I8
I6
tp87
g1
(g10
g3
NtRp88
(dp89
g13
F-28.019083365502183
sg14
I8
sg15
I01
sg16
I6
sg17
I51
sbs(I11
I13
tp90
g1
(g10
g3
NtRp91
(dp92
g13
F-28.789295394814268
sg14
I11
sg15
I01
sg16
I13
sg17
I156
sbs(I3
I2
tp93
g1
(g10
g3
NtRp94
(dp95
g13
F13.936665941185844
sg14
I3
sg15
I00
sg16
I2
sg17
I3
sbs(I2
I6
tp96
g1
(g10
g3
NtRp97
(dp98
g13
F-24.442707506686759
sg14
I2
sg15
I01
sg16
I6
sg17
I15
sbs(I12
I14
tp99
g1
(g10
g3
NtRp100
(dp101
g13
F-2.0779785185318218
sg14
I12
sg15
I01
sg16
I14
sg17
I221
sbs(I9
I3
tp102
g1
(g10
g3
NtRp103
(dp104
g13
F10.227336950045922
sg14
I9
sg15
I01
sg16
I3
sg17
I95
sbs(I15
I10
tp105
g1
(g10
g3
NtRp106
(dp107
g13
F-16.45258826775563
sg14
I15
sg15
I01
sg16
I10
sg17
I189
sbs(I12
I10
tp108
g1
(g10
g3
NtRp109
(dp110
g13
F-27.729494150836775
sg14
I12
sg15
I00
sg16
I10
sg17
I103
sbs(I4
I2
tp111
g1
(g10
g3
NtRp112
(dp113
g13
F8.6116178235154148
sg14
I4
sg15
I01
sg16
I2
sg17
I8
sbs(I2
I14
tp114
g1
(g10
g3
NtRp115
(dp116
g13
F8.7169831849712587
sg14
I2
sg15
I01
sg16
I14
sg17
I129
sbs(I5
I3
tp117
g1
(g10
g3
NtRp118
(dp119
g13
F5.0473650479433214
sg14
I5
sg15
I01
sg16
I3
sg17
I27
sbs(I11
I7
tp120
g1
(g10
g3
NtRp121
(dp122
g13
F-25.050455629384391
sg14
I11
sg15
I00
sg16
I7
sg17
I107
sbs(I12
I15
tp123
g1
(g10
g3
NtRp124
(dp125
g13
F-1.017288962997013
sg14
I12
sg15
I01
sg16
I15
sg17
I217
sbs(I5
I10
tp126
g1
(g10
g3
NtRp127
(dp128
g13
F14.066054924878308
sg14
I5
sg15
I00
sg16
I10
sg17
I78
sbs(I16
I5
tp129
g1
(g10
g3
NtRp130
(dp131
g13
F-10.587261342126595
sg14
I16
sg15
I01
sg16
I5
sg17
I178
sbs(I9
I2
tp132
g1
(g10
g3
NtRp133
(dp134
g13
F22.172299852583645
sg14
I9
sg15
I01
sg16
I2
sg17
I59
sbs(I5
I2
tp135
g1
(g10
g3
NtRp136
(dp137
g13
F-27.791091872181838
sg14
I5
sg15
I01
sg16
I2
sg17
I11
sbs(I16
I8
tp138
g1
(g10
g3
NtRp139
(dp140
g13
F2.3638023024445451
sg14
I16
sg15
I01
sg16
I8
sg17
I172
sbs(I14
I7
tp141
g1
(g10
g3
NtRp142
(dp143
g13
F1.9610661970709966
sg14
I14
sg15
I01
sg16
I7
sg17
I263
sbs(I11
I3
tp144
g1
(g10
g3
NtRp145
(dp146
g13
F-13.742839119952041
sg14
I11
sg15
I01
sg16
I3
sg17
I99
sbs(I3
I8
tp147
g1
(g10
g3
NtRp148
(dp149
g13
F6.6213665887427151
sg14
I3
sg15
I01
sg16
I8
sg17
I45
sbs(I9
I5
tp150
g1
(g10
g3
NtRp151
(dp152
g13
F-2.9523439040194006
sg14
I9
sg15
I01
sg16
I5
sg17
I57
sbs(I7
I8
tp153
g1
(g10
g3
NtRp154
(dp155
g13
F2.9297928953861474
sg14
I7
sg15
I01
sg16
I8
sg17
I52
sbs(I1
I16
tp156
g1
(g10
g3
NtRp157
(dp158
g13
F2.8493955022956579
sg14
I1
sg15
I01
sg16
I16
sg17
I245
sbs(I9
I12
tp159
g1
(g10
g3
NtRp160
(dp161
g13
F1.2663245980604354
sg14
I9
sg15
I01
sg16
I12
sg17
I82
sbs(I10
I2
tp162
g1
(g10
g3
NtRp163
(dp164
g13
F-20.12883553950477
sg14
I10
sg15
I01
sg16
I2
sg17
I64
sbssS'_input_nodes'
p165
I1
sS'_output_nodes'
p166
I1
sS'_node_gene_type'
p167
cneat.genome
NodeGene
p168
sS'_conn_gene_type'
p169
g10
sS'fitness'
p170
F0.90924131502273531
sS'parent2_id'
p171
I6897
sS'_id'
p172
I6926
sS'parent1_id'
p173
I6904
sS'_node_genes'
p174
(lp175
g1
(g168
g3
NtRp176
(dp177
S'_bias'
p178
I0
sS'_type'
p179
S'INPUT'
p180
sg172
I1
sS'_response'
p181
F4.9242730000000003
sS'_activation_type'
p182
Nsbag1
(g168
g3
NtRp183
(dp184
g178
F0.11521376139803513
sg179
S'OUTPUT'
p185
sg172
I2
sg181
F5.0980432135689489
sg182
S'tanh'
p186
sbag1
(g168
g3
NtRp187
(dp188
g178
F-3.6682615590417305
sg179
S'HIDDEN'
p189
sg172
I3
sg181
F14.637005442787849
sg182
g186
sbag1
(g168
g3
NtRp190
(dp191
g178
F6.492637050780468
sg179
g189
sg172
I4
sg181
F4.0251868812366167
sg182
g186
sbag1
(g168
g3
NtRp192
(dp193
g178
F-3.4873556012290954
sg179
g189
sg172
I5
sg181
F-6.2093116273681472
sg182
g186
sbag1
(g168
g3
NtRp194
(dp195
g178
F-2.5498899604338328
sg179
g189
sg172
I6
sg181
F0.26235920826555237
sg182
g186
sbag1
(g168
g3
NtRp196
(dp197
g178
F3.0369246042989704
sg179
g189
sg172
I7
sg181
F6.9792613607971825
sg182
g186
sbag1
(g168
g3
NtRp198
(dp199
g178
F-5.294710724484939
sg179
g189
sg172
I8
sg181
F10.471376235668156
sg182
g186
sbag1
(g168
g3
NtRp200
(dp201
g178
F4.206730504243346
sg179
g189
sg172
I9
sg181
F4.8028122366704427
sg182
g186
sbag1
(g168
g3
NtRp202
(dp203
g178
F-0.8768039370443178
sg179
g189
sg172
I10
sg181
F8.6135272908081291
sg182
g186
sbag1
(g168
g3
NtRp204
(dp205
g178
F0.34023333399633937
sg179
g189
sg172
I11
sg181
F2.2141266336971701
sg182
g186
sbag1
(g168
g3
NtRp206
(dp207
g178
F2.7192582907085194
sg179
g189
sg172
I12
sg181
F5.1188164212099245
sg182
g186
sbag1
(g168
g3
NtRp208
(dp209
g178
F1.1390272470503147
sg179
g189
sg172
I13
sg181
F7.7754474613456193
sg182
g186
sbag1
(g168
g3
NtRp210
(dp211
g178
F-1.1390686760870583
sg179
g189
sg172
I14
sg181
F3.7639965289358241
sg182
g186
sbag1
(g168
g3
NtRp212
(dp213
g178
F1.3247019111109173
sg179
g189
sg172
I15
sg181
F4.6633617048996392
sg182
g186
sbag1
(g168
g3
NtRp214
(dp215
g178
F-3.342088750845293
sg179
g189
sg172
I16
sg181
F3.8880680151333844
sg182
g186
sbasb.