ccopy_reg
_reconstructor
p1
(cneat.chromosome
Chromosome
p2
c__builtin__
object
p3
NtRp4
(dp5
S'species_id'
p6
I48
sS'_connection_genes'
p7
(dp8
(I5
I9
tp9
g1
(cneat.genome
ConnectionGene
p10
g3
NtRp11
(dp12
S'_ConnectionGene__weight'
p13
F8.9439966304673479
sS'_ConnectionGene__in'
p14
I5
sS'_ConnectionGene__enabled'
p15
I01
sS'_ConnectionGene__out'
p16
I9
sS'_ConnectionGene__innov_number'
p17
I58
sbs(I4
I7
tp18
g1
(g10
g3
NtRp19
(dp20
g13
F-22.239079842021884
sg14
I4
sg15
I01
sg16
I7
sg17
I29
sbs(I1
I3
tp21
g1
(g10
g3
NtRp22
(dp23
g13
F21.542915399339211
sg14
I1
sg15
I01
sg16
I3
sg17
I2
sbs(I2
I18
tp24
g1
(g10
g3
NtRp25
(dp26
g13
F-1.9978446393395426
sg14
I2
sg15
I01
sg16
I18
sg17
I191
sbs(I14
I4
tp27
g1
(g10
g3
NtRp28
(dp29
g13
F9.3590082459464092
sg14
I14
sg15
I01
sg16
I4
sg17
I143
sbs(I13
I4
tp30
g1
(g10
g3
NtRp31
(dp32
g13
F25.765567702572856
sg14
I13
sg15
I01
sg16
I4
sg17
I120
sbs(I10
I6
tp33
g1
(g10
g3
NtRp34
(dp35
g13
F-2.4684776176513568
sg14
I10
sg15
I01
sg16
I6
sg17
I81
sbs(I7
I8
tp36
g1
(g10
g3
NtRp37
(dp38
g13
F-11.851943936749027
sg14
I7
sg15
I01
sg16
I8
sg17
I52
sbs(I3
I11
tp39
g1
(g10
g3
NtRp40
(dp41
g13
F18.410164506210236
sg14
I3
sg15
I01
sg16
I11
sg17
I98
sbs(I1
I15
tp42
g1
(g10
g3
NtRp43
(dp44
g13
F-5.705323177517494
sg14
I1
sg15
I01
sg16
I15
sg17
I148
sbs(I13
I17
tp45
g1
(g10
g3
NtRp46
(dp47
g13
F4.8180930973855229
sg14
I13
sg15
I01
sg16
I17
sg17
I183
sbs(I6
I2
tp48
g1
(g10
g3
NtRp49
(dp50
g13
F15.520683873177287
sg14
I6
sg15
I01
sg16
I2
sg17
I23
sbs(I7
I16
tp51
g1
(g10
g3
NtRp52
(dp53
g13
F-15.404168084239627
sg14
I7
sg15
I01
sg16
I16
sg17
I171
sbs(I4
I2
tp54
g1
(g10
g3
NtRp55
(dp56
g13
F-17.230057177801463
sg14
I4
sg15
I01
sg16
I2
sg17
I8
sbs(I2
I5
tp57
g1
(g10
g3
NtRp58
(dp59
g13
F-1.3109069703643452
sg14
I2
sg15
I01
sg16
I5
sg17
I10
sbs(I15
I5
tp60
g1
(g10
g3
NtRp61
(dp62
g13
F4.4236180184329914
sg14
I15
sg15
I01
sg16
I5
sg17
I165
sbs(I7
I2
tp63
g1
(g10
g3
NtRp64
(dp65
g13
F-17.796154014569563
sg14
I7
sg15
I01
sg16
I2
sg17
I21
sbs(I1
I2
tp66
g1
(g10
g3
NtRp67
(dp68
g13
F-9.4465881636694959
sg14
I1
sg15
I01
sg16
I2
sg17
I1
sbs(I12
I2
tp69
g1
(g10
g3
NtRp70
(dp71
g13
F30
sg14
I12
sg15
I01
sg16
I2
sg17
I80
sbs(I3
I3
tp72
g1
(g10
g3
NtRp73
(dp74
g13
F-21.727342079147796
sg14
I3
sg15
I01
sg16
I3
sg17
I6
sbs(I1
I5
tp75
g1
(g10
g3
NtRp76
(dp77
g13
F-20.552363269824397
sg14
I1
sg15
I01
sg16
I5
sg17
I14
sbs(I6
I5
tp78
g1
(g10
g3
NtRp79
(dp80
g13
F1.526165709237715
sg14
I6
sg15
I01
sg16
I5
sg17
I16
sbs(I2
I8
tp81
g1
(g10
g3
NtRp82
(dp83
g13
F-20.837080931699074
sg14
I2
sg15
I01
sg16
I8
sg17
I46
sbs(I8
I6
tp84
g1
(g10
g3
NtRp85
(dp86
g13
F22.061685286717275
sg14
I8
sg15
I01
sg16
I6
sg17
I51
sbs(I3
I2
tp87
g1
(g10
g3
NtRp88
(dp89
g13
F3.8447281410712772
sg14
I3
sg15
I01
sg16
I2
sg17
I3
sbs(I2
I6
tp90
g1
(g10
g3
NtRp91
(dp92
g13
F-4.97134336743202
sg14
I2
sg15
I01
sg16
I6
sg17
I15
sbs(I3
I13
tp93
g1
(g10
g3
NtRp94
(dp95
g13
F16.224104309777257
sg14
I3
sg15
I01
sg16
I13
sg17
I105
sbs(I2
I2
tp96
g1
(g10
g3
NtRp97
(dp98
g13
F-9.5031832963774843
sg14
I2
sg15
I01
sg16
I2
sg17
I4
sbs(I7
I5
tp99
g1
(g10
g3
NtRp100
(dp101
g13
F-7.1741068065219169
sg14
I7
sg15
I00
sg16
I5
sg17
I19
sbs(I8
I7
tp102
g1
(g10
g3
NtRp103
(dp104
g13
F2.7672300589030305
sg14
I8
sg15
I01
sg16
I7
sg17
I39
sbs(I6
I12
tp105
g1
(g10
g3
NtRp106
(dp107
g13
F-11.4224094187052
sg14
I6
sg15
I01
sg16
I12
sg17
I115
sbs(I17
I4
tp108
g1
(g10
g3
NtRp109
(dp110
g13
F11.03439516625491
sg14
I17
sg15
I01
sg16
I4
sg17
I184
sbs(I6
I9
tp111
g1
(g10
g3
NtRp112
(dp113
g13
F-22.418775507637722
sg14
I6
sg15
I01
sg16
I9
sg17
I56
sbs(I5
I10
tp114
g1
(g10
g3
NtRp115
(dp116
g13
F18.311977353626553
sg14
I5
sg15
I01
sg16
I10
sg17
I78
sbs(I6
I8
tp117
g1
(g10
g3
NtRp118
(dp119
g13
F5.8916552207004411
sg14
I6
sg15
I01
sg16
I8
sg17
I53
sbs(I16
I5
tp120
g1
(g10
g3
NtRp121
(dp122
g13
F-7.5529624904356609
sg14
I16
sg15
I01
sg16
I5
sg17
I178
sbs(I9
I2
tp123
g1
(g10
g3
NtRp124
(dp125
g13
F25.031283610479214
sg14
I9
sg15
I01
sg16
I2
sg17
I59
sbs(I5
I2
tp126
g1
(g10
g3
NtRp127
(dp128
g13
F21.010928110673607
sg14
I5
sg15
I00
sg16
I2
sg17
I11
sbs(I10
I10
tp129
g1
(g10
g3
NtRp130
(dp131
g13
F-1.4195187488664627
sg14
I10
sg15
I01
sg16
I10
sg17
I111
sbs(I11
I3
tp132
g1
(g10
g3
NtRp133
(dp134
g13
F30
sg14
I11
sg15
I01
sg16
I3
sg17
I99
sbs(I13
I14
tp135
g1
(g10
g3
NtRp136
(dp137
g13
F-7.7692985356181623
sg14
I13
sg15
I01
sg16
I14
sg17
I142
sbs(I18
I6
tp138
g1
(g10
g3
NtRp139
(dp140
g13
F-12.900878763780705
sg14
I18
sg15
I01
sg16
I6
sg17
I212
sbs(I3
I12
tp141
g1
(g10
g3
NtRp142
(dp143
g13
F3.040846725857048
sg14
I3
sg15
I01
sg16
I12
sg17
I108
sbs(I3
I4
tp144
g1
(g10
g3
NtRp145
(dp146
g13
F-9.6139180676325218
sg14
I3
sg15
I01
sg16
I4
sg17
I9
sbs(I10
I2
tp147
g1
(g10
g3
NtRp148
(dp149
g13
F-2.2348225400577491
sg14
I10
sg15
I01
sg16
I2
sg17
I64
sbssS'_input_nodes'
p150
I1
sS'_output_nodes'
p151
I1
sS'_node_gene_type'
p152
cneat.genome
NodeGene
p153
sS'_conn_gene_type'
p154
g10
sS'fitness'
p155
F0.83252737582705605
sS'parent2_id'
p156
I6198
sS'_id'
p157
I6246
sS'parent1_id'
p158
I6198
sS'_node_genes'
p159
(lp160
g1
(g153
g3
NtRp161
(dp162
S'_bias'
p163
I0
sS'_type'
p164
S'INPUT'
p165
sg157
I1
sS'_response'
p166
F4.9242730000000003
sS'_activation_type'
p167
Nsbag1
(g153
g3
NtRp168
(dp169
g163
F-1.8378199834145108
sg164
S'OUTPUT'
p170
sg157
I2
sg166
F2.0862761976861268
sg167
S'tanh'
p171
sbag1
(g153
g3
NtRp172
(dp173
g163
F-0.4992438054511516
sg164
S'HIDDEN'
p174
sg157
I3
sg166
F11.095847018813839
sg167
g171
sbag1
(g153
g3
NtRp175
(dp176
g163
F-0.90247634079936023
sg164
g174
sg157
I4
sg166
F7.1370345904325072
sg167
g171
sbag1
(g153
g3
NtRp177
(dp178
g163
F-2.4189932722733243
sg164
g174
sg157
I5
sg166
F-1.7448601163206277
sg167
g171
sbag1
(g153
g3
NtRp179
(dp180
g163
F2.497185578420293
sg164
g174
sg157
I6
sg166
F6.3770984110138684
sg167
g171
sbag1
(g153
g3
NtRp181
(dp182
g163
F-0.55790166220500947
sg164
g174
sg157
I7
sg166
F8.9453184605552316
sg167
g171
sbag1
(g153
g3
NtRp183
(dp184
g163
F1.30329800199168
sg164
g174
sg157
I8
sg166
F-0.13562804790350713
sg167
g171
sbag1
(g153
g3
NtRp185
(dp186
g163
F-4.4032870376133149
sg164
g174
sg157
I9
sg166
F3.5154375823154438
sg167
g171
sbag1
(g153
g3
NtRp187
(dp188
g163
F-0.65322319358817538
sg164
g174
sg157
I10
sg166
F4.6267620916194305
sg167
g171
sbag1
(g153
g3
NtRp189
(dp190
g163
F-0.1820433275464034
sg164
g174
sg157
I11
sg166
F4.2908970090991128
sg167
g171
sbag1
(g153
g3
NtRp191
(dp192
g163
F-0.061615033497948224
sg164
g174
sg157
I12
sg166
F9.1491868483274565
sg167
g171
sbag1
(g153
g3
NtRp193
(dp194
g163
F1.4858268678875137
sg164
g174
sg157
I13
sg166
F6.6945050926178356
sg167
g171
sbag1
(g153
g3
NtRp195
(dp196
g163
F0.20144353687216077
sg164
g174
sg157
I14
sg166
F3.2695008937768315
sg167
g171
sbag1
(g153
g3
NtRp197
(dp198
g163
F-0.26603067262617403
sg164
g174
sg157
I15
sg166
F5.4789352841439101
sg167
g171
sbag1
(g153
g3
NtRp199
(dp200
g163
F-0.85502365136298419
sg164
g174
sg157
I16
sg166
F4.1562186140884583
sg167
g171
sbag1
(g153
g3
NtRp201
(dp202
g163
F-0.18487669514111832
sg164
g174
sg157
I17
sg166
F6.4410893542676231
sg167
g171
sbag1
(g153
g3
NtRp203
(dp204
g163
F-1.7790784940090634
sg164
g174
sg157
I18
sg166
F3.660799107319006
sg167
g171
sbasb.