ccopy_reg
_reconstructor
p1
(cneat.chromosome
Chromosome
p2
c__builtin__
object
p3
NtRp4
(dp5
S'species_id'
p6
I29
sS'_connection_genes'
p7
(dp8
(I1
I2
tp9
g1
(cneat.genome
ConnectionGene
p10
g3
NtRp11
(dp12
S'_ConnectionGene__weight'
p13
F-16.287540038748848
sS'_ConnectionGene__in'
p14
I1
sS'_ConnectionGene__enabled'
p15
I01
sS'_ConnectionGene__out'
p16
I2
sS'_ConnectionGene__innov_number'
p17
I1
sbs(I3
I2
tp18
g1
(g10
g3
NtRp19
(dp20
g13
F16.292401337060529
sg14
I3
sg15
I00
sg16
I2
sg17
I3
sbs(I1
I3
tp21
g1
(g10
g3
NtRp22
(dp23
g13
F0.089950269710985603
sg14
I1
sg15
I01
sg16
I3
sg17
I2
sbs(I3
I3
tp24
g1
(g10
g3
NtRp25
(dp26
g13
F-0.50068702517940067
sg14
I3
sg15
I01
sg16
I3
sg17
I6
sbs(I9
I2
tp27
g1
(g10
g3
NtRp28
(dp29
g13
F18.77141131634064
sg14
I9
sg15
I01
sg16
I2
sg17
I59
sbs(I2
I8
tp30
g1
(g10
g3
NtRp31
(dp32
g13
F-15.45203925234147
sg14
I2
sg15
I01
sg16
I8
sg17
I46
sbs(I8
I6
tp33
g1
(g10
g3
NtRp34
(dp35
g13
F2.5605422336169261
sg14
I8
sg15
I00
sg16
I6
sg17
I51
sbs(I3
I4
tp36
g1
(g10
g3
NtRp37
(dp38
g13
F2.6892062793738662
sg14
I3
sg15
I01
sg16
I4
sg17
I9
sbs(I5
I2
tp39
g1
(g10
g3
NtRp40
(dp41
g13
F10.971200901352873
sg14
I5
sg15
I01
sg16
I2
sg17
I11
sbs(I4
I7
tp42
g1
(g10
g3
NtRp43
(dp44
g13
F-20.887050155143235
sg14
I4
sg15
I01
sg16
I7
sg17
I29
sbs(I1
I5
tp45
g1
(g10
g3
NtRp46
(dp47
g13
F1.6116871811773716
sg14
I1
sg15
I01
sg16
I5
sg17
I14
sbs(I2
I6
tp48
g1
(g10
g3
NtRp49
(dp50
g13
F-19.8367936320324
sg14
I2
sg15
I01
sg16
I6
sg17
I15
sbs(I7
I2
tp51
g1
(g10
g3
NtRp52
(dp53
g13
F-6.7300786502140308
sg14
I7
sg15
I01
sg16
I2
sg17
I21
sbs(I2
I2
tp54
g1
(g10
g3
NtRp55
(dp56
g13
F-6.6458923704937529
sg14
I2
sg15
I01
sg16
I2
sg17
I4
sbs(I6
I2
tp57
g1
(g10
g3
NtRp58
(dp59
g13
F24.100258811055053
sg14
I6
sg15
I00
sg16
I2
sg17
I23
sbs(I4
I2
tp60
g1
(g10
g3
NtRp61
(dp62
g13
F-7.7787670548336774
sg14
I4
sg15
I01
sg16
I2
sg17
I8
sbs(I2
I5
tp63
g1
(g10
g3
NtRp64
(dp65
g13
F-6.1213938523869409
sg14
I2
sg15
I01
sg16
I5
sg17
I10
sbs(I7
I8
tp66
g1
(g10
g3
NtRp67
(dp68
g13
F-10.580225376675719
sg14
I7
sg15
I01
sg16
I8
sg17
I52
sbs(I6
I9
tp69
g1
(g10
g3
NtRp70
(dp71
g13
F1.288592748530266
sg14
I6
sg15
I01
sg16
I9
sg17
I56
sbssS'_input_nodes'
p72
I1
sS'_output_nodes'
p73
I1
sS'_node_gene_type'
p74
cneat.genome
NodeGene
p75
sS'_conn_gene_type'
p76
g10
sS'fitness'
p77
F0.9703736116844649
sS'parent2_id'
p78
I2444
sS'_id'
p79
I2461
sS'parent1_id'
p80
I2444
sS'_node_genes'
p81
(lp82
g1
(g75
g3
NtRp83
(dp84
S'_bias'
p85
I0
sS'_type'
p86
S'INPUT'
p87
sg79
I1
sS'_response'
p88
F4.9242730000000003
sS'_activation_type'
p89
Nsbag1
(g75
g3
NtRp90
(dp91
g85
F1.0314970633256961
sg86
S'OUTPUT'
p92
sg79
I2
sg88
F2.2513392486211266
sg89
S'tanh'
p93
sbag1
(g75
g3
NtRp94
(dp95
g85
F-0.24727726887524293
sg86
S'HIDDEN'
p96
sg79
I3
sg88
F8.5217803417350755
sg89
g93
sbag1
(g75
g3
NtRp97
(dp98
g85
F2.9925482366842706
sg86
g96
sg79
I4
sg88
F2.8471500154844955
sg89
g93
sbag1
(g75
g3
NtRp99
(dp100
g85
F1.4612744734531882
sg86
g96
sg79
I5
sg88
F2.0163818676163738
sg89
g93
sbag1
(g75
g3
NtRp101
(dp102
g85
F-0.27880936241083876
sg86
g96
sg79
I6
sg88
F-0.038086475704980138
sg89
g93
sbag1
(g75
g3
NtRp103
(dp104
g85
F-0.29281010377072547
sg86
g96
sg79
I7
sg88
F4.4196713295367527
sg89
g93
sbag1
(g75
g3
NtRp105
(dp106
g85
F-2.6896871047879101
sg86
g96
sg79
I8
sg88
F3.9279205145525395
sg89
g93
sbag1
(g75
g3
NtRp107
(dp108
g85
F1.3051162732170378
sg86
g96
sg79
I9
sg88
F5.0165529907731603
sg89
g93
sbasb.