ccopy_reg
_reconstructor
p1
(cneat.chromosome
Chromosome
p2
c__builtin__
object
p3
NtRp4
(dp5
S'species_id'
p6
I54
sS'_connection_genes'
p7
(dp8
(I7
I8
tp9
g1
(cneat.genome
ConnectionGene
p10
g3
NtRp11
(dp12
S'_ConnectionGene__weight'
p13
F3.7597667330153439
sS'_ConnectionGene__in'
p14
I7
sS'_ConnectionGene__enabled'
p15
I01
sS'_ConnectionGene__out'
p16
I8
sS'_ConnectionGene__innov_number'
p17
I52
sbs(I4
I7
tp18
g1
(g10
g3
NtRp19
(dp20
g13
F-3.8939455505962552
sg14
I4
sg15
I01
sg16
I7
sg17
I29
sbs(I1
I3
tp21
g1
(g10
g3
NtRp22
(dp23
g13
F4.9839970086710235
sg14
I1
sg15
I01
sg16
I3
sg17
I2
sbs(I8
I13
tp24
g1
(g10
g3
NtRp25
(dp26
g13
F3.5216080572681649
sg14
I8
sg15
I01
sg16
I13
sg17
I124
sbs(I6
I6
tp27
g1
(g10
g3
NtRp28
(dp29
g13
F8.4092039212976477
sg14
I6
sg15
I01
sg16
I6
sg17
I34
sbs(I7
I12
tp30
g1
(g10
g3
NtRp31
(dp32
g13
F-5.0932617123555399
sg14
I7
sg15
I01
sg16
I12
sg17
I102
sbs(I2
I8
tp33
g1
(g10
g3
NtRp34
(dp35
g13
F-17.766515431177474
sg14
I2
sg15
I01
sg16
I8
sg17
I46
sbs(I12
I12
tp36
g1
(g10
g3
NtRp37
(dp38
g13
F16.711424394556079
sg14
I12
sg15
I01
sg16
I12
sg17
I160
sbs(I3
I11
tp39
g1
(g10
g3
NtRp40
(dp41
g13
F-16.817163756567375
sg14
I3
sg15
I01
sg16
I11
sg17
I98
sbs(I8
I9
tp42
g1
(g10
g3
NtRp43
(dp44
g13
F-13.434903860781167
sg14
I8
sg15
I01
sg16
I9
sg17
I61
sbs(I6
I2
tp45
g1
(g10
g3
NtRp46
(dp47
g13
F2.4822994601714963
sg14
I6
sg15
I01
sg16
I2
sg17
I23
sbs(I2
I5
tp48
g1
(g10
g3
NtRp49
(dp50
g13
F-18.478126928454181
sg14
I2
sg15
I01
sg16
I5
sg17
I10
sbs(I3
I14
tp51
g1
(g10
g3
NtRp52
(dp53
g13
F-10.89371879842597
sg14
I3
sg15
I01
sg16
I14
sg17
I157
sbs(I1
I2
tp54
g1
(g10
g3
NtRp55
(dp56
g13
F5.569698068895959
sg14
I1
sg15
I01
sg16
I2
sg17
I1
sbs(I2
I14
tp57
g1
(g10
g3
NtRp58
(dp59
g13
F9.521755245394143
sg14
I2
sg15
I01
sg16
I14
sg17
I129
sbs(I3
I3
tp60
g1
(g10
g3
NtRp61
(dp62
g13
F6.256576897508503
sg14
I3
sg15
I01
sg16
I3
sg17
I6
sbs(I5
I12
tp63
g1
(g10
g3
NtRp64
(dp65
g13
F2.6701348069744633
sg14
I5
sg15
I01
sg16
I12
sg17
I87
sbs(I6
I3
tp66
g1
(g10
g3
NtRp67
(dp68
g13
F-30
sg14
I6
sg15
I01
sg16
I3
sg17
I37
sbs(I1
I5
tp69
g1
(g10
g3
NtRp70
(dp71
g13
F6.3934099241657307
sg14
I1
sg15
I00
sg16
I5
sg17
I14
sbs(I13
I7
tp72
g1
(g10
g3
NtRp73
(dp74
g13
F7.4104174501028712
sg14
I13
sg15
I01
sg16
I7
sg17
I136
sbs(I7
I2
tp75
g1
(g10
g3
NtRp76
(dp77
g13
F-26.461676643241493
sg14
I7
sg15
I01
sg16
I2
sg17
I21
sbs(I2
I2
tp78
g1
(g10
g3
NtRp79
(dp80
g13
F21.652713614521279
sg14
I2
sg15
I00
sg16
I2
sg17
I4
sbs(I1
I10
tp81
g1
(g10
g3
NtRp82
(dp83
g13
F-12.070756410705915
sg14
I1
sg15
I01
sg16
I10
sg17
I65
sbs(I8
I6
tp84
g1
(g10
g3
NtRp85
(dp86
g13
F-28.081935075784838
sg14
I8
sg15
I01
sg16
I6
sg17
I51
sbs(I11
I13
tp87
g1
(g10
g3
NtRp88
(dp89
g13
F-29.602816241839076
sg14
I11
sg15
I01
sg16
I13
sg17
I156
sbs(I3
I2
tp90
g1
(g10
g3
NtRp91
(dp92
g13
F13.30589558312848
sg14
I3
sg15
I00
sg16
I2
sg17
I3
sbs(I2
I6
tp93
g1
(g10
g3
NtRp94
(dp95
g13
F-28.878015240169155
sg14
I2
sg15
I01
sg16
I6
sg17
I15
sbs(I12
I14
tp96
g1
(g10
g3
NtRp97
(dp98
g13
F-1.8629083480856192
sg14
I12
sg15
I01
sg16
I14
sg17
I221
sbs(I9
I3
tp99
g1
(g10
g3
NtRp100
(dp101
g13
F12.073183994079422
sg14
I9
sg15
I01
sg16
I3
sg17
I95
sbs(I12
I15
tp102
g1
(g10
g3
NtRp103
(dp104
g13
F1.8495191618282001
sg14
I12
sg15
I01
sg16
I15
sg17
I217
sbs(I15
I10
tp105
g1
(g10
g3
NtRp106
(dp107
g13
F-13.877481858778969
sg14
I15
sg15
I01
sg16
I10
sg17
I189
sbs(I12
I10
tp108
g1
(g10
g3
NtRp109
(dp110
g13
F-26.37806761254695
sg14
I12
sg15
I00
sg16
I10
sg17
I103
sbs(I4
I2
tp111
g1
(g10
g3
NtRp112
(dp113
g13
F3.7016678663342644
sg14
I4
sg15
I01
sg16
I2
sg17
I8
sbs(I14
I2
tp114
g1
(g10
g3
NtRp115
(dp116
g13
F15.456834944229065
sg14
I14
sg15
I01
sg16
I2
sg17
I130
sbs(I5
I3
tp117
g1
(g10
g3
NtRp118
(dp119
g13
F0.58996326762814744
sg14
I5
sg15
I01
sg16
I3
sg17
I27
sbs(I11
I7
tp120
g1
(g10
g3
NtRp121
(dp122
g13
F-24.659927112855851
sg14
I11
sg15
I00
sg16
I7
sg17
I107
sbs(I6
I9
tp123
g1
(g10
g3
NtRp124
(dp125
g13
F13.380036910010412
sg14
I6
sg15
I01
sg16
I9
sg17
I56
sbs(I5
I10
tp126
g1
(g10
g3
NtRp127
(dp128
g13
F15.260348110620789
sg14
I5
sg15
I00
sg16
I10
sg17
I78
sbs(I16
I5
tp129
g1
(g10
g3
NtRp130
(dp131
g13
F-11.402791221034059
sg14
I16
sg15
I01
sg16
I5
sg17
I178
sbs(I9
I2
tp132
g1
(g10
g3
NtRp133
(dp134
g13
F19.225535175374613
sg14
I9
sg15
I01
sg16
I2
sg17
I59
sbs(I5
I2
tp135
g1
(g10
g3
NtRp136
(dp137
g13
F-26.171615283257427
sg14
I5
sg15
I01
sg16
I2
sg17
I11
sbs(I16
I8
tp138
g1
(g10
g3
NtRp139
(dp140
g13
F0.09720969160221693
sg14
I16
sg15
I01
sg16
I8
sg17
I172
sbs(I14
I7
tp141
g1
(g10
g3
NtRp142
(dp143
g13
F-3.1465818165203565
sg14
I14
sg15
I01
sg16
I7
sg17
I263
sbs(I11
I3
tp144
g1
(g10
g3
NtRp145
(dp146
g13
F-9.8470298251899049
sg14
I11
sg15
I01
sg16
I3
sg17
I99
sbs(I3
I8
tp147
g1
(g10
g3
NtRp148
(dp149
g13
F5.5552337060152892
sg14
I3
sg15
I01
sg16
I8
sg17
I45
sbs(I9
I5
tp150
g1
(g10
g3
NtRp151
(dp152
g13
F-9.4673575076082503
sg14
I9
sg15
I01
sg16
I5
sg17
I57
sbs(I3
I4
tp153
g1
(g10
g3
NtRp154
(dp155
g13
F12.047589409117727
sg14
I3
sg15
I01
sg16
I4
sg17
I9
sbs(I1
I16
tp156
g1
(g10
g3
NtRp157
(dp158
g13
F0.76556834787174921
sg14
I1
sg15
I01
sg16
I16
sg17
I245
sbs(I9
I12
tp159
g1
(g10
g3
NtRp160
(dp161
g13
F3.5521198726242003
sg14
I9
sg15
I01
sg16
I12
sg17
I82
sbs(I10
I2
tp162
g1
(g10
g3
NtRp163
(dp164
g13
F-16.523718101341046
sg14
I10
sg15
I01
sg16
I2
sg17
I64
sbssS'_input_nodes'
p165
I1
sS'_output_nodes'
p166
I1
sS'_node_gene_type'
p167
cneat.genome
NodeGene
p168
sS'_conn_gene_type'
p169
g10
sS'fitness'
p170
F0.98115985971974462
sS'parent2_id'
p171
I6968
sS'_id'
p172
I6990
sS'parent1_id'
p173
I6955
sS'_node_genes'
p174
(lp175
g1
(g168
g3
NtRp176
(dp177
S'_bias'
p178
I0
sS'_type'
p179
S'INPUT'
p180
sg172
I1
sS'_response'
p181
F4.9242730000000003
sS'_activation_type'
p182
Nsbag1
(g168
g3
NtRp183
(dp184
g178
F-0.35090234752334942
sg179
S'OUTPUT'
p185
sg172
I2
sg181
F5.0310348186981422
sg182
S'tanh'
p186
sbag1
(g168
g3
NtRp187
(dp188
g178
F-3.6682615590417305
sg179
S'HIDDEN'
p189
sg172
I3
sg181
F14.637005442787849
sg182
g186
sbag1
(g168
g3
NtRp190
(dp191
g178
F6.492637050780468
sg179
g189
sg172
I4
sg181
F4.0742935676296126
sg182
g186
sbag1
(g168
g3
NtRp192
(dp193
g178
F-3.7052793102565427
sg179
g189
sg172
I5
sg181
F-6.1617232572511256
sg182
g186
sbag1
(g168
g3
NtRp194
(dp195
g178
F-1.8926198439683164
sg179
g189
sg172
I6
sg181
F0.26235920826555237
sg182
g186
sbag1
(g168
g3
NtRp196
(dp197
g178
F3.6405035424728465
sg179
g189
sg172
I7
sg181
F6.8626087535663309
sg182
g186
sbag1
(g168
g3
NtRp198
(dp199
g178
F-4.5690024954232644
sg179
g189
sg172
I8
sg181
F10.424408742620196
sg182
g186
sbag1
(g168
g3
NtRp200
(dp201
g178
F4.474956237345749
sg179
g189
sg172
I9
sg181
F4.8028122366704427
sg182
g186
sbag1
(g168
g3
NtRp202
(dp203
g178
F-1.0450577340948342
sg179
g189
sg172
I10
sg181
F7.4757411012020123
sg182
g186
sbag1
(g168
g3
NtRp204
(dp205
g178
F0.34023333399633937
sg179
g189
sg172
I11
sg181
F2.6828324413623803
sg182
g186
sbag1
(g168
g3
NtRp206
(dp207
g178
F2.7192582907085194
sg179
g189
sg172
I12
sg181
F5.1188164212099245
sg182
g186
sbag1
(g168
g3
NtRp208
(dp209
g178
F1.1390272470503147
sg179
g189
sg172
I13
sg181
F7.6982069598332634
sg182
g186
sbag1
(g168
g3
NtRp210
(dp211
g178
F-1.1616442958193518
sg179
g189
sg172
I14
sg181
F4.315799870642234
sg182
g186
sbag1
(g168
g3
NtRp212
(dp213
g178
F1.3247019111109173
sg179
g189
sg172
I15
sg181
F4.6633617048996392
sg182
g186
sbag1
(g168
g3
NtRp214
(dp215
g178
F-3.4487610836218758
sg179
g189
sg172
I16
sg181
F5.0455894830106329
sg182
g186
sbasb.