ccopy_reg
_reconstructor
p1
(cneat.chromosome
Chromosome
p2
c__builtin__
object
p3
NtRp4
(dp5
S'species_id'
p6
I34
sS'_connection_genes'
p7
(dp8
(I7
I8
tp9
g1
(cneat.genome
ConnectionGene
p10
g3
NtRp11
(dp12
S'_ConnectionGene__weight'
p13
F-9.6602605088259015
sS'_ConnectionGene__in'
p14
I7
sS'_ConnectionGene__enabled'
p15
I01
sS'_ConnectionGene__out'
p16
I8
sS'_ConnectionGene__innov_number'
p17
I52
sbs(I4
I7
tp18
g1
(g10
g3
NtRp19
(dp20
g13
F-23.733899830569321
sg14
I4
sg15
I01
sg16
I7
sg17
I29
sbs(I1
I3
tp21
g1
(g10
g3
NtRp22
(dp23
g13
F2.1155517287536179
sg14
I1
sg15
I01
sg16
I3
sg17
I2
sbs(I2
I8
tp24
g1
(g10
g3
NtRp25
(dp26
g13
F-23.120297588740058
sg14
I2
sg15
I01
sg16
I8
sg17
I46
sbs(I3
I11
tp27
g1
(g10
g3
NtRp28
(dp29
g13
F2.2909040814215142
sg14
I3
sg15
I01
sg16
I11
sg17
I98
sbs(I8
I9
tp30
g1
(g10
g3
NtRp31
(dp32
g13
F1.3392988798194125
sg14
I8
sg15
I01
sg16
I9
sg17
I61
sbs(I6
I2
tp33
g1
(g10
g3
NtRp34
(dp35
g13
F10.940905706459544
sg14
I6
sg15
I00
sg16
I2
sg17
I23
sbs(I2
I5
tp36
g1
(g10
g3
NtRp37
(dp38
g13
F-3.7343042601169203
sg14
I2
sg15
I01
sg16
I5
sg17
I10
sbs(I7
I2
tp39
g1
(g10
g3
NtRp40
(dp41
g13
F-4.0728938160842079
sg14
I7
sg15
I01
sg16
I2
sg17
I21
sbs(I1
I2
tp42
g1
(g10
g3
NtRp43
(dp44
g13
F-22.806402473564354
sg14
I1
sg15
I01
sg16
I2
sg17
I1
sbs(I3
I3
tp45
g1
(g10
g3
NtRp46
(dp47
g13
F3.177651940381836
sg14
I3
sg15
I01
sg16
I3
sg17
I6
sbs(I5
I12
tp48
g1
(g10
g3
NtRp49
(dp50
g13
F-1.121833457319148
sg14
I5
sg15
I01
sg16
I12
sg17
I87
sbs(I1
I5
tp51
g1
(g10
g3
NtRp52
(dp53
g13
F6.4631523965205933
sg14
I1
sg15
I01
sg16
I5
sg17
I14
sbs(I2
I2
tp54
g1
(g10
g3
NtRp55
(dp56
g13
F-8.8029553031206476
sg14
I2
sg15
I01
sg16
I2
sg17
I4
sbs(I1
I10
tp57
g1
(g10
g3
NtRp58
(dp59
g13
F-4.0461797412074318
sg14
I1
sg15
I01
sg16
I10
sg17
I65
sbs(I8
I6
tp60
g1
(g10
g3
NtRp61
(dp62
g13
F-4.1173742814475451
sg14
I8
sg15
I00
sg16
I6
sg17
I51
sbs(I3
I2
tp63
g1
(g10
g3
NtRp64
(dp65
g13
F18.417122333305812
sg14
I3
sg15
I00
sg16
I2
sg17
I3
sbs(I2
I6
tp66
g1
(g10
g3
NtRp67
(dp68
g13
F-20.368325735257876
sg14
I2
sg15
I01
sg16
I6
sg17
I15
sbs(I12
I10
tp69
g1
(g10
g3
NtRp70
(dp71
g13
F-15.622002322066599
sg14
I12
sg15
I01
sg16
I10
sg17
I103
sbs(I4
I2
tp72
g1
(g10
g3
NtRp73
(dp74
g13
F-13.068372823914292
sg14
I4
sg15
I01
sg16
I2
sg17
I8
sbs(I6
I9
tp75
g1
(g10
g3
NtRp76
(dp77
g13
F-7.4581278183264956
sg14
I6
sg15
I01
sg16
I9
sg17
I56
sbs(I5
I10
tp78
g1
(g10
g3
NtRp79
(dp80
g13
F5.3938236147016223
sg14
I5
sg15
I00
sg16
I10
sg17
I78
sbs(I9
I2
tp81
g1
(g10
g3
NtRp82
(dp83
g13
F29.57749978366591
sg14
I9
sg15
I01
sg16
I2
sg17
I59
sbs(I5
I2
tp84
g1
(g10
g3
NtRp85
(dp86
g13
F-4.9667003007215609
sg14
I5
sg15
I01
sg16
I2
sg17
I11
sbs(I11
I3
tp87
g1
(g10
g3
NtRp88
(dp89
g13
F-4.2604364534199357
sg14
I11
sg15
I01
sg16
I3
sg17
I99
sbs(I9
I5
tp90
g1
(g10
g3
NtRp91
(dp92
g13
F-3.2121893290898527
sg14
I9
sg15
I01
sg16
I5
sg17
I57
sbs(I3
I4
tp93
g1
(g10
g3
NtRp94
(dp95
g13
F15.93989043783046
sg14
I3
sg15
I01
sg16
I4
sg17
I9
sbs(I9
I12
tp96
g1
(g10
g3
NtRp97
(dp98
g13
F-2.5815596987242699
sg14
I9
sg15
I01
sg16
I12
sg17
I82
sbs(I10
I2
tp99
g1
(g10
g3
NtRp100
(dp101
g13
F8.2882446527918958
sg14
I10
sg15
I01
sg16
I2
sg17
I64
sbssS'_input_nodes'
p102
I1
sS'_output_nodes'
p103
I1
sS'_node_gene_type'
p104
cneat.genome
NodeGene
p105
sS'_conn_gene_type'
p106
g10
sS'fitness'
p107
F0.87829082797759506
sS'parent2_id'
p108
I3408
sS'_id'
p109
I3425
sS'parent1_id'
p110
I3408
sS'_node_genes'
p111
(lp112
g1
(g105
g3
NtRp113
(dp114
S'_bias'
p115
I0
sS'_type'
p116
S'INPUT'
p117
sg109
I1
sS'_response'
p118
F4.9242730000000003
sS'_activation_type'
p119
Nsbag1
(g105
g3
NtRp120
(dp121
g115
F1.0672975250366337
sg116
S'OUTPUT'
p122
sg109
I2
sg118
F3.7413302658158241
sg119
S'tanh'
p123
sbag1
(g105
g3
NtRp124
(dp125
g115
F-1.2356948829688781
sg116
S'HIDDEN'
p126
sg109
I3
sg118
F6.659447357635953
sg119
g123
sbag1
(g105
g3
NtRp127
(dp128
g115
F5.3207817405381066
sg116
g126
sg109
I4
sg118
F3.3480538056346458
sg119
g123
sbag1
(g105
g3
NtRp129
(dp130
g115
F0.79498708363279125
sg116
g126
sg109
I5
sg118
F1.7100359686856414
sg119
g123
sbag1
(g105
g3
NtRp131
(dp132
g115
F-0.50079115450245215
sg116
g126
sg109
I6
sg118
F-0.14920346229141479
sg119
g123
sbag1
(g105
g3
NtRp133
(dp134
g115
F0.99339532921534968
sg116
g126
sg109
I7
sg118
F5.4634429693891908
sg119
g123
sbag1
(g105
g3
NtRp135
(dp136
g115
F-3.2779987978619372
sg116
g126
sg109
I8
sg118
F4.3929701012807216
sg119
g123
sbag1
(g105
g3
NtRp137
(dp138
g115
F0.4661968744420576
sg116
g126
sg109
I9
sg118
F4.7122685828080364
sg119
g123
sbag1
(g105
g3
NtRp139
(dp140
g115
F-0.22770899623466617
sg116
g126
sg109
I10
sg118
F6.8723197612270965
sg119
g123
sbag1
(g105
g3
NtRp141
(dp142
g115
F0.46301587260806037
sg116
g126
sg109
I11
sg118
F4.3983511243399214
sg119
g123
sbag1
(g105
g3
NtRp143
(dp144
g115
F0.12212763078414854
sg116
g126
sg109
I12
sg118
F5.4243906243348086
sg119
g123
sbasb.