ccopy_reg
_reconstructor
p1
(cneat.chromosome
Chromosome
p2
c__builtin__
object
p3
NtRp4
(dp5
S'species_id'
p6
I31
sS'_connection_genes'
p7
(dp8
(I7
I8
tp9
g1
(cneat.genome
ConnectionGene
p10
g3
NtRp11
(dp12
S'_ConnectionGene__weight'
p13
F-7.0277386396414068
sS'_ConnectionGene__in'
p14
I7
sS'_ConnectionGene__enabled'
p15
I01
sS'_ConnectionGene__out'
p16
I8
sS'_ConnectionGene__innov_number'
p17
I52
sbs(I4
I7
tp18
g1
(g10
g3
NtRp19
(dp20
g13
F-22.325637284152641
sg14
I4
sg15
I01
sg16
I7
sg17
I29
sbs(I1
I3
tp21
g1
(g10
g3
NtRp22
(dp23
g13
F2.4428828263226272
sg14
I1
sg15
I01
sg16
I3
sg17
I2
sbs(I2
I8
tp24
g1
(g10
g3
NtRp25
(dp26
g13
F-6.9561794137124435
sg14
I2
sg15
I01
sg16
I8
sg17
I46
sbs(I3
I11
tp27
g1
(g10
g3
NtRp28
(dp29
g13
F4.4346622505303879
sg14
I3
sg15
I01
sg16
I11
sg17
I98
sbs(I6
I2
tp30
g1
(g10
g3
NtRp31
(dp32
g13
F24.869577453835415
sg14
I6
sg15
I00
sg16
I2
sg17
I23
sbs(I2
I5
tp33
g1
(g10
g3
NtRp34
(dp35
g13
F-7.2524235903440069
sg14
I2
sg15
I01
sg16
I5
sg17
I10
sbs(I7
I2
tp36
g1
(g10
g3
NtRp37
(dp38
g13
F-4.5253775976000981
sg14
I7
sg15
I01
sg16
I2
sg17
I21
sbs(I1
I2
tp39
g1
(g10
g3
NtRp40
(dp41
g13
F-16.60847997050173
sg14
I1
sg15
I01
sg16
I2
sg17
I1
sbs(I3
I3
tp42
g1
(g10
g3
NtRp43
(dp44
g13
F-6.3985401297863396
sg14
I3
sg15
I01
sg16
I3
sg17
I6
sbs(I5
I12
tp45
g1
(g10
g3
NtRp46
(dp47
g13
F-6.0124571220356993
sg14
I5
sg15
I01
sg16
I12
sg17
I87
sbs(I1
I5
tp48
g1
(g10
g3
NtRp49
(dp50
g13
F-2.5396179609219471
sg14
I1
sg15
I01
sg16
I5
sg17
I14
sbs(I2
I2
tp51
g1
(g10
g3
NtRp52
(dp53
g13
F-14.859770037021642
sg14
I2
sg15
I01
sg16
I2
sg17
I4
sbs(I8
I6
tp54
g1
(g10
g3
NtRp55
(dp56
g13
F-2.5126365392039194
sg14
I8
sg15
I00
sg16
I6
sg17
I51
sbs(I3
I2
tp57
g1
(g10
g3
NtRp58
(dp59
g13
F11.694876189318258
sg14
I3
sg15
I00
sg16
I2
sg17
I3
sbs(I2
I6
tp60
g1
(g10
g3
NtRp61
(dp62
g13
F-17.559642845947092
sg14
I2
sg15
I01
sg16
I6
sg17
I15
sbs(I12
I10
tp63
g1
(g10
g3
NtRp64
(dp65
g13
F-5.2829251727905175
sg14
I12
sg15
I01
sg16
I10
sg17
I103
sbs(I4
I2
tp66
g1
(g10
g3
NtRp67
(dp68
g13
F-4.8055201433759152
sg14
I4
sg15
I01
sg16
I2
sg17
I8
sbs(I6
I9
tp69
g1
(g10
g3
NtRp70
(dp71
g13
F1.0565995915559983
sg14
I6
sg15
I01
sg16
I9
sg17
I56
sbs(I5
I10
tp72
g1
(g10
g3
NtRp73
(dp74
g13
F4.6967295353299381
sg14
I5
sg15
I00
sg16
I10
sg17
I78
sbs(I9
I2
tp75
g1
(g10
g3
NtRp76
(dp77
g13
F27.489227598334207
sg14
I9
sg15
I01
sg16
I2
sg17
I59
sbs(I3
I4
tp78
g1
(g10
g3
NtRp79
(dp80
g13
F1.5710951856262541
sg14
I3
sg15
I01
sg16
I4
sg17
I9
sbs(I11
I3
tp81
g1
(g10
g3
NtRp82
(dp83
g13
F1.3624930531925679
sg14
I11
sg15
I01
sg16
I3
sg17
I99
sbs(I5
I2
tp84
g1
(g10
g3
NtRp85
(dp86
g13
F1.0608906998137382
sg14
I5
sg15
I00
sg16
I2
sg17
I11
sbs(I10
I2
tp87
g1
(g10
g3
NtRp88
(dp89
g13
F7.1868439859640549
sg14
I10
sg15
I01
sg16
I2
sg17
I64
sbssS'_input_nodes'
p90
I1
sS'_output_nodes'
p91
I1
sS'_node_gene_type'
p92
cneat.genome
NodeGene
p93
sS'_conn_gene_type'
p94
g10
sS'fitness'
p95
F0.98616493846027742
sS'parent2_id'
p96
I2825
sS'_id'
p97
I2836
sS'parent1_id'
p98
I2825
sS'_node_genes'
p99
(lp100
g1
(g93
g3
NtRp101
(dp102
S'_bias'
p103
I0
sS'_type'
p104
S'INPUT'
p105
sg97
I1
sS'_response'
p106
F4.9242730000000003
sS'_activation_type'
p107
Nsbag1
(g93
g3
NtRp108
(dp109
g103
F1.0314970633256961
sg104
S'OUTPUT'
p110
sg97
I2
sg106
F2.4388109866610641
sg107
S'tanh'
p111
sbag1
(g93
g3
NtRp112
(dp113
g103
F-0.46305445373864196
sg104
S'HIDDEN'
p114
sg97
I3
sg106
F7.4369459194189655
sg107
g111
sbag1
(g93
g3
NtRp115
(dp116
g103
F3.4946732754906309
sg104
g114
sg97
I4
sg106
F2.7164610280314387
sg107
g111
sbag1
(g93
g3
NtRp117
(dp118
g103
F1.9447195629793366
sg104
g114
sg97
I5
sg106
F1.4832084465453326
sg107
g111
sbag1
(g93
g3
NtRp119
(dp120
g103
F-0.37893411230261442
sg104
g114
sg97
I6
sg106
F-0.55461907282712142
sg107
g111
sbag1
(g93
g3
NtRp121
(dp122
g103
F-0.58960626041857767
sg104
g114
sg97
I7
sg106
F5.6126996659603119
sg107
g111
sbag1
(g93
g3
NtRp123
(dp124
g103
F-2.6294054074182638
sg104
g114
sg97
I8
sg106
F3.7144168704665774
sg107
g111
sbag1
(g93
g3
NtRp125
(dp126
g103
F1.3051162732170378
sg104
g114
sg97
I9
sg106
F5.7273496731838591
sg107
g111
sbag1
(g93
g3
NtRp127
(dp128
g103
F-0.48886594183136134
sg104
g114
sg97
I10
sg106
F5.4481880987941045
sg107
g111
sbag1
(g93
g3
NtRp129
(dp130
g103
F0.78496664287922835
sg104
g114
sg97
I11
sg106
F4.9405276409467547
sg107
g111
sbag1
(g93
g3
NtRp131
(dp132
g103
I0
sg104
g114
sg97
I12
sg106
F4.5322254777250182
sg107
g111
sbasb.