ccopy_reg
_reconstructor
p1
(cneat.chromosome
Chromosome
p2
c__builtin__
object
p3
NtRp4
(dp5
S'species_id'
p6
I46
sS'_connection_genes'
p7
(dp8
(I5
I9
tp9
g1
(cneat.genome
ConnectionGene
p10
g3
NtRp11
(dp12
S'_ConnectionGene__weight'
p13
F3.5409655306639611
sS'_ConnectionGene__in'
p14
I5
sS'_ConnectionGene__enabled'
p15
I01
sS'_ConnectionGene__out'
p16
I9
sS'_ConnectionGene__innov_number'
p17
I58
sbs(I4
I7
tp18
g1
(g10
g3
NtRp19
(dp20
g13
F-23.401736522436241
sg14
I4
sg15
I01
sg16
I7
sg17
I29
sbs(I1
I3
tp21
g1
(g10
g3
NtRp22
(dp23
g13
F17.129585838829463
sg14
I1
sg15
I01
sg16
I3
sg17
I2
sbs(I14
I4
tp24
g1
(g10
g3
NtRp25
(dp26
g13
F2.1303886537331502
sg14
I14
sg15
I01
sg16
I4
sg17
I143
sbs(I13
I4
tp27
g1
(g10
g3
NtRp28
(dp29
g13
F25.112570043471038
sg14
I13
sg15
I01
sg16
I4
sg17
I120
sbs(I7
I8
tp30
g1
(g10
g3
NtRp31
(dp32
g13
F-12.051104977821804
sg14
I7
sg15
I01
sg16
I8
sg17
I52
sbs(I3
I11
tp33
g1
(g10
g3
NtRp34
(dp35
g13
F16.704240956568142
sg14
I3
sg15
I01
sg16
I11
sg17
I98
sbs(I1
I15
tp36
g1
(g10
g3
NtRp37
(dp38
g13
F-7.629456685944298
sg14
I1
sg15
I01
sg16
I15
sg17
I148
sbs(I13
I17
tp39
g1
(g10
g3
NtRp40
(dp41
g13
F0.99442886647101347
sg14
I13
sg15
I01
sg16
I17
sg17
I183
sbs(I6
I2
tp42
g1
(g10
g3
NtRp43
(dp44
g13
F16.996488354783324
sg14
I6
sg15
I01
sg16
I2
sg17
I23
sbs(I7
I16
tp45
g1
(g10
g3
NtRp46
(dp47
g13
F-3.4726802771308121
sg14
I7
sg15
I01
sg16
I16
sg17
I171
sbs(I4
I2
tp48
g1
(g10
g3
NtRp49
(dp50
g13
F-1.6366231594116236
sg14
I4
sg15
I01
sg16
I2
sg17
I8
sbs(I2
I5
tp51
g1
(g10
g3
NtRp52
(dp53
g13
F-2.6521427558712047
sg14
I2
sg15
I01
sg16
I5
sg17
I10
sbs(I15
I5
tp54
g1
(g10
g3
NtRp55
(dp56
g13
F1.0904828298143852
sg14
I15
sg15
I01
sg16
I5
sg17
I165
sbs(I7
I2
tp57
g1
(g10
g3
NtRp58
(dp59
g13
F-29.650448690264277
sg14
I7
sg15
I01
sg16
I2
sg17
I21
sbs(I1
I2
tp60
g1
(g10
g3
NtRp61
(dp62
g13
F-12.388798754787157
sg14
I1
sg15
I01
sg16
I2
sg17
I1
sbs(I12
I2
tp63
g1
(g10
g3
NtRp64
(dp65
g13
F20.761563476810192
sg14
I12
sg15
I01
sg16
I2
sg17
I80
sbs(I3
I3
tp66
g1
(g10
g3
NtRp67
(dp68
g13
F-2.8697804807354901
sg14
I3
sg15
I01
sg16
I3
sg17
I6
sbs(I2
I8
tp69
g1
(g10
g3
NtRp70
(dp71
g13
F-24.01047129267932
sg14
I2
sg15
I01
sg16
I8
sg17
I46
sbs(I1
I5
tp72
g1
(g10
g3
NtRp73
(dp74
g13
F-28.074243683074268
sg14
I1
sg15
I01
sg16
I5
sg17
I14
sbs(I6
I5
tp75
g1
(g10
g3
NtRp76
(dp77
g13
F-2.870315623391166
sg14
I6
sg15
I01
sg16
I5
sg17
I16
sbs(I2
I2
tp78
g1
(g10
g3
NtRp79
(dp80
g13
F-15.657971861210367
sg14
I2
sg15
I01
sg16
I2
sg17
I4
sbs(I8
I6
tp81
g1
(g10
g3
NtRp82
(dp83
g13
F8.091520659735199
sg14
I8
sg15
I01
sg16
I6
sg17
I51
sbs(I3
I2
tp84
g1
(g10
g3
NtRp85
(dp86
g13
F-5.7811603505505085
sg14
I3
sg15
I01
sg16
I2
sg17
I3
sbs(I2
I6
tp87
g1
(g10
g3
NtRp88
(dp89
g13
F-11.718625134442071
sg14
I2
sg15
I01
sg16
I6
sg17
I15
sbs(I3
I13
tp90
g1
(g10
g3
NtRp91
(dp92
g13
F12.574626508128796
sg14
I3
sg15
I01
sg16
I13
sg17
I105
sbs(I7
I5
tp93
g1
(g10
g3
NtRp94
(dp95
g13
F-8.0641680700700853
sg14
I7
sg15
I00
sg16
I5
sg17
I19
sbs(I6
I12
tp96
g1
(g10
g3
NtRp97
(dp98
g13
F-14.099678317432593
sg14
I6
sg15
I01
sg16
I12
sg17
I115
sbs(I17
I4
tp99
g1
(g10
g3
NtRp100
(dp101
g13
F23.184331055551016
sg14
I17
sg15
I01
sg16
I4
sg17
I184
sbs(I6
I9
tp102
g1
(g10
g3
NtRp103
(dp104
g13
F-15.519230021201668
sg14
I6
sg15
I01
sg16
I9
sg17
I56
sbs(I5
I10
tp105
g1
(g10
g3
NtRp106
(dp107
g13
F9.6612424458024755
sg14
I5
sg15
I01
sg16
I10
sg17
I78
sbs(I16
I5
tp108
g1
(g10
g3
NtRp109
(dp110
g13
F-2.320502809559351
sg14
I16
sg15
I01
sg16
I5
sg17
I178
sbs(I9
I2
tp111
g1
(g10
g3
NtRp112
(dp113
g13
F13.841635382082272
sg14
I9
sg15
I01
sg16
I2
sg17
I59
sbs(I5
I2
tp114
g1
(g10
g3
NtRp115
(dp116
g13
F14.263786450633553
sg14
I5
sg15
I00
sg16
I2
sg17
I11
sbs(I11
I3
tp117
g1
(g10
g3
NtRp118
(dp119
g13
F27.40348290558622
sg14
I11
sg15
I01
sg16
I3
sg17
I99
sbs(I13
I14
tp120
g1
(g10
g3
NtRp121
(dp122
g13
F0.41025453051654132
sg14
I13
sg15
I01
sg16
I14
sg17
I142
sbs(I3
I4
tp123
g1
(g10
g3
NtRp124
(dp125
g13
F-30
sg14
I3
sg15
I01
sg16
I4
sg17
I9
sbs(I10
I2
tp126
g1
(g10
g3
NtRp127
(dp128
g13
F12.961311506353505
sg14
I10
sg15
I01
sg16
I2
sg17
I64
sbssS'_input_nodes'
p129
I1
sS'_output_nodes'
p130
I1
sS'_node_gene_type'
p131
cneat.genome
NodeGene
p132
sS'_conn_gene_type'
p133
g10
sS'fitness'
p134
F0.99920515017674805
sS'parent2_id'
p135
I5407
sS'_id'
p136
I5425
sS'parent1_id'
p137
I5407
sS'_node_genes'
p138
(lp139
g1
(g132
g3
NtRp140
(dp141
S'_bias'
p142
I0
sS'_type'
p143
S'INPUT'
p144
sg136
I1
sS'_response'
p145
F4.9242730000000003
sS'_activation_type'
p146
Nsbag1
(g132
g3
NtRp147
(dp148
g142
F1.5682139525916312
sg143
S'OUTPUT'
p149
sg136
I2
sg145
F3.5030559798903842
sg146
S'tanh'
p150
sbag1
(g132
g3
NtRp151
(dp152
g142
F0.56163868215144697
sg143
S'HIDDEN'
p153
sg136
I3
sg145
F7.7640914926838702
sg146
g150
sbag1
(g132
g3
NtRp154
(dp155
g142
F1.5351446751758944
sg143
g153
sg136
I4
sg145
F5.6298893667536305
sg146
g150
sbag1
(g132
g3
NtRp156
(dp157
g142
F-0.73464766728644038
sg143
g153
sg136
I5
sg145
F1.0145301643016218
sg146
g150
sbag1
(g132
g3
NtRp158
(dp159
g142
F2.1960942978078997
sg143
g153
sg136
I6
sg145
F6.7054606730247723
sg146
g150
sbag1
(g132
g3
NtRp160
(dp161
g142
F0.03176894272787309
sg143
g153
sg136
I7
sg145
F8.2635608906875984
sg146
g150
sbag1
(g132
g3
NtRp162
(dp163
g142
F-0.075530251050969971
sg143
g153
sg136
I8
sg145
F0.14213974227505388
sg146
g150
sbag1
(g132
g3
NtRp164
(dp165
g142
F-4.45083175951389
sg143
g153
sg136
I9
sg145
F4.2255856134889642
sg146
g150
sbag1
(g132
g3
NtRp166
(dp167
g142
F-1.8351421761121764
sg143
g153
sg136
I10
sg145
F5.7551942151649902
sg146
g150
sbag1
(g132
g3
NtRp168
(dp169
g142
F-1.0619089573297997
sg143
g153
sg136
I11
sg145
F4.2787037249254345
sg146
g150
sbag1
(g132
g3
NtRp170
(dp171
g142
F-0.24589504893553393
sg143
g153
sg136
I12
sg145
F8.9500548700059692
sg146
g150
sbag1
(g132
g3
NtRp172
(dp173
g142
F2.7928503903621191
sg143
g153
sg136
I13
sg145
F7.1489743786731008
sg146
g150
sbag1
(g132
g3
NtRp174
(dp175
g142
F0.99895394138866389
sg143
g153
sg136
I14
sg145
F4.3752878570114433
sg146
g150
sbag1
(g132
g3
NtRp176
(dp177
g142
F-0.037767212035567321
sg143
g153
sg136
I15
sg145
F2.9552666861061558
sg146
g150
sbag1
(g132
g3
NtRp178
(dp179
g142
F-0.66903852760567561
sg143
g153
sg136
I16
sg145
F6.2058427073402509
sg146
g150
sbag1
(g132
g3
NtRp180
(dp181
g142
F-1.8911886242222591
sg143
g153
sg136
I17
sg145
F5.4052932834083958
sg146
g150
sbasb.