ccopy_reg
_reconstructor
p1
(cneat.chromosome
Chromosome
p2
c__builtin__
object
p3
NtRp4
(dp5
S'species_id'
p6
I21
sS'_connection_genes'
p7
(dp8
(I1
I2
tp9
g1
(cneat.genome
ConnectionGene
p10
g3
NtRp11
(dp12
S'_ConnectionGene__weight'
p13
F-11.609231449441731
sS'_ConnectionGene__in'
p14
I1
sS'_ConnectionGene__enabled'
p15
I00
sS'_ConnectionGene__out'
p16
I2
sS'_ConnectionGene__innov_number'
p17
I1
sbs(I7
I3
tp18
g1
(g10
g3
NtRp19
(dp20
g13
F-4.6318751928976827
sg14
I7
sg15
I01
sg16
I3
sg17
I36
sbs(I3
I2
tp21
g1
(g10
g3
NtRp22
(dp23
g13
F-13.172627170530015
sg14
I3
sg15
I00
sg16
I2
sg17
I3
sbs(I1
I3
tp24
g1
(g10
g3
NtRp25
(dp26
g13
F5.9722013648585595
sg14
I1
sg15
I00
sg16
I3
sg17
I2
sbs(I8
I2
tp27
g1
(g10
g3
NtRp28
(dp29
g13
F9.6801396014807537
sg14
I8
sg15
I01
sg16
I2
sg17
I43
sbs(I9
I2
tp30
g1
(g10
g3
NtRp31
(dp32
g13
F-20.327693908627054
sg14
I9
sg15
I01
sg16
I2
sg17
I59
sbs(I5
I2
tp33
g1
(g10
g3
NtRp34
(dp35
g13
F8.9682654441516796
sg14
I5
sg15
I00
sg16
I2
sg17
I11
sbs(I2
I2
tp36
g1
(g10
g3
NtRp37
(dp38
g13
F-13.851572208468982
sg14
I2
sg15
I01
sg16
I2
sg17
I4
sbs(I3
I6
tp39
g1
(g10
g3
NtRp40
(dp41
g13
F6.2902316343626801
sg14
I3
sg15
I01
sg16
I6
sg17
I24
sbs(I3
I9
tp42
g1
(g10
g3
NtRp43
(dp44
g13
F0.74549166198924821
sg14
I3
sg15
I01
sg16
I9
sg17
I54
sbs(I5
I8
tp45
g1
(g10
g3
NtRp46
(dp47
g13
F-5.2248770441400705
sg14
I5
sg15
I01
sg16
I8
sg17
I42
sbs(I4
I3
tp48
g1
(g10
g3
NtRp49
(dp50
g13
F28.200658920211826
sg14
I4
sg15
I01
sg16
I3
sg17
I12
sbs(I1
I7
tp51
g1
(g10
g3
NtRp52
(dp53
g13
F-7.7099546427656245
sg14
I1
sg15
I01
sg16
I7
sg17
I35
sbs(I4
I2
tp54
g1
(g10
g3
NtRp55
(dp56
g13
F-21.113975524426991
sg14
I4
sg15
I01
sg16
I2
sg17
I8
sbs(I3
I4
tp57
g1
(g10
g3
NtRp58
(dp59
g13
F2.1934549110088177
sg14
I3
sg15
I01
sg16
I4
sg17
I9
sbs(I6
I5
tp60
g1
(g10
g3
NtRp61
(dp62
g13
F-1.3050806935904502
sg14
I6
sg15
I01
sg16
I5
sg17
I16
sbs(I3
I5
tp63
g1
(g10
g3
NtRp64
(dp65
g13
F-1.5838363492417187
sg14
I3
sg15
I01
sg16
I5
sg17
I17
sbssS'_input_nodes'
p66
I1
sS'_output_nodes'
p67
I1
sS'_node_gene_type'
p68
cneat.genome
NodeGene
p69
sS'_conn_gene_type'
p70
g10
sS'fitness'
p71
F0.45868211654553886
sS'parent2_id'
p72
I1755
sS'_id'
p73
I1771
sS'parent1_id'
p74
I1755
sS'_node_genes'
p75
(lp76
g1
(g69
g3
NtRp77
(dp78
S'_bias'
p79
I0
sS'_type'
p80
S'INPUT'
p81
sg73
I1
sS'_response'
p82
F4.9242730000000003
sS'_activation_type'
p83
Nsbag1
(g69
g3
NtRp84
(dp85
g79
F-1.3738466378094925
sg80
S'OUTPUT'
p86
sg73
I2
sg82
F2.963004998194632
sg83
S'tanh'
p87
sbag1
(g69
g3
NtRp88
(dp89
g79
F-0.3602984299202065
sg80
S'HIDDEN'
p90
sg73
I3
sg82
F5.2605936172794721
sg83
g87
sbag1
(g69
g3
NtRp91
(dp92
g79
F1.9145506716335319
sg80
g90
sg73
I4
sg82
F4.5943699862374627
sg83
g87
sbag1
(g69
g3
NtRp93
(dp94
g79
F3.1567321501147134
sg80
g90
sg73
I5
sg82
F5.5712930928127546
sg83
g87
sbag1
(g69
g3
NtRp95
(dp96
g79
F-1.5051125660576377
sg80
g90
sg73
I6
sg82
F5.0542597970916114
sg83
g87
sbag1
(g69
g3
NtRp97
(dp98
g79
F1.2196658183005968
sg80
g90
sg73
I7
sg82
F4.8969808018475094
sg83
g87
sbag1
(g69
g3
NtRp99
(dp100
g79
F-1.7200038230576835
sg80
g90
sg73
I8
sg82
F5.0229279801044902
sg83
g87
sbag1
(g69
g3
NtRp101
(dp102
g79
F0.23107914841341773
sg80
g90
sg73
I9
sg82
F5.3215455816111339
sg83
g87
sbasb.