ccopy_reg
_reconstructor
p1
(cneat.chromosome
Chromosome
p2
c__builtin__
object
p3
NtRp4
(dp5
S'species_id'
p6
I21
sS'_connection_genes'
p7
(dp8
(I1
I2
tp9
g1
(cneat.genome
ConnectionGene
p10
g3
NtRp11
(dp12
S'_ConnectionGene__weight'
p13
F-18.436720627133393
sS'_ConnectionGene__in'
p14
I1
sS'_ConnectionGene__enabled'
p15
I00
sS'_ConnectionGene__out'
p16
I2
sS'_ConnectionGene__innov_number'
p17
I1
sbs(I7
I3
tp18
g1
(g10
g3
NtRp19
(dp20
g13
F-10.307465368639786
sg14
I7
sg15
I01
sg16
I3
sg17
I36
sbs(I3
I2
tp21
g1
(g10
g3
NtRp22
(dp23
g13
F-14.048782739606983
sg14
I3
sg15
I00
sg16
I2
sg17
I3
sbs(I1
I3
tp24
g1
(g10
g3
NtRp25
(dp26
g13
F12.722443087122899
sg14
I1
sg15
I00
sg16
I3
sg17
I2
sbs(I8
I2
tp27
g1
(g10
g3
NtRp28
(dp29
g13
F11.220545761758238
sg14
I8
sg15
I01
sg16
I2
sg17
I43
sbs(I9
I2
tp30
g1
(g10
g3
NtRp31
(dp32
g13
F-16.343603532171343
sg14
I9
sg15
I01
sg16
I2
sg17
I59
sbs(I5
I2
tp33
g1
(g10
g3
NtRp34
(dp35
g13
F8.1635420423532175
sg14
I5
sg15
I00
sg16
I2
sg17
I11
sbs(I4
I3
tp36
g1
(g10
g3
NtRp37
(dp38
g13
F29.531142878675048
sg14
I4
sg15
I01
sg16
I3
sg17
I12
sbs(I2
I2
tp39
g1
(g10
g3
NtRp40
(dp41
g13
F-15.912244252924282
sg14
I2
sg15
I01
sg16
I2
sg17
I4
sbs(I3
I9
tp42
g1
(g10
g3
NtRp43
(dp44
g13
F5.9959576676965209
sg14
I3
sg15
I01
sg16
I9
sg17
I54
sbs(I5
I8
tp45
g1
(g10
g3
NtRp46
(dp47
g13
F-4.3112253645316603
sg14
I5
sg15
I01
sg16
I8
sg17
I42
sbs(I3
I6
tp48
g1
(g10
g3
NtRp49
(dp50
g13
F-3.5738631431734791
sg14
I3
sg15
I01
sg16
I6
sg17
I24
sbs(I1
I7
tp51
g1
(g10
g3
NtRp52
(dp53
g13
F-5.5505324251891297
sg14
I1
sg15
I01
sg16
I7
sg17
I35
sbs(I4
I2
tp54
g1
(g10
g3
NtRp55
(dp56
g13
F-25.750726593727293
sg14
I4
sg15
I01
sg16
I2
sg17
I8
sbs(I3
I4
tp57
g1
(g10
g3
NtRp58
(dp59
g13
F-0.67797034277896406
sg14
I3
sg15
I01
sg16
I4
sg17
I9
sbs(I6
I5
tp60
g1
(g10
g3
NtRp61
(dp62
g13
F5.8273159600353699
sg14
I6
sg15
I01
sg16
I5
sg17
I16
sbs(I3
I5
tp63
g1
(g10
g3
NtRp64
(dp65
g13
F3.6071141785620142
sg14
I3
sg15
I01
sg16
I5
sg17
I17
sbssS'_input_nodes'
p66
I1
sS'_output_nodes'
p67
I1
sS'_node_gene_type'
p68
cneat.genome
NodeGene
p69
sS'_conn_gene_type'
p70
g10
sS'fitness'
p71
F0.49591336478833581
sS'parent2_id'
p72
I1891
sS'_id'
p73
I1907
sS'parent1_id'
p74
I1891
sS'_node_genes'
p75
(lp76
g1
(g69
g3
NtRp77
(dp78
S'_bias'
p79
I0
sS'_type'
p80
S'INPUT'
p81
sg73
I1
sS'_response'
p82
F4.9242730000000003
sS'_activation_type'
p83
Nsbag1
(g69
g3
NtRp84
(dp85
g79
F-1.9810782206920696
sg80
S'OUTPUT'
p86
sg73
I2
sg82
F2.4733956884594992
sg83
S'tanh'
p87
sbag1
(g69
g3
NtRp88
(dp89
g79
F0.44948531921948337
sg80
S'HIDDEN'
p90
sg73
I3
sg82
F4.7515377596163422
sg83
g87
sbag1
(g69
g3
NtRp91
(dp92
g79
F2.8064701080784182
sg80
g90
sg73
I4
sg82
F4.6812765264066352
sg83
g87
sbag1
(g69
g3
NtRp93
(dp94
g79
F2.5329375136947934
sg80
g90
sg73
I5
sg82
F5.3824146450786339
sg83
g87
sbag1
(g69
g3
NtRp95
(dp96
g79
F-2.0877891874457513
sg80
g90
sg73
I6
sg82
F4.3585309255530245
sg83
g87
sbag1
(g69
g3
NtRp97
(dp98
g79
F1.9984782561078971
sg80
g90
sg73
I7
sg82
F5.1292387895573111
sg83
g87
sbag1
(g69
g3
NtRp99
(dp100
g79
F-1.9989134406797573
sg80
g90
sg73
I8
sg82
F4.2141276691125817
sg83
g87
sbag1
(g69
g3
NtRp101
(dp102
g79
F0.71710934438305263
sg80
g90
sg73
I9
sg82
F4.2476604159991371
sg83
g87
sbasb.