ccopy_reg
_reconstructor
p1
(cneat.chromosome
Chromosome
p2
c__builtin__
object
p3
NtRp4
(dp5
S'species_id'
p6
I29
sS'_connection_genes'
p7
(dp8
(I1
I2
tp9
g1
(cneat.genome
ConnectionGene
p10
g3
NtRp11
(dp12
S'_ConnectionGene__weight'
p13
F-15.439798534021659
sS'_ConnectionGene__in'
p14
I1
sS'_ConnectionGene__enabled'
p15
I01
sS'_ConnectionGene__out'
p16
I2
sS'_ConnectionGene__innov_number'
p17
I1
sbs(I3
I2
tp18
g1
(g10
g3
NtRp19
(dp20
g13
F16.292401337060529
sg14
I3
sg15
I00
sg16
I2
sg17
I3
sbs(I1
I3
tp21
g1
(g10
g3
NtRp22
(dp23
g13
F1.4852334539324792
sg14
I1
sg15
I01
sg16
I3
sg17
I2
sbs(I5
I10
tp24
g1
(g10
g3
NtRp25
(dp26
g13
F1
sg14
I5
sg15
I01
sg16
I10
sg17
I78
sbs(I3
I3
tp27
g1
(g10
g3
NtRp28
(dp29
g13
F1.4485276294003688
sg14
I3
sg15
I01
sg16
I3
sg17
I6
sbs(I9
I2
tp30
g1
(g10
g3
NtRp31
(dp32
g13
F18.77141131634064
sg14
I9
sg15
I01
sg16
I2
sg17
I59
sbs(I2
I8
tp33
g1
(g10
g3
NtRp34
(dp35
g13
F-14.485291650957764
sg14
I2
sg15
I01
sg16
I8
sg17
I46
sbs(I8
I6
tp36
g1
(g10
g3
NtRp37
(dp38
g13
F2.5271028867382261
sg14
I8
sg15
I00
sg16
I6
sg17
I51
sbs(I3
I4
tp39
g1
(g10
g3
NtRp40
(dp41
g13
F2.6892062793738662
sg14
I3
sg15
I01
sg16
I4
sg17
I9
sbs(I5
I2
tp42
g1
(g10
g3
NtRp43
(dp44
g13
F10.971200901352873
sg14
I5
sg15
I00
sg16
I2
sg17
I11
sbs(I4
I7
tp45
g1
(g10
g3
NtRp46
(dp47
g13
F-20.887050155143235
sg14
I4
sg15
I01
sg16
I7
sg17
I29
sbs(I1
I5
tp48
g1
(g10
g3
NtRp49
(dp50
g13
F-0.48254809059007719
sg14
I1
sg15
I01
sg16
I5
sg17
I14
sbs(I2
I6
tp51
g1
(g10
g3
NtRp52
(dp53
g13
F-19.8367936320324
sg14
I2
sg15
I01
sg16
I6
sg17
I15
sbs(I7
I2
tp54
g1
(g10
g3
NtRp55
(dp56
g13
F-6.7300786502140308
sg14
I7
sg15
I01
sg16
I2
sg17
I21
sbs(I2
I2
tp57
g1
(g10
g3
NtRp58
(dp59
g13
F-6.6458923704937529
sg14
I2
sg15
I01
sg16
I2
sg17
I4
sbs(I6
I2
tp60
g1
(g10
g3
NtRp61
(dp62
g13
F24.100258811055053
sg14
I6
sg15
I00
sg16
I2
sg17
I23
sbs(I4
I2
tp63
g1
(g10
g3
NtRp64
(dp65
g13
F-6.9637506506498799
sg14
I4
sg15
I01
sg16
I2
sg17
I8
sbs(I2
I5
tp66
g1
(g10
g3
NtRp67
(dp68
g13
F-6.1213938523869409
sg14
I2
sg15
I01
sg16
I5
sg17
I10
sbs(I7
I8
tp69
g1
(g10
g3
NtRp70
(dp71
g13
F-10.580225376675719
sg14
I7
sg15
I01
sg16
I8
sg17
I52
sbs(I6
I9
tp72
g1
(g10
g3
NtRp73
(dp74
g13
F3.3492430426286486
sg14
I6
sg15
I01
sg16
I9
sg17
I56
sbs(I10
I2
tp75
g1
(g10
g3
NtRp76
(dp77
g13
F10.971200901352873
sg14
I10
sg15
I01
sg16
I2
sg17
I64
sbssS'_input_nodes'
p78
I1
sS'_output_nodes'
p79
I1
sS'_node_gene_type'
p80
cneat.genome
NodeGene
p81
sS'_conn_gene_type'
p82
g10
sS'fitness'
p83
F0.98127981128732467
sS'parent2_id'
p84
I2461
sS'_id'
p85
I2497
sS'parent1_id'
p86
I2475
sS'_node_genes'
p87
(lp88
g1
(g81
g3
NtRp89
(dp90
S'_bias'
p91
I0
sS'_type'
p92
S'INPUT'
p93
sg85
I1
sS'_response'
p94
F4.9242730000000003
sS'_activation_type'
p95
Nsbag1
(g81
g3
NtRp96
(dp97
g91
F1.0314970633256961
sg92
S'OUTPUT'
p98
sg85
I2
sg94
F2.2513392486211266
sg95
S'tanh'
p99
sbag1
(g81
g3
NtRp100
(dp101
g91
F-0.24727726887524293
sg92
S'HIDDEN'
p102
sg85
I3
sg94
F8.5369607981962847
sg95
g99
sbag1
(g81
g3
NtRp103
(dp104
g91
F2.9925482366842706
sg92
g102
sg85
I4
sg94
F2.8471500154844955
sg95
g99
sbag1
(g81
g3
NtRp105
(dp106
g91
F1.5974948104212741
sg92
g102
sg85
I5
sg94
F2.0163818676163738
sg95
g99
sbag1
(g81
g3
NtRp107
(dp108
g91
F-0.27880936241083876
sg92
g102
sg85
I6
sg94
F-0.038086475704980138
sg95
g99
sbag1
(g81
g3
NtRp109
(dp110
g91
F-0.29281010377072547
sg92
g102
sg85
I7
sg94
F4.4196713295367527
sg95
g99
sbag1
(g81
g3
NtRp111
(dp112
g91
F-2.6896871047879101
sg92
g102
sg85
I8
sg94
F3.9279205145525395
sg95
g99
sbag1
(g81
g3
NtRp113
(dp114
g91
F1.3051162732170378
sg92
g102
sg85
I9
sg94
F5.0165529907731603
sg95
g99
sbag1
(g81
g3
NtRp115
(dp116
g91
I0
sg92
g102
sg85
I10
sg94
F4.9242730000000003
sg95
g99
sbasb.