ccopy_reg
_reconstructor
p1
(cneat.chromosome
Chromosome
p2
c__builtin__
object
p3
NtRp4
(dp5
S'species_id'
p6
I35
sS'_connection_genes'
p7
(dp8
(I7
I8
tp9
g1
(cneat.genome
ConnectionGene
p10
g3
NtRp11
(dp12
S'_ConnectionGene__weight'
p13
F3.6443850886971774
sS'_ConnectionGene__in'
p14
I7
sS'_ConnectionGene__enabled'
p15
I01
sS'_ConnectionGene__out'
p16
I8
sS'_ConnectionGene__innov_number'
p17
I52
sbs(I4
I7
tp18
g1
(g10
g3
NtRp19
(dp20
g13
F-27.240079344346583
sg14
I4
sg15
I01
sg16
I7
sg17
I29
sbs(I1
I3
tp21
g1
(g10
g3
NtRp22
(dp23
g13
F-6.0223469411525734
sg14
I1
sg15
I01
sg16
I3
sg17
I2
sbs(I2
I8
tp24
g1
(g10
g3
NtRp25
(dp26
g13
F-28.21180262462854
sg14
I2
sg15
I01
sg16
I8
sg17
I46
sbs(I3
I11
tp27
g1
(g10
g3
NtRp28
(dp29
g13
F10.392599800539339
sg14
I3
sg15
I01
sg16
I11
sg17
I98
sbs(I8
I9
tp30
g1
(g10
g3
NtRp31
(dp32
g13
F-9.3297355029126905
sg14
I8
sg15
I01
sg16
I9
sg17
I61
sbs(I6
I2
tp33
g1
(g10
g3
NtRp34
(dp35
g13
F7.4485609889223285
sg14
I6
sg15
I01
sg16
I2
sg17
I23
sbs(I2
I5
tp36
g1
(g10
g3
NtRp37
(dp38
g13
F-4.0841496187406889
sg14
I2
sg15
I01
sg16
I5
sg17
I10
sbs(I7
I2
tp39
g1
(g10
g3
NtRp40
(dp41
g13
F-5.93479657166358
sg14
I7
sg15
I01
sg16
I2
sg17
I21
sbs(I1
I2
tp42
g1
(g10
g3
NtRp43
(dp44
g13
F-18.91378376194594
sg14
I1
sg15
I01
sg16
I2
sg17
I1
sbs(I3
I3
tp45
g1
(g10
g3
NtRp46
(dp47
g13
F-3.2141899022459719
sg14
I3
sg15
I01
sg16
I3
sg17
I6
sbs(I5
I12
tp48
g1
(g10
g3
NtRp49
(dp50
g13
F-9.2076540254111379
sg14
I5
sg15
I01
sg16
I12
sg17
I87
sbs(I6
I3
tp51
g1
(g10
g3
NtRp52
(dp53
g13
F-3.5946139012851628
sg14
I6
sg15
I01
sg16
I3
sg17
I37
sbs(I1
I5
tp54
g1
(g10
g3
NtRp55
(dp56
g13
F11.88990929280755
sg14
I1
sg15
I01
sg16
I5
sg17
I14
sbs(I2
I2
tp57
g1
(g10
g3
NtRp58
(dp59
g13
F-7.5017745645747027
sg14
I2
sg15
I01
sg16
I2
sg17
I4
sbs(I1
I10
tp60
g1
(g10
g3
NtRp61
(dp62
g13
F-1.0439097360307077
sg14
I1
sg15
I01
sg16
I10
sg17
I65
sbs(I8
I6
tp63
g1
(g10
g3
NtRp64
(dp65
g13
F-4.4402815589221438
sg14
I8
sg15
I00
sg16
I6
sg17
I51
sbs(I3
I2
tp66
g1
(g10
g3
NtRp67
(dp68
g13
F23.739600491709048
sg14
I3
sg15
I00
sg16
I2
sg17
I3
sbs(I2
I6
tp69
g1
(g10
g3
NtRp70
(dp71
g13
F-18.208680954232509
sg14
I2
sg15
I01
sg16
I6
sg17
I15
sbs(I12
I10
tp72
g1
(g10
g3
NtRp73
(dp74
g13
F-19.957896196358245
sg14
I12
sg15
I01
sg16
I10
sg17
I103
sbs(I4
I2
tp75
g1
(g10
g3
NtRp76
(dp77
g13
F-7.925700082619338
sg14
I4
sg15
I01
sg16
I2
sg17
I8
sbs(I6
I9
tp78
g1
(g10
g3
NtRp79
(dp80
g13
F-8.1812079679999243
sg14
I6
sg15
I01
sg16
I9
sg17
I56
sbs(I5
I10
tp81
g1
(g10
g3
NtRp82
(dp83
g13
F-5.2618894555439617
sg14
I5
sg15
I00
sg16
I10
sg17
I78
sbs(I9
I2
tp84
g1
(g10
g3
NtRp85
(dp86
g13
F21.674059971385091
sg14
I9
sg15
I01
sg16
I2
sg17
I59
sbs(I5
I2
tp87
g1
(g10
g3
NtRp88
(dp89
g13
F-23.522347874196559
sg14
I5
sg15
I01
sg16
I2
sg17
I11
sbs(I11
I3
tp90
g1
(g10
g3
NtRp91
(dp92
g13
F-3.9062107458966011
sg14
I11
sg15
I01
sg16
I3
sg17
I99
sbs(I9
I5
tp93
g1
(g10
g3
NtRp94
(dp95
g13
F4.5677573131838818
sg14
I9
sg15
I01
sg16
I5
sg17
I57
sbs(I3
I4
tp96
g1
(g10
g3
NtRp97
(dp98
g13
F16.548852814236042
sg14
I3
sg15
I01
sg16
I4
sg17
I9
sbs(I9
I12
tp99
g1
(g10
g3
NtRp100
(dp101
g13
F2.2598926673376512
sg14
I9
sg15
I01
sg16
I12
sg17
I82
sbs(I10
I2
tp102
g1
(g10
g3
NtRp103
(dp104
g13
F4.1959164558411191
sg14
I10
sg15
I01
sg16
I2
sg17
I64
sbssS'_input_nodes'
p105
I1
sS'_output_nodes'
p106
I1
sS'_node_gene_type'
p107
cneat.genome
NodeGene
p108
sS'_conn_gene_type'
p109
g10
sS'fitness'
p110
F0.99056697532288096
sS'parent2_id'
p111
I3815
sS'_id'
p112
I3834
sS'parent1_id'
p113
I3815
sS'_node_genes'
p114
(lp115
g1
(g108
g3
NtRp116
(dp117
S'_bias'
p118
I0
sS'_type'
p119
S'INPUT'
p120
sg112
I1
sS'_response'
p121
F4.9242730000000003
sS'_activation_type'
p122
Nsbag1
(g108
g3
NtRp123
(dp124
g118
F2.1218938020245854
sg119
S'OUTPUT'
p125
sg112
I2
sg121
F3.2292447136770641
sg122
S'tanh'
p126
sbag1
(g108
g3
NtRp127
(dp128
g118
F-0.021339296055498225
sg119
S'HIDDEN'
p129
sg112
I3
sg121
F7.2952990761325278
sg122
g126
sbag1
(g108
g3
NtRp130
(dp131
g118
F5.408412683480134
sg119
g129
sg112
I4
sg121
F4.3255952323655187
sg122
g126
sbag1
(g108
g3
NtRp132
(dp133
g118
F0.38483426159893636
sg119
g129
sg112
I5
sg121
F-0.89004410720869653
sg122
g126
sbag1
(g108
g3
NtRp134
(dp135
g118
F-2.3916513335356004
sg119
g129
sg112
I6
sg121
F-1.0487676658224894
sg122
g126
sbag1
(g108
g3
NtRp136
(dp137
g118
F0.35298728407806457
sg119
g129
sg112
I7
sg121
F5.8352764583418359
sg122
g126
sbag1
(g108
g3
NtRp138
(dp139
g118
F-2.2626474597792425
sg119
g129
sg112
I8
sg121
F4.308709226672387
sg122
g126
sbag1
(g108
g3
NtRp140
(dp141
g118
F-0.054340540769518331
sg119
g129
sg112
I9
sg121
F4.1751590772115152
sg122
g126
sbag1
(g108
g3
NtRp142
(dp143
g118
F-0.59744772448973549
sg119
g129
sg112
I10
sg121
F7.6927538111470888
sg122
g126
sbag1
(g108
g3
NtRp144
(dp145
g118
F0.9674371673544222
sg119
g129
sg112
I11
sg121
F4.0663359582817495
sg122
g126
sbag1
(g108
g3
NtRp146
(dp147
g118
F-0.52220322665508367
sg119
g129
sg112
I12
sg121
F5.3649293153224633
sg122
g126
sbasb.