ccopy_reg
_reconstructor
p1
(cneat.chromosome
Chromosome
p2
c__builtin__
object
p3
NtRp4
(dp5
S'species_id'
p6
I41
sS'_connection_genes'
p7
(dp8
(I5
I9
tp9
g1
(cneat.genome
ConnectionGene
p10
g3
NtRp11
(dp12
S'_ConnectionGene__weight'
p13
F0.87180936600123793
sS'_ConnectionGene__in'
p14
I5
sS'_ConnectionGene__enabled'
p15
I01
sS'_ConnectionGene__out'
p16
I9
sS'_ConnectionGene__innov_number'
p17
I58
sbs(I4
I7
tp18
g1
(g10
g3
NtRp19
(dp20
g13
F-21.772435378941569
sg14
I4
sg15
I01
sg16
I7
sg17
I29
sbs(I1
I3
tp21
g1
(g10
g3
NtRp22
(dp23
g13
F9.4174593037599656
sg14
I1
sg15
I01
sg16
I3
sg17
I2
sbs(I14
I4
tp24
g1
(g10
g3
NtRp25
(dp26
g13
F-2.0536892433127543
sg14
I14
sg15
I01
sg16
I4
sg17
I143
sbs(I13
I4
tp27
g1
(g10
g3
NtRp28
(dp29
g13
F24.461624929048057
sg14
I13
sg15
I00
sg16
I4
sg17
I120
sbs(I7
I8
tp30
g1
(g10
g3
NtRp31
(dp32
g13
F-20.331251151230912
sg14
I7
sg15
I01
sg16
I8
sg17
I52
sbs(I3
I11
tp33
g1
(g10
g3
NtRp34
(dp35
g13
F10.002267423112629
sg14
I3
sg15
I01
sg16
I11
sg17
I98
sbs(I1
I15
tp36
g1
(g10
g3
NtRp37
(dp38
g13
F-7.3094318396398288
sg14
I1
sg15
I01
sg16
I15
sg17
I148
sbs(I13
I17
tp39
g1
(g10
g3
NtRp40
(dp41
g13
F0.35079733579236083
sg14
I13
sg15
I01
sg16
I17
sg17
I183
sbs(I6
I2
tp42
g1
(g10
g3
NtRp43
(dp44
g13
F20.594777175154562
sg14
I6
sg15
I01
sg16
I2
sg17
I23
sbs(I7
I16
tp45
g1
(g10
g3
NtRp46
(dp47
g13
F0.50648956328489181
sg14
I7
sg15
I01
sg16
I16
sg17
I171
sbs(I4
I2
tp48
g1
(g10
g3
NtRp49
(dp50
g13
F-8.9829849941602458
sg14
I4
sg15
I01
sg16
I2
sg17
I8
sbs(I2
I5
tp51
g1
(g10
g3
NtRp52
(dp53
g13
F-1.4649310883221385
sg14
I2
sg15
I01
sg16
I5
sg17
I10
sbs(I15
I5
tp54
g1
(g10
g3
NtRp55
(dp56
g13
F-6.4228812389298406
sg14
I15
sg15
I01
sg16
I5
sg17
I165
sbs(I7
I2
tp57
g1
(g10
g3
NtRp58
(dp59
g13
F-26.338758982835333
sg14
I7
sg15
I01
sg16
I2
sg17
I21
sbs(I1
I2
tp60
g1
(g10
g3
NtRp61
(dp62
g13
F-10.650458171047486
sg14
I1
sg15
I01
sg16
I2
sg17
I1
sbs(I12
I2
tp63
g1
(g10
g3
NtRp64
(dp65
g13
F23.466987482002324
sg14
I12
sg15
I01
sg16
I2
sg17
I80
sbs(I3
I3
tp66
g1
(g10
g3
NtRp67
(dp68
g13
F-0.2254046516145034
sg14
I3
sg15
I01
sg16
I3
sg17
I6
sbs(I2
I8
tp69
g1
(g10
g3
NtRp70
(dp71
g13
F-18.728983094587786
sg14
I2
sg15
I01
sg16
I8
sg17
I46
sbs(I1
I5
tp72
g1
(g10
g3
NtRp73
(dp74
g13
F-22.548418708839648
sg14
I1
sg15
I00
sg16
I5
sg17
I14
sbs(I2
I2
tp75
g1
(g10
g3
NtRp76
(dp77
g13
F-10.534519034908193
sg14
I2
sg15
I01
sg16
I2
sg17
I4
sbs(I8
I6
tp78
g1
(g10
g3
NtRp79
(dp80
g13
F12.285444296222384
sg14
I8
sg15
I01
sg16
I6
sg17
I51
sbs(I3
I2
tp81
g1
(g10
g3
NtRp82
(dp83
g13
F-1.7256199710700526
sg14
I3
sg15
I01
sg16
I2
sg17
I3
sbs(I2
I6
tp84
g1
(g10
g3
NtRp85
(dp86
g13
F-14.020034454195066
sg14
I2
sg15
I01
sg16
I6
sg17
I15
sbs(I3
I13
tp87
g1
(g10
g3
NtRp88
(dp89
g13
F14.560037808817897
sg14
I3
sg15
I01
sg16
I13
sg17
I105
sbs(I7
I5
tp90
g1
(g10
g3
NtRp91
(dp92
g13
F-5.8323980422223585
sg14
I7
sg15
I00
sg16
I5
sg17
I19
sbs(I6
I12
tp93
g1
(g10
g3
NtRp94
(dp95
g13
F-22.992732523455686
sg14
I6
sg15
I01
sg16
I12
sg17
I115
sbs(I17
I4
tp96
g1
(g10
g3
NtRp97
(dp98
g13
F24.933870894665407
sg14
I17
sg15
I01
sg16
I4
sg17
I184
sbs(I6
I9
tp99
g1
(g10
g3
NtRp100
(dp101
g13
F-26.715175220126298
sg14
I6
sg15
I01
sg16
I9
sg17
I56
sbs(I5
I10
tp102
g1
(g10
g3
NtRp103
(dp104
g13
F13.89921892153362
sg14
I5
sg15
I01
sg16
I10
sg17
I78
sbs(I16
I5
tp105
g1
(g10
g3
NtRp106
(dp107
g13
F-6.4273946885135134
sg14
I16
sg15
I01
sg16
I5
sg17
I178
sbs(I9
I2
tp108
g1
(g10
g3
NtRp109
(dp110
g13
F21.930376068750871
sg14
I9
sg15
I01
sg16
I2
sg17
I59
sbs(I5
I2
tp111
g1
(g10
g3
NtRp112
(dp113
g13
F14.64534890823454
sg14
I5
sg15
I00
sg16
I2
sg17
I11
sbs(I11
I3
tp114
g1
(g10
g3
NtRp115
(dp116
g13
F18.62475303392343
sg14
I11
sg15
I01
sg16
I3
sg17
I99
sbs(I13
I14
tp117
g1
(g10
g3
NtRp118
(dp119
g13
F2.7931746874105272
sg14
I13
sg15
I01
sg16
I14
sg17
I142
sbs(I3
I4
tp120
g1
(g10
g3
NtRp121
(dp122
g13
F-23.770065749575465
sg14
I3
sg15
I01
sg16
I4
sg17
I9
sbs(I10
I2
tp123
g1
(g10
g3
NtRp124
(dp125
g13
F12.081403385698117
sg14
I10
sg15
I01
sg16
I2
sg17
I64
sbssS'_input_nodes'
p126
I1
sS'_output_nodes'
p127
I1
sS'_node_gene_type'
p128
cneat.genome
NodeGene
p129
sS'_conn_gene_type'
p130
g10
sS'fitness'
p131
F0.94220322852896599
sS'parent2_id'
p132
I5139
sS'_id'
p133
I5159
sS'parent1_id'
p134
I5139
sS'_node_genes'
p135
(lp136
g1
(g129
g3
NtRp137
(dp138
S'_bias'
p139
I0
sS'_type'
p140
S'INPUT'
p141
sg133
I1
sS'_response'
p142
F4.9242730000000003
sS'_activation_type'
p143
Nsbag1
(g129
g3
NtRp144
(dp145
g139
F1.6501694306034167
sg140
S'OUTPUT'
p146
sg133
I2
sg142
F3.0857770577522796
sg143
S'tanh'
p147
sbag1
(g129
g3
NtRp148
(dp149
g139
F1.8435233242279039
sg140
S'HIDDEN'
p150
sg133
I3
sg142
F7.8875091034168507
sg143
g147
sbag1
(g129
g3
NtRp151
(dp152
g139
F0.93223111831906635
sg140
g150
sg133
I4
sg142
F5.1087167978046724
sg143
g147
sbag1
(g129
g3
NtRp153
(dp154
g139
F0.074842155261637178
sg140
g150
sg133
I5
sg142
F1.7026612040723899
sg143
g147
sbag1
(g129
g3
NtRp155
(dp156
g139
F3.0560454270542401
sg140
g150
sg133
I6
sg142
F7.1525684486940504
sg143
g147
sbag1
(g129
g3
NtRp157
(dp158
g139
F0.03176894272787309
sg140
g150
sg133
I7
sg142
F8.6980125802037573
sg143
g147
sbag1
(g129
g3
NtRp159
(dp160
g139
F-0.22557954795599755
sg140
g150
sg133
I8
sg142
F0.97848244435130094
sg143
g147
sbag1
(g129
g3
NtRp161
(dp162
g139
F-1.6475929135713503
sg140
g150
sg133
I9
sg142
F4.8650347398012057
sg143
g147
sbag1
(g129
g3
NtRp163
(dp164
g139
F-2.2810404667524051
sg140
g150
sg133
I10
sg142
F5.3710143898791829
sg143
g147
sbag1
(g129
g3
NtRp165
(dp166
g139
F-1.2150000393711484
sg140
g150
sg133
I11
sg142
F4.6688788534757952
sg143
g147
sbag1
(g129
g3
NtRp167
(dp168
g139
F0.16364050058931767
sg140
g150
sg133
I12
sg142
F9.2017934130456407
sg143
g147
sbag1
(g129
g3
NtRp169
(dp170
g139
F4.1181380215514531
sg140
g150
sg133
I13
sg142
F7.7458349390915018
sg143
g147
sbag1
(g129
g3
NtRp171
(dp172
g139
F-0.037833233952076495
sg140
g150
sg133
I14
sg142
F3.4232303577397589
sg143
g147
sbag1
(g129
g3
NtRp173
(dp174
g139
F-0.67233174824131758
sg140
g150
sg133
I15
sg142
F3.7459452652144125
sg143
g147
sbag1
(g129
g3
NtRp175
(dp176
g139
F-0.66903852760567561
sg140
g150
sg133
I16
sg142
F5.8519449373489714
sg143
g147
sbag1
(g129
g3
NtRp177
(dp178
g139
F-1.3846021257375438
sg140
g150
sg133
I17
sg142
F5.4272569502181973
sg143
g147
sbasb.