ccopy_reg
_reconstructor
p1
(cneat.chromosome
Chromosome
p2
c__builtin__
object
p3
NtRp4
(dp5
S'species_id'
p6
I31
sS'_connection_genes'
p7
(dp8
(I4
I7
tp9
g1
(cneat.genome
ConnectionGene
p10
g3
NtRp11
(dp12
S'_ConnectionGene__weight'
p13
F-19.977415285014988
sS'_ConnectionGene__in'
p14
I4
sS'_ConnectionGene__enabled'
p15
I01
sS'_ConnectionGene__out'
p16
I7
sS'_ConnectionGene__innov_number'
p17
I29
sbs(I1
I3
tp18
g1
(g10
g3
NtRp19
(dp20
g13
F-1.9338975218190073
sg14
I1
sg15
I01
sg16
I3
sg17
I2
sbs(I2
I8
tp21
g1
(g10
g3
NtRp22
(dp23
g13
F-13.240942409518848
sg14
I2
sg15
I01
sg16
I8
sg17
I46
sbs(I3
I11
tp24
g1
(g10
g3
NtRp25
(dp26
g13
F1.6144084955267022
sg14
I3
sg15
I01
sg16
I11
sg17
I98
sbs(I8
I9
tp27
g1
(g10
g3
NtRp28
(dp29
g13
F1.640196003132453
sg14
I8
sg15
I01
sg16
I9
sg17
I61
sbs(I6
I2
tp30
g1
(g10
g3
NtRp31
(dp32
g13
F17.26400281092662
sg14
I6
sg15
I00
sg16
I2
sg17
I23
sbs(I2
I5
tp33
g1
(g10
g3
NtRp34
(dp35
g13
F-5.9350605739871103
sg14
I2
sg15
I01
sg16
I5
sg17
I10
sbs(I7
I2
tp36
g1
(g10
g3
NtRp37
(dp38
g13
F-4.4318445138558475
sg14
I7
sg15
I01
sg16
I2
sg17
I21
sbs(I1
I2
tp39
g1
(g10
g3
NtRp40
(dp41
g13
F-21.996968667440125
sg14
I1
sg15
I01
sg16
I2
sg17
I1
sbs(I3
I3
tp42
g1
(g10
g3
NtRp43
(dp44
g13
F-3.9550605469343814
sg14
I3
sg15
I01
sg16
I3
sg17
I6
sbs(I5
I12
tp45
g1
(g10
g3
NtRp46
(dp47
g13
F-2.6080957451083195
sg14
I5
sg15
I01
sg16
I12
sg17
I87
sbs(I1
I5
tp48
g1
(g10
g3
NtRp49
(dp50
g13
F-3.2914228458422361
sg14
I1
sg15
I01
sg16
I5
sg17
I14
sbs(I2
I2
tp51
g1
(g10
g3
NtRp52
(dp53
g13
F-14.103605763581321
sg14
I2
sg15
I01
sg16
I2
sg17
I4
sbs(I3
I4
tp54
g1
(g10
g3
NtRp55
(dp56
g13
F8.425477430844893
sg14
I3
sg15
I01
sg16
I4
sg17
I9
sbs(I12
I10
tp57
g1
(g10
g3
NtRp58
(dp59
g13
F-8.6274633538630336
sg14
I12
sg15
I01
sg16
I10
sg17
I103
sbs(I3
I2
tp60
g1
(g10
g3
NtRp61
(dp62
g13
F13.819024570983684
sg14
I3
sg15
I00
sg16
I2
sg17
I3
sbs(I2
I6
tp63
g1
(g10
g3
NtRp64
(dp65
g13
F-15.055596432290141
sg14
I2
sg15
I01
sg16
I6
sg17
I15
sbs(I8
I6
tp66
g1
(g10
g3
NtRp67
(dp68
g13
F-7.0068140390759535
sg14
I8
sg15
I00
sg16
I6
sg17
I51
sbs(I4
I2
tp69
g1
(g10
g3
NtRp70
(dp71
g13
F-7.6912201902932402
sg14
I4
sg15
I01
sg16
I2
sg17
I8
sbs(I6
I9
tp72
g1
(g10
g3
NtRp73
(dp74
g13
F-4.8639277693735243
sg14
I6
sg15
I01
sg16
I9
sg17
I56
sbs(I5
I10
tp75
g1
(g10
g3
NtRp76
(dp77
g13
F1.4715960288804546
sg14
I5
sg15
I00
sg16
I10
sg17
I78
sbs(I9
I2
tp78
g1
(g10
g3
NtRp79
(dp80
g13
F26.602139593602637
sg14
I9
sg15
I01
sg16
I2
sg17
I59
sbs(I5
I2
tp81
g1
(g10
g3
NtRp82
(dp83
g13
F3.8982440336882047
sg14
I5
sg15
I01
sg16
I2
sg17
I11
sbs(I11
I3
tp84
g1
(g10
g3
NtRp85
(dp86
g13
F1.4806555225864726
sg14
I11
sg15
I01
sg16
I3
sg17
I99
sbs(I7
I8
tp87
g1
(g10
g3
NtRp88
(dp89
g13
F-10.227251771055137
sg14
I7
sg15
I01
sg16
I8
sg17
I52
sbs(I10
I2
tp90
g1
(g10
g3
NtRp91
(dp92
g13
F10.799467730711077
sg14
I10
sg15
I01
sg16
I2
sg17
I64
sbssS'_input_nodes'
p93
I1
sS'_output_nodes'
p94
I1
sS'_node_gene_type'
p95
cneat.genome
NodeGene
p96
sS'_conn_gene_type'
p97
g10
sS'fitness'
p98
F0.93095249027138471
sS'parent2_id'
p99
I3018
sS'_id'
p100
I3039
sS'parent1_id'
p101
I3018
sS'_node_genes'
p102
(lp103
g1
(g96
g3
NtRp104
(dp105
S'_bias'
p106
I0
sS'_type'
p107
S'INPUT'
p108
sg100
I1
sS'_response'
p109
F4.9242730000000003
sS'_activation_type'
p110
Nsbag1
(g96
g3
NtRp111
(dp112
g106
F1.0138488303011668
sg107
S'OUTPUT'
p113
sg100
I2
sg109
F3.3427207269519124
sg110
S'tanh'
p114
sbag1
(g96
g3
NtRp115
(dp116
g106
F-0.46305445373864196
sg107
S'HIDDEN'
p117
sg100
I3
sg109
F6.8370486634552723
sg110
g114
sbag1
(g96
g3
NtRp118
(dp119
g106
F5.4360252004972605
sg107
g117
sg100
I4
sg109
F2.2848439747985796
sg110
g114
sbag1
(g96
g3
NtRp120
(dp121
g106
F0.72638133309057906
sg107
g117
sg100
I5
sg109
F1.4832084465453326
sg110
g114
sbag1
(g96
g3
NtRp122
(dp123
g106
F-0.031137241058298626
sg107
g117
sg100
I6
sg109
F-0.83335547227816109
sg110
g114
sbag1
(g96
g3
NtRp124
(dp125
g106
F0.094519789942301063
sg107
g117
sg100
I7
sg109
F6.7201408642134641
sg110
g114
sbag1
(g96
g3
NtRp126
(dp127
g106
F-3.3593447367222362
sg107
g117
sg100
I8
sg109
F3.8161084442952227
sg110
g114
sbag1
(g96
g3
NtRp128
(dp129
g106
F0.51377992752777168
sg107
g117
sg100
I9
sg109
F5.6688121887213159
sg110
g114
sbag1
(g96
g3
NtRp130
(dp131
g106
F-1.1438439818289214
sg107
g117
sg100
I10
sg109
F5.8492682242232865
sg110
g114
sbag1
(g96
g3
NtRp132
(dp133
g106
F0.19695423879777441
sg107
g117
sg100
I11
sg109
F4.7495928629632953
sg110
g114
sbag1
(g96
g3
NtRp134
(dp135
g106
F-0.22044341976463724
sg107
g117
sg100
I12
sg109
F5.5008338019641547
sg110
g114
sbasb.