ccopy_reg
_reconstructor
p1
(cneat.chromosome
Chromosome
p2
c__builtin__
object
p3
NtRp4
(dp5
S'species_id'
p6
I11
sS'_connection_genes'
p7
(dp8
(I1
I2
tp9
g1
(cneat.genome
ConnectionGene
p10
g3
NtRp11
(dp12
S'_ConnectionGene__weight'
p13
F-4.782777092888626
sS'_ConnectionGene__in'
p14
I1
sS'_ConnectionGene__enabled'
p15
I01
sS'_ConnectionGene__out'
p16
I2
sS'_ConnectionGene__innov_number'
p17
I1
sbs(I6
I4
tp18
g1
(g10
g3
NtRp19
(dp20
g13
F12.365910675713481
sg14
I6
sg15
I01
sg16
I4
sg17
I26
sbs(I5
I4
tp21
g1
(g10
g3
NtRp22
(dp23
g13
F16.685765588174394
sg14
I5
sg15
I01
sg16
I4
sg17
I19
sbs(I1
I3
tp24
g1
(g10
g3
NtRp25
(dp26
g13
F0.10419021790480332
sg14
I1
sg15
I01
sg16
I3
sg17
I2
sbs(I3
I3
tp27
g1
(g10
g3
NtRp28
(dp29
g13
F2.209677225344103
sg14
I3
sg15
I01
sg16
I3
sg17
I9
sbs(I4
I4
tp30
g1
(g10
g3
NtRp31
(dp32
g13
F-0.20538561734840499
sg14
I4
sg15
I01
sg16
I4
sg17
I11
sbs(I3
I2
tp33
g1
(g10
g3
NtRp34
(dp35
g13
F-5.049328134273849
sg14
I3
sg15
I01
sg16
I2
sg17
I3
sbs(I1
I4
tp36
g1
(g10
g3
NtRp37
(dp38
g13
F11.79747831345705
sg14
I1
sg15
I00
sg16
I4
sg17
I5
sbs(I1
I6
tp39
g1
(g10
g3
NtRp40
(dp41
g13
F2.0139891021492202
sg14
I1
sg15
I01
sg16
I6
sg17
I15
sbs(I4
I3
tp42
g1
(g10
g3
NtRp43
(dp44
g13
F-6.3733643991380191
sg14
I4
sg15
I01
sg16
I3
sg17
I6
sbs(I2
I2
tp45
g1
(g10
g3
NtRp46
(dp47
g13
F-9.2061269808654522
sg14
I2
sg15
I01
sg16
I2
sg17
I4
sbs(I2
I5
tp48
g1
(g10
g3
NtRp49
(dp50
g13
F3.3480651735920128
sg14
I2
sg15
I01
sg16
I5
sg17
I22
sbs(I3
I4
tp51
g1
(g10
g3
NtRp52
(dp53
g13
F-6.361050746484108
sg14
I3
sg15
I01
sg16
I4
sg17
I7
sbs(I2
I4
tp54
g1
(g10
g3
NtRp55
(dp56
g13
F15.297722331716411
sg14
I2
sg15
I00
sg16
I4
sg17
I12
sbssS'_input_nodes'
p57
I1
sS'_output_nodes'
p58
I1
sS'_node_gene_type'
p59
cneat.genome
NodeGene
p60
sS'_conn_gene_type'
p61
g10
sS'fitness'
p62
F0.93839020354055791
sS'parent2_id'
p63
I1348
sS'_id'
p64
I1370
sS'parent1_id'
p65
I1348
sS'_node_genes'
p66
(lp67
g1
(g60
g3
NtRp68
(dp69
S'_bias'
p70
I0
sS'_type'
p71
S'INPUT'
p72
sg64
I1
sS'_response'
p73
F4.9242730000000003
sS'_activation_type'
p74
Nsbag1
(g60
g3
NtRp75
(dp76
g70
F-0.98084053567178286
sg71
S'OUTPUT'
p77
sg64
I2
sg73
F7.0030801523437693
sg74
S'tanh'
p78
sbag1
(g60
g3
NtRp79
(dp80
g70
F-2.229559023164132
sg71
S'HIDDEN'
p81
sg64
I3
sg73
F6.2780750814692139
sg74
g78
sbag1
(g60
g3
NtRp82
(dp83
g70
F-0.65267245309259037
sg71
g81
sg64
I4
sg73
F6.1528441776853198
sg74
g78
sbag1
(g60
g3
NtRp84
(dp85
g70
F-1.3043055810070379
sg71
g81
sg64
I5
sg73
F5.1944289015024401
sg74
g78
sbag1
(g60
g3
NtRp86
(dp87
g70
I0
sg71
g81
sg64
I6
sg73
F5.1329112628880686
sg74
g78
sbasb.