ccopy_reg
_reconstructor
p1
(cneat.chromosome
Chromosome
p2
c__builtin__
object
p3
NtRp4
(dp5
S'species_id'
p6
I10
sS'_connection_genes'
p7
(dp8
(I1
I2
tp9
g1
(cneat.genome
ConnectionGene
p10
g3
NtRp11
(dp12
S'_ConnectionGene__weight'
p13
F-17.676972123691911
sS'_ConnectionGene__in'
p14
I1
sS'_ConnectionGene__enabled'
p15
I01
sS'_ConnectionGene__out'
p16
I2
sS'_ConnectionGene__innov_number'
p17
I1
sbs(I5
I4
tp18
g1
(g10
g3
NtRp19
(dp20
g13
F14.598461122603299
sg14
I5
sg15
I01
sg16
I4
sg17
I19
sbs(I1
I3
tp21
g1
(g10
g3
NtRp22
(dp23
g13
F10.571673582456814
sg14
I1
sg15
I01
sg16
I3
sg17
I2
sbs(I3
I3
tp24
g1
(g10
g3
NtRp25
(dp26
g13
F3.7037489896754119
sg14
I3
sg15
I00
sg16
I3
sg17
I9
sbs(I4
I4
tp27
g1
(g10
g3
NtRp28
(dp29
g13
F-1.7602033005043201
sg14
I4
sg15
I01
sg16
I4
sg17
I11
sbs(I3
I2
tp30
g1
(g10
g3
NtRp31
(dp32
g13
F-6.1590798773178559
sg14
I3
sg15
I01
sg16
I2
sg17
I3
sbs(I1
I4
tp33
g1
(g10
g3
NtRp34
(dp35
g13
F5.2047607544394552
sg14
I1
sg15
I00
sg16
I4
sg17
I5
sbs(I6
I3
tp36
g1
(g10
g3
NtRp37
(dp38
g13
F0.13818529807609781
sg14
I6
sg15
I01
sg16
I3
sg17
I16
sbs(I3
I6
tp39
g1
(g10
g3
NtRp40
(dp41
g13
F0.80535284460423939
sg14
I3
sg15
I01
sg16
I6
sg17
I23
sbs(I2
I2
tp42
g1
(g10
g3
NtRp43
(dp44
g13
F-15.533959738133655
sg14
I2
sg15
I01
sg16
I2
sg17
I4
sbs(I4
I3
tp45
g1
(g10
g3
NtRp46
(dp47
g13
F-15.545099892025537
sg14
I4
sg15
I01
sg16
I3
sg17
I6
sbs(I2
I5
tp48
g1
(g10
g3
NtRp49
(dp50
g13
F-4.4075296865240574
sg14
I2
sg15
I01
sg16
I5
sg17
I22
sbs(I3
I4
tp51
g1
(g10
g3
NtRp52
(dp53
g13
F-6.0947180529606939
sg14
I3
sg15
I01
sg16
I4
sg17
I7
sbs(I2
I4
tp54
g1
(g10
g3
NtRp55
(dp56
g13
F13.773518982875919
sg14
I2
sg15
I00
sg16
I4
sg17
I12
sbs(I3
I5
tp57
g1
(g10
g3
NtRp58
(dp59
g13
F3.6885170342506424
sg14
I3
sg15
I01
sg16
I5
sg17
I18
sbssS'_input_nodes'
p60
I1
sS'_output_nodes'
p61
I1
sS'_node_gene_type'
p62
cneat.genome
NodeGene
p63
sS'_conn_gene_type'
p64
g10
sS'fitness'
p65
F0.91437521927211418
sS'parent2_id'
p66
I1556
sS'_id'
p67
I1592
sS'parent1_id'
p68
I1556
sS'_node_genes'
p69
(lp70
g1
(g63
g3
NtRp71
(dp72
S'_bias'
p73
I0
sS'_type'
p74
S'INPUT'
p75
sg67
I1
sS'_response'
p76
F4.9242730000000003
sS'_activation_type'
p77
Nsbag1
(g63
g3
NtRp78
(dp79
g73
F-0.98084053567178286
sg74
S'OUTPUT'
p80
sg67
I2
sg76
F7.3205520194392308
sg77
S'tanh'
p81
sbag1
(g63
g3
NtRp82
(dp83
g73
F-4.2842157460186696
sg74
S'HIDDEN'
p84
sg67
I3
sg76
F7.2425671706652865
sg77
g81
sbag1
(g63
g3
NtRp85
(dp86
g73
F-0.55904689596489876
sg74
g84
sg67
I4
sg76
F6.2021361922679077
sg77
g81
sbag1
(g63
g3
NtRp87
(dp88
g73
F-0.2657434556651585
sg74
g84
sg67
I5
sg76
F6.6739917728803917
sg77
g81
sbag1
(g63
g3
NtRp89
(dp90
g73
F0.24560833480793881
sg74
g84
sg67
I6
sg76
F4.9242730000000003
sg77
g81
sbasb.