ccopy_reg
_reconstructor
p1
(cneat.chromosome
Chromosome
p2
c__builtin__
object
p3
NtRp4
(dp5
S'species_id'
p6
I11
sS'_connection_genes'
p7
(dp8
(I1
I2
tp9
g1
(cneat.genome
ConnectionGene
p10
g3
NtRp11
(dp12
S'_ConnectionGene__weight'
p13
F-8.2225018305567072
sS'_ConnectionGene__in'
p14
I1
sS'_ConnectionGene__enabled'
p15
I01
sS'_ConnectionGene__out'
p16
I2
sS'_ConnectionGene__innov_number'
p17
I1
sbs(I6
I4
tp18
g1
(g10
g3
NtRp19
(dp20
g13
F11.282864212936632
sg14
I6
sg15
I01
sg16
I4
sg17
I26
sbs(I5
I4
tp21
g1
(g10
g3
NtRp22
(dp23
g13
F24.6617764126702
sg14
I5
sg15
I01
sg16
I4
sg17
I19
sbs(I1
I3
tp24
g1
(g10
g3
NtRp25
(dp26
g13
F2.1238366121809578
sg14
I1
sg15
I01
sg16
I3
sg17
I2
sbs(I3
I3
tp27
g1
(g10
g3
NtRp28
(dp29
g13
F-3.7451569617715226
sg14
I3
sg15
I01
sg16
I3
sg17
I9
sbs(I4
I5
tp30
g1
(g10
g3
NtRp31
(dp32
g13
F0.86856732999673469
sg14
I4
sg15
I01
sg16
I5
sg17
I20
sbs(I4
I4
tp33
g1
(g10
g3
NtRp34
(dp35
g13
F3.4859910714866524
sg14
I4
sg15
I01
sg16
I4
sg17
I11
sbs(I3
I2
tp36
g1
(g10
g3
NtRp37
(dp38
g13
F-8.2466168820483627
sg14
I3
sg15
I01
sg16
I2
sg17
I3
sbs(I1
I4
tp39
g1
(g10
g3
NtRp40
(dp41
g13
F8.1405245550910017
sg14
I1
sg15
I00
sg16
I4
sg17
I5
sbs(I1
I6
tp42
g1
(g10
g3
NtRp43
(dp44
g13
F-2.5071996345398389
sg14
I1
sg15
I01
sg16
I6
sg17
I15
sbs(I4
I3
tp45
g1
(g10
g3
NtRp46
(dp47
g13
F-12.668156133879073
sg14
I4
sg15
I01
sg16
I3
sg17
I6
sbs(I2
I2
tp48
g1
(g10
g3
NtRp49
(dp50
g13
F-10.503376012516284
sg14
I2
sg15
I01
sg16
I2
sg17
I4
sbs(I2
I5
tp51
g1
(g10
g3
NtRp52
(dp53
g13
F-3.9098078318568303
sg14
I2
sg15
I01
sg16
I5
sg17
I22
sbs(I3
I4
tp54
g1
(g10
g3
NtRp55
(dp56
g13
F5.6754154631644047
sg14
I3
sg15
I01
sg16
I4
sg17
I7
sbs(I2
I4
tp57
g1
(g10
g3
NtRp58
(dp59
g13
F12.320858502456485
sg14
I2
sg15
I00
sg16
I4
sg17
I12
sbs(I5
I3
tp60
g1
(g10
g3
NtRp61
(dp62
g13
F-6.8749845012641995
sg14
I5
sg15
I01
sg16
I3
sg17
I30
sbssS'_input_nodes'
p63
I1
sS'_output_nodes'
p64
I1
sS'_node_gene_type'
p65
cneat.genome
NodeGene
p66
sS'_conn_gene_type'
p67
g10
sS'fitness'
p68
F0.91029293193888938
sS'parent2_id'
p69
I1722
sS'_id'
p70
I1748
sS'parent1_id'
p71
I1728
sS'_node_genes'
p72
(lp73
g1
(g66
g3
NtRp74
(dp75
S'_bias'
p76
I0
sS'_type'
p77
S'INPUT'
p78
sg70
I1
sS'_response'
p79
F4.9242730000000003
sS'_activation_type'
p80
Nsbag1
(g66
g3
NtRp81
(dp82
g76
F-0.77600842658927438
sg77
S'OUTPUT'
p83
sg70
I2
sg79
F7.0030801523437693
sg80
S'tanh'
p84
sbag1
(g66
g3
NtRp85
(dp86
g76
F-1.900690266702727
sg77
S'HIDDEN'
p87
sg70
I3
sg79
F6.3261080614231728
sg80
g84
sbag1
(g66
g3
NtRp88
(dp89
g76
F-1.8596789770995894
sg77
g87
sg70
I4
sg79
F6.5101640917177059
sg80
g84
sbag1
(g66
g3
NtRp90
(dp91
g76
F-1.8995747148370596
sg77
g87
sg70
I5
sg79
F4.8667329907135377
sg80
g84
sbag1
(g66
g3
NtRp92
(dp93
g76
F0.23373238446695135
sg77
g87
sg70
I6
sg79
F5.2777009699793105
sg80
g84
sbasb.