ccopy_reg
_reconstructor
p1
(cneat.chromosome
Chromosome
p2
c__builtin__
object
p3
NtRp4
(dp5
S'species_id'
p6
I11
sS'_connection_genes'
p7
(dp8
(I1
I2
tp9
g1
(cneat.genome
ConnectionGene
p10
g3
NtRp11
(dp12
S'_ConnectionGene__weight'
p13
F-7.6803331004826862
sS'_ConnectionGene__in'
p14
I1
sS'_ConnectionGene__enabled'
p15
I01
sS'_ConnectionGene__out'
p16
I2
sS'_ConnectionGene__innov_number'
p17
I1
sbs(I6
I4
tp18
g1
(g10
g3
NtRp19
(dp20
g13
F13.000822275549409
sg14
I6
sg15
I01
sg16
I4
sg17
I26
sbs(I5
I4
tp21
g1
(g10
g3
NtRp22
(dp23
g13
F27.105302922269566
sg14
I5
sg15
I01
sg16
I4
sg17
I19
sbs(I1
I3
tp24
g1
(g10
g3
NtRp25
(dp26
g13
F2.4896877394767607
sg14
I1
sg15
I01
sg16
I3
sg17
I2
sbs(I3
I3
tp27
g1
(g10
g3
NtRp28
(dp29
g13
F-1.0600034359671782
sg14
I3
sg15
I01
sg16
I3
sg17
I9
sbs(I4
I5
tp30
g1
(g10
g3
NtRp31
(dp32
g13
F-0.16240444235277129
sg14
I4
sg15
I01
sg16
I5
sg17
I20
sbs(I4
I4
tp33
g1
(g10
g3
NtRp34
(dp35
g13
F-0.81577194989552626
sg14
I4
sg15
I01
sg16
I4
sg17
I11
sbs(I3
I2
tp36
g1
(g10
g3
NtRp37
(dp38
g13
F-7.0082655336422697
sg14
I3
sg15
I01
sg16
I2
sg17
I3
sbs(I1
I4
tp39
g1
(g10
g3
NtRp40
(dp41
g13
F8.5594527486095124
sg14
I1
sg15
I00
sg16
I4
sg17
I5
sbs(I1
I6
tp42
g1
(g10
g3
NtRp43
(dp44
g13
F-3.169364899037574
sg14
I1
sg15
I01
sg16
I6
sg17
I15
sbs(I4
I3
tp45
g1
(g10
g3
NtRp46
(dp47
g13
F-12.668156133879073
sg14
I4
sg15
I01
sg16
I3
sg17
I6
sbs(I2
I2
tp48
g1
(g10
g3
NtRp49
(dp50
g13
F-9.719630575899938
sg14
I2
sg15
I01
sg16
I2
sg17
I4
sbs(I2
I5
tp51
g1
(g10
g3
NtRp52
(dp53
g13
F-3.4904195424365025
sg14
I2
sg15
I01
sg16
I5
sg17
I22
sbs(I3
I4
tp54
g1
(g10
g3
NtRp55
(dp56
g13
F4.645932618799602
sg14
I3
sg15
I01
sg16
I4
sg17
I7
sbs(I2
I4
tp57
g1
(g10
g3
NtRp58
(dp59
g13
F12.337313957121353
sg14
I2
sg15
I00
sg16
I4
sg17
I12
sbs(I5
I3
tp60
g1
(g10
g3
NtRp61
(dp62
g13
F-0.13038156855051231
sg14
I5
sg15
I01
sg16
I3
sg17
I30
sbssS'_input_nodes'
p63
I1
sS'_output_nodes'
p64
I1
sS'_node_gene_type'
p65
cneat.genome
NodeGene
p66
sS'_conn_gene_type'
p67
g10
sS'fitness'
p68
F0.97810517018850085
sS'parent2_id'
p69
I1748
sS'_id'
p70
I1759
sS'parent1_id'
p71
I1736
sS'_node_genes'
p72
(lp73
g1
(g66
g3
NtRp74
(dp75
S'_bias'
p76
I0
sS'_type'
p77
S'INPUT'
p78
sg70
I1
sS'_response'
p79
F4.9242730000000003
sS'_activation_type'
p80
Nsbag1
(g66
g3
NtRp81
(dp82
g76
F-0.77600842658927438
sg77
S'OUTPUT'
p83
sg70
I2
sg79
F7.0030801523437693
sg80
S'tanh'
p84
sbag1
(g66
g3
NtRp85
(dp86
g76
F-1.900690266702727
sg77
S'HIDDEN'
p87
sg70
I3
sg79
F6.3261080614231728
sg80
g84
sbag1
(g66
g3
NtRp88
(dp89
g76
F-1.8596789770995894
sg77
g87
sg70
I4
sg79
F6.5440745838584524
sg80
g84
sbag1
(g66
g3
NtRp90
(dp91
g76
F-2.6112309164517393
sg77
g87
sg70
I5
sg79
F4.5568046086584282
sg80
g84
sbag1
(g66
g3
NtRp92
(dp93
g76
F0.40212545822901646
sg77
g87
sg70
I6
sg79
F5.2777009699793105
sg80
g84
sbasb.