ccopy_reg
_reconstructor
p1
(cneat.chromosome
Chromosome
p2
c__builtin__
object
p3
NtRp4
(dp5
S'species_id'
p6
I11
sS'_connection_genes'
p7
(dp8
(I1
I2
tp9
g1
(cneat.genome
ConnectionGene
p10
g3
NtRp11
(dp12
S'_ConnectionGene__weight'
p13
F-4.3061006107765643
sS'_ConnectionGene__in'
p14
I1
sS'_ConnectionGene__enabled'
p15
I01
sS'_ConnectionGene__out'
p16
I2
sS'_ConnectionGene__innov_number'
p17
I1
sbs(I6
I4
tp18
g1
(g10
g3
NtRp19
(dp20
g13
F13.02741604382944
sg14
I6
sg15
I01
sg16
I4
sg17
I26
sbs(I5
I4
tp21
g1
(g10
g3
NtRp22
(dp23
g13
F21.156427886937248
sg14
I5
sg15
I01
sg16
I4
sg17
I19
sbs(I1
I3
tp24
g1
(g10
g3
NtRp25
(dp26
g13
F-0.077174325153897883
sg14
I1
sg15
I01
sg16
I3
sg17
I2
sbs(I3
I3
tp27
g1
(g10
g3
NtRp28
(dp29
g13
F-0.32488904107000133
sg14
I3
sg15
I01
sg16
I3
sg17
I9
sbs(I4
I4
tp30
g1
(g10
g3
NtRp31
(dp32
g13
F2.3643428972717286
sg14
I4
sg15
I01
sg16
I4
sg17
I11
sbs(I3
I2
tp33
g1
(g10
g3
NtRp34
(dp35
g13
F-7.1993559150915427
sg14
I3
sg15
I01
sg16
I2
sg17
I3
sbs(I1
I4
tp36
g1
(g10
g3
NtRp37
(dp38
g13
F14.561293941557773
sg14
I1
sg15
I00
sg16
I4
sg17
I5
sbs(I1
I6
tp39
g1
(g10
g3
NtRp40
(dp41
g13
F1.2145242615681229
sg14
I1
sg15
I01
sg16
I6
sg17
I15
sbs(I4
I3
tp42
g1
(g10
g3
NtRp43
(dp44
g13
F-11.507252243736838
sg14
I4
sg15
I01
sg16
I3
sg17
I6
sbs(I2
I2
tp45
g1
(g10
g3
NtRp46
(dp47
g13
F-6.7606262279672107
sg14
I2
sg15
I01
sg16
I2
sg17
I4
sbs(I2
I5
tp48
g1
(g10
g3
NtRp49
(dp50
g13
F3.9577586229758048
sg14
I2
sg15
I01
sg16
I5
sg17
I22
sbs(I3
I4
tp51
g1
(g10
g3
NtRp52
(dp53
g13
F1.0540190037038022
sg14
I3
sg15
I01
sg16
I4
sg17
I7
sbs(I2
I4
tp54
g1
(g10
g3
NtRp55
(dp56
g13
F7.4005054806110451
sg14
I2
sg15
I00
sg16
I4
sg17
I12
sbs(I5
I3
tp57
g1
(g10
g3
NtRp58
(dp59
g13
F1.2290640218861231
sg14
I5
sg15
I01
sg16
I3
sg17
I30
sbssS'_input_nodes'
p60
I1
sS'_output_nodes'
p61
I1
sS'_node_gene_type'
p62
cneat.genome
NodeGene
p63
sS'_conn_gene_type'
p64
g10
sS'fitness'
p65
F0.80518332489266653
sS'parent2_id'
p66
I1546
sS'_id'
p67
I1563
sS'parent1_id'
p68
I1546
sS'_node_genes'
p69
(lp70
g1
(g63
g3
NtRp71
(dp72
S'_bias'
p73
I0
sS'_type'
p74
S'INPUT'
p75
sg67
I1
sS'_response'
p76
F4.9242730000000003
sS'_activation_type'
p77
Nsbag1
(g63
g3
NtRp78
(dp79
g73
F-0.5491744987606435
sg74
S'OUTPUT'
p80
sg67
I2
sg76
F7.0030801523437693
sg77
S'tanh'
p81
sbag1
(g63
g3
NtRp82
(dp83
g73
F-1.3876978517385299
sg74
S'HIDDEN'
p84
sg67
I3
sg76
F6.2418540413827364
sg77
g81
sbag1
(g63
g3
NtRp85
(dp86
g73
F-1.8850796048126068
sg74
g84
sg67
I4
sg76
F6.5101640917177059
sg77
g81
sbag1
(g63
g3
NtRp87
(dp88
g73
F-1.7372698884843203
sg74
g84
sg67
I5
sg76
F4.9202285280795213
sg77
g81
sbag1
(g63
g3
NtRp89
(dp90
g73
I0
sg74
g84
sg67
I6
sg76
F5.8888431558479803
sg77
g81
sbasb.