ccopy_reg
_reconstructor
p1
(cneat.chromosome
Chromosome
p2
c__builtin__
object
p3
NtRp4
(dp5
S'species_id'
p6
I10
sS'_connection_genes'
p7
(dp8
(I1
I2
tp9
g1
(cneat.genome
ConnectionGene
p10
g3
NtRp11
(dp12
S'_ConnectionGene__weight'
p13
F-19.409247672210256
sS'_ConnectionGene__in'
p14
I1
sS'_ConnectionGene__enabled'
p15
I01
sS'_ConnectionGene__out'
p16
I2
sS'_ConnectionGene__innov_number'
p17
I1
sbs(I5
I4
tp18
g1
(g10
g3
NtRp19
(dp20
g13
F12.90352387994243
sg14
I5
sg15
I01
sg16
I4
sg17
I19
sbs(I1
I3
tp21
g1
(g10
g3
NtRp22
(dp23
g13
F1.719848810185959
sg14
I1
sg15
I01
sg16
I3
sg17
I2
sbs(I3
I3
tp24
g1
(g10
g3
NtRp25
(dp26
g13
F-4.0220422823932385
sg14
I3
sg15
I01
sg16
I3
sg17
I9
sbs(I4
I4
tp27
g1
(g10
g3
NtRp28
(dp29
g13
F-5.1098346656932572
sg14
I4
sg15
I01
sg16
I4
sg17
I11
sbs(I3
I2
tp30
g1
(g10
g3
NtRp31
(dp32
g13
F-2.5227589607650387
sg14
I3
sg15
I01
sg16
I2
sg17
I3
sbs(I1
I4
tp33
g1
(g10
g3
NtRp34
(dp35
g13
F7.141583327865229
sg14
I1
sg15
I00
sg16
I4
sg17
I5
sbs(I4
I3
tp36
g1
(g10
g3
NtRp37
(dp38
g13
F-9.2136346198471877
sg14
I4
sg15
I01
sg16
I3
sg17
I6
sbs(I2
I2
tp39
g1
(g10
g3
NtRp40
(dp41
g13
F-9.5345497800546362
sg14
I2
sg15
I01
sg16
I2
sg17
I4
sbs(I2
I5
tp42
g1
(g10
g3
NtRp43
(dp44
g13
F-3.4330755523010268
sg14
I2
sg15
I01
sg16
I5
sg17
I22
sbs(I3
I4
tp45
g1
(g10
g3
NtRp46
(dp47
g13
F-10.13411524260284
sg14
I3
sg15
I01
sg16
I4
sg17
I7
sbs(I2
I4
tp48
g1
(g10
g3
NtRp49
(dp50
g13
F11.028709554521969
sg14
I2
sg15
I00
sg16
I4
sg17
I12
sbssS'_input_nodes'
p51
I1
sS'_output_nodes'
p52
I1
sS'_node_gene_type'
p53
cneat.genome
NodeGene
p54
sS'_conn_gene_type'
p55
g10
sS'fitness'
p56
F0.99453780746681253
sS'parent2_id'
p57
I1291
sS'_id'
p58
I1304
sS'parent1_id'
p59
I1291
sS'_node_genes'
p60
(lp61
g1
(g54
g3
NtRp62
(dp63
S'_bias'
p64
I0
sS'_type'
p65
S'INPUT'
p66
sg58
I1
sS'_response'
p67
F4.9242730000000003
sS'_activation_type'
p68
Nsbag1
(g54
g3
NtRp69
(dp70
g64
F-0.98084053567178286
sg65
S'OUTPUT'
p71
sg58
I2
sg67
F7.3205520194392308
sg68
S'tanh'
p72
sbag1
(g54
g3
NtRp73
(dp74
g64
F-3.2584860235765483
sg65
S'HIDDEN'
p75
sg58
I3
sg67
F6.3326175916481766
sg68
g72
sbag1
(g54
g3
NtRp76
(dp77
g64
F-0.65267245309259037
sg65
g75
sg58
I4
sg67
F6.1528441776853198
sg68
g72
sbag1
(g54
g3
NtRp78
(dp79
g64
F0.078580802647084266
sg65
g75
sg58
I5
sg67
F5.1944289015024401
sg68
g72
sbasb.