ccopy_reg
_reconstructor
p1
(cneat.chromosome
Chromosome
p2
c__builtin__
object
p3
NtRp4
(dp5
S'species_id'
p6
I14
sS'_connection_genes'
p7
(dp8
(I1
I2
tp9
g1
(cneat.genome
ConnectionGene
p10
g3
NtRp11
(dp12
S'_ConnectionGene__weight'
p13
F-4.9346052461685002
sS'_ConnectionGene__in'
p14
I1
sS'_ConnectionGene__enabled'
p15
I00
sS'_ConnectionGene__out'
p16
I2
sS'_ConnectionGene__innov_number'
p17
I1
sbs(I5
I4
tp18
g1
(g10
g3
NtRp19
(dp20
g13
F17.402562159602734
sg14
I5
sg15
I01
sg16
I4
sg17
I13
sbs(I1
I3
tp21
g1
(g10
g3
NtRp22
(dp23
g13
F11.654649561705495
sg14
I1
sg15
I00
sg16
I3
sg17
I2
sbs(I3
I3
tp24
g1
(g10
g3
NtRp25
(dp26
g13
F-0.083095058044798442
sg14
I3
sg15
I01
sg16
I3
sg17
I7
sbs(I5
I6
tp27
g1
(g10
g3
NtRp28
(dp29
g13
F-0.52846228971330078
sg14
I5
sg15
I01
sg16
I6
sg17
I21
sbs(I3
I2
tp30
g1
(g10
g3
NtRp31
(dp32
g13
F-24.53524554342469
sg14
I3
sg15
I01
sg16
I2
sg17
I3
sbs(I4
I7
tp33
g1
(g10
g3
NtRp34
(dp35
g13
F0.89457969122651804
sg14
I4
sg15
I01
sg16
I7
sg17
I39
sbs(I6
I3
tp36
g1
(g10
g3
NtRp37
(dp38
g13
F-15.113529468461456
sg14
I6
sg15
I01
sg16
I3
sg17
I18
sbs(I1
I5
tp39
g1
(g10
g3
NtRp40
(dp41
g13
F-2.5081731820636768
sg14
I1
sg15
I01
sg16
I5
sg17
I12
sbs(I1
I8
tp42
g1
(g10
g3
NtRp43
(dp44
g13
F1.8997250849666902
sg14
I1
sg15
I01
sg16
I8
sg17
I43
sbs(I6
I2
tp45
g1
(g10
g3
NtRp46
(dp47
g13
F7.4951537772978174
sg14
I6
sg15
I01
sg16
I2
sg17
I16
sbs(I1
I6
tp48
g1
(g10
g3
NtRp49
(dp50
g13
F4.4091359333137028
sg14
I1
sg15
I01
sg16
I6
sg17
I14
sbs(I1
I4
tp51
g1
(g10
g3
NtRp52
(dp53
g13
F-0.71615569715062843
sg14
I1
sg15
I00
sg16
I4
sg17
I5
sbs(I2
I3
tp54
g1
(g10
g3
NtRp55
(dp56
g13
F25.965474356102515
sg14
I2
sg15
I01
sg16
I3
sg17
I8
sbs(I4
I2
tp57
g1
(g10
g3
NtRp58
(dp59
g13
F-13.150718871948179
sg14
I4
sg15
I00
sg16
I2
sg17
I6
sbs(I2
I5
tp60
g1
(g10
g3
NtRp61
(dp62
g13
F-1.9156468069521013
sg14
I2
sg15
I01
sg16
I5
sg17
I22
sbs(I7
I2
tp63
g1
(g10
g3
NtRp64
(dp65
g13
F-17.241445705604576
sg14
I7
sg15
I01
sg16
I2
sg17
I40
sbs(I8
I4
tp66
g1
(g10
g3
NtRp67
(dp68
g13
F0.16875492903695333
sg14
I8
sg15
I01
sg16
I4
sg17
I44
sbssS'_input_nodes'
p69
I1
sS'_output_nodes'
p70
I1
sS'_node_gene_type'
p71
cneat.genome
NodeGene
p72
sS'_conn_gene_type'
p73
g10
sS'fitness'
p74
F0.97962325868295375
sS'parent2_id'
p75
I1611
sS'_id'
p76
I1627
sS'parent1_id'
p77
I1611
sS'_node_genes'
p78
(lp79
g1
(g72
g3
NtRp80
(dp81
S'_bias'
p82
I0
sS'_type'
p83
S'INPUT'
p84
sg76
I1
sS'_response'
p85
F4.9242730000000003
sS'_activation_type'
p86
Nsbag1
(g72
g3
NtRp87
(dp88
g82
F4.0576614956993531
sg83
S'OUTPUT'
p89
sg76
I2
sg85
F6.5924728730063107
sg86
S'tanh'
p90
sbag1
(g72
g3
NtRp91
(dp92
g82
F0.82060572311361779
sg83
S'HIDDEN'
p93
sg76
I3
sg85
F1.4331505345444313
sg86
g90
sbag1
(g72
g3
NtRp94
(dp95
g82
F-0.89596110659447104
sg83
g93
sg76
I4
sg85
F4.7864910846420488
sg86
g90
sbag1
(g72
g3
NtRp96
(dp97
g82
F-1.5884171368969366
sg83
g93
sg76
I5
sg85
F6.6353436232072731
sg86
g90
sbag1
(g72
g3
NtRp98
(dp99
g82
F-0.40129094355981904
sg83
g93
sg76
I6
sg85
F5.1074064945448283
sg86
g90
sbag1
(g72
g3
NtRp100
(dp101
g82
F0.19781129678490272
sg83
g93
sg76
I7
sg85
F5.2445200059590702
sg86
g90
sbag1
(g72
g3
NtRp102
(dp103
g82
I0
sg83
g93
sg76
I8
sg85
F4.9242730000000003
sg86
g90
sbasb.