ccopy_reg
_reconstructor
p1
(cneat.chromosome
Chromosome
p2
c__builtin__
object
p3
NtRp4
(dp5
S'species_id'
p6
I12
sS'_connection_genes'
p7
(dp8
(I1
I2
tp9
g1
(cneat.genome
ConnectionGene
p10
g3
NtRp11
(dp12
S'_ConnectionGene__weight'
p13
F-2.0850137447081516
sS'_ConnectionGene__in'
p14
I1
sS'_ConnectionGene__enabled'
p15
I00
sS'_ConnectionGene__out'
p16
I2
sS'_ConnectionGene__innov_number'
p17
I1
sbs(I5
I4
tp18
g1
(g10
g3
NtRp19
(dp20
g13
F5.2092644780939175
sg14
I5
sg15
I01
sg16
I4
sg17
I13
sbs(I1
I3
tp21
g1
(g10
g3
NtRp22
(dp23
g13
F10.497788822069721
sg14
I1
sg15
I00
sg16
I3
sg17
I2
sbs(I3
I3
tp24
g1
(g10
g3
NtRp25
(dp26
g13
F6.0873109088535955
sg14
I3
sg15
I01
sg16
I3
sg17
I7
sbs(I5
I6
tp27
g1
(g10
g3
NtRp28
(dp29
g13
F0.00021559227685807869
sg14
I5
sg15
I01
sg16
I6
sg17
I21
sbs(I3
I2
tp30
g1
(g10
g3
NtRp31
(dp32
g13
F-24.308254752769852
sg14
I3
sg15
I01
sg16
I2
sg17
I3
sbs(I1
I4
tp33
g1
(g10
g3
NtRp34
(dp35
g13
F-1.6218653814016077
sg14
I1
sg15
I00
sg16
I4
sg17
I5
sbs(I6
I3
tp36
g1
(g10
g3
NtRp37
(dp38
g13
F-5.5972803452105309
sg14
I6
sg15
I01
sg16
I3
sg17
I18
sbs(I1
I5
tp39
g1
(g10
g3
NtRp40
(dp41
g13
F-1.5310454405842839
sg14
I1
sg15
I01
sg16
I5
sg17
I12
sbs(I6
I2
tp42
g1
(g10
g3
NtRp43
(dp44
g13
F-0.67592671161911455
sg14
I6
sg15
I01
sg16
I2
sg17
I16
sbs(I1
I6
tp45
g1
(g10
g3
NtRp46
(dp47
g13
F0.82204887697564166
sg14
I1
sg15
I01
sg16
I6
sg17
I14
sbs(I4
I2
tp48
g1
(g10
g3
NtRp49
(dp50
g13
F-3.2824010185285362
sg14
I4
sg15
I01
sg16
I2
sg17
I6
sbs(I2
I3
tp51
g1
(g10
g3
NtRp52
(dp53
g13
F19.159680219910207
sg14
I2
sg15
I01
sg16
I3
sg17
I8
sbssS'_input_nodes'
p54
I1
sS'_output_nodes'
p55
I1
sS'_node_gene_type'
p56
cneat.genome
NodeGene
p57
sS'_conn_gene_type'
p58
g10
sS'fitness'
p59
F0.94802233498560584
sS'parent2_id'
p60
I1289
sS'_id'
p61
I1310
sS'parent1_id'
p62
I1289
sS'_node_genes'
p63
(lp64
g1
(g57
g3
NtRp65
(dp66
S'_bias'
p67
I0
sS'_type'
p68
S'INPUT'
p69
sg61
I1
sS'_response'
p70
F4.9242730000000003
sS'_activation_type'
p71
Nsbag1
(g57
g3
NtRp72
(dp73
g67
F4.0811821923639062
sg68
S'OUTPUT'
p74
sg61
I2
sg70
F6.4068813024236837
sg71
S'tanh'
p75
sbag1
(g57
g3
NtRp76
(dp77
g67
F0.83287762832669587
sg68
S'HIDDEN'
p78
sg61
I3
sg70
F1.1857178463387517
sg71
g75
sbag1
(g57
g3
NtRp79
(dp80
g67
F-0.9225850851596944
sg68
g78
sg61
I4
sg70
F5.7892805410401955
sg71
g75
sbag1
(g57
g3
NtRp81
(dp82
g67
F-0.47224029512692939
sg68
g78
sg61
I5
sg70
F7.5609869225488806
sg71
g75
sbag1
(g57
g3
NtRp83
(dp84
g67
F-0.12798889228103066
sg68
g78
sg61
I6
sg70
F5.5347754279012529
sg71
g75
sbasb.