ccopy_reg
_reconstructor
p1
(cneat.chromosome
Chromosome
p2
c__builtin__
object
p3
NtRp4
(dp5
S'species_id'
p6
I13
sS'_connection_genes'
p7
(dp8
(I1
I2
tp9
g1
(cneat.genome
ConnectionGene
p10
g3
NtRp11
(dp12
S'_ConnectionGene__weight'
p13
F13.558537965084469
sS'_ConnectionGene__in'
p14
I1
sS'_ConnectionGene__enabled'
p15
I01
sS'_ConnectionGene__out'
p16
I2
sS'_ConnectionGene__innov_number'
p17
I1
sbs(I6
I4
tp18
g1
(g10
g3
NtRp19
(dp20
g13
F4.0148132496151092
sg14
I6
sg15
I01
sg16
I4
sg17
I25
sbs(I5
I4
tp21
g1
(g10
g3
NtRp22
(dp23
g13
F6.3353988423462777
sg14
I5
sg15
I01
sg16
I4
sg17
I13
sbs(I1
I3
tp24
g1
(g10
g3
NtRp25
(dp26
g13
F2.1138267674943956
sg14
I1
sg15
I01
sg16
I3
sg17
I2
sbs(I3
I3
tp27
g1
(g10
g3
NtRp28
(dp29
g13
F20.87102382119334
sg14
I3
sg15
I01
sg16
I3
sg17
I7
sbs(I5
I6
tp30
g1
(g10
g3
NtRp31
(dp32
g13
F8.3488093921005753
sg14
I5
sg15
I01
sg16
I6
sg17
I21
sbs(I3
I2
tp33
g1
(g10
g3
NtRp34
(dp35
g13
F-10.174601829146685
sg14
I3
sg15
I01
sg16
I2
sg17
I3
sbs(I1
I4
tp36
g1
(g10
g3
NtRp37
(dp38
g13
F4.1033452623382338
sg14
I1
sg15
I00
sg16
I4
sg17
I5
sbs(I1
I5
tp39
g1
(g10
g3
NtRp40
(dp41
g13
F-1.2264961893953217
sg14
I1
sg15
I01
sg16
I5
sg17
I12
sbs(I2
I3
tp42
g1
(g10
g3
NtRp43
(dp44
g13
F9.5871340462087424
sg14
I2
sg15
I01
sg16
I3
sg17
I8
sbs(I4
I2
tp45
g1
(g10
g3
NtRp46
(dp47
g13
F-20.593434063328555
sg14
I4
sg15
I01
sg16
I2
sg17
I6
sbssS'_input_nodes'
p48
I1
sS'_output_nodes'
p49
I1
sS'_node_gene_type'
p50
cneat.genome
NodeGene
p51
sS'_conn_gene_type'
p52
g10
sS'fitness'
p53
F0.96866373928318927
sS'parent2_id'
p54
I1527
sS'_id'
p55
I1548
sS'parent1_id'
p56
I1528
sS'_node_genes'
p57
(lp58
g1
(g51
g3
NtRp59
(dp60
S'_bias'
p61
I0
sS'_type'
p62
S'INPUT'
p63
sg55
I1
sS'_response'
p64
F4.9242730000000003
sS'_activation_type'
p65
Nsbag1
(g51
g3
NtRp66
(dp67
g61
F-1.4364836092044506
sg62
S'OUTPUT'
p68
sg55
I2
sg64
F5.6470834706943887
sg65
S'tanh'
p69
sbag1
(g51
g3
NtRp70
(dp71
g61
F1.6739732371517819
sg62
S'HIDDEN'
p72
sg55
I3
sg64
F0.6638670466717087
sg65
g69
sbag1
(g51
g3
NtRp73
(dp74
g61
F0.60468380585321757
sg62
g72
sg55
I4
sg64
F4.0581081446550105
sg65
g69
sbag1
(g51
g3
NtRp75
(dp76
g61
F-1.4633440181577744
sg62
g72
sg55
I5
sg64
F3.9594860241005869
sg65
g69
sbag1
(g51
g3
NtRp77
(dp78
g61
F0.10799461518917849
sg62
g72
sg55
I6
sg64
F4.9926780402304178
sg65
g69
sbasb.