ccopy_reg
_reconstructor
p1
(cneat.chromosome
Chromosome
p2
c__builtin__
object
p3
NtRp4
(dp5
S'species_id'
p6
I16
sS'_connection_genes'
p7
(dp8
(I1
I2
tp9
g1
(cneat.genome
ConnectionGene
p10
g3
NtRp11
(dp12
S'_ConnectionGene__weight'
p13
F17.428726072088821
sS'_ConnectionGene__in'
p14
I1
sS'_ConnectionGene__enabled'
p15
I01
sS'_ConnectionGene__out'
p16
I2
sS'_ConnectionGene__innov_number'
p17
I1
sbs(I6
I4
tp18
g1
(g10
g3
NtRp19
(dp20
g13
F7.6430678591310208
sg14
I6
sg15
I01
sg16
I4
sg17
I25
sbs(I5
I4
tp21
g1
(g10
g3
NtRp22
(dp23
g13
F1.1740815216102267
sg14
I5
sg15
I01
sg16
I4
sg17
I13
sbs(I1
I3
tp24
g1
(g10
g3
NtRp25
(dp26
g13
F1.8592344427710428
sg14
I1
sg15
I01
sg16
I3
sg17
I2
sbs(I3
I3
tp27
g1
(g10
g3
NtRp28
(dp29
g13
F25.3540598327371
sg14
I3
sg15
I01
sg16
I3
sg17
I7
sbs(I6
I6
tp30
g1
(g10
g3
NtRp31
(dp32
g13
F0.74106909409137944
sg14
I6
sg15
I01
sg16
I6
sg17
I36
sbs(I5
I6
tp33
g1
(g10
g3
NtRp34
(dp35
g13
F2.5104012027294629
sg14
I5
sg15
I01
sg16
I6
sg17
I21
sbs(I3
I2
tp36
g1
(g10
g3
NtRp37
(dp38
g13
F-18.616597910444831
sg14
I3
sg15
I01
sg16
I2
sg17
I3
sbs(I1
I4
tp39
g1
(g10
g3
NtRp40
(dp41
g13
F2.5497350488192927
sg14
I1
sg15
I01
sg16
I4
sg17
I5
sbs(I1
I5
tp42
g1
(g10
g3
NtRp43
(dp44
g13
F-7.4767106455290602
sg14
I1
sg15
I01
sg16
I5
sg17
I12
sbs(I2
I3
tp45
g1
(g10
g3
NtRp46
(dp47
g13
F4.7570891742998631
sg14
I2
sg15
I01
sg16
I3
sg17
I8
sbs(I4
I2
tp48
g1
(g10
g3
NtRp49
(dp50
g13
F-21.014621792487137
sg14
I4
sg15
I01
sg16
I2
sg17
I6
sbssS'_input_nodes'
p51
I1
sS'_output_nodes'
p52
I1
sS'_node_gene_type'
p53
cneat.genome
NodeGene
p54
sS'_conn_gene_type'
p55
g10
sS'fitness'
p56
F0.94011542033767548
sS'parent2_id'
p57
I1760
sS'_id'
p58
I1782
sS'parent1_id'
p59
I1760
sS'_node_genes'
p60
(lp61
g1
(g54
g3
NtRp62
(dp63
S'_bias'
p64
I0
sS'_type'
p65
S'INPUT'
p66
sg58
I1
sS'_response'
p67
F4.9242730000000003
sS'_activation_type'
p68
Nsbag1
(g54
g3
NtRp69
(dp70
g64
F-1.4364836092044506
sg65
S'OUTPUT'
p71
sg58
I2
sg67
F5.6470834706943887
sg68
S'tanh'
p72
sbag1
(g54
g3
NtRp73
(dp74
g64
F1.6739732371517819
sg65
S'HIDDEN'
p75
sg58
I3
sg67
F1.1597057117874128
sg68
g72
sbag1
(g54
g3
NtRp76
(dp77
g64
F1.1406778397502202
sg65
g75
sg58
I4
sg67
F4.9941366773557894
sg68
g72
sbag1
(g54
g3
NtRp78
(dp79
g64
F-1.4633440181577744
sg65
g75
sg58
I5
sg67
F3.9608894022345189
sg68
g72
sbag1
(g54
g3
NtRp80
(dp81
g64
F-0.14285445495766202
sg65
g75
sg58
I6
sg67
F4.9926780402304178
sg68
g72
sbasb.