ccopy_reg
_reconstructor
p1
(cneat.chromosome
Chromosome
p2
c__builtin__
object
p3
NtRp4
(dp5
S'species_id'
p6
I12
sS'_connection_genes'
p7
(dp8
(I1
I2
tp9
g1
(cneat.genome
ConnectionGene
p10
g3
NtRp11
(dp12
S'_ConnectionGene__weight'
p13
F-0.20389333546866067
sS'_ConnectionGene__in'
p14
I1
sS'_ConnectionGene__enabled'
p15
I00
sS'_ConnectionGene__out'
p16
I2
sS'_ConnectionGene__innov_number'
p17
I1
sbs(I5
I4
tp18
g1
(g10
g3
NtRp19
(dp20
g13
F6.1445493835767024
sg14
I5
sg15
I01
sg16
I4
sg17
I13
sbs(I1
I3
tp21
g1
(g10
g3
NtRp22
(dp23
g13
F10.100183280264213
sg14
I1
sg15
I00
sg16
I3
sg17
I2
sbs(I3
I3
tp24
g1
(g10
g3
NtRp25
(dp26
g13
F2.7280665940449995
sg14
I3
sg15
I01
sg16
I3
sg17
I7
sbs(I5
I6
tp27
g1
(g10
g3
NtRp28
(dp29
g13
F-4.6108335243355469
sg14
I5
sg15
I01
sg16
I6
sg17
I21
sbs(I3
I2
tp30
g1
(g10
g3
NtRp31
(dp32
g13
F-23.925094294594786
sg14
I3
sg15
I01
sg16
I2
sg17
I3
sbs(I1
I4
tp33
g1
(g10
g3
NtRp34
(dp35
g13
F-0.23974820314755396
sg14
I1
sg15
I00
sg16
I4
sg17
I5
sbs(I6
I3
tp36
g1
(g10
g3
NtRp37
(dp38
g13
F-8.7102656290899603
sg14
I6
sg15
I01
sg16
I3
sg17
I18
sbs(I1
I5
tp39
g1
(g10
g3
NtRp40
(dp41
g13
F-4.0871211448278011
sg14
I1
sg15
I01
sg16
I5
sg17
I12
sbs(I6
I2
tp42
g1
(g10
g3
NtRp43
(dp44
g13
F-1.6094712695659017
sg14
I6
sg15
I01
sg16
I2
sg17
I16
sbs(I1
I6
tp45
g1
(g10
g3
NtRp46
(dp47
g13
F-0.32544280020661542
sg14
I1
sg15
I01
sg16
I6
sg17
I14
sbs(I2
I3
tp48
g1
(g10
g3
NtRp49
(dp50
g13
F20.837286600934902
sg14
I2
sg15
I01
sg16
I3
sg17
I8
sbs(I4
I2
tp51
g1
(g10
g3
NtRp52
(dp53
g13
F-7.7792323195577007
sg14
I4
sg15
I01
sg16
I2
sg17
I6
sbs(I2
I5
tp54
g1
(g10
g3
NtRp55
(dp56
g13
F2.1406411248506649
sg14
I2
sg15
I01
sg16
I5
sg17
I22
sbssS'_input_nodes'
p57
I1
sS'_output_nodes'
p58
I1
sS'_node_gene_type'
p59
cneat.genome
NodeGene
p60
sS'_conn_gene_type'
p61
g10
sS'fitness'
p62
F0.92617584896159777
sS'parent2_id'
p63
I1399
sS'_id'
p64
I1414
sS'parent1_id'
p65
I1399
sS'_node_genes'
p66
(lp67
g1
(g60
g3
NtRp68
(dp69
S'_bias'
p70
I0
sS'_type'
p71
S'INPUT'
p72
sg64
I1
sS'_response'
p73
F4.9242730000000003
sS'_activation_type'
p74
Nsbag1
(g60
g3
NtRp75
(dp76
g70
F4.2760510845777793
sg71
S'OUTPUT'
p77
sg64
I2
sg73
F6.4068813024236837
sg74
S'tanh'
p78
sbag1
(g60
g3
NtRp79
(dp80
g70
F0.83287762832669587
sg71
S'HIDDEN'
p81
sg64
I3
sg73
F0.90171564433689988
sg74
g78
sbag1
(g60
g3
NtRp82
(dp83
g70
F-0.79711849413816693
sg71
g81
sg64
I4
sg73
F4.7304310366072029
sg74
g78
sbag1
(g60
g3
NtRp84
(dp85
g70
F-0.85134427899313136
sg71
g81
sg64
I5
sg73
F7.3784807466486342
sg74
g78
sbag1
(g60
g3
NtRp86
(dp87
g70
F-0.40129094355981904
sg71
g81
sg64
I6
sg73
F5.0698933041668051
sg74
g78
sbasb.