ccopy_reg
_reconstructor
p1
(cneat.chromosome
Chromosome
p2
c__builtin__
object
p3
NtRp4
(dp5
S'species_id'
p6
I3
sS'_connection_genes'
p7
(dp8
(I1
I2
tp9
g1
(cneat.genome
ConnectionGene
p10
g3
NtRp11
(dp12
S'_ConnectionGene__weight'
p13
F5.7706660215270817
sS'_ConnectionGene__in'
p14
I1
sS'_ConnectionGene__enabled'
p15
I01
sS'_ConnectionGene__out'
p16
I2
sS'_ConnectionGene__innov_number'
p17
I1
sbssS'_input_nodes'
p18
I1
sS'_output_nodes'
p19
I1
sS'_node_gene_type'
p20
cneat.genome
NodeGene
p21
sS'_conn_gene_type'
p22
g10
sS'fitness'
p23
F0.96715786638852708
sS'parent2_id'
p24
I89
sS'_id'
p25
I110
sS'parent1_id'
p26
I89
sS'_node_genes'
p27
(lp28
g1
(g21
g3
NtRp29
(dp30
S'_bias'
p31
I0
sS'_type'
p32
S'INPUT'
p33
sg25
I1
sS'_response'
p34
F4.9242730000000003
sS'_activation_type'
p35
Nsbag1
(g21
g3
NtRp36
(dp37
g31
F1.3825493864768759
sg32
S'OUTPUT'
p38
sg25
I2
sg34
F4.7470494990434338
sg35
S'tanh'
p39
sbasb.