ccopy_reg
_reconstructor
p1
(cneat.chromosome
Chromosome
p2
c__builtin__
object
p3
NtRp4
(dp5
S'species_id'
p6
I12
sS'_connection_genes'
p7
(dp8
(I1
I2
tp9
g1
(cneat.genome
ConnectionGene
p10
g3
NtRp11
(dp12
S'_ConnectionGene__weight'
p13
F-6.6050486171661369
sS'_ConnectionGene__in'
p14
I1
sS'_ConnectionGene__enabled'
p15
I00
sS'_ConnectionGene__out'
p16
I2
sS'_ConnectionGene__innov_number'
p17
I1
sbs(I5
I4
tp18
g1
(g10
g3
NtRp19
(dp20
g13
F8.848238942720517
sg14
I5
sg15
I01
sg16
I4
sg17
I13
sbs(I1
I3
tp21
g1
(g10
g3
NtRp22
(dp23
g13
F10.119291486889558
sg14
I1
sg15
I00
sg16
I3
sg17
I2
sbs(I3
I3
tp24
g1
(g10
g3
NtRp25
(dp26
g13
F-2.4637661996054976
sg14
I3
sg15
I01
sg16
I3
sg17
I7
sbs(I4
I7
tp27
g1
(g10
g3
NtRp28
(dp29
g13
F1
sg14
I4
sg15
I01
sg16
I7
sg17
I39
sbs(I5
I6
tp30
g1
(g10
g3
NtRp31
(dp32
g13
F-1.427777132110795
sg14
I5
sg15
I01
sg16
I6
sg17
I21
sbs(I3
I2
tp33
g1
(g10
g3
NtRp34
(dp35
g13
F-22.827915600294503
sg14
I3
sg15
I01
sg16
I2
sg17
I3
sbs(I1
I4
tp36
g1
(g10
g3
NtRp37
(dp38
g13
F1.2074336650239677
sg14
I1
sg15
I00
sg16
I4
sg17
I5
sbs(I6
I3
tp39
g1
(g10
g3
NtRp40
(dp41
g13
F-12.393883249920831
sg14
I6
sg15
I01
sg16
I3
sg17
I18
sbs(I1
I5
tp42
g1
(g10
g3
NtRp43
(dp44
g13
F-3.392782726081665
sg14
I1
sg15
I01
sg16
I5
sg17
I12
sbs(I6
I2
tp45
g1
(g10
g3
NtRp46
(dp47
g13
F5.9405873142853736
sg14
I6
sg15
I01
sg16
I2
sg17
I16
sbs(I1
I6
tp48
g1
(g10
g3
NtRp49
(dp50
g13
F5.4216098722046935
sg14
I1
sg15
I01
sg16
I6
sg17
I14
sbs(I2
I3
tp51
g1
(g10
g3
NtRp52
(dp53
g13
F23.720736324134769
sg14
I2
sg15
I01
sg16
I3
sg17
I8
sbs(I4
I2
tp54
g1
(g10
g3
NtRp55
(dp56
g13
F-12.641703059624676
sg14
I4
sg15
I00
sg16
I2
sg17
I6
sbs(I2
I5
tp57
g1
(g10
g3
NtRp58
(dp59
g13
F-2.2219747074656357
sg14
I2
sg15
I01
sg16
I5
sg17
I22
sbs(I7
I2
tp60
g1
(g10
g3
NtRp61
(dp62
g13
F-12.641703059624676
sg14
I7
sg15
I01
sg16
I2
sg17
I40
sbssS'_input_nodes'
p63
I1
sS'_output_nodes'
p64
I1
sS'_node_gene_type'
p65
cneat.genome
NodeGene
p66
sS'_conn_gene_type'
p67
g10
sS'fitness'
p68
F0.97688772660956091
sS'parent2_id'
p69
I1503
sS'_id'
p70
I1519
sS'parent1_id'
p71
I1503
sS'_node_genes'
p72
(lp73
g1
(g66
g3
NtRp74
(dp75
S'_bias'
p76
I0
sS'_type'
p77
S'INPUT'
p78
sg70
I1
sS'_response'
p79
F4.9242730000000003
sS'_activation_type'
p80
Nsbag1
(g66
g3
NtRp81
(dp82
g76
F4.2760510845777793
sg77
S'OUTPUT'
p83
sg70
I2
sg79
F5.422049353963776
sg80
S'tanh'
p84
sbag1
(g66
g3
NtRp85
(dp86
g76
F0.82060572311361779
sg77
S'HIDDEN'
p87
sg70
I3
sg79
F1.4331505345444313
sg80
g84
sbag1
(g66
g3
NtRp88
(dp89
g76
F-0.79730342823783451
sg77
g87
sg70
I4
sg79
F4.708701548262276
sg80
g84
sbag1
(g66
g3
NtRp90
(dp91
g76
F-0.85134427899313136
sg77
g87
sg70
I5
sg79
F6.8061730923265316
sg80
g84
sbag1
(g66
g3
NtRp92
(dp93
g76
F-0.40129094355981904
sg77
g87
sg70
I6
sg79
F4.3562072017378117
sg80
g84
sbag1
(g66
g3
NtRp94
(dp95
g76
I0
sg77
g87
sg70
I7
sg79
F4.9242730000000003
sg80
g84
sbasb.