ccopy_reg
_reconstructor
p1
(cneat.chromosome
Chromosome
p2
c__builtin__
object
p3
NtRp4
(dp5
S'species_id'
p6
I8
sS'_connection_genes'
p7
(dp8
(I1
I2
tp9
g1
(cneat.genome
ConnectionGene
p10
g3
NtRp11
(dp12
S'_ConnectionGene__weight'
p13
F2.6804936128446153
sS'_ConnectionGene__in'
p14
I1
sS'_ConnectionGene__enabled'
p15
I00
sS'_ConnectionGene__out'
p16
I2
sS'_ConnectionGene__innov_number'
p17
I1
sbs(I5
I4
tp18
g1
(g10
g3
NtRp19
(dp20
g13
F6.6559525515643543
sg14
I5
sg15
I01
sg16
I4
sg17
I13
sbs(I1
I3
tp21
g1
(g10
g3
NtRp22
(dp23
g13
F-2.0442691111276297
sg14
I1
sg15
I00
sg16
I3
sg17
I2
sbs(I3
I3
tp24
g1
(g10
g3
NtRp25
(dp26
g13
F4.9586365574896973
sg14
I3
sg15
I01
sg16
I3
sg17
I7
sbs(I5
I6
tp27
g1
(g10
g3
NtRp28
(dp29
g13
F-1.436460474819456
sg14
I5
sg15
I01
sg16
I6
sg17
I21
sbs(I3
I2
tp30
g1
(g10
g3
NtRp31
(dp32
g13
F-12.580548150428228
sg14
I3
sg15
I01
sg16
I2
sg17
I3
sbs(I1
I4
tp33
g1
(g10
g3
NtRp34
(dp35
g13
F4.7645607440009119
sg14
I1
sg15
I00
sg16
I4
sg17
I5
sbs(I6
I3
tp36
g1
(g10
g3
NtRp37
(dp38
g13
F0.86162645655338488
sg14
I6
sg15
I01
sg16
I3
sg17
I18
sbs(I1
I5
tp39
g1
(g10
g3
NtRp40
(dp41
g13
F-0.96353511574826989
sg14
I1
sg15
I01
sg16
I5
sg17
I12
sbs(I1
I6
tp42
g1
(g10
g3
NtRp43
(dp44
g13
F0.8268493426925243
sg14
I1
sg15
I01
sg16
I6
sg17
I14
sbs(I4
I2
tp45
g1
(g10
g3
NtRp46
(dp47
g13
F-5.482709186377873
sg14
I4
sg15
I01
sg16
I2
sg17
I6
sbs(I2
I3
tp48
g1
(g10
g3
NtRp49
(dp50
g13
F9.7282383590446209
sg14
I2
sg15
I01
sg16
I3
sg17
I8
sbssS'_input_nodes'
p51
I1
sS'_output_nodes'
p52
I1
sS'_node_gene_type'
p53
cneat.genome
NodeGene
p54
sS'_conn_gene_type'
p55
g10
sS'fitness'
p56
F0.98405405428285042
sS'parent2_id'
p57
I861
sS'_id'
p58
I904
sS'parent1_id'
p59
I861
sS'_node_genes'
p60
(lp61
g1
(g54
g3
NtRp62
(dp63
S'_bias'
p64
I0
sS'_type'
p65
S'INPUT'
p66
sg58
I1
sS'_response'
p67
F4.9242730000000003
sS'_activation_type'
p68
Nsbag1
(g54
g3
NtRp69
(dp70
g64
F3.4363997114488538
sg65
S'OUTPUT'
p71
sg58
I2
sg67
F5.9086974813024291
sg68
S'tanh'
p72
sbag1
(g54
g3
NtRp73
(dp74
g64
F0.17684700937076692
sg65
S'HIDDEN'
p75
sg58
I3
sg67
F1.9887334150224811
sg68
g72
sbag1
(g54
g3
NtRp76
(dp77
g64
F0.98501383828175049
sg65
g75
sg58
I4
sg67
F5.22220755043874
sg68
g72
sbag1
(g54
g3
NtRp78
(dp79
g64
F-0.61917123396956741
sg65
g75
sg58
I5
sg67
F5.7485370167151952
sg68
g72
sbag1
(g54
g3
NtRp80
(dp81
g64
F0.017652282051712542
sg65
g75
sg58
I6
sg67
F4.5790193278141293
sg68
g72
sbasb.