ccopy_reg
_reconstructor
p1
(cneat.chromosome
Chromosome
p2
c__builtin__
object
p3
NtRp4
(dp5
S'species_id'
p6
I27
sS'_connection_genes'
p7
(dp8
(I1
I2
tp9
g1
(cneat.genome
ConnectionGene
p10
g3
NtRp11
(dp12
S'_ConnectionGene__weight'
p13
F4.9645847237248626
sS'_ConnectionGene__in'
p14
I1
sS'_ConnectionGene__enabled'
p15
I01
sS'_ConnectionGene__out'
p16
I2
sS'_ConnectionGene__innov_number'
p17
I1
sbs(I3
I2
tp18
g1
(g10
g3
NtRp19
(dp20
g13
F-23.901179911706087
sg14
I3
sg15
I01
sg16
I2
sg17
I4
sbs(I1
I3
tp21
g1
(g10
g3
NtRp22
(dp23
g13
F13.858752189149591
sg14
I1
sg15
I01
sg16
I3
sg17
I3
sbs(I3
I3
tp24
g1
(g10
g3
NtRp25
(dp26
g13
F-7.6861973418005274
sg14
I3
sg15
I01
sg16
I3
sg17
I6
sbs(I4
I5
tp27
g1
(g10
g3
NtRp28
(dp29
g13
F6.7986948603418131
sg14
I4
sg15
I01
sg16
I5
sg17
I19
sbs(I4
I4
tp30
g1
(g10
g3
NtRp31
(dp32
g13
F9.6194303973689479
sg14
I4
sg15
I01
sg16
I4
sg17
I12
sbs(I3
I5
tp33
g1
(g10
g3
NtRp34
(dp35
g13
F3.2329573075361822
sg14
I3
sg15
I01
sg16
I5
sg17
I13
sbs(I3
I6
tp36
g1
(g10
g3
NtRp37
(dp38
g13
F0.39609078090301514
sg14
I3
sg15
I01
sg16
I6
sg17
I22
sbs(I2
I6
tp39
g1
(g10
g3
NtRp40
(dp41
g13
F-13.524283048090824
sg14
I2
sg15
I01
sg16
I6
sg17
I33
sbs(I2
I3
tp42
g1
(g10
g3
NtRp43
(dp44
g13
F-2.9185763317429143
sg14
I2
sg15
I01
sg16
I3
sg17
I5
sbs(I4
I3
tp45
g1
(g10
g3
NtRp46
(dp47
g13
F4.8398117409500587
sg14
I4
sg15
I00
sg16
I3
sg17
I10
sbs(I2
I2
tp48
g1
(g10
g3
NtRp49
(dp50
g13
F-29.126005539987659
sg14
I2
sg15
I00
sg16
I2
sg17
I2
sbs(I6
I2
tp51
g1
(g10
g3
NtRp52
(dp53
g13
F-19.882724405708618
sg14
I6
sg15
I01
sg16
I2
sg17
I23
sbs(I5
I3
tp54
g1
(g10
g3
NtRp55
(dp56
g13
F11.743730060923651
sg14
I5
sg15
I01
sg16
I3
sg17
I15
sbs(I3
I4
tp57
g1
(g10
g3
NtRp58
(dp59
g13
F2.8757843959761349
sg14
I3
sg15
I01
sg16
I4
sg17
I11
sbs(I2
I4
tp60
g1
(g10
g3
NtRp61
(dp62
g13
F20.524500092130246
sg14
I2
sg15
I01
sg16
I4
sg17
I7
sbs(I5
I5
tp63
g1
(g10
g3
NtRp64
(dp65
g13
F-0.38320405223108173
sg14
I5
sg15
I01
sg16
I5
sg17
I24
sbssS'_input_nodes'
p66
I1
sS'_output_nodes'
p67
I1
sS'_node_gene_type'
p68
cneat.genome
NodeGene
p69
sS'_conn_gene_type'
p70
g10
sS'fitness'
p71
F0.0090838660142234934
sS'parent2_id'
p72
I3260
sS'_id'
p73
I3277
sS'parent1_id'
p74
I3260
sS'_node_genes'
p75
(lp76
g1
(g69
g3
NtRp77
(dp78
S'_bias'
p79
I0
sS'_type'
p80
S'INPUT'
p81
sg73
I1
sS'_response'
p82
F4.9242730000000003
sS'_activation_type'
p83
Nsbag1
(g69
g3
NtRp84
(dp85
g79
F0.64333954491202971
sg80
S'OUTPUT'
p86
sg73
I2
sg82
F6.1663701672032678
sg83
S'tanh'
p87
sbag1
(g69
g3
NtRp88
(dp89
g79
F-2.2917840036698696
sg80
S'HIDDEN'
p90
sg73
I3
sg82
F3.7443242948427611
sg83
g87
sbag1
(g69
g3
NtRp91
(dp92
g79
F-1.2548760420308704
sg80
g90
sg73
I4
sg82
F4.7197776141770458
sg83
g87
sbag1
(g69
g3
NtRp93
(dp94
g79
F-1.8843364718440268
sg80
g90
sg73
I5
sg82
F5.6097501660134492
sg83
g87
sbag1
(g69
g3
NtRp95
(dp96
g79
I0
sg80
g90
sg73
I6
sg82
F4.4206164676265898
sg83
g87
sbasb.