ccopy_reg
_reconstructor
p1
(cneat.chromosome
Chromosome
p2
c__builtin__
object
p3
NtRp4
(dp5
S'species_id'
p6
I9
sS'_connection_genes'
p7
(dp8
(I1
I2
tp9
g1
(cneat.genome
ConnectionGene
p10
g3
NtRp11
(dp12
S'_ConnectionGene__weight'
p13
F-24.259632375063042
sS'_ConnectionGene__in'
p14
I1
sS'_ConnectionGene__enabled'
p15
I01
sS'_ConnectionGene__out'
p16
I2
sS'_ConnectionGene__innov_number'
p17
I1
sbs(I3
I2
tp18
g1
(g10
g3
NtRp19
(dp20
g13
F-5.8347264061567223
sg14
I3
sg15
I01
sg16
I2
sg17
I4
sbs(I1
I3
tp21
g1
(g10
g3
NtRp22
(dp23
g13
F-7.2093506926208555
sg14
I1
sg15
I01
sg16
I3
sg17
I3
sbs(I3
I3
tp24
g1
(g10
g3
NtRp25
(dp26
g13
F-8.482824798229494
sg14
I3
sg15
I00
sg16
I3
sg17
I6
sbs(I1
I4
tp27
g1
(g10
g3
NtRp28
(dp29
g13
F-3.9235503017099016
sg14
I1
sg15
I01
sg16
I4
sg17
I9
sbs(I2
I3
tp30
g1
(g10
g3
NtRp31
(dp32
g13
F-18.396115838678359
sg14
I2
sg15
I01
sg16
I3
sg17
I5
sbs(I4
I3
tp33
g1
(g10
g3
NtRp34
(dp35
g13
F1.1792320555921822
sg14
I4
sg15
I01
sg16
I3
sg17
I10
sbs(I2
I2
tp36
g1
(g10
g3
NtRp37
(dp38
g13
F30
sg14
I2
sg15
I00
sg16
I2
sg17
I2
sbs(I4
I2
tp39
g1
(g10
g3
NtRp40
(dp41
g13
F1.1660459729881527
sg14
I4
sg15
I01
sg16
I2
sg17
I8
sbs(I3
I4
tp42
g1
(g10
g3
NtRp43
(dp44
g13
F1.9876037353154787
sg14
I3
sg15
I01
sg16
I4
sg17
I11
sbs(I2
I4
tp45
g1
(g10
g3
NtRp46
(dp47
g13
F-5.9331728336674301
sg14
I2
sg15
I01
sg16
I4
sg17
I7
sbssS'_input_nodes'
p48
I1
sS'_output_nodes'
p49
I1
sS'_node_gene_type'
p50
cneat.genome
NodeGene
p51
sS'_conn_gene_type'
p52
g10
sS'fitness'
p53
F0.0098803313290141102
sS'parent2_id'
p54
I1503
sS'_id'
p55
I1515
sS'parent1_id'
p56
I1503
sS'_node_genes'
p57
(lp58
g1
(g51
g3
NtRp59
(dp60
S'_bias'
p61
I0
sS'_type'
p62
S'INPUT'
p63
sg55
I1
sS'_response'
p64
F4.9242730000000003
sS'_activation_type'
p65
Nsbag1
(g51
g3
NtRp66
(dp67
g61
F-0.98893957641710473
sg62
S'OUTPUT'
p68
sg55
I2
sg64
F3.7868876646830509
sg65
S'tanh'
p69
sbag1
(g51
g3
NtRp70
(dp71
g61
F0.029903574646851894
sg62
S'HIDDEN'
p72
sg55
I3
sg64
F5.2673008968314585
sg65
g69
sbag1
(g51
g3
NtRp73
(dp74
g61
F0.58537201016357887
sg62
g72
sg55
I4
sg64
F1.9378997543031173
sg65
g69
sbasb.