ccopy_reg
_reconstructor
p1
(cneat.chromosome
Chromosome
p2
c__builtin__
object
p3
NtRp4
(dp5
S'species_id'
p6
I15
sS'_connection_genes'
p7
(dp8
(I1
I2
tp9
g1
(cneat.genome
ConnectionGene
p10
g3
NtRp11
(dp12
S'_ConnectionGene__weight'
p13
F-29.622301121492718
sS'_ConnectionGene__in'
p14
I1
sS'_ConnectionGene__enabled'
p15
I01
sS'_ConnectionGene__out'
p16
I2
sS'_ConnectionGene__innov_number'
p17
I1
sbs(I3
I2
tp18
g1
(g10
g3
NtRp19
(dp20
g13
F-3.9780112385628139
sg14
I3
sg15
I01
sg16
I2
sg17
I4
sbs(I1
I3
tp21
g1
(g10
g3
NtRp22
(dp23
g13
F-12.484756279500512
sg14
I1
sg15
I01
sg16
I3
sg17
I3
sbs(I3
I3
tp24
g1
(g10
g3
NtRp25
(dp26
g13
F-8.6466993954851077
sg14
I3
sg15
I00
sg16
I3
sg17
I6
sbs(I4
I4
tp27
g1
(g10
g3
NtRp28
(dp29
g13
F3.1894737419315149
sg14
I4
sg15
I01
sg16
I4
sg17
I12
sbs(I1
I4
tp30
g1
(g10
g3
NtRp31
(dp32
g13
F-16.378036754468134
sg14
I1
sg15
I01
sg16
I4
sg17
I9
sbs(I2
I3
tp33
g1
(g10
g3
NtRp34
(dp35
g13
F-14.513183283116286
sg14
I2
sg15
I01
sg16
I3
sg17
I5
sbs(I4
I3
tp36
g1
(g10
g3
NtRp37
(dp38
g13
F2.0749673446728298
sg14
I4
sg15
I01
sg16
I3
sg17
I10
sbs(I2
I2
tp39
g1
(g10
g3
NtRp40
(dp41
g13
F25.683415169153079
sg14
I2
sg15
I00
sg16
I2
sg17
I2
sbs(I4
I2
tp42
g1
(g10
g3
NtRp43
(dp44
g13
F0.29682649500976632
sg14
I4
sg15
I01
sg16
I2
sg17
I8
sbs(I3
I4
tp45
g1
(g10
g3
NtRp46
(dp47
g13
F6.2835338812492143
sg14
I3
sg15
I01
sg16
I4
sg17
I11
sbs(I2
I4
tp48
g1
(g10
g3
NtRp49
(dp50
g13
F-10.329577169856439
sg14
I2
sg15
I01
sg16
I4
sg17
I7
sbssS'_input_nodes'
p51
I1
sS'_output_nodes'
p52
I1
sS'_node_gene_type'
p53
cneat.genome
NodeGene
p54
sS'_conn_gene_type'
p55
g10
sS'fitness'
p56
F0.0097705743501453387
sS'parent2_id'
p57
I2046
sS'_id'
p58
I2082
sS'parent1_id'
p59
I2046
sS'_node_genes'
p60
(lp61
g1
(g54
g3
NtRp62
(dp63
S'_bias'
p64
I0
sS'_type'
p65
S'INPUT'
p66
sg58
I1
sS'_response'
p67
F4.9242730000000003
sS'_activation_type'
p68
Nsbag1
(g54
g3
NtRp69
(dp70
g64
F-0.66122071549116157
sg65
S'OUTPUT'
p71
sg58
I2
sg67
F3.8176684515497179
sg68
S'tanh'
p72
sbag1
(g54
g3
NtRp73
(dp74
g64
F0.35430394283243682
sg65
S'HIDDEN'
p75
sg58
I3
sg67
F6.1059303343097691
sg68
g72
sbag1
(g54
g3
NtRp76
(dp77
g64
F-0.52722057692321
sg65
g75
sg58
I4
sg67
F2.684301754134875
sg68
g72
sbasb.