ccopy_reg
_reconstructor
p1
(cneat.chromosome
Chromosome
p2
c__builtin__
object
p3
NtRp4
(dp5
S'species_id'
p6
I28
sS'_connection_genes'
p7
(dp8
(I1
I2
tp9
g1
(cneat.genome
ConnectionGene
p10
g3
NtRp11
(dp12
S'_ConnectionGene__weight'
p13
F-27.791311888233395
sS'_ConnectionGene__in'
p14
I1
sS'_ConnectionGene__enabled'
p15
I01
sS'_ConnectionGene__out'
p16
I2
sS'_ConnectionGene__innov_number'
p17
I1
sbs(I3
I2
tp18
g1
(g10
g3
NtRp19
(dp20
g13
F-21.066801048883189
sg14
I3
sg15
I00
sg16
I2
sg17
I4
sbs(I2
I6
tp21
g1
(g10
g3
NtRp22
(dp23
g13
F-16.271860724614449
sg14
I2
sg15
I01
sg16
I6
sg17
I33
sbs(I3
I3
tp24
g1
(g10
g3
NtRp25
(dp26
g13
F-9.2632001954195591
sg14
I3
sg15
I00
sg16
I3
sg17
I6
sbs(I5
I6
tp27
g1
(g10
g3
NtRp28
(dp29
g13
F9.8248447818986762
sg14
I5
sg15
I01
sg16
I6
sg17
I20
sbs(I4
I4
tp30
g1
(g10
g3
NtRp31
(dp32
g13
F24.182507113990408
sg14
I4
sg15
I01
sg16
I4
sg17
I12
sbs(I3
I5
tp33
g1
(g10
g3
NtRp34
(dp35
g13
F-12.94449971023308
sg14
I3
sg15
I01
sg16
I5
sg17
I13
sbs(I3
I6
tp36
g1
(g10
g3
NtRp37
(dp38
g13
F-6.9395382291814238
sg14
I3
sg15
I01
sg16
I6
sg17
I22
sbs(I6
I3
tp39
g1
(g10
g3
NtRp40
(dp41
g13
F5.1815198037897012
sg14
I6
sg15
I01
sg16
I3
sg17
I21
sbs(I6
I2
tp42
g1
(g10
g3
NtRp43
(dp44
g13
F-10.659275173191023
sg14
I6
sg15
I01
sg16
I2
sg17
I23
sbs(I2
I3
tp45
g1
(g10
g3
NtRp46
(dp47
g13
F14.218592098459029
sg14
I2
sg15
I00
sg16
I3
sg17
I5
sbs(I4
I3
tp48
g1
(g10
g3
NtRp49
(dp50
g13
F22.80084875269084
sg14
I4
sg15
I01
sg16
I3
sg17
I10
sbs(I2
I2
tp51
g1
(g10
g3
NtRp52
(dp53
g13
F-30
sg14
I2
sg15
I01
sg16
I2
sg17
I2
sbs(I3
I7
tp54
g1
(g10
g3
NtRp55
(dp56
g13
F4.3893195777083562
sg14
I3
sg15
I01
sg16
I7
sg17
I30
sbs(I5
I3
tp57
g1
(g10
g3
NtRp58
(dp59
g13
F-15.48753311243941
sg14
I5
sg15
I01
sg16
I3
sg17
I15
sbs(I7
I8
tp60
g1
(g10
g3
NtRp61
(dp62
g13
F5.8780483571540687
sg14
I7
sg15
I01
sg16
I8
sg17
I44
sbs(I2
I4
tp63
g1
(g10
g3
NtRp64
(dp65
g13
F-4.1218108052620366
sg14
I2
sg15
I01
sg16
I4
sg17
I7
sbs(I7
I2
tp66
g1
(g10
g3
NtRp67
(dp68
g13
F-21.265588426970261
sg14
I7
sg15
I00
sg16
I2
sg17
I27
sbs(I8
I2
tp69
g1
(g10
g3
NtRp70
(dp71
g13
F-29.263943696931936
sg14
I8
sg15
I01
sg16
I2
sg17
I45
sbssS'_input_nodes'
p72
I1
sS'_output_nodes'
p73
I1
sS'_node_gene_type'
p74
cneat.genome
NodeGene
p75
sS'_conn_gene_type'
p76
g10
sS'fitness'
p77
F0.0095667437947409076
sS'parent2_id'
p78
I3458
sS'_id'
p79
I3478
sS'parent1_id'
p80
I3458
sS'_node_genes'
p81
(lp82
g1
(g75
g3
NtRp83
(dp84
S'_bias'
p85
I0
sS'_type'
p86
S'INPUT'
p87
sg79
I1
sS'_response'
p88
F4.9242730000000003
sS'_activation_type'
p89
Nsbag1
(g75
g3
NtRp90
(dp91
g85
F1.217583048025737
sg86
S'OUTPUT'
p92
sg79
I2
sg88
F6.1767357022124347
sg89
S'tanh'
p93
sbag1
(g75
g3
NtRp94
(dp95
g85
F-4.3645678469479368
sg86
S'HIDDEN'
p96
sg79
I3
sg88
F4.3827728832455906
sg89
g93
sbag1
(g75
g3
NtRp97
(dp98
g85
F-1.8677824730331756
sg86
g96
sg79
I4
sg88
F4.1025501765180561
sg89
g93
sbag1
(g75
g3
NtRp99
(dp100
g85
F-2.9685290873779921
sg86
g96
sg79
I5
sg88
F4.7336946379749687
sg89
g93
sbag1
(g75
g3
NtRp101
(dp102
g85
F-2.2760110930203963
sg86
g96
sg79
I6
sg88
F3.9849945807412221
sg89
g93
sbag1
(g75
g3
NtRp103
(dp104
g85
F1.1009814327573795
sg86
g96
sg79
I7
sg88
F5.7411042192328434
sg89
g93
sbag1
(g75
g3
NtRp105
(dp106
g85
F0.10151740483327296
sg86
g96
sg79
I8
sg88
F4.1593880535848884
sg89
g93
sbasb.