ccopy_reg
_reconstructor
p1
(cneat.chromosome
Chromosome
p2
c__builtin__
object
p3
NtRp4
(dp5
S'species_id'
p6
I18
sS'_connection_genes'
p7
(dp8
(I1
I2
tp9
g1
(cneat.genome
ConnectionGene
p10
g3
NtRp11
(dp12
S'_ConnectionGene__weight'
p13
F-25.830208015952593
sS'_ConnectionGene__in'
p14
I1
sS'_ConnectionGene__enabled'
p15
I01
sS'_ConnectionGene__out'
p16
I2
sS'_ConnectionGene__innov_number'
p17
I1
sbs(I3
I2
tp18
g1
(g10
g3
NtRp19
(dp20
g13
F-12.837725879632622
sg14
I3
sg15
I00
sg16
I2
sg17
I4
sbs(I3
I3
tp21
g1
(g10
g3
NtRp22
(dp23
g13
F-8.9326981167029604
sg14
I3
sg15
I00
sg16
I3
sg17
I6
sbs(I4
I4
tp24
g1
(g10
g3
NtRp25
(dp26
g13
F2.1735715532399005
sg14
I4
sg15
I01
sg16
I4
sg17
I12
sbs(I3
I6
tp27
g1
(g10
g3
NtRp28
(dp29
g13
F1
sg14
I3
sg15
I01
sg16
I6
sg17
I22
sbs(I6
I2
tp30
g1
(g10
g3
NtRp31
(dp32
g13
F-12.837725879632622
sg14
I6
sg15
I01
sg16
I2
sg17
I23
sbs(I2
I3
tp33
g1
(g10
g3
NtRp34
(dp35
g13
F-2.9518837371313698
sg14
I2
sg15
I00
sg16
I3
sg17
I5
sbs(I4
I3
tp36
g1
(g10
g3
NtRp37
(dp38
g13
F7.1073549374745708
sg14
I4
sg15
I01
sg16
I3
sg17
I10
sbs(I2
I2
tp39
g1
(g10
g3
NtRp40
(dp41
g13
F-18.239993604728255
sg14
I2
sg15
I00
sg16
I2
sg17
I2
sbs(I5
I3
tp42
g1
(g10
g3
NtRp43
(dp44
g13
F-2.4911136348893548
sg14
I5
sg15
I01
sg16
I3
sg17
I15
sbs(I2
I4
tp45
g1
(g10
g3
NtRp46
(dp47
g13
F6.2461546272249384
sg14
I2
sg15
I01
sg16
I4
sg17
I7
sbs(I3
I5
tp48
g1
(g10
g3
NtRp49
(dp50
g13
F-14.800732863004194
sg14
I3
sg15
I01
sg16
I5
sg17
I13
sbssS'_input_nodes'
p51
I1
sS'_output_nodes'
p52
I1
sS'_node_gene_type'
p53
cneat.genome
NodeGene
p54
sS'_conn_gene_type'
p55
g10
sS'fitness'
p56
F0.0094131958561536853
sS'parent2_id'
p57
I2060
sS'_id'
p58
I2073
sS'parent1_id'
p59
I2060
sS'_node_genes'
p60
(lp61
g1
(g54
g3
NtRp62
(dp63
S'_bias'
p64
I0
sS'_type'
p65
S'INPUT'
p66
sg58
I1
sS'_response'
p67
F4.9242730000000003
sS'_activation_type'
p68
Nsbag1
(g54
g3
NtRp69
(dp70
g64
F1.116124994440115
sg65
S'OUTPUT'
p71
sg58
I2
sg67
F4.3091314681315858
sg68
S'tanh'
p72
sbag1
(g54
g3
NtRp73
(dp74
g64
F-0.59917101744924894
sg65
S'HIDDEN'
p75
sg58
I3
sg67
F5.2484588835572028
sg68
g72
sbag1
(g54
g3
NtRp76
(dp77
g64
F-0.20292471415656543
sg65
g75
sg58
I4
sg67
F4.8867572379651154
sg68
g72
sbag1
(g54
g3
NtRp78
(dp79
g64
F-1.4829404421517673
sg65
g75
sg58
I5
sg67
F4.2054966225872272
sg68
g72
sbag1
(g54
g3
NtRp80
(dp81
g64
I0
sg65
g75
sg58
I6
sg67
F4.9242730000000003
sg68
g72
sbasb.