ccopy_reg
_reconstructor
p1
(cneat.chromosome
Chromosome
p2
c__builtin__
object
p3
NtRp4
(dp5
S'species_id'
p6
I22
sS'_connection_genes'
p7
(dp8
(I1
I2
tp9
g1
(cneat.genome
ConnectionGene
p10
g3
NtRp11
(dp12
S'_ConnectionGene__weight'
p13
F-13.012672006039057
sS'_ConnectionGene__in'
p14
I1
sS'_ConnectionGene__enabled'
p15
I01
sS'_ConnectionGene__out'
p16
I2
sS'_ConnectionGene__innov_number'
p17
I1
sbs(I3
I2
tp18
g1
(g10
g3
NtRp19
(dp20
g13
F-21.632650222301773
sg14
I3
sg15
I01
sg16
I2
sg17
I4
sbs(I1
I3
tp21
g1
(g10
g3
NtRp22
(dp23
g13
F6.9616157432899133
sg14
I1
sg15
I01
sg16
I3
sg17
I3
sbs(I3
I3
tp24
g1
(g10
g3
NtRp25
(dp26
g13
F-3.6454755757286774
sg14
I3
sg15
I01
sg16
I3
sg17
I6
sbs(I4
I5
tp27
g1
(g10
g3
NtRp28
(dp29
g13
F5.4036097563506349
sg14
I4
sg15
I01
sg16
I5
sg17
I19
sbs(I3
I4
tp30
g1
(g10
g3
NtRp31
(dp32
g13
F6.5541416560109234
sg14
I3
sg15
I01
sg16
I4
sg17
I11
sbs(I7
I6
tp33
g1
(g10
g3
NtRp34
(dp35
g13
F0.83966062573204936
sg14
I7
sg15
I01
sg16
I6
sg17
I39
sbs(I4
I4
tp36
g1
(g10
g3
NtRp37
(dp38
g13
F7.0136521579191218
sg14
I4
sg15
I01
sg16
I4
sg17
I12
sbs(I1
I7
tp39
g1
(g10
g3
NtRp40
(dp41
g13
F1
sg14
I1
sg15
I01
sg16
I7
sg17
I26
sbs(I6
I3
tp42
g1
(g10
g3
NtRp43
(dp44
g13
F18.45594889816876
sg14
I6
sg15
I01
sg16
I3
sg17
I21
sbs(I1
I5
tp45
g1
(g10
g3
NtRp46
(dp47
g13
F7.1120536253765199
sg14
I1
sg15
I01
sg16
I5
sg17
I16
sbs(I2
I3
tp48
g1
(g10
g3
NtRp49
(dp50
g13
F5.6405764258229816
sg14
I2
sg15
I01
sg16
I3
sg17
I5
sbs(I4
I3
tp51
g1
(g10
g3
NtRp52
(dp53
g13
F14.210931679686759
sg14
I4
sg15
I00
sg16
I3
sg17
I10
sbs(I2
I2
tp54
g1
(g10
g3
NtRp55
(dp56
g13
F-26.141424760493628
sg14
I2
sg15
I01
sg16
I2
sg17
I2
sbs(I5
I6
tp57
g1
(g10
g3
NtRp58
(dp59
g13
F-0.54359401834257537
sg14
I5
sg15
I01
sg16
I6
sg17
I20
sbs(I1
I6
tp60
g1
(g10
g3
NtRp61
(dp62
g13
F0.83966062573204936
sg14
I1
sg15
I00
sg16
I6
sg17
I37
sbs(I5
I3
tp63
g1
(g10
g3
NtRp64
(dp65
g13
F17.444389531563779
sg14
I5
sg15
I00
sg16
I3
sg17
I15
sbs(I5
I2
tp66
g1
(g10
g3
NtRp67
(dp68
g13
F2.2543653611584942
sg14
I5
sg15
I01
sg16
I2
sg17
I14
sbs(I2
I4
tp69
g1
(g10
g3
NtRp70
(dp71
g13
F20.841854475827695
sg14
I2
sg15
I01
sg16
I4
sg17
I7
sbs(I3
I5
tp72
g1
(g10
g3
NtRp73
(dp74
g13
F-0.18855730850673669
sg14
I3
sg15
I01
sg16
I5
sg17
I13
sbssS'_input_nodes'
p75
I1
sS'_output_nodes'
p76
I1
sS'_node_gene_type'
p77
cneat.genome
NodeGene
p78
sS'_conn_gene_type'
p79
g10
sS'fitness'
p80
F0.0097928119559561894
sS'parent2_id'
p81
I3108
sS'_id'
p82
I3145
sS'parent1_id'
p83
I3108
sS'_node_genes'
p84
(lp85
g1
(g78
g3
NtRp86
(dp87
S'_bias'
p88
I0
sS'_type'
p89
S'INPUT'
p90
sg82
I1
sS'_response'
p91
F4.9242730000000003
sS'_activation_type'
p92
Nsbag1
(g78
g3
NtRp93
(dp94
g88
F-1.020984673684546
sg89
S'OUTPUT'
p95
sg82
I2
sg91
F3.5314704355289601
sg92
S'tanh'
p96
sbag1
(g78
g3
NtRp97
(dp98
g88
F-0.8344893651333356
sg89
S'HIDDEN'
p99
sg82
I3
sg91
F4.3554696802941892
sg92
g96
sbag1
(g78
g3
NtRp100
(dp101
g88
F-2.9215049977367755
sg89
g99
sg82
I4
sg91
F4.1574933296142724
sg92
g96
sbag1
(g78
g3
NtRp102
(dp103
g88
F-0.25039322713462231
sg89
g99
sg82
I5
sg91
F5.7960381312206106
sg92
g96
sbag1
(g78
g3
NtRp104
(dp105
g88
F1.1216085530336055
sg89
g99
sg82
I6
sg91
F4.5454517695257071
sg92
g96
sbag1
(g78
g3
NtRp106
(dp107
g88
I0
sg89
g99
sg82
I7
sg91
F4.9242730000000003
sg92
g96
sbasb.