ccopy_reg
_reconstructor
p1
(cneat.chromosome
Chromosome
p2
c__builtin__
object
p3
NtRp4
(dp5
S'species_id'
p6
I20
sS'_connection_genes'
p7
(dp8
(I1
I2
tp9
g1
(cneat.genome
ConnectionGene
p10
g3
NtRp11
(dp12
S'_ConnectionGene__weight'
p13
F-28.391900884245242
sS'_ConnectionGene__in'
p14
I1
sS'_ConnectionGene__enabled'
p15
I01
sS'_ConnectionGene__out'
p16
I2
sS'_ConnectionGene__innov_number'
p17
I1
sbs(I3
I2
tp18
g1
(g10
g3
NtRp19
(dp20
g13
F-21.090602154536512
sg14
I3
sg15
I00
sg16
I2
sg17
I4
sbs(I2
I6
tp21
g1
(g10
g3
NtRp22
(dp23
g13
F-3.4447061966115369
sg14
I2
sg15
I01
sg16
I6
sg17
I33
sbs(I3
I3
tp24
g1
(g10
g3
NtRp25
(dp26
g13
F-11.093741022626322
sg14
I3
sg15
I00
sg16
I3
sg17
I6
sbs(I4
I4
tp27
g1
(g10
g3
NtRp28
(dp29
g13
F13.554512835277198
sg14
I4
sg15
I01
sg16
I4
sg17
I12
sbs(I6
I3
tp30
g1
(g10
g3
NtRp31
(dp32
g13
F-1.1152338487062836
sg14
I6
sg15
I01
sg16
I3
sg17
I21
sbs(I6
I2
tp33
g1
(g10
g3
NtRp34
(dp35
g13
F-8.8110090985565321
sg14
I6
sg15
I01
sg16
I2
sg17
I23
sbs(I2
I3
tp36
g1
(g10
g3
NtRp37
(dp38
g13
F8.4519751984389266
sg14
I2
sg15
I00
sg16
I3
sg17
I5
sbs(I3
I6
tp39
g1
(g10
g3
NtRp40
(dp41
g13
F-3.1815926956226006
sg14
I3
sg15
I01
sg16
I6
sg17
I22
sbs(I2
I2
tp42
g1
(g10
g3
NtRp43
(dp44
g13
F-27.731690512211873
sg14
I2
sg15
I01
sg16
I2
sg17
I2
sbs(I4
I3
tp45
g1
(g10
g3
NtRp46
(dp47
g13
F14.84548586349452
sg14
I4
sg15
I01
sg16
I3
sg17
I10
sbs(I3
I5
tp48
g1
(g10
g3
NtRp49
(dp50
g13
F-8.8951566670778188
sg14
I3
sg15
I01
sg16
I5
sg17
I13
sbs(I2
I4
tp51
g1
(g10
g3
NtRp52
(dp53
g13
F13.448971564548724
sg14
I2
sg15
I01
sg16
I4
sg17
I7
sbs(I5
I3
tp54
g1
(g10
g3
NtRp55
(dp56
g13
F-16.389984330868941
sg14
I5
sg15
I01
sg16
I3
sg17
I15
sbssS'_input_nodes'
p57
I1
sS'_output_nodes'
p58
I1
sS'_node_gene_type'
p59
cneat.genome
NodeGene
p60
sS'_conn_gene_type'
p61
g10
sS'fitness'
p62
F0.0095768754942777545
sS'parent2_id'
p63
I2578
sS'_id'
p64
I2590
sS'parent1_id'
p65
I2578
sS'_node_genes'
p66
(lp67
g1
(g60
g3
NtRp68
(dp69
S'_bias'
p70
I0
sS'_type'
p71
S'INPUT'
p72
sg64
I1
sS'_response'
p73
F4.9242730000000003
sS'_activation_type'
p74
Nsbag1
(g60
g3
NtRp75
(dp76
g70
F0.66252688852648334
sg71
S'OUTPUT'
p77
sg64
I2
sg73
F6.08076771597222
sg74
S'tanh'
p78
sbag1
(g60
g3
NtRp79
(dp80
g70
F-2.6656548922670358
sg71
S'HIDDEN'
p81
sg64
I3
sg73
F4.9130543475674386
sg74
g78
sbag1
(g60
g3
NtRp82
(dp83
g70
F-0.72646804243977459
sg71
g81
sg64
I4
sg73
F4.5024789180851092
sg74
g78
sbag1
(g60
g3
NtRp84
(dp85
g70
F-2.6300065235320238
sg71
g81
sg64
I5
sg73
F4.0182086957717287
sg74
g78
sbag1
(g60
g3
NtRp86
(dp87
g70
F-0.39126312647028433
sg71
g81
sg64
I6
sg73
F5.0805507223986188
sg74
g78
sbasb.