ccopy_reg
_reconstructor
p1
(cneat.chromosome
Chromosome
p2
c__builtin__
object
p3
NtRp4
(dp5
S'species_id'
p6
I19
sS'_connection_genes'
p7
(dp8
(I1
I2
tp9
g1
(cneat.genome
ConnectionGene
p10
g3
NtRp11
(dp12
S'_ConnectionGene__weight'
p13
F-5.7222235077989003
sS'_ConnectionGene__in'
p14
I1
sS'_ConnectionGene__enabled'
p15
I01
sS'_ConnectionGene__out'
p16
I2
sS'_ConnectionGene__innov_number'
p17
I1
sbs(I3
I2
tp18
g1
(g10
g3
NtRp19
(dp20
g13
F-19.99287324043031
sg14
I3
sg15
I01
sg16
I2
sg17
I4
sbs(I1
I3
tp21
g1
(g10
g3
NtRp22
(dp23
g13
F0.35071651301383522
sg14
I1
sg15
I01
sg16
I3
sg17
I3
sbs(I3
I3
tp24
g1
(g10
g3
NtRp25
(dp26
g13
F-0.32239002453515675
sg14
I3
sg15
I01
sg16
I3
sg17
I6
sbs(I4
I5
tp27
g1
(g10
g3
NtRp28
(dp29
g13
F-0.82416411232214726
sg14
I4
sg15
I01
sg16
I5
sg17
I19
sbs(I4
I4
tp30
g1
(g10
g3
NtRp31
(dp32
g13
F-4.6385565153552744
sg14
I4
sg15
I01
sg16
I4
sg17
I12
sbs(I2
I3
tp33
g1
(g10
g3
NtRp34
(dp35
g13
F4.8774720370358153
sg14
I2
sg15
I00
sg16
I3
sg17
I5
sbs(I4
I3
tp36
g1
(g10
g3
NtRp37
(dp38
g13
F16.01687728992869
sg14
I4
sg15
I00
sg16
I3
sg17
I10
sbs(I2
I2
tp39
g1
(g10
g3
NtRp40
(dp41
g13
F-22.615261219680136
sg14
I2
sg15
I00
sg16
I2
sg17
I2
sbs(I2
I4
tp42
g1
(g10
g3
NtRp43
(dp44
g13
F16.000161534947683
sg14
I2
sg15
I01
sg16
I4
sg17
I7
sbs(I5
I3
tp45
g1
(g10
g3
NtRp46
(dp47
g13
F14.331781138069022
sg14
I5
sg15
I01
sg16
I3
sg17
I15
sbssS'_input_nodes'
p48
I1
sS'_output_nodes'
p49
I1
sS'_node_gene_type'
p50
cneat.genome
NodeGene
p51
sS'_conn_gene_type'
p52
g10
sS'fitness'
p53
F0.0099280439641216741
sS'parent2_id'
p54
I2246
sS'_id'
p55
I2261
sS'parent1_id'
p56
I2245
sS'_node_genes'
p57
(lp58
g1
(g51
g3
NtRp59
(dp60
S'_bias'
p61
I0
sS'_type'
p62
S'INPUT'
p63
sg55
I1
sS'_response'
p64
F4.9242730000000003
sS'_activation_type'
p65
Nsbag1
(g51
g3
NtRp66
(dp67
g61
F-0.4003270526347984
sg62
S'OUTPUT'
p68
sg55
I2
sg64
F3.4398430884404392
sg65
S'tanh'
p69
sbag1
(g51
g3
NtRp70
(dp71
g61
F-2.0971801574508819
sg62
S'HIDDEN'
p72
sg55
I3
sg64
F4.9261185190143815
sg65
g69
sbag1
(g51
g3
NtRp73
(dp74
g61
F0.1470929951611443
sg62
g72
sg55
I4
sg64
F4.4327723285301328
sg65
g69
sbag1
(g51
g3
NtRp75
(dp76
g61
I0
sg62
g72
sg55
I5
sg64
F4.9242730000000003
sg65
g69
sbasb.