ccopy_reg
_reconstructor
p1
(cneat.chromosome
Chromosome
p2
c__builtin__
object
p3
NtRp4
(dp5
S'species_id'
p6
I22
sS'_connection_genes'
p7
(dp8
(I1
I2
tp9
g1
(cneat.genome
ConnectionGene
p10
g3
NtRp11
(dp12
S'_ConnectionGene__weight'
p13
F-8.6719321716098321
sS'_ConnectionGene__in'
p14
I1
sS'_ConnectionGene__enabled'
p15
I01
sS'_ConnectionGene__out'
p16
I2
sS'_ConnectionGene__innov_number'
p17
I1
sbs(I3
I2
tp18
g1
(g10
g3
NtRp19
(dp20
g13
F-23.659591893525327
sg14
I3
sg15
I01
sg16
I2
sg17
I4
sbs(I1
I3
tp21
g1
(g10
g3
NtRp22
(dp23
g13
F8.8950756383511891
sg14
I1
sg15
I01
sg16
I3
sg17
I3
sbs(I3
I3
tp24
g1
(g10
g3
NtRp25
(dp26
g13
F-1.6759876337517403
sg14
I3
sg15
I01
sg16
I3
sg17
I6
sbs(I4
I5
tp27
g1
(g10
g3
NtRp28
(dp29
g13
F6.5878608552539575
sg14
I4
sg15
I01
sg16
I5
sg17
I19
sbs(I4
I4
tp30
g1
(g10
g3
NtRp31
(dp32
g13
F8.5060303276313487
sg14
I4
sg15
I01
sg16
I4
sg17
I12
sbs(I1
I5
tp33
g1
(g10
g3
NtRp34
(dp35
g13
F1.0571699070618266
sg14
I1
sg15
I01
sg16
I5
sg17
I16
sbs(I2
I3
tp36
g1
(g10
g3
NtRp37
(dp38
g13
F4.5644690150556935
sg14
I2
sg15
I01
sg16
I3
sg17
I5
sbs(I4
I3
tp39
g1
(g10
g3
NtRp40
(dp41
g13
F10.180738063976015
sg14
I4
sg15
I00
sg16
I3
sg17
I10
sbs(I2
I2
tp42
g1
(g10
g3
NtRp43
(dp44
g13
F-22.107539328355269
sg14
I2
sg15
I00
sg16
I2
sg17
I2
sbs(I5
I3
tp45
g1
(g10
g3
NtRp46
(dp47
g13
F12.554239661252112
sg14
I5
sg15
I01
sg16
I3
sg17
I15
sbs(I3
I4
tp48
g1
(g10
g3
NtRp49
(dp50
g13
F2.9210695500749662
sg14
I3
sg15
I01
sg16
I4
sg17
I11
sbs(I2
I4
tp51
g1
(g10
g3
NtRp52
(dp53
g13
F18.443099034712759
sg14
I2
sg15
I01
sg16
I4
sg17
I7
sbs(I3
I5
tp54
g1
(g10
g3
NtRp55
(dp56
g13
F1.2080452957834673
sg14
I3
sg15
I01
sg16
I5
sg17
I13
sbssS'_input_nodes'
p57
I1
sS'_output_nodes'
p58
I1
sS'_node_gene_type'
p59
cneat.genome
NodeGene
p60
sS'_conn_gene_type'
p61
g10
sS'fitness'
p62
F0.0099292936238038441
sS'parent2_id'
p63
I2816
sS'_id'
p64
I2857
sS'parent1_id'
p65
I2834
sS'_node_genes'
p66
(lp67
g1
(g60
g3
NtRp68
(dp69
S'_bias'
p70
I0
sS'_type'
p71
S'INPUT'
p72
sg64
I1
sS'_response'
p73
F4.9242730000000003
sS'_activation_type'
p74
Nsbag1
(g60
g3
NtRp75
(dp76
g70
F-0.021408575391579136
sg71
S'OUTPUT'
p77
sg64
I2
sg73
F3.9442514744776629
sg74
S'tanh'
p78
sbag1
(g60
g3
NtRp79
(dp80
g70
F-2.2839468447430242
sg71
S'HIDDEN'
p81
sg64
I3
sg73
F4.1895249282695746
sg74
g78
sbag1
(g60
g3
NtRp82
(dp83
g70
F-0.9654937204008508
sg71
g81
sg64
I4
sg73
F4.0571269174184303
sg74
g78
sbag1
(g60
g3
NtRp84
(dp85
g70
F-0.61387315123965314
sg71
g81
sg64
I5
sg73
F4.6100618181660131
sg74
g78
sbasb.