ccopy_reg
_reconstructor
p1
(cneat.chromosome
Chromosome
p2
c__builtin__
object
p3
NtRp4
(dp5
S'species_id'
p6
I22
sS'_connection_genes'
p7
(dp8
(I1
I2
tp9
g1
(cneat.genome
ConnectionGene
p10
g3
NtRp11
(dp12
S'_ConnectionGene__weight'
p13
F-15.789309121413867
sS'_ConnectionGene__in'
p14
I1
sS'_ConnectionGene__enabled'
p15
I01
sS'_ConnectionGene__out'
p16
I2
sS'_ConnectionGene__innov_number'
p17
I1
sbs(I3
I2
tp18
g1
(g10
g3
NtRp19
(dp20
g13
F-24.619985068560684
sg14
I3
sg15
I01
sg16
I2
sg17
I4
sbs(I1
I3
tp21
g1
(g10
g3
NtRp22
(dp23
g13
F10.389857038815565
sg14
I1
sg15
I01
sg16
I3
sg17
I3
sbs(I3
I3
tp24
g1
(g10
g3
NtRp25
(dp26
g13
F-0.29197324592649399
sg14
I3
sg15
I01
sg16
I3
sg17
I6
sbs(I4
I5
tp27
g1
(g10
g3
NtRp28
(dp29
g13
F0.7159323438418248
sg14
I4
sg15
I01
sg16
I5
sg17
I19
sbs(I3
I4
tp30
g1
(g10
g3
NtRp31
(dp32
g13
F10.054832011043048
sg14
I3
sg15
I01
sg16
I4
sg17
I11
sbs(I7
I6
tp33
g1
(g10
g3
NtRp34
(dp35
g13
F-3.8197682219352851
sg14
I7
sg15
I01
sg16
I6
sg17
I39
sbs(I4
I4
tp36
g1
(g10
g3
NtRp37
(dp38
g13
F9.6463341896556472
sg14
I4
sg15
I01
sg16
I4
sg17
I12
sbs(I1
I7
tp39
g1
(g10
g3
NtRp40
(dp41
g13
F3.6923946842750226
sg14
I1
sg15
I01
sg16
I7
sg17
I26
sbs(I6
I3
tp42
g1
(g10
g3
NtRp43
(dp44
g13
F21.184966992001293
sg14
I6
sg15
I01
sg16
I3
sg17
I21
sbs(I1
I5
tp45
g1
(g10
g3
NtRp46
(dp47
g13
F4.1610282018343581
sg14
I1
sg15
I01
sg16
I5
sg17
I16
sbs(I2
I3
tp48
g1
(g10
g3
NtRp49
(dp50
g13
F7.9403776011521039
sg14
I2
sg15
I01
sg16
I3
sg17
I5
sbs(I4
I3
tp51
g1
(g10
g3
NtRp52
(dp53
g13
F14.739151798270166
sg14
I4
sg15
I00
sg16
I3
sg17
I10
sbs(I2
I2
tp54
g1
(g10
g3
NtRp55
(dp56
g13
F-24.54505484694408
sg14
I2
sg15
I01
sg16
I2
sg17
I2
sbs(I5
I6
tp57
g1
(g10
g3
NtRp58
(dp59
g13
F1.3475133654956724
sg14
I5
sg15
I01
sg16
I6
sg17
I20
sbs(I1
I6
tp60
g1
(g10
g3
NtRp61
(dp62
g13
F10.65858492682068
sg14
I1
sg15
I00
sg16
I6
sg17
I37
sbs(I5
I3
tp63
g1
(g10
g3
NtRp64
(dp65
g13
F10.937930177959668
sg14
I5
sg15
I00
sg16
I3
sg17
I15
sbs(I5
I2
tp66
g1
(g10
g3
NtRp67
(dp68
g13
F-3.6407331380201402
sg14
I5
sg15
I01
sg16
I2
sg17
I14
sbs(I2
I4
tp69
g1
(g10
g3
NtRp70
(dp71
g13
F18.550012810557924
sg14
I2
sg15
I01
sg16
I4
sg17
I7
sbs(I3
I5
tp72
g1
(g10
g3
NtRp73
(dp74
g13
F-2.4127471087920638
sg14
I3
sg15
I01
sg16
I5
sg17
I13
sbssS'_input_nodes'
p75
I1
sS'_output_nodes'
p76
I1
sS'_node_gene_type'
p77
cneat.genome
NodeGene
p78
sS'_conn_gene_type'
p79
g10
sS'fitness'
p80
F0.0090596387356061819
sS'parent2_id'
p81
I3194
sS'_id'
p82
I3210
sS'parent1_id'
p83
I3194
sS'_node_genes'
p84
(lp85
g1
(g78
g3
NtRp86
(dp87
S'_bias'
p88
I0
sS'_type'
p89
S'INPUT'
p90
sg82
I1
sS'_response'
p91
F4.9242730000000003
sS'_activation_type'
p92
Nsbag1
(g78
g3
NtRp93
(dp94
g88
F-0.61416293955428181
sg89
S'OUTPUT'
p95
sg82
I2
sg91
F4.3896105334182689
sg92
S'tanh'
p96
sbag1
(g78
g3
NtRp97
(dp98
g88
F0.086009770434977928
sg89
S'HIDDEN'
p99
sg82
I3
sg91
F4.3554696802941892
sg92
g96
sbag1
(g78
g3
NtRp100
(dp101
g88
F-2.5018982409588912
sg89
g99
sg82
I4
sg91
F3.7101430683524619
sg92
g96
sbag1
(g78
g3
NtRp102
(dp103
g88
F-0.47780928523055882
sg89
g99
sg82
I5
sg91
F5.4147640052748311
sg92
g96
sbag1
(g78
g3
NtRp104
(dp105
g88
F0.71980242242455206
sg89
g99
sg82
I6
sg91
F5.3027430976025105
sg92
g96
sbag1
(g78
g3
NtRp106
(dp107
g88
F0.63202703720948639
sg89
g99
sg82
I7
sg91
F4.9242730000000003
sg92
g96
sbasb.