ccopy_reg
_reconstructor
p1
(cneat.chromosome
Chromosome
p2
c__builtin__
object
p3
NtRp4
(dp5
S'species_id'
p6
I26
sS'_connection_genes'
p7
(dp8
(I1
I2
tp9
g1
(cneat.genome
ConnectionGene
p10
g3
NtRp11
(dp12
S'_ConnectionGene__weight'
p13
F8.099401869624435
sS'_ConnectionGene__in'
p14
I1
sS'_ConnectionGene__enabled'
p15
I01
sS'_ConnectionGene__out'
p16
I2
sS'_ConnectionGene__innov_number'
p17
I1
sbs(I7
I3
tp18
g1
(g10
g3
NtRp19
(dp20
g13
F-2.818597607185453
sg14
I7
sg15
I01
sg16
I3
sg17
I32
sbs(I3
I2
tp21
g1
(g10
g3
NtRp22
(dp23
g13
F-22.395304855763452
sg14
I3
sg15
I01
sg16
I2
sg17
I4
sbs(I1
I3
tp24
g1
(g10
g3
NtRp25
(dp26
g13
F23.816195957779136
sg14
I1
sg15
I01
sg16
I3
sg17
I3
sbs(I3
I3
tp27
g1
(g10
g3
NtRp28
(dp29
g13
F-4.3591923367942123
sg14
I3
sg15
I01
sg16
I3
sg17
I6
sbs(I4
I5
tp30
g1
(g10
g3
NtRp31
(dp32
g13
F20.173958749967305
sg14
I4
sg15
I01
sg16
I5
sg17
I19
sbs(I4
I4
tp33
g1
(g10
g3
NtRp34
(dp35
g13
F19.533865260208579
sg14
I4
sg15
I01
sg16
I4
sg17
I12
sbs(I4
I7
tp36
g1
(g10
g3
NtRp37
(dp38
g13
F3.7971007531245293
sg14
I4
sg15
I01
sg16
I7
sg17
I35
sbs(I3
I5
tp39
g1
(g10
g3
NtRp40
(dp41
g13
F4.1984731919134202
sg14
I3
sg15
I01
sg16
I5
sg17
I13
sbs(I2
I6
tp42
g1
(g10
g3
NtRp43
(dp44
g13
F-8.8260096614500334
sg14
I2
sg15
I01
sg16
I6
sg17
I33
sbs(I2
I3
tp45
g1
(g10
g3
NtRp46
(dp47
g13
F5.3001298006493514
sg14
I2
sg15
I01
sg16
I3
sg17
I5
sbs(I3
I6
tp48
g1
(g10
g3
NtRp49
(dp50
g13
F5.7296788269666736
sg14
I3
sg15
I01
sg16
I6
sg17
I22
sbs(I2
I2
tp51
g1
(g10
g3
NtRp52
(dp53
g13
F-28.585349129758729
sg14
I2
sg15
I00
sg16
I2
sg17
I2
sbs(I6
I2
tp54
g1
(g10
g3
NtRp55
(dp56
g13
F-20.855459702219726
sg14
I6
sg15
I01
sg16
I2
sg17
I23
sbs(I4
I3
tp57
g1
(g10
g3
NtRp58
(dp59
g13
F-2.5804164501533489
sg14
I4
sg15
I00
sg16
I3
sg17
I10
sbs(I5
I3
tp60
g1
(g10
g3
NtRp61
(dp62
g13
F0.46295302088988022
sg14
I5
sg15
I01
sg16
I3
sg17
I15
sbs(I3
I4
tp63
g1
(g10
g3
NtRp64
(dp65
g13
F2.5096274589699341
sg14
I3
sg15
I01
sg16
I4
sg17
I11
sbs(I2
I4
tp66
g1
(g10
g3
NtRp67
(dp68
g13
F25.849834764115467
sg14
I2
sg15
I01
sg16
I4
sg17
I7
sbs(I5
I5
tp69
g1
(g10
g3
NtRp70
(dp71
g13
F-0.28503874053715905
sg14
I5
sg15
I01
sg16
I5
sg17
I24
sbssS'_input_nodes'
p72
I1
sS'_output_nodes'
p73
I1
sS'_node_gene_type'
p74
cneat.genome
NodeGene
p75
sS'_conn_gene_type'
p76
g10
sS'fitness'
p77
F0.0093750740535900792
sS'parent2_id'
p78
I3587
sS'_id'
p79
I3613
sS'parent1_id'
p80
I3587
sS'_node_genes'
p81
(lp82
g1
(g75
g3
NtRp83
(dp84
S'_bias'
p85
I0
sS'_type'
p86
S'INPUT'
p87
sg79
I1
sS'_response'
p88
F4.9242730000000003
sS'_activation_type'
p89
Nsbag1
(g75
g3
NtRp90
(dp91
g85
F0.64333954491202971
sg86
S'OUTPUT'
p92
sg79
I2
sg88
F6.1082743193466378
sg89
S'tanh'
p93
sbag1
(g75
g3
NtRp94
(dp95
g85
F-1.6545838184463739
sg86
S'HIDDEN'
p96
sg79
I3
sg88
F4.4375577535906761
sg89
g93
sbag1
(g75
g3
NtRp97
(dp98
g85
F-1.0085557085099048
sg86
g96
sg79
I4
sg88
F5.0668764319418145
sg89
g93
sbag1
(g75
g3
NtRp99
(dp100
g85
F-1.6381634105339202
sg86
g96
sg79
I5
sg88
F6.7040742840756113
sg89
g93
sbag1
(g75
g3
NtRp101
(dp102
g85
F0.87879491352785555
sg86
g96
sg79
I6
sg88
F3.814343183604056
sg89
g93
sbag1
(g75
g3
NtRp103
(dp104
g85
F1.3854961878552907
sg86
g96
sg79
I7
sg88
F6.3278608670977414
sg89
g93
sbasb.