ccopy_reg
_reconstructor
p1
(cneat.chromosome
Chromosome
p2
c__builtin__
object
p3
NtRp4
(dp5
S'species_id'
p6
I22
sS'_connection_genes'
p7
(dp8
(I1
I2
tp9
g1
(cneat.genome
ConnectionGene
p10
g3
NtRp11
(dp12
S'_ConnectionGene__weight'
p13
F-8.5343136492964948
sS'_ConnectionGene__in'
p14
I1
sS'_ConnectionGene__enabled'
p15
I01
sS'_ConnectionGene__out'
p16
I2
sS'_ConnectionGene__innov_number'
p17
I1
sbs(I3
I2
tp18
g1
(g10
g3
NtRp19
(dp20
g13
F-20.793774855075412
sg14
I3
sg15
I01
sg16
I2
sg17
I4
sbs(I1
I3
tp21
g1
(g10
g3
NtRp22
(dp23
g13
F8.3076614232059374
sg14
I1
sg15
I01
sg16
I3
sg17
I3
sbs(I3
I3
tp24
g1
(g10
g3
NtRp25
(dp26
g13
F-3.845622013175797
sg14
I3
sg15
I01
sg16
I3
sg17
I6
sbs(I4
I5
tp27
g1
(g10
g3
NtRp28
(dp29
g13
F5.7217498324431872
sg14
I4
sg15
I01
sg16
I5
sg17
I19
sbs(I4
I4
tp30
g1
(g10
g3
NtRp31
(dp32
g13
F9.2660710180321963
sg14
I4
sg15
I01
sg16
I4
sg17
I12
sbs(I2
I3
tp33
g1
(g10
g3
NtRp34
(dp35
g13
F3.459282759569168
sg14
I2
sg15
I01
sg16
I3
sg17
I5
sbs(I4
I3
tp36
g1
(g10
g3
NtRp37
(dp38
g13
F6.8211178447755962
sg14
I4
sg15
I00
sg16
I3
sg17
I10
sbs(I2
I2
tp39
g1
(g10
g3
NtRp40
(dp41
g13
F-16.974387572095324
sg14
I2
sg15
I00
sg16
I2
sg17
I2
sbs(I5
I3
tp42
g1
(g10
g3
NtRp43
(dp44
g13
F11.821299171407935
sg14
I5
sg15
I01
sg16
I3
sg17
I15
sbs(I3
I4
tp45
g1
(g10
g3
NtRp46
(dp47
g13
F5.1801638939320362
sg14
I3
sg15
I01
sg16
I4
sg17
I11
sbs(I2
I4
tp48
g1
(g10
g3
NtRp49
(dp50
g13
F14.600394396582223
sg14
I2
sg15
I01
sg16
I4
sg17
I7
sbs(I3
I5
tp51
g1
(g10
g3
NtRp52
(dp53
g13
F0.57309218577675614
sg14
I3
sg15
I01
sg16
I5
sg17
I13
sbssS'_input_nodes'
p54
I1
sS'_output_nodes'
p55
I1
sS'_node_gene_type'
p56
cneat.genome
NodeGene
p57
sS'_conn_gene_type'
p58
g10
sS'fitness'
p59
F0.0070528255259855966
sS'parent2_id'
p60
I2739
sS'_id'
p61
I2756
sS'parent1_id'
p62
I2739
sS'_node_genes'
p63
(lp64
g1
(g57
g3
NtRp65
(dp66
S'_bias'
p67
I0
sS'_type'
p68
S'INPUT'
p69
sg61
I1
sS'_response'
p70
F4.9242730000000003
sS'_activation_type'
p71
Nsbag1
(g57
g3
NtRp72
(dp73
g67
F-0.021408575391579136
sg68
S'OUTPUT'
p74
sg61
I2
sg70
F3.9442514744776629
sg71
S'tanh'
p75
sbag1
(g57
g3
NtRp76
(dp77
g67
F-2.2839468447430242
sg68
S'HIDDEN'
p78
sg61
I3
sg70
F4.1895249282695746
sg71
g75
sbag1
(g57
g3
NtRp79
(dp80
g67
F-0.9654937204008508
sg68
g78
sg61
I4
sg70
F4.0571269174184303
sg71
g75
sbag1
(g57
g3
NtRp81
(dp82
g67
F-0.74651933323234088
sg68
g78
sg61
I5
sg70
F4.9572994070951886
sg71
g75
sbasb.