ccopy_reg
_reconstructor
p1
(cneat.chromosome
Chromosome
p2
c__builtin__
object
p3
NtRp4
(dp5
S'species_id'
p6
I25
sS'_connection_genes'
p7
(dp8
(I1
I2
tp9
g1
(cneat.genome
ConnectionGene
p10
g3
NtRp11
(dp12
S'_ConnectionGene__weight'
p13
F-18.370109127439168
sS'_ConnectionGene__in'
p14
I1
sS'_ConnectionGene__enabled'
p15
I01
sS'_ConnectionGene__out'
p16
I2
sS'_ConnectionGene__innov_number'
p17
I1
sbs(I3
I2
tp18
g1
(g10
g3
NtRp19
(dp20
g13
F-24.460979795553676
sg14
I3
sg15
I00
sg16
I2
sg17
I4
sbs(I2
I6
tp21
g1
(g10
g3
NtRp22
(dp23
g13
F-5.8329736048161855
sg14
I2
sg15
I01
sg16
I6
sg17
I33
sbs(I3
I3
tp24
g1
(g10
g3
NtRp25
(dp26
g13
F-8.4306030024448457
sg14
I3
sg15
I00
sg16
I3
sg17
I6
sbs(I5
I6
tp27
g1
(g10
g3
NtRp28
(dp29
g13
F1.2570548765653111
sg14
I5
sg15
I01
sg16
I6
sg17
I20
sbs(I4
I4
tp30
g1
(g10
g3
NtRp31
(dp32
g13
F18.782445152984252
sg14
I4
sg15
I01
sg16
I4
sg17
I12
sbs(I6
I3
tp33
g1
(g10
g3
NtRp34
(dp35
g13
F-5.249607046119487
sg14
I6
sg15
I01
sg16
I3
sg17
I21
sbs(I6
I2
tp36
g1
(g10
g3
NtRp37
(dp38
g13
F-19.270327227551956
sg14
I6
sg15
I01
sg16
I2
sg17
I23
sbs(I2
I3
tp39
g1
(g10
g3
NtRp40
(dp41
g13
F4.8406600765719627
sg14
I2
sg15
I00
sg16
I3
sg17
I5
sbs(I3
I6
tp42
g1
(g10
g3
NtRp43
(dp44
g13
F-2.1330939449895912
sg14
I3
sg15
I01
sg16
I6
sg17
I22
sbs(I2
I2
tp45
g1
(g10
g3
NtRp46
(dp47
g13
F-30
sg14
I2
sg15
I01
sg16
I2
sg17
I2
sbs(I4
I3
tp48
g1
(g10
g3
NtRp49
(dp50
g13
F17.232253324596471
sg14
I4
sg15
I01
sg16
I3
sg17
I10
sbs(I5
I3
tp51
g1
(g10
g3
NtRp52
(dp53
g13
F-23.502488309803589
sg14
I5
sg15
I01
sg16
I3
sg17
I15
sbs(I2
I4
tp54
g1
(g10
g3
NtRp55
(dp56
g13
F-4.7995251660754237
sg14
I2
sg15
I01
sg16
I4
sg17
I7
sbs(I3
I5
tp57
g1
(g10
g3
NtRp58
(dp59
g13
F-11.574031831969785
sg14
I3
sg15
I01
sg16
I5
sg17
I13
sbssS'_input_nodes'
p60
I1
sS'_output_nodes'
p61
I1
sS'_node_gene_type'
p62
cneat.genome
NodeGene
p63
sS'_conn_gene_type'
p64
g10
sS'fitness'
p65
F0.0097467718144675052
sS'parent2_id'
p66
I3016
sS'_id'
p67
I3032
sS'parent1_id'
p68
I3016
sS'_node_genes'
p69
(lp70
g1
(g63
g3
NtRp71
(dp72
S'_bias'
p73
I0
sS'_type'
p74
S'INPUT'
p75
sg67
I1
sS'_response'
p76
F4.9242730000000003
sS'_activation_type'
p77
Nsbag1
(g63
g3
NtRp78
(dp79
g73
F0.36399082726839049
sg74
S'OUTPUT'
p80
sg67
I2
sg76
F6.4674766818022507
sg77
S'tanh'
p81
sbag1
(g63
g3
NtRp82
(dp83
g73
F-2.934351238777102
sg74
S'HIDDEN'
p84
sg67
I3
sg76
F5.0362398080698538
sg77
g81
sbag1
(g63
g3
NtRp85
(dp86
g73
F-0.98521710653352579
sg74
g84
sg67
I4
sg76
F3.9715336170487232
sg77
g81
sbag1
(g63
g3
NtRp87
(dp88
g73
F-2.455878191867138
sg74
g84
sg67
I5
sg76
F4.3781242466551546
sg77
g81
sbag1
(g63
g3
NtRp89
(dp90
g73
F-1.628459688706575
sg74
g84
sg67
I6
sg76
F4.9640259760259813
sg77
g81
sbasb.