ccopy_reg
_reconstructor
p1
(cneat.chromosome
Chromosome
p2
c__builtin__
object
p3
NtRp4
(dp5
S'species_id'
p6
I20
sS'_connection_genes'
p7
(dp8
(I1
I2
tp9
g1
(cneat.genome
ConnectionGene
p10
g3
NtRp11
(dp12
S'_ConnectionGene__weight'
p13
F-29.52876293600691
sS'_ConnectionGene__in'
p14
I1
sS'_ConnectionGene__enabled'
p15
I01
sS'_ConnectionGene__out'
p16
I2
sS'_ConnectionGene__innov_number'
p17
I1
sbs(I3
I2
tp18
g1
(g10
g3
NtRp19
(dp20
g13
F-22.378811629694397
sg14
I3
sg15
I00
sg16
I2
sg17
I4
sbs(I2
I6
tp21
g1
(g10
g3
NtRp22
(dp23
g13
F-3.4322508769714424
sg14
I2
sg15
I01
sg16
I6
sg17
I33
sbs(I3
I3
tp24
g1
(g10
g3
NtRp25
(dp26
g13
F-5.8564170666866113
sg14
I3
sg15
I00
sg16
I3
sg17
I6
sbs(I4
I4
tp27
g1
(g10
g3
NtRp28
(dp29
g13
F11.424254920847909
sg14
I4
sg15
I01
sg16
I4
sg17
I12
sbs(I6
I2
tp30
g1
(g10
g3
NtRp31
(dp32
g13
F-10.076801760360084
sg14
I6
sg15
I01
sg16
I2
sg17
I23
sbs(I2
I3
tp33
g1
(g10
g3
NtRp34
(dp35
g13
F6.3463470568757527
sg14
I2
sg15
I00
sg16
I3
sg17
I5
sbs(I3
I6
tp36
g1
(g10
g3
NtRp37
(dp38
g13
F-4.4364443425676781
sg14
I3
sg15
I01
sg16
I6
sg17
I22
sbs(I2
I2
tp39
g1
(g10
g3
NtRp40
(dp41
g13
F-25.17659353461675
sg14
I2
sg15
I01
sg16
I2
sg17
I2
sbs(I4
I3
tp42
g1
(g10
g3
NtRp43
(dp44
g13
F14.829958930393932
sg14
I4
sg15
I01
sg16
I3
sg17
I10
sbs(I3
I5
tp45
g1
(g10
g3
NtRp46
(dp47
g13
F-15.746328032438653
sg14
I3
sg15
I01
sg16
I5
sg17
I13
sbs(I2
I4
tp48
g1
(g10
g3
NtRp49
(dp50
g13
F11.103098926074516
sg14
I2
sg15
I01
sg16
I4
sg17
I7
sbs(I5
I3
tp51
g1
(g10
g3
NtRp52
(dp53
g13
F-11.903599533270066
sg14
I5
sg15
I01
sg16
I3
sg17
I15
sbssS'_input_nodes'
p54
I1
sS'_output_nodes'
p55
I1
sS'_node_gene_type'
p56
cneat.genome
NodeGene
p57
sS'_conn_gene_type'
p58
g10
sS'fitness'
p59
F0.0095843569894592563
sS'parent2_id'
p60
I2446
sS'_id'
p61
I2480
sS'parent1_id'
p62
I2446
sS'_node_genes'
p63
(lp64
g1
(g57
g3
NtRp65
(dp66
S'_bias'
p67
I0
sS'_type'
p68
S'INPUT'
p69
sg61
I1
sS'_response'
p70
F4.9242730000000003
sS'_activation_type'
p71
Nsbag1
(g57
g3
NtRp72
(dp73
g67
F0.46204104695465009
sg68
S'OUTPUT'
p74
sg61
I2
sg70
F6.09440127120053
sg71
S'tanh'
p75
sbag1
(g57
g3
NtRp76
(dp77
g67
F-2.6656548922670358
sg68
S'HIDDEN'
p78
sg61
I3
sg70
F4.9130543475674386
sg71
g75
sbag1
(g57
g3
NtRp79
(dp80
g67
F-0.84505330054196304
sg68
g78
sg61
I4
sg70
F4.347285585485376
sg71
g75
sbag1
(g57
g3
NtRp81
(dp82
g67
F-2.3216549604477303
sg68
g78
sg61
I5
sg70
F3.7244809404012509
sg71
g75
sbag1
(g57
g3
NtRp83
(dp84
g67
F-0.39126312647028433
sg68
g78
sg61
I6
sg70
F4.9242730000000003
sg71
g75
sbasb.