ccopy_reg
_reconstructor
p1
(cneat.chromosome
Chromosome
p2
c__builtin__
object
p3
NtRp4
(dp5
S'species_id'
p6
I35
sS'_connection_genes'
p7
(dp8
(I1
I3
tp9
g1
(cneat.genome
ConnectionGene
p10
g3
NtRp11
(dp12
S'_ConnectionGene__weight'
p13
F-27.749127634527561
sS'_ConnectionGene__in'
p14
I1
sS'_ConnectionGene__enabled'
p15
I01
sS'_ConnectionGene__out'
p16
I3
sS'_ConnectionGene__innov_number'
p17
I2
sbs(I3
I2
tp18
g1
(g10
g3
NtRp19
(dp20
g13
F-18.692866267443062
sg14
I3
sg15
I01
sg16
I2
sg17
I3
sbs(I6
I2
tp21
g1
(g10
g3
NtRp22
(dp23
g13
F13.781902718305622
sg14
I6
sg15
I01
sg16
I2
sg17
I15
sbs(I1
I6
tp24
g1
(g10
g3
NtRp25
(dp26
g13
F-8.4113466999173081
sg14
I1
sg15
I01
sg16
I6
sg17
I18
sbs(I1
I2
tp27
g1
(g10
g3
NtRp28
(dp29
g13
F26.238500689778061
sg14
I1
sg15
I01
sg16
I2
sg17
I1
sbs(I5
I5
tp30
g1
(g10
g3
NtRp31
(dp32
g13
F20.556150968720864
sg14
I5
sg15
I00
sg16
I5
sg17
I17
sbs(I7
I6
tp33
g1
(g10
g3
NtRp34
(dp35
g13
F-3.4519134758197429
sg14
I7
sg15
I01
sg16
I6
sg17
I44
sbs(I4
I4
tp36
g1
(g10
g3
NtRp37
(dp38
g13
F5.288920479824597
sg14
I4
sg15
I01
sg16
I4
sg17
I12
sbs(I6
I3
tp39
g1
(g10
g3
NtRp40
(dp41
g13
F-0.615914309345029
sg14
I6
sg15
I01
sg16
I3
sg17
I95
sbs(I2
I2
tp42
g1
(g10
g3
NtRp43
(dp44
g13
F3.3302601045787594
sg14
I2
sg15
I01
sg16
I2
sg17
I4
sbs(I5
I4
tp45
g1
(g10
g3
NtRp46
(dp47
g13
F5.4817897236175135
sg14
I5
sg15
I01
sg16
I4
sg17
I20
sbs(I8
I2
tp48
g1
(g10
g3
NtRp49
(dp50
g13
F-26.19303079582297
sg14
I8
sg15
I01
sg16
I2
sg17
I26
sbs(I4
I5
tp51
g1
(g10
g3
NtRp52
(dp53
g13
F14.057864167317858
sg14
I4
sg15
I01
sg16
I5
sg17
I10
sbs(I1
I4
tp54
g1
(g10
g3
NtRp55
(dp56
g13
F5.8894712381834129
sg14
I1
sg15
I01
sg16
I4
sg17
I7
sbs(I7
I5
tp57
g1
(g10
g3
NtRp58
(dp59
g13
F15.990122785967635
sg14
I7
sg15
I01
sg16
I5
sg17
I40
sbs(I1
I9
tp60
g1
(g10
g3
NtRp61
(dp62
g13
F-17.037821822145521
sg14
I1
sg15
I01
sg16
I9
sg17
I51
sbs(I4
I2
tp63
g1
(g10
g3
NtRp64
(dp65
g13
F-2.0080918406109967
sg14
I4
sg15
I01
sg16
I2
sg17
I8
sbs(I10
I5
tp66
g1
(g10
g3
NtRp67
(dp68
g13
F20.556150968720864
sg14
I10
sg15
I01
sg16
I5
sg17
I70
sbs(I5
I10
tp69
g1
(g10
g3
NtRp70
(dp71
g13
F1
sg14
I5
sg15
I01
sg16
I10
sg17
I85
sbs(I9
I2
tp72
g1
(g10
g3
NtRp73
(dp74
g13
F-4.0832228779330375
sg14
I9
sg15
I01
sg16
I2
sg17
I52
sbs(I3
I4
tp75
g1
(g10
g3
NtRp76
(dp77
g13
F-18.765000716515033
sg14
I3
sg15
I01
sg16
I4
sg17
I13
sbs(I3
I8
tp78
g1
(g10
g3
NtRp79
(dp80
g13
F-21.290342974168365
sg14
I3
sg15
I01
sg16
I8
sg17
I39
sbs(I1
I7
tp81
g1
(g10
g3
NtRp82
(dp83
g13
F4.8281957764216799
sg14
I1
sg15
I01
sg16
I7
sg17
I31
sbs(I5
I2
tp84
g1
(g10
g3
NtRp85
(dp86
g13
F-21.1290733966643
sg14
I5
sg15
I01
sg16
I2
sg17
I11
sbssS'_input_nodes'
p87
I1
sS'_output_nodes'
p88
I1
sS'_node_gene_type'
p89
cneat.genome
NodeGene
p90
sS'_conn_gene_type'
p91
g10
sS'fitness'
p92
F-0.47921321216409496
sS'parent2_id'
p93
I3226
sS'_id'
p94
I3245
sS'parent1_id'
p95
I3226
sS'_node_genes'
p96
(lp97
g1
(g90
g3
NtRp98
(dp99
S'_bias'
p100
I0
sS'_type'
p101
S'INPUT'
p102
sg94
I1
sS'_response'
p103
F4.9242730000000003
sS'_activation_type'
p104
Nsbag1
(g90
g3
NtRp105
(dp106
g100
F5.0093208376338776
sg101
S'OUTPUT'
p107
sg94
I2
sg103
F4.9474418814653918
sg104
S'tanh'
p108
sbag1
(g90
g3
NtRp109
(dp110
g100
F4.7753513523395936
sg101
S'HIDDEN'
p111
sg94
I3
sg103
F4.6763681389749214
sg104
g108
sbag1
(g90
g3
NtRp112
(dp113
g100
F0.53251186738437573
sg101
g111
sg94
I4
sg103
F3.9948381304997334
sg104
g108
sbag1
(g90
g3
NtRp114
(dp115
g100
F3.1038450466350072
sg101
g111
sg94
I5
sg103
F6.161601497192196
sg104
g108
sbag1
(g90
g3
NtRp116
(dp117
g100
F-0.10466574088248363
sg101
g111
sg94
I6
sg103
F2.2416360689980088
sg104
g108
sbag1
(g90
g3
NtRp118
(dp119
g100
F-2.4568205335368694
sg101
g111
sg94
I7
sg103
F6.2202466651283297
sg104
g108
sbag1
(g90
g3
NtRp120
(dp121
g100
F2.2921262017071324
sg101
g111
sg94
I8
sg103
F6.9090580173022627
sg104
g108
sbag1
(g90
g3
NtRp122
(dp123
g100
F-1.0389886694369641
sg101
g111
sg94
I9
sg103
F5.7001305670566929
sg104
g108
sbag1
(g90
g3
NtRp124
(dp125
g100
I0
sg101
g111
sg94
I10
sg103
F4.9242730000000003
sg104
g108
sbasb.