ccopy_reg
_reconstructor
p1
(cneat.chromosome
Chromosome
p2
c__builtin__
object
p3
NtRp4
(dp5
S'species_id'
p6
I34
sS'_connection_genes'
p7
(dp8
(I6
I9
tp9
g1
(cneat.genome
ConnectionGene
p10
g3
NtRp11
(dp12
S'_ConnectionGene__weight'
p13
F-1.0976269940674028
sS'_ConnectionGene__in'
p14
I6
sS'_ConnectionGene__enabled'
p15
I01
sS'_ConnectionGene__out'
p16
I9
sS'_ConnectionGene__innov_number'
p17
I56
sbs(I1
I3
tp18
g1
(g10
g3
NtRp19
(dp20
g13
F-0.21585923700298526
sg14
I1
sg15
I01
sg16
I3
sg17
I2
sbs(I4
I8
tp21
g1
(g10
g3
NtRp22
(dp23
g13
F5.0183522126336504
sg14
I4
sg15
I00
sg16
I8
sg17
I25
sbs(I5
I6
tp24
g1
(g10
g3
NtRp25
(dp26
g13
F-2.1394730294621067
sg14
I5
sg15
I01
sg16
I6
sg17
I38
sbs(I11
I2
tp27
g1
(g10
g3
NtRp28
(dp29
g13
F6.4056054158067983
sg14
I11
sg15
I01
sg16
I2
sg17
I74
sbs(I6
I2
tp30
g1
(g10
g3
NtRp31
(dp32
g13
F-24.115854074000826
sg14
I6
sg15
I01
sg16
I2
sg17
I15
sbs(I1
I6
tp33
g1
(g10
g3
NtRp34
(dp35
g13
F27.669391617140782
sg14
I1
sg15
I01
sg16
I6
sg17
I18
sbs(I7
I11
tp36
g1
(g10
g3
NtRp37
(dp38
g13
F-2.208323719722562
sg14
I7
sg15
I01
sg16
I11
sg17
I87
sbs(I3
I7
tp39
g1
(g10
g3
NtRp40
(dp41
g13
F1.2346590392075538
sg14
I3
sg15
I01
sg16
I7
sg17
I23
sbs(I7
I2
tp42
g1
(g10
g3
NtRp43
(dp44
g13
F8.4932776503759868
sg14
I7
sg15
I00
sg16
I2
sg17
I24
sbs(I1
I2
tp45
g1
(g10
g3
NtRp46
(dp47
g13
F23.065074807355508
sg14
I1
sg15
I01
sg16
I2
sg17
I1
sbs(I10
I8
tp48
g1
(g10
g3
NtRp49
(dp50
g13
F15.836629520372673
sg14
I10
sg15
I01
sg16
I8
sg17
I72
sbs(I4
I4
tp51
g1
(g10
g3
NtRp52
(dp53
g13
F-4.4606341718118632
sg14
I4
sg15
I01
sg16
I4
sg17
I12
sbs(I1
I5
tp54
g1
(g10
g3
NtRp55
(dp56
g13
F-6.9316885630520915
sg14
I1
sg15
I01
sg16
I5
sg17
I22
sbs(I3
I5
tp57
g1
(g10
g3
NtRp58
(dp59
g13
F-20.696139471867511
sg14
I3
sg15
I01
sg16
I5
sg17
I16
sbs(I4
I10
tp60
g1
(g10
g3
NtRp61
(dp62
g13
F-4.6969976552645569
sg14
I4
sg15
I01
sg16
I10
sg17
I71
sbs(I3
I2
tp63
g1
(g10
g3
NtRp64
(dp65
g13
F-17.976200345532501
sg14
I3
sg15
I01
sg16
I2
sg17
I3
sbs(I8
I2
tp66
g1
(g10
g3
NtRp67
(dp68
g13
F16.465759052012331
sg14
I8
sg15
I01
sg16
I2
sg17
I26
sbs(I4
I5
tp69
g1
(g10
g3
NtRp70
(dp71
g13
F-26.086075317889833
sg14
I4
sg15
I01
sg16
I5
sg17
I10
sbs(I1
I4
tp72
g1
(g10
g3
NtRp73
(dp74
g13
F-9.4626003835383052
sg14
I1
sg15
I01
sg16
I4
sg17
I7
sbs(I4
I2
tp75
g1
(g10
g3
NtRp76
(dp77
g13
F11.452056717799902
sg14
I4
sg15
I00
sg16
I2
sg17
I8
sbs(I7
I9
tp78
g1
(g10
g3
NtRp79
(dp80
g13
F8.4008945180125956
sg14
I7
sg15
I01
sg16
I9
sg17
I54
sbs(I10
I10
tp81
g1
(g10
g3
NtRp82
(dp83
g13
F6.2772821503187908
sg14
I10
sg15
I01
sg16
I10
sg17
I92
sbs(I9
I2
tp84
g1
(g10
g3
NtRp85
(dp86
g13
F-13.6264435611513
sg14
I9
sg15
I01
sg16
I2
sg17
I52
sbs(I4
I3
tp87
g1
(g10
g3
NtRp88
(dp89
g13
F-2.0782816583141712
sg14
I4
sg15
I01
sg16
I3
sg17
I27
sbs(I1
I7
tp90
g1
(g10
g3
NtRp91
(dp92
g13
F-4.0616368817064004
sg14
I1
sg15
I01
sg16
I7
sg17
I31
sbs(I5
I2
tp93
g1
(g10
g3
NtRp94
(dp95
g13
F-10.760375573333624
sg14
I5
sg15
I01
sg16
I2
sg17
I11
sbssS'_input_nodes'
p96
I1
sS'_output_nodes'
p97
I1
sS'_node_gene_type'
p98
cneat.genome
NodeGene
p99
sS'_conn_gene_type'
p100
g10
sS'fitness'
p101
F-0.37086301622477125
sS'parent2_id'
p102
I3052
sS'_id'
p103
I3058
sS'parent1_id'
p104
I3038
sS'_node_genes'
p105
(lp106
g1
(g99
g3
NtRp107
(dp108
S'_bias'
p109
I0
sS'_type'
p110
S'INPUT'
p111
sg103
I1
sS'_response'
p112
F4.9242730000000003
sS'_activation_type'
p113
Nsbag1
(g99
g3
NtRp114
(dp115
g109
F0.52975520824808475
sg110
S'OUTPUT'
p116
sg103
I2
sg112
F3.428025784229646
sg113
S'tanh'
p117
sbag1
(g99
g3
NtRp118
(dp119
g109
F0.2452447501905301
sg110
S'HIDDEN'
p120
sg103
I3
sg112
F9.9192459116357412
sg113
g117
sbag1
(g99
g3
NtRp121
(dp122
g109
F0.7846557421670779
sg110
g120
sg103
I4
sg112
F5.101314017892582
sg113
g117
sbag1
(g99
g3
NtRp123
(dp124
g109
F-2.8071112771427957
sg110
g120
sg103
I5
sg112
F8.4759875702986989
sg113
g117
sbag1
(g99
g3
NtRp125
(dp126
g109
F0.039710364797012176
sg110
g120
sg103
I6
sg112
F5.6677859015142964
sg113
g117
sbag1
(g99
g3
NtRp127
(dp128
g109
F1.5180866803938788
sg110
g120
sg103
I7
sg112
F5.0060840761610903
sg113
g117
sbag1
(g99
g3
NtRp129
(dp130
g109
F-3.2523960013834836
sg110
g120
sg103
I8
sg112
F4.3515964700388903
sg113
g117
sbag1
(g99
g3
NtRp131
(dp132
g109
F0.17794490391477702
sg110
g120
sg103
I9
sg112
F4.5550207110308394
sg113
g117
sbag1
(g99
g3
NtRp133
(dp134
g109
F-0.87889668221064321
sg110
g120
sg103
I10
sg112
F3.604887292107978
sg113
g117
sbag1
(g99
g3
NtRp135
(dp136
g109
F-0.24942624949407344
sg110
g120
sg103
I11
sg112
F6.6174828472118925
sg113
g117
sbasb.