ccopy_reg
_reconstructor
p1
(cneat.chromosome
Chromosome
p2
c__builtin__
object
p3
NtRp4
(dp5
S'species_id'
p6
I9
sS'_connection_genes'
p7
(dp8
(I1
I2
tp9
g1
(cneat.genome
ConnectionGene
p10
g3
NtRp11
(dp12
S'_ConnectionGene__weight'
p13
F8.6998235355762752
sS'_ConnectionGene__in'
p14
I1
sS'_ConnectionGene__enabled'
p15
I00
sS'_ConnectionGene__out'
p16
I2
sS'_ConnectionGene__innov_number'
p17
I1
sbs(I3
I2
tp18
g1
(g10
g3
NtRp19
(dp20
g13
F-11.962715215056489
sg14
I3
sg15
I00
sg16
I2
sg17
I3
sbs(I1
I3
tp21
g1
(g10
g3
NtRp22
(dp23
g13
F-7.3403125547098895
sg14
I1
sg15
I01
sg16
I3
sg17
I2
sbs(I4
I5
tp24
g1
(g10
g3
NtRp25
(dp26
g13
F-12.351489437502313
sg14
I4
sg15
I01
sg16
I5
sg17
I10
sbs(I4
I2
tp27
g1
(g10
g3
NtRp28
(dp29
g13
F13.888861895561819
sg14
I4
sg15
I01
sg16
I2
sg17
I8
sbs(I4
I4
tp30
g1
(g10
g3
NtRp31
(dp32
g13
F-4.6883812134513843
sg14
I4
sg15
I01
sg16
I4
sg17
I12
sbs(I1
I4
tp33
g1
(g10
g3
NtRp34
(dp35
g13
F-1.9734152898689126
sg14
I1
sg15
I01
sg16
I4
sg17
I7
sbs(I1
I5
tp36
g1
(g10
g3
NtRp37
(dp38
g13
F-5.8736688903932235
sg14
I1
sg15
I01
sg16
I5
sg17
I22
sbs(I6
I2
tp39
g1
(g10
g3
NtRp40
(dp41
g13
F-11.589228016618183
sg14
I6
sg15
I01
sg16
I2
sg17
I15
sbs(I1
I6
tp42
g1
(g10
g3
NtRp43
(dp44
g13
F15.165009816913651
sg14
I1
sg15
I01
sg16
I6
sg17
I18
sbs(I1
I7
tp45
g1
(g10
g3
NtRp46
(dp47
g13
F-1.3360545336512215
sg14
I1
sg15
I01
sg16
I7
sg17
I31
sbs(I3
I7
tp48
g1
(g10
g3
NtRp49
(dp50
g13
F-4.1541581372707004
sg14
I3
sg15
I01
sg16
I7
sg17
I23
sbs(I5
I2
tp51
g1
(g10
g3
NtRp52
(dp53
g13
F-6.9824661005124424
sg14
I5
sg15
I01
sg16
I2
sg17
I11
sbs(I7
I2
tp54
g1
(g10
g3
NtRp55
(dp56
g13
F3.6900583365646664
sg14
I7
sg15
I01
sg16
I2
sg17
I24
sbssS'_input_nodes'
p57
I1
sS'_output_nodes'
p58
I1
sS'_node_gene_type'
p59
cneat.genome
NodeGene
p60
sS'_conn_gene_type'
p61
g10
sS'fitness'
p62
F-0.079629968590866101
sS'parent2_id'
p63
I734
sS'_id'
p64
I789
sS'parent1_id'
p65
I746
sS'_node_genes'
p66
(lp67
g1
(g60
g3
NtRp68
(dp69
S'_bias'
p70
I0
sS'_type'
p71
S'INPUT'
p72
sg64
I1
sS'_response'
p73
F4.9242730000000003
sS'_activation_type'
p74
Nsbag1
(g60
g3
NtRp75
(dp76
g70
F1.3683410720387992
sg71
S'OUTPUT'
p77
sg64
I2
sg73
F4.950328023696505
sg74
S'tanh'
p78
sbag1
(g60
g3
NtRp79
(dp80
g70
F1.9236928474888799
sg71
S'HIDDEN'
p81
sg64
I3
sg73
F5.1116321771667517
sg74
g78
sbag1
(g60
g3
NtRp82
(dp83
g70
F-0.62385942751601231
sg71
g81
sg64
I4
sg73
F4.7074939322309302
sg74
g78
sbag1
(g60
g3
NtRp84
(dp85
g70
F0.62762591867346429
sg71
g81
sg64
I5
sg73
F5.4352820107121191
sg74
g78
sbag1
(g60
g3
NtRp86
(dp87
g70
I0
sg71
g81
sg64
I6
sg73
F3.0003928853967388
sg74
g78
sbag1
(g60
g3
NtRp88
(dp89
g70
I0
sg71
g81
sg64
I7
sg73
F5.353183372916142
sg74
g78
sbasb.