ccopy_reg
_reconstructor
p1
(cneat.chromosome
Chromosome
p2
c__builtin__
object
p3
NtRp4
(dp5
S'species_id'
p6
I31
sS'_connection_genes'
p7
(dp8
(I1
I3
tp9
g1
(cneat.genome
ConnectionGene
p10
g3
NtRp11
(dp12
S'_ConnectionGene__weight'
p13
F0.79137525925692676
sS'_ConnectionGene__in'
p14
I1
sS'_ConnectionGene__enabled'
p15
I00
sS'_ConnectionGene__out'
p16
I3
sS'_ConnectionGene__innov_number'
p17
I2
sbs(I4
I8
tp18
g1
(g10
g3
NtRp19
(dp20
g13
F13.030092324513248
sg14
I4
sg15
I00
sg16
I8
sg17
I25
sbs(I5
I6
tp21
g1
(g10
g3
NtRp22
(dp23
g13
F6.8486930682081075
sg14
I5
sg15
I01
sg16
I6
sg17
I38
sbs(I6
I2
tp24
g1
(g10
g3
NtRp25
(dp26
g13
F-23.870458875574606
sg14
I6
sg15
I00
sg16
I2
sg17
I15
sbs(I1
I6
tp27
g1
(g10
g3
NtRp28
(dp29
g13
F26.447364252163631
sg14
I1
sg15
I01
sg16
I6
sg17
I18
sbs(I3
I7
tp30
g1
(g10
g3
NtRp31
(dp32
g13
F4.4314101045577923
sg14
I3
sg15
I01
sg16
I7
sg17
I23
sbs(I1
I11
tp33
g1
(g10
g3
NtRp34
(dp35
g13
F1
sg14
I1
sg15
I01
sg16
I11
sg17
I81
sbs(I7
I2
tp36
g1
(g10
g3
NtRp37
(dp38
g13
F15.005536449090741
sg14
I7
sg15
I00
sg16
I2
sg17
I24
sbs(I1
I2
tp39
g1
(g10
g3
NtRp40
(dp41
g13
F29.033090554674132
sg14
I1
sg15
I01
sg16
I2
sg17
I1
sbs(I10
I8
tp42
g1
(g10
g3
NtRp43
(dp44
g13
F14.582674767048935
sg14
I10
sg15
I00
sg16
I8
sg17
I72
sbs(I4
I4
tp45
g1
(g10
g3
NtRp46
(dp47
g13
F-9.9932116317738142
sg14
I4
sg15
I01
sg16
I4
sg17
I12
sbs(I1
I5
tp48
g1
(g10
g3
NtRp49
(dp50
g13
F-3.2044912646813044
sg14
I1
sg15
I01
sg16
I5
sg17
I22
sbs(I3
I5
tp51
g1
(g10
g3
NtRp52
(dp53
g13
F-15.644329928749
sg14
I3
sg15
I01
sg16
I5
sg17
I16
sbs(I4
I10
tp54
g1
(g10
g3
NtRp55
(dp56
g13
F-1.2124001867838596
sg14
I4
sg15
I01
sg16
I10
sg17
I71
sbs(I3
I2
tp57
g1
(g10
g3
NtRp58
(dp59
g13
F-17.247984548398513
sg14
I3
sg15
I00
sg16
I2
sg17
I3
sbs(I8
I2
tp60
g1
(g10
g3
NtRp61
(dp62
g13
F10.110570311105857
sg14
I8
sg15
I01
sg16
I2
sg17
I26
sbs(I4
I5
tp63
g1
(g10
g3
NtRp64
(dp65
g13
F-28.202709564656953
sg14
I4
sg15
I01
sg16
I5
sg17
I10
sbs(I1
I4
tp66
g1
(g10
g3
NtRp67
(dp68
g13
F-6.5201500354925503
sg14
I1
sg15
I01
sg16
I4
sg17
I7
sbs(I4
I2
tp69
g1
(g10
g3
NtRp70
(dp71
g13
F10.104552332692494
sg14
I4
sg15
I00
sg16
I2
sg17
I8
sbs(I7
I9
tp72
g1
(g10
g3
NtRp73
(dp74
g13
F2.8507510993504011
sg14
I7
sg15
I01
sg16
I9
sg17
I54
sbs(I9
I2
tp75
g1
(g10
g3
NtRp76
(dp77
g13
F-10.732657261064961
sg14
I9
sg15
I01
sg16
I2
sg17
I52
sbs(I11
I3
tp78
g1
(g10
g3
NtRp79
(dp80
g13
F0.79137525925692676
sg14
I11
sg15
I01
sg16
I3
sg17
I82
sbs(I1
I7
tp81
g1
(g10
g3
NtRp82
(dp83
g13
F-4.1637430013624481
sg14
I1
sg15
I01
sg16
I7
sg17
I31
sbs(I5
I2
tp84
g1
(g10
g3
NtRp85
(dp86
g13
F-11.474601110343935
sg14
I5
sg15
I01
sg16
I2
sg17
I11
sbssS'_input_nodes'
p87
I1
sS'_output_nodes'
p88
I1
sS'_node_gene_type'
p89
cneat.genome
NodeGene
p90
sS'_conn_gene_type'
p91
g10
sS'fitness'
p92
F-0.30136558107549494
sS'parent2_id'
p93
I2689
sS'_id'
p94
I2697
sS'parent1_id'
p95
I2689
sS'_node_genes'
p96
(lp97
g1
(g90
g3
NtRp98
(dp99
S'_bias'
p100
I0
sS'_type'
p101
S'INPUT'
p102
sg94
I1
sS'_response'
p103
F4.9242730000000003
sS'_activation_type'
p104
Nsbag1
(g90
g3
NtRp105
(dp106
g100
F0.77365139956882234
sg101
S'OUTPUT'
p107
sg94
I2
sg103
F4.3133928978351479
sg104
S'tanh'
p108
sbag1
(g90
g3
NtRp109
(dp110
g100
F-0.25287303424558855
sg101
S'HIDDEN'
p111
sg94
I3
sg103
F10.508098043905429
sg104
g108
sbag1
(g90
g3
NtRp112
(dp113
g100
F-0.42831232699699279
sg101
g111
sg94
I4
sg103
F4.0033953081770477
sg104
g108
sbag1
(g90
g3
NtRp114
(dp115
g100
F-1.7437271358679602
sg101
g111
sg94
I5
sg103
F8.9954109549530212
sg104
g108
sbag1
(g90
g3
NtRp116
(dp117
g100
F-0.15834700700655135
sg101
g111
sg94
I6
sg103
F4.064699418094686
sg104
g108
sbag1
(g90
g3
NtRp118
(dp119
g100
F1.5266133008321447
sg101
g111
sg94
I7
sg103
F6.1352613224281862
sg104
g108
sbag1
(g90
g3
NtRp120
(dp121
g100
F-2.2726966706133314
sg101
g111
sg94
I8
sg103
F4.2791214981806904
sg104
g108
sbag1
(g90
g3
NtRp122
(dp123
g100
F-0.75889687043081222
sg101
g111
sg94
I9
sg103
F4.6429470623006193
sg104
g108
sbag1
(g90
g3
NtRp124
(dp125
g100
F0.52643733799685832
sg101
g111
sg94
I10
sg103
F5.7423124371520364
sg104
g108
sbag1
(g90
g3
NtRp126
(dp127
g100
I0
sg101
g111
sg94
I11
sg103
F4.9242730000000003
sg104
g108
sbasb.