ccopy_reg
_reconstructor
p1
(cneat.chromosome
Chromosome
p2
c__builtin__
object
p3
NtRp4
(dp5
S'species_id'
p6
I32
sS'_connection_genes'
p7
(dp8
(I1
I2
tp9
g1
(cneat.genome
ConnectionGene
p10
g3
NtRp11
(dp12
S'_ConnectionGene__weight'
p13
F16.381470445983929
sS'_ConnectionGene__in'
p14
I1
sS'_ConnectionGene__enabled'
p15
I00
sS'_ConnectionGene__out'
p16
I2
sS'_ConnectionGene__innov_number'
p17
I1
sbs(I3
I2
tp18
g1
(g10
g3
NtRp19
(dp20
g13
F-12.005359790965112
sg14
I3
sg15
I00
sg16
I2
sg17
I3
sbs(I1
I3
tp21
g1
(g10
g3
NtRp22
(dp23
g13
F-26.21649118236828
sg14
I1
sg15
I01
sg16
I3
sg17
I2
sbs(I5
I5
tp24
g1
(g10
g3
NtRp25
(dp26
g13
F12.806789891671677
sg14
I5
sg15
I01
sg16
I5
sg17
I17
sbs(I4
I5
tp27
g1
(g10
g3
NtRp28
(dp29
g13
F15.048887895683793
sg14
I4
sg15
I01
sg16
I5
sg17
I10
sbs(I3
I4
tp30
g1
(g10
g3
NtRp31
(dp32
g13
F-10.466370888849564
sg14
I3
sg15
I01
sg16
I4
sg17
I13
sbs(I7
I6
tp33
g1
(g10
g3
NtRp34
(dp35
g13
F4.8259527087085541
sg14
I7
sg15
I01
sg16
I6
sg17
I44
sbs(I4
I4
tp36
g1
(g10
g3
NtRp37
(dp38
g13
F1.788410843280255
sg14
I4
sg15
I01
sg16
I4
sg17
I12
sbs(I5
I4
tp39
g1
(g10
g3
NtRp40
(dp41
g13
F6.4822374598128141
sg14
I5
sg15
I01
sg16
I4
sg17
I20
sbs(I1
I4
tp42
g1
(g10
g3
NtRp43
(dp44
g13
F-3.9075102065438108
sg14
I1
sg15
I01
sg16
I4
sg17
I7
sbs(I1
I7
tp45
g1
(g10
g3
NtRp46
(dp47
g13
F2.8735041209703311
sg14
I1
sg15
I01
sg16
I7
sg17
I31
sbs(I3
I8
tp48
g1
(g10
g3
NtRp49
(dp50
g13
F-12.107234819135037
sg14
I3
sg15
I01
sg16
I8
sg17
I39
sbs(I9
I2
tp51
g1
(g10
g3
NtRp52
(dp53
g13
F3.5910313525097055
sg14
I9
sg15
I01
sg16
I2
sg17
I52
sbs(I7
I5
tp54
g1
(g10
g3
NtRp55
(dp56
g13
F3.983960717272002
sg14
I7
sg15
I01
sg16
I5
sg17
I40
sbs(I1
I6
tp57
g1
(g10
g3
NtRp58
(dp59
g13
F-8.3040333603057626
sg14
I1
sg15
I01
sg16
I6
sg17
I18
sbs(I1
I9
tp60
g1
(g10
g3
NtRp61
(dp62
g13
F-5.0140491084775611
sg14
I1
sg15
I01
sg16
I9
sg17
I51
sbs(I2
I2
tp63
g1
(g10
g3
NtRp64
(dp65
g13
F2.5502044878746934
sg14
I2
sg15
I01
sg16
I2
sg17
I4
sbs(I6
I2
tp66
g1
(g10
g3
NtRp67
(dp68
g13
F5.7636612152423767
sg14
I6
sg15
I01
sg16
I2
sg17
I15
sbs(I4
I2
tp69
g1
(g10
g3
NtRp70
(dp71
g13
F-1.429102922860511
sg14
I4
sg15
I01
sg16
I2
sg17
I8
sbs(I5
I2
tp72
g1
(g10
g3
NtRp73
(dp74
g13
F-23.591111545304475
sg14
I5
sg15
I01
sg16
I2
sg17
I11
sbs(I8
I2
tp75
g1
(g10
g3
NtRp76
(dp77
g13
F-22.739347452948159
sg14
I8
sg15
I01
sg16
I2
sg17
I26
sbssS'_input_nodes'
p78
I1
sS'_output_nodes'
p79
I1
sS'_node_gene_type'
p80
cneat.genome
NodeGene
p81
sS'_conn_gene_type'
p82
g10
sS'fitness'
p83
F-0.24032240670620331
sS'parent2_id'
p84
I2847
sS'_id'
p85
I2871
sS'parent1_id'
p86
I2847
sS'_node_genes'
p87
(lp88
g1
(g81
g3
NtRp89
(dp90
S'_bias'
p91
I0
sS'_type'
p92
S'INPUT'
p93
sg85
I1
sS'_response'
p94
F4.9242730000000003
sS'_activation_type'
p95
Nsbag1
(g81
g3
NtRp96
(dp97
g91
F4.5539790979780559
sg92
S'OUTPUT'
p98
sg85
I2
sg94
F5.4211518901053317
sg95
S'tanh'
p99
sbag1
(g81
g3
NtRp100
(dp101
g91
F4.8722854426882165
sg92
S'HIDDEN'
p102
sg85
I3
sg94
F4.7879844226132757
sg95
g99
sbag1
(g81
g3
NtRp103
(dp104
g91
F1.2855798452743521
sg92
g102
sg85
I4
sg94
F4.9059748764484041
sg95
g99
sbag1
(g81
g3
NtRp105
(dp106
g91
F4.074115338417621
sg92
g102
sg85
I5
sg94
F5.9023933312834869
sg95
g99
sbag1
(g81
g3
NtRp107
(dp108
g91
F-0.021126808715903167
sg92
g102
sg85
I6
sg94
F3.582751787037056
sg95
g99
sbag1
(g81
g3
NtRp109
(dp110
g91
F-2.0645298792248883
sg92
g102
sg85
I7
sg94
F5.32287623767205
sg95
g99
sbag1
(g81
g3
NtRp111
(dp112
g91
F2.7802666792773438
sg92
g102
sg85
I8
sg94
F6.631745830630587
sg95
g99
sbag1
(g81
g3
NtRp113
(dp114
g91
F-1.1243058815442941
sg92
g102
sg85
I9
sg94
F5.1890007376959177
sg95
g99
sbasb.