ccopy_reg
_reconstructor
p1
(cneat.chromosome
Chromosome
p2
c__builtin__
object
p3
NtRp4
(dp5
S'species_id'
p6
I31
sS'_connection_genes'
p7
(dp8
(I1
I3
tp9
g1
(cneat.genome
ConnectionGene
p10
g3
NtRp11
(dp12
S'_ConnectionGene__weight'
p13
F1.0186092258886017
sS'_ConnectionGene__in'
p14
I1
sS'_ConnectionGene__enabled'
p15
I01
sS'_ConnectionGene__out'
p16
I3
sS'_ConnectionGene__innov_number'
p17
I2
sbs(I4
I8
tp18
g1
(g10
g3
NtRp19
(dp20
g13
F9.9585379508805207
sg14
I4
sg15
I00
sg16
I8
sg17
I25
sbs(I5
I6
tp21
g1
(g10
g3
NtRp22
(dp23
g13
F3.3721533779136612
sg14
I5
sg15
I01
sg16
I6
sg17
I38
sbs(I6
I2
tp24
g1
(g10
g3
NtRp25
(dp26
g13
F-24.980154213867067
sg14
I6
sg15
I00
sg16
I2
sg17
I15
sbs(I1
I6
tp27
g1
(g10
g3
NtRp28
(dp29
g13
F29.995492014488217
sg14
I1
sg15
I01
sg16
I6
sg17
I18
sbs(I3
I7
tp30
g1
(g10
g3
NtRp31
(dp32
g13
F3.4668492024369666
sg14
I3
sg15
I01
sg16
I7
sg17
I23
sbs(I7
I2
tp33
g1
(g10
g3
NtRp34
(dp35
g13
F15.26992437823958
sg14
I7
sg15
I00
sg16
I2
sg17
I24
sbs(I1
I2
tp36
g1
(g10
g3
NtRp37
(dp38
g13
F29.877355601327523
sg14
I1
sg15
I01
sg16
I2
sg17
I1
sbs(I10
I8
tp39
g1
(g10
g3
NtRp40
(dp41
g13
F14.03026512654643
sg14
I10
sg15
I00
sg16
I8
sg17
I72
sbs(I4
I4
tp42
g1
(g10
g3
NtRp43
(dp44
g13
F-10.518848649240045
sg14
I4
sg15
I01
sg16
I4
sg17
I12
sbs(I1
I5
tp45
g1
(g10
g3
NtRp46
(dp47
g13
F-3.762350560095955
sg14
I1
sg15
I01
sg16
I5
sg17
I22
sbs(I3
I5
tp48
g1
(g10
g3
NtRp49
(dp50
g13
F-13.153751937882985
sg14
I3
sg15
I01
sg16
I5
sg17
I16
sbs(I4
I10
tp51
g1
(g10
g3
NtRp52
(dp53
g13
F0.58087574209558568
sg14
I4
sg15
I01
sg16
I10
sg17
I71
sbs(I3
I2
tp54
g1
(g10
g3
NtRp55
(dp56
g13
F-18.839795329000296
sg14
I3
sg15
I00
sg16
I2
sg17
I3
sbs(I8
I2
tp57
g1
(g10
g3
NtRp58
(dp59
g13
F14.249334440467887
sg14
I8
sg15
I01
sg16
I2
sg17
I26
sbs(I4
I5
tp60
g1
(g10
g3
NtRp61
(dp62
g13
F-27.806350469734141
sg14
I4
sg15
I01
sg16
I5
sg17
I10
sbs(I1
I4
tp63
g1
(g10
g3
NtRp64
(dp65
g13
F-7.9864711026682329
sg14
I1
sg15
I01
sg16
I4
sg17
I7
sbs(I4
I2
tp66
g1
(g10
g3
NtRp67
(dp68
g13
F9.8382166459674245
sg14
I4
sg15
I00
sg16
I2
sg17
I8
sbs(I7
I9
tp69
g1
(g10
g3
NtRp70
(dp71
g13
F1.8596498887717665
sg14
I7
sg15
I01
sg16
I9
sg17
I54
sbs(I9
I2
tp72
g1
(g10
g3
NtRp73
(dp74
g13
F-10.84759213616921
sg14
I9
sg15
I01
sg16
I2
sg17
I52
sbs(I1
I7
tp75
g1
(g10
g3
NtRp76
(dp77
g13
F-3.9815539251903003
sg14
I1
sg15
I01
sg16
I7
sg17
I31
sbs(I5
I2
tp78
g1
(g10
g3
NtRp79
(dp80
g13
F-8.6191730596143383
sg14
I5
sg15
I01
sg16
I2
sg17
I11
sbssS'_input_nodes'
p81
I1
sS'_output_nodes'
p82
I1
sS'_node_gene_type'
p83
cneat.genome
NodeGene
p84
sS'_conn_gene_type'
p85
g10
sS'fitness'
p86
F-0.41936579393018958
sS'parent2_id'
p87
I2717
sS'_id'
p88
I2739
sS'parent1_id'
p89
I2717
sS'_node_genes'
p90
(lp91
g1
(g84
g3
NtRp92
(dp93
S'_bias'
p94
I0
sS'_type'
p95
S'INPUT'
p96
sg88
I1
sS'_response'
p97
F4.9242730000000003
sS'_activation_type'
p98
Nsbag1
(g84
g3
NtRp99
(dp100
g94
F0.77365139956882234
sg95
S'OUTPUT'
p101
sg88
I2
sg97
F3.6022000555978977
sg98
S'tanh'
p102
sbag1
(g84
g3
NtRp103
(dp104
g94
F-0.25287303424558855
sg95
S'HIDDEN'
p105
sg88
I3
sg97
F10.435286115031866
sg98
g102
sbag1
(g84
g3
NtRp106
(dp107
g94
F-0.42831232699699279
sg95
g105
sg88
I4
sg97
F4.5205845085715586
sg98
g102
sbag1
(g84
g3
NtRp108
(dp109
g94
F-1.068130304560996
sg95
g105
sg88
I5
sg97
F8.9954109549530212
sg98
g102
sbag1
(g84
g3
NtRp110
(dp111
g94
F-0.15834700700655135
sg95
g105
sg88
I6
sg97
F4.5877830772731185
sg98
g102
sbag1
(g84
g3
NtRp112
(dp113
g94
F1.3549952277997708
sg95
g105
sg88
I7
sg97
F6.1306049494071528
sg98
g102
sbag1
(g84
g3
NtRp114
(dp115
g94
F-2.9041711559550962
sg95
g105
sg88
I8
sg97
F4.4315800893634494
sg98
g102
sbag1
(g84
g3
NtRp116
(dp117
g94
F-0.75889687043081222
sg95
g105
sg88
I9
sg97
F4.6429470623006193
sg98
g102
sbag1
(g84
g3
NtRp118
(dp119
g94
F0.52643733799685832
sg95
g105
sg88
I10
sg97
F4.2064915638794114
sg98
g102
sbasb.