ccopy_reg
_reconstructor
p1
(cneat.chromosome
Chromosome
p2
c__builtin__
object
p3
NtRp4
(dp5
S'species_id'
p6
I26
sS'_connection_genes'
p7
(dp8
(I1
I2
tp9
g1
(cneat.genome
ConnectionGene
p10
g3
NtRp11
(dp12
S'_ConnectionGene__weight'
p13
F13.506265101448813
sS'_ConnectionGene__in'
p14
I1
sS'_ConnectionGene__enabled'
p15
I00
sS'_ConnectionGene__out'
p16
I2
sS'_ConnectionGene__innov_number'
p17
I1
sbs(I3
I2
tp18
g1
(g10
g3
NtRp19
(dp20
g13
F-12.280301444808231
sg14
I3
sg15
I00
sg16
I2
sg17
I3
sbs(I1
I3
tp21
g1
(g10
g3
NtRp22
(dp23
g13
F-13.872849500097434
sg14
I1
sg15
I01
sg16
I3
sg17
I2
sbs(I5
I5
tp24
g1
(g10
g3
NtRp25
(dp26
g13
F1.1146477824420411
sg14
I5
sg15
I01
sg16
I5
sg17
I17
sbs(I4
I5
tp27
g1
(g10
g3
NtRp28
(dp29
g13
F16.855986736232673
sg14
I4
sg15
I01
sg16
I5
sg17
I10
sbs(I5
I2
tp30
g1
(g10
g3
NtRp31
(dp32
g13
F-19.46682400301016
sg14
I5
sg15
I01
sg16
I2
sg17
I11
sbs(I7
I6
tp33
g1
(g10
g3
NtRp34
(dp35
g13
F12.02842605619616
sg14
I7
sg15
I01
sg16
I6
sg17
I44
sbs(I4
I4
tp36
g1
(g10
g3
NtRp37
(dp38
g13
F-0.27541260678764967
sg14
I4
sg15
I01
sg16
I4
sg17
I12
sbs(I5
I4
tp39
g1
(g10
g3
NtRp40
(dp41
g13
F2.9957770845184193
sg14
I5
sg15
I01
sg16
I4
sg17
I20
sbs(I1
I4
tp42
g1
(g10
g3
NtRp43
(dp44
g13
F-6.9084413679907346
sg14
I1
sg15
I01
sg16
I4
sg17
I7
sbs(I3
I8
tp45
g1
(g10
g3
NtRp46
(dp47
g13
F-0.67709465265737145
sg14
I3
sg15
I01
sg16
I8
sg17
I39
sbs(I7
I5
tp48
g1
(g10
g3
NtRp49
(dp50
g13
F-5.3599321067127628
sg14
I7
sg15
I01
sg16
I5
sg17
I40
sbs(I1
I6
tp51
g1
(g10
g3
NtRp52
(dp53
g13
F-6.5782489357761014
sg14
I1
sg15
I00
sg16
I6
sg17
I18
sbs(I1
I7
tp54
g1
(g10
g3
NtRp55
(dp56
g13
F4.6584172448732915
sg14
I1
sg15
I01
sg16
I7
sg17
I31
sbs(I6
I2
tp57
g1
(g10
g3
NtRp58
(dp59
g13
F-7.3710822007840022
sg14
I6
sg15
I01
sg16
I2
sg17
I15
sbs(I4
I2
tp60
g1
(g10
g3
NtRp61
(dp62
g13
F-7.4760923995479533
sg14
I4
sg15
I01
sg16
I2
sg17
I8
sbs(I3
I4
tp63
g1
(g10
g3
NtRp64
(dp65
g13
F-8.7447516960158342
sg14
I3
sg15
I01
sg16
I4
sg17
I13
sbs(I8
I2
tp66
g1
(g10
g3
NtRp67
(dp68
g13
F-5.1158990940648934
sg14
I8
sg15
I01
sg16
I2
sg17
I26
sbssS'_input_nodes'
p69
I1
sS'_output_nodes'
p70
I1
sS'_node_gene_type'
p71
cneat.genome
NodeGene
p72
sS'_conn_gene_type'
p73
g10
sS'fitness'
p74
F-0.1942174195795433
sS'parent2_id'
p75
I2097
sS'_id'
p76
I2120
sS'parent1_id'
p77
I2097
sS'_node_genes'
p78
(lp79
g1
(g72
g3
NtRp80
(dp81
S'_bias'
p82
I0
sS'_type'
p83
S'INPUT'
p84
sg76
I1
sS'_response'
p85
F4.9242730000000003
sS'_activation_type'
p86
Nsbag1
(g72
g3
NtRp87
(dp88
g82
F2.9901450543540293
sg83
S'OUTPUT'
p89
sg76
I2
sg85
F7.8622420826567412
sg86
S'tanh'
p90
sbag1
(g72
g3
NtRp91
(dp92
g82
F5.3963079105060334
sg83
S'HIDDEN'
p93
sg76
I3
sg85
F4.5374364112687671
sg86
g90
sbag1
(g72
g3
NtRp94
(dp95
g82
F2.1444515833443898
sg83
g93
sg76
I4
sg85
F4.3699804682160606
sg86
g90
sbag1
(g72
g3
NtRp96
(dp97
g82
F-0.19350648803272952
sg83
g93
sg76
I5
sg85
F6.5170024230536825
sg86
g90
sbag1
(g72
g3
NtRp98
(dp99
g82
F0.12960906908071035
sg83
g93
sg76
I6
sg85
F5.3509993068125103
sg86
g90
sbag1
(g72
g3
NtRp100
(dp101
g82
F-2.3849660342802226
sg83
g93
sg76
I7
sg85
F4.2721840588144087
sg86
g90
sbag1
(g72
g3
NtRp102
(dp103
g82
F1.4579564058210424
sg83
g93
sg76
I8
sg85
F5.2504519098615718
sg86
g90
sbasb.