ccopy_reg
_reconstructor
p1
(cneat.chromosome
Chromosome
p2
c__builtin__
object
p3
NtRp4
(dp5
S'species_id'
p6
I25
sS'_connection_genes'
p7
(dp8
(I1
I2
tp9
g1
(cneat.genome
ConnectionGene
p10
g3
NtRp11
(dp12
S'_ConnectionGene__weight'
p13
F7.2766011184534349
sS'_ConnectionGene__in'
p14
I1
sS'_ConnectionGene__enabled'
p15
I00
sS'_ConnectionGene__out'
p16
I2
sS'_ConnectionGene__innov_number'
p17
I1
sbs(I3
I2
tp18
g1
(g10
g3
NtRp19
(dp20
g13
F-12.63557016116652
sg14
I3
sg15
I00
sg16
I2
sg17
I3
sbs(I1
I3
tp21
g1
(g10
g3
NtRp22
(dp23
g13
F-20.214907670518024
sg14
I1
sg15
I01
sg16
I3
sg17
I2
sbs(I5
I5
tp24
g1
(g10
g3
NtRp25
(dp26
g13
F-2.4814136727037739
sg14
I5
sg15
I01
sg16
I5
sg17
I17
sbs(I4
I5
tp27
g1
(g10
g3
NtRp28
(dp29
g13
F3.8939824036272448
sg14
I4
sg15
I01
sg16
I5
sg17
I10
sbs(I5
I2
tp30
g1
(g10
g3
NtRp31
(dp32
g13
F-17.294329163244413
sg14
I5
sg15
I01
sg16
I2
sg17
I11
sbs(I4
I4
tp33
g1
(g10
g3
NtRp34
(dp35
g13
F11.963981813462766
sg14
I4
sg15
I01
sg16
I4
sg17
I12
sbs(I5
I4
tp36
g1
(g10
g3
NtRp37
(dp38
g13
F14.02389863868305
sg14
I5
sg15
I01
sg16
I4
sg17
I20
sbs(I1
I4
tp39
g1
(g10
g3
NtRp40
(dp41
g13
F-3.2838297644043717
sg14
I1
sg15
I01
sg16
I4
sg17
I7
sbs(I6
I2
tp42
g1
(g10
g3
NtRp43
(dp44
g13
F12.093515709148614
sg14
I6
sg15
I01
sg16
I2
sg17
I15
sbs(I1
I6
tp45
g1
(g10
g3
NtRp46
(dp47
g13
F2.0431975563960951
sg14
I1
sg15
I00
sg16
I6
sg17
I18
sbs(I6
I5
tp48
g1
(g10
g3
NtRp49
(dp50
g13
F-0.33839013070609114
sg14
I6
sg15
I01
sg16
I5
sg17
I45
sbs(I4
I3
tp51
g1
(g10
g3
NtRp52
(dp53
g13
F-5.561871562233442
sg14
I4
sg15
I01
sg16
I3
sg17
I27
sbs(I4
I2
tp54
g1
(g10
g3
NtRp55
(dp56
g13
F-16.1550340252771
sg14
I4
sg15
I01
sg16
I2
sg17
I8
sbs(I2
I3
tp57
g1
(g10
g3
NtRp58
(dp59
g13
F-5.459743586005148
sg14
I2
sg15
I01
sg16
I3
sg17
I6
sbs(I3
I7
tp60
g1
(g10
g3
NtRp61
(dp62
g13
F0.74754147883084521
sg14
I3
sg15
I01
sg16
I7
sg17
I23
sbs(I3
I4
tp63
g1
(g10
g3
NtRp64
(dp65
g13
F-3.6913998874636942
sg14
I3
sg15
I01
sg16
I4
sg17
I13
sbs(I7
I2
tp66
g1
(g10
g3
NtRp67
(dp68
g13
F-13.627983373605016
sg14
I7
sg15
I01
sg16
I2
sg17
I24
sbssS'_input_nodes'
p69
I1
sS'_output_nodes'
p70
I1
sS'_node_gene_type'
p71
cneat.genome
NodeGene
p72
sS'_conn_gene_type'
p73
g10
sS'fitness'
p74
F-0.0040714389609050536
sS'parent2_id'
p75
I1965
sS'_id'
p76
I2001
sS'parent1_id'
p77
I1965
sS'_node_genes'
p78
(lp79
g1
(g72
g3
NtRp80
(dp81
S'_bias'
p82
I0
sS'_type'
p83
S'INPUT'
p84
sg76
I1
sS'_response'
p85
F4.9242730000000003
sS'_activation_type'
p86
Nsbag1
(g72
g3
NtRp87
(dp88
g82
F3.1979358685878725
sg83
S'OUTPUT'
p89
sg76
I2
sg85
F9.8325633882304491
sg86
S'tanh'
p90
sbag1
(g72
g3
NtRp91
(dp92
g82
F3.2166574397881549
sg83
S'HIDDEN'
p93
sg76
I3
sg85
F4.0120307156395869
sg86
g90
sbag1
(g72
g3
NtRp94
(dp95
g82
F2.4143602997341751
sg83
g93
sg76
I4
sg85
F2.9394616179500401
sg86
g90
sbag1
(g72
g3
NtRp96
(dp97
g82
F0.53631428542694581
sg83
g93
sg76
I5
sg85
F4.7776930874793155
sg86
g90
sbag1
(g72
g3
NtRp98
(dp99
g82
F1.8045810991212008
sg83
g93
sg76
I6
sg85
F3.8803734273526986
sg86
g90
sbag1
(g72
g3
NtRp100
(dp101
g82
I0
sg83
g93
sg76
I7
sg85
F4.9242730000000003
sg86
g90
sbasb.