ccopy_reg
_reconstructor
p1
(cneat.chromosome
Chromosome
p2
c__builtin__
object
p3
NtRp4
(dp5
S'species_id'
p6
I6
sS'_connection_genes'
p7
(dp8
(I1
I2
tp9
g1
(cneat.genome
ConnectionGene
p10
g3
NtRp11
(dp12
S'_ConnectionGene__weight'
p13
F2.1878636786270258
sS'_ConnectionGene__in'
p14
I1
sS'_ConnectionGene__enabled'
p15
I01
sS'_ConnectionGene__out'
p16
I2
sS'_ConnectionGene__innov_number'
p17
I1
sbs(I3
I2
tp18
g1
(g10
g3
NtRp19
(dp20
g13
F-5.0665149875304305
sg14
I3
sg15
I01
sg16
I2
sg17
I3
sbs(I1
I3
tp21
g1
(g10
g3
NtRp22
(dp23
g13
F-11.36779681179768
sg14
I1
sg15
I01
sg16
I3
sg17
I2
sbs(I5
I5
tp24
g1
(g10
g3
NtRp25
(dp26
g13
F-0.96445970957678373
sg14
I5
sg15
I01
sg16
I5
sg17
I17
sbs(I4
I5
tp27
g1
(g10
g3
NtRp28
(dp29
g13
F-9.258381981170519
sg14
I4
sg15
I01
sg16
I5
sg17
I10
sbs(I4
I4
tp30
g1
(g10
g3
NtRp31
(dp32
g13
F-1.2967046403544844
sg14
I4
sg15
I01
sg16
I4
sg17
I12
sbs(I5
I4
tp33
g1
(g10
g3
NtRp34
(dp35
g13
F3.8838083852524292
sg14
I5
sg15
I01
sg16
I4
sg17
I20
sbs(I1
I4
tp36
g1
(g10
g3
NtRp37
(dp38
g13
F-5.5359528771176052
sg14
I1
sg15
I01
sg16
I4
sg17
I7
sbs(I4
I2
tp39
g1
(g10
g3
NtRp40
(dp41
g13
F7.8171471059919408
sg14
I4
sg15
I01
sg16
I2
sg17
I8
sbs(I5
I2
tp42
g1
(g10
g3
NtRp43
(dp44
g13
F-3.3515673546661495
sg14
I5
sg15
I01
sg16
I2
sg17
I11
sbssS'_input_nodes'
p45
I1
sS'_output_nodes'
p46
I1
sS'_node_gene_type'
p47
cneat.genome
NodeGene
p48
sS'_conn_gene_type'
p49
g10
sS'fitness'
p50
F-0.087992217552888496
sS'parent2_id'
p51
I582
sS'_id'
p52
I598
sS'parent1_id'
p53
I582
sS'_node_genes'
p54
(lp55
g1
(g48
g3
NtRp56
(dp57
S'_bias'
p58
I0
sS'_type'
p59
S'INPUT'
p60
sg52
I1
sS'_response'
p61
F4.9242730000000003
sS'_activation_type'
p62
Nsbag1
(g48
g3
NtRp63
(dp64
g58
F0.89308062783832065
sg59
S'OUTPUT'
p65
sg52
I2
sg61
F5.6126034283913757
sg62
S'tanh'
p66
sbag1
(g48
g3
NtRp67
(dp68
g58
F1.7822843108740529
sg59
S'HIDDEN'
p69
sg52
I3
sg61
F5.8181776371384828
sg62
g66
sbag1
(g48
g3
NtRp70
(dp71
g58
I0
sg59
g69
sg52
I4
sg61
F3.0658052128765609
sg62
g66
sbag1
(g48
g3
NtRp72
(dp73
g58
F0.17137228870683641
sg59
g69
sg52
I5
sg61
F4.2089297197151359
sg62
g66
sbasb.