ccopy_reg
_reconstructor
p1
(cneat.chromosome
Chromosome
p2
c__builtin__
object
p3
NtRp4
(dp5
S'species_id'
p6
I39
sS'_connection_genes'
p7
(dp8
(I6
I9
tp9
g1
(cneat.genome
ConnectionGene
p10
g3
NtRp11
(dp12
S'_ConnectionGene__weight'
p13
F-3.9239499495003196
sS'_ConnectionGene__in'
p14
I6
sS'_ConnectionGene__enabled'
p15
I01
sS'_ConnectionGene__out'
p16
I9
sS'_ConnectionGene__innov_number'
p17
I56
sbs(I1
I3
tp18
g1
(g10
g3
NtRp19
(dp20
g13
F3.8004075775757422
sg14
I1
sg15
I01
sg16
I3
sg17
I2
sbs(I4
I8
tp21
g1
(g10
g3
NtRp22
(dp23
g13
F3.293444210150839
sg14
I4
sg15
I00
sg16
I8
sg17
I25
sbs(I5
I6
tp24
g1
(g10
g3
NtRp25
(dp26
g13
F-3.8967202234257443
sg14
I5
sg15
I01
sg16
I6
sg17
I38
sbs(I11
I2
tp27
g1
(g10
g3
NtRp28
(dp29
g13
F12.255872894843568
sg14
I11
sg15
I01
sg16
I2
sg17
I74
sbs(I8
I9
tp30
g1
(g10
g3
NtRp31
(dp32
g13
F1.000377685088631
sg14
I8
sg15
I01
sg16
I9
sg17
I79
sbs(I6
I2
tp33
g1
(g10
g3
NtRp34
(dp35
g13
F-23.692317771860598
sg14
I6
sg15
I01
sg16
I2
sg17
I15
sbs(I1
I6
tp36
g1
(g10
g3
NtRp37
(dp38
g13
F23.600546697623336
sg14
I1
sg15
I00
sg16
I6
sg17
I18
sbs(I7
I11
tp39
g1
(g10
g3
NtRp40
(dp41
g13
F-5.1115044892102457
sg14
I7
sg15
I01
sg16
I11
sg17
I87
sbs(I3
I7
tp42
g1
(g10
g3
NtRp43
(dp44
g13
F0.45391511249371586
sg14
I3
sg15
I01
sg16
I7
sg17
I23
sbs(I7
I2
tp45
g1
(g10
g3
NtRp46
(dp47
g13
F2.0333784885281965
sg14
I7
sg15
I00
sg16
I2
sg17
I24
sbs(I1
I2
tp48
g1
(g10
g3
NtRp49
(dp50
g13
F17.308041786673513
sg14
I1
sg15
I01
sg16
I2
sg17
I1
sbs(I10
I8
tp51
g1
(g10
g3
NtRp52
(dp53
g13
F9.6635770816662241
sg14
I10
sg15
I01
sg16
I8
sg17
I72
sbs(I11
I5
tp54
g1
(g10
g3
NtRp55
(dp56
g13
F3.1918141378012628
sg14
I11
sg15
I01
sg16
I5
sg17
I102
sbs(I4
I4
tp57
g1
(g10
g3
NtRp58
(dp59
g13
F-6.2523256026094653
sg14
I4
sg15
I01
sg16
I4
sg17
I12
sbs(I1
I5
tp60
g1
(g10
g3
NtRp61
(dp62
g13
F-8.0517471004740404
sg14
I1
sg15
I01
sg16
I5
sg17
I22
sbs(I7
I9
tp63
g1
(g10
g3
NtRp64
(dp65
g13
F5.6602396524265925
sg14
I7
sg15
I01
sg16
I9
sg17
I54
sbs(I4
I10
tp66
g1
(g10
g3
NtRp67
(dp68
g13
F-4.8262979404298116
sg14
I4
sg15
I01
sg16
I10
sg17
I71
sbs(I3
I2
tp69
g1
(g10
g3
NtRp70
(dp71
g13
F-15.690813279948049
sg14
I3
sg15
I01
sg16
I2
sg17
I3
sbs(I8
I2
tp72
g1
(g10
g3
NtRp73
(dp74
g13
F19.000024014438761
sg14
I8
sg15
I01
sg16
I2
sg17
I26
sbs(I12
I2
tp75
g1
(g10
g3
NtRp76
(dp77
g13
F2.9676261433811391
sg14
I12
sg15
I01
sg16
I2
sg17
I89
sbs(I4
I5
tp78
g1
(g10
g3
NtRp79
(dp80
g13
F-25.078204837565931
sg14
I4
sg15
I01
sg16
I5
sg17
I10
sbs(I1
I13
tp81
g1
(g10
g3
NtRp82
(dp83
g13
F1.5227604624921021
sg14
I1
sg15
I01
sg16
I13
sg17
I105
sbs(I1
I4
tp84
g1
(g10
g3
NtRp85
(dp86
g13
F-12.365936002521815
sg14
I1
sg15
I01
sg16
I4
sg17
I7
sbs(I13
I6
tp87
g1
(g10
g3
NtRp88
(dp89
g13
F30
sg14
I13
sg15
I01
sg16
I6
sg17
I106
sbs(I7
I12
tp90
g1
(g10
g3
NtRp91
(dp92
g13
F2.5795758146874102
sg14
I7
sg15
I01
sg16
I12
sg17
I96
sbs(I4
I2
tp93
g1
(g10
g3
NtRp94
(dp95
g13
F10.380690700366193
sg14
I4
sg15
I00
sg16
I2
sg17
I8
sbs(I3
I5
tp96
g1
(g10
g3
NtRp97
(dp98
g13
F-18.520086791405756
sg14
I3
sg15
I01
sg16
I5
sg17
I16
sbs(I10
I10
tp99
g1
(g10
g3
NtRp100
(dp101
g13
F16.003953014009269
sg14
I10
sg15
I01
sg16
I10
sg17
I92
sbs(I9
I2
tp102
g1
(g10
g3
NtRp103
(dp104
g13
F-16.015677915895001
sg14
I9
sg15
I01
sg16
I2
sg17
I52
sbs(I4
I3
tp105
g1
(g10
g3
NtRp106
(dp107
g13
F-7.3132589336805029
sg14
I4
sg15
I01
sg16
I3
sg17
I27
sbs(I1
I7
tp108
g1
(g10
g3
NtRp109
(dp110
g13
F4.9263640796825818
sg14
I1
sg15
I01
sg16
I7
sg17
I31
sbs(I5
I2
tp111
g1
(g10
g3
NtRp112
(dp113
g13
F-12.039097850335381
sg14
I5
sg15
I01
sg16
I2
sg17
I11
sbssS'_input_nodes'
p114
I1
sS'_output_nodes'
p115
I1
sS'_node_gene_type'
p116
cneat.genome
NodeGene
p117
sS'_conn_gene_type'
p118
g10
sS'fitness'
p119
F-1.0132857389793859
sS'parent2_id'
p120
I3323
sS'_id'
p121
I3336
sS'parent1_id'
p122
I3323
sS'_node_genes'
p123
(lp124
g1
(g117
g3
NtRp125
(dp126
S'_bias'
p127
I0
sS'_type'
p128
S'INPUT'
p129
sg121
I1
sS'_response'
p130
F4.9242730000000003
sS'_activation_type'
p131
Nsbag1
(g117
g3
NtRp132
(dp133
g127
F0.52975520824808475
sg128
S'OUTPUT'
p134
sg121
I2
sg130
F3.6671372154868402
sg131
S'tanh'
p135
sbag1
(g117
g3
NtRp136
(dp137
g127
F-0.10325374547920885
sg128
S'HIDDEN'
p138
sg121
I3
sg130
F9.409737104131068
sg131
g135
sbag1
(g117
g3
NtRp139
(dp140
g127
F1.1070596539403623
sg128
g138
sg121
I4
sg130
F5.101314017892582
sg131
g135
sbag1
(g117
g3
NtRp141
(dp142
g127
F-2.6200830531402737
sg128
g138
sg121
I5
sg130
F8.0674551452024179
sg131
g135
sbag1
(g117
g3
NtRp143
(dp144
g127
F0.039710364797012176
sg128
g138
sg121
I6
sg130
F5.9271149628580666
sg131
g135
sbag1
(g117
g3
NtRp145
(dp146
g127
F3.8911773554297917
sg128
g138
sg121
I7
sg130
F5.0060840761610903
sg131
g135
sbag1
(g117
g3
NtRp147
(dp148
g127
F-3.5471743763507524
sg128
g138
sg121
I8
sg130
F4.3515964700388903
sg131
g135
sbag1
(g117
g3
NtRp149
(dp150
g127
F1.0204825260381694
sg128
g138
sg121
I9
sg130
F4.0560211779686366
sg131
g135
sbag1
(g117
g3
NtRp151
(dp152
g127
F-0.63426359502967444
sg128
g138
sg121
I10
sg130
F3.3627370318344565
sg131
g135
sbag1
(g117
g3
NtRp153
(dp154
g127
F-1.2889605566451061
sg128
g138
sg121
I11
sg130
F8.1036623921006985
sg131
g135
sbag1
(g117
g3
NtRp155
(dp156
g127
F-0.58048867803299398
sg128
g138
sg121
I12
sg130
F5.6209620288666189
sg131
g135
sbag1
(g117
g3
NtRp157
(dp158
g127
I0
sg128
g138
sg121
I13
sg130
F4.9242730000000003
sg131
g135
sbasb.