ccopy_reg
_reconstructor
p1
(cneat.chromosome
Chromosome
p2
c__builtin__
object
p3
NtRp4
(dp5
S'species_id'
p6
I39
sS'_connection_genes'
p7
(dp8
(I6
I9
tp9
g1
(cneat.genome
ConnectionGene
p10
g3
NtRp11
(dp12
S'_ConnectionGene__weight'
p13
F-8.0742671129073358
sS'_ConnectionGene__in'
p14
I6
sS'_ConnectionGene__enabled'
p15
I01
sS'_ConnectionGene__out'
p16
I9
sS'_ConnectionGene__innov_number'
p17
I56
sbs(I1
I3
tp18
g1
(g10
g3
NtRp19
(dp20
g13
F0.5354440021653577
sg14
I1
sg15
I01
sg16
I3
sg17
I2
sbs(I4
I8
tp21
g1
(g10
g3
NtRp22
(dp23
g13
F6.3570158688450285
sg14
I4
sg15
I00
sg16
I8
sg17
I25
sbs(I5
I6
tp24
g1
(g10
g3
NtRp25
(dp26
g13
F-2.2201368468999845
sg14
I5
sg15
I01
sg16
I6
sg17
I38
sbs(I11
I2
tp27
g1
(g10
g3
NtRp28
(dp29
g13
F8.1661169367906439
sg14
I11
sg15
I01
sg16
I2
sg17
I74
sbs(I7
I14
tp30
g1
(g10
g3
NtRp31
(dp32
g13
F2.149577151674015
sg14
I7
sg15
I01
sg16
I14
sg17
I110
sbs(I8
I9
tp33
g1
(g10
g3
NtRp34
(dp35
g13
F1.1769378665455517
sg14
I8
sg15
I01
sg16
I9
sg17
I79
sbs(I6
I2
tp36
g1
(g10
g3
NtRp37
(dp38
g13
F-30
sg14
I6
sg15
I01
sg16
I2
sg17
I15
sbs(I1
I6
tp39
g1
(g10
g3
NtRp40
(dp41
g13
F19.816103726271812
sg14
I1
sg15
I01
sg16
I6
sg17
I18
sbs(I7
I11
tp42
g1
(g10
g3
NtRp43
(dp44
g13
F-3.4907186538894357
sg14
I7
sg15
I00
sg16
I11
sg17
I87
sbs(I3
I7
tp45
g1
(g10
g3
NtRp46
(dp47
g13
F-0.60113862491064562
sg14
I3
sg15
I01
sg16
I7
sg17
I23
sbs(I7
I2
tp48
g1
(g10
g3
NtRp49
(dp50
g13
F5.1586970107350751
sg14
I7
sg15
I00
sg16
I2
sg17
I24
sbs(I1
I2
tp51
g1
(g10
g3
NtRp52
(dp53
g13
F12.487997005306198
sg14
I1
sg15
I01
sg16
I2
sg17
I1
sbs(I10
I8
tp54
g1
(g10
g3
NtRp55
(dp56
g13
F11.069602642653058
sg14
I10
sg15
I01
sg16
I8
sg17
I72
sbs(I7
I15
tp57
g1
(g10
g3
NtRp58
(dp59
g13
F7.1451265279896248
sg14
I7
sg15
I01
sg16
I15
sg17
I112
sbs(I11
I5
tp60
g1
(g10
g3
NtRp61
(dp62
g13
F6.4975317851910823
sg14
I11
sg15
I01
sg16
I5
sg17
I102
sbs(I4
I4
tp63
g1
(g10
g3
NtRp64
(dp65
g13
F-9.1121544017515994
sg14
I4
sg15
I01
sg16
I4
sg17
I12
sbs(I1
I5
tp66
g1
(g10
g3
NtRp67
(dp68
g13
F-5.112027255701161
sg14
I1
sg15
I01
sg16
I5
sg17
I22
sbs(I3
I5
tp69
g1
(g10
g3
NtRp70
(dp71
g13
F-20.584429775246569
sg14
I3
sg15
I01
sg16
I5
sg17
I16
sbs(I4
I10
tp72
g1
(g10
g3
NtRp73
(dp74
g13
F-5.0558241481681829
sg14
I4
sg15
I01
sg16
I10
sg17
I71
sbs(I3
I2
tp75
g1
(g10
g3
NtRp76
(dp77
g13
F-12.459024939352673
sg14
I3
sg15
I01
sg16
I2
sg17
I3
sbs(I8
I2
tp78
g1
(g10
g3
NtRp79
(dp80
g13
F25.986051198650831
sg14
I8
sg15
I01
sg16
I2
sg17
I26
sbs(I12
I2
tp81
g1
(g10
g3
NtRp82
(dp83
g13
F4.6963135191875178
sg14
I12
sg15
I01
sg16
I2
sg17
I89
sbs(I4
I5
tp84
g1
(g10
g3
NtRp85
(dp86
g13
F-30
sg14
I4
sg15
I01
sg16
I5
sg17
I10
sbs(I1
I13
tp87
g1
(g10
g3
NtRp88
(dp89
g13
F-0.20379476696872789
sg14
I1
sg15
I01
sg16
I13
sg17
I105
sbs(I1
I7
tp90
g1
(g10
g3
NtRp91
(dp92
g13
F-5.1468090377370075
sg14
I1
sg15
I01
sg16
I7
sg17
I31
sbs(I1
I4
tp93
g1
(g10
g3
NtRp94
(dp95
g13
F-4.5008939375637862
sg14
I1
sg15
I01
sg16
I4
sg17
I7
sbs(I13
I6
tp96
g1
(g10
g3
NtRp97
(dp98
g13
F27.297484720406782
sg14
I13
sg15
I01
sg16
I6
sg17
I106
sbs(I7
I12
tp99
g1
(g10
g3
NtRp100
(dp101
g13
F1.7554544940318406
sg14
I7
sg15
I01
sg16
I12
sg17
I96
sbs(I4
I2
tp102
g1
(g10
g3
NtRp103
(dp104
g13
F5.1578182290213732
sg14
I4
sg15
I00
sg16
I2
sg17
I8
sbs(I7
I9
tp105
g1
(g10
g3
NtRp106
(dp107
g13
F5.03296325889713
sg14
I7
sg15
I00
sg16
I9
sg17
I54
sbs(I14
I11
tp108
g1
(g10
g3
NtRp109
(dp110
g13
F1.016098574254978
sg14
I14
sg15
I01
sg16
I11
sg17
I111
sbs(I10
I10
tp111
g1
(g10
g3
NtRp112
(dp113
g13
F13.43774060045118
sg14
I10
sg15
I01
sg16
I10
sg17
I92
sbs(I9
I2
tp114
g1
(g10
g3
NtRp115
(dp116
g13
F-15.620150999038428
sg14
I9
sg15
I01
sg16
I2
sg17
I52
sbs(I4
I3
tp117
g1
(g10
g3
NtRp118
(dp119
g13
F-2.8830588194850311
sg14
I4
sg15
I01
sg16
I3
sg17
I27
sbs(I15
I9
tp120
g1
(g10
g3
NtRp121
(dp122
g13
F-0.82544438573867351
sg14
I15
sg15
I01
sg16
I9
sg17
I113
sbs(I9
I5
tp123
g1
(g10
g3
NtRp124
(dp125
g13
F-4.2108913877838976
sg14
I9
sg15
I01
sg16
I5
sg17
I55
sbs(I5
I2
tp126
g1
(g10
g3
NtRp127
(dp128
g13
F-9.6565112741872312
sg14
I5
sg15
I01
sg16
I2
sg17
I11
sbssS'_input_nodes'
p129
I1
sS'_output_nodes'
p130
I1
sS'_node_gene_type'
p131
cneat.genome
NodeGene
p132
sS'_conn_gene_type'
p133
g10
sS'fitness'
p134
F-1.2748223805855325
sS'parent2_id'
p135
I3451
sS'_id'
p136
I3469
sS'parent1_id'
p137
I3451
sS'_node_genes'
p138
(lp139
g1
(g132
g3
NtRp140
(dp141
S'_bias'
p142
I0
sS'_type'
p143
S'INPUT'
p144
sg136
I1
sS'_response'
p145
F4.9242730000000003
sS'_activation_type'
p146
Nsbag1
(g132
g3
NtRp147
(dp148
g142
F1.0302005331039619
sg143
S'OUTPUT'
p149
sg136
I2
sg145
F3.6671372154868402
sg146
S'tanh'
p150
sbag1
(g132
g3
NtRp151
(dp152
g142
F0.18947157794672054
sg143
S'HIDDEN'
p153
sg136
I3
sg145
F9.409737104131068
sg146
g150
sbag1
(g132
g3
NtRp154
(dp155
g142
F1.3299726467164561
sg143
g153
sg136
I4
sg145
F4.716989596308097
sg146
g150
sbag1
(g132
g3
NtRp156
(dp157
g142
F-2.9142803071533887
sg143
g153
sg136
I5
sg145
F8.0674551452024179
sg146
g150
sbag1
(g132
g3
NtRp158
(dp159
g142
F0.039710364797012176
sg143
g153
sg136
I6
sg145
F5.2093999806139797
sg146
g150
sbag1
(g132
g3
NtRp160
(dp161
g142
F3.39168481578095
sg143
g153
sg136
I7
sg145
F5.0060840761610903
sg146
g150
sbag1
(g132
g3
NtRp162
(dp163
g142
F-3.5656302042512937
sg143
g153
sg136
I8
sg145
F3.2838988633193633
sg146
g150
sbag1
(g132
g3
NtRp164
(dp165
g142
F0.77535782011848564
sg143
g153
sg136
I9
sg145
F4.5550207110308394
sg146
g150
sbag1
(g132
g3
NtRp166
(dp167
g142
F-0.87889668221064321
sg143
g153
sg136
I10
sg145
F2.606599393518183
sg146
g150
sbag1
(g132
g3
NtRp168
(dp169
g142
F-1.1597278558440094
sg143
g153
sg136
I11
sg145
F8.3156286076457473
sg146
g150
sbag1
(g132
g3
NtRp170
(dp171
g142
F-0.58048867803299398
sg143
g153
sg136
I12
sg145
F5.4854946923379231
sg146
g150
sbag1
(g132
g3
NtRp172
(dp173
g142
F-0.79974706489004255
sg143
g153
sg136
I13
sg145
F4.51968643659756
sg146
g150
sbag1
(g132
g3
NtRp174
(dp175
g142
F1.9625499970355769
sg143
g153
sg136
I14
sg145
F4.4244487944766391
sg146
g150
sbag1
(g132
g3
NtRp176
(dp177
g142
F0.1718597510466425
sg143
g153
sg136
I15
sg145
F4.7201488929990987
sg146
g150
sbasb.