ccopy_reg
_reconstructor
p1
(cneat.chromosome
Chromosome
p2
c__builtin__
object
p3
NtRp4
(dp5
S'species_id'
p6
I42
sS'_connection_genes'
p7
(dp8
(I6
I9
tp9
g1
(cneat.genome
ConnectionGene
p10
g3
NtRp11
(dp12
S'_ConnectionGene__weight'
p13
F-5.1089857414773192
sS'_ConnectionGene__in'
p14
I6
sS'_ConnectionGene__enabled'
p15
I01
sS'_ConnectionGene__out'
p16
I9
sS'_ConnectionGene__innov_number'
p17
I56
sbs(I1
I3
tp18
g1
(g10
g3
NtRp19
(dp20
g13
F1.512802548457743
sg14
I1
sg15
I01
sg16
I3
sg17
I2
sbs(I4
I8
tp21
g1
(g10
g3
NtRp22
(dp23
g13
F-1.8413087561942589
sg14
I4
sg15
I00
sg16
I8
sg17
I25
sbs(I5
I6
tp24
g1
(g10
g3
NtRp25
(dp26
g13
F-1.887026176183171
sg14
I5
sg15
I01
sg16
I6
sg17
I38
sbs(I11
I2
tp27
g1
(g10
g3
NtRp28
(dp29
g13
F8.1116767148220941
sg14
I11
sg15
I01
sg16
I2
sg17
I74
sbs(I8
I9
tp30
g1
(g10
g3
NtRp31
(dp32
g13
F0.57629647472762335
sg14
I8
sg15
I01
sg16
I9
sg17
I79
sbs(I6
I2
tp33
g1
(g10
g3
NtRp34
(dp35
g13
F-25.589707958461549
sg14
I6
sg15
I01
sg16
I2
sg17
I15
sbs(I1
I6
tp36
g1
(g10
g3
NtRp37
(dp38
g13
F21.866311025962322
sg14
I1
sg15
I01
sg16
I6
sg17
I18
sbs(I7
I11
tp39
g1
(g10
g3
NtRp40
(dp41
g13
F-1.9200713421358928
sg14
I7
sg15
I01
sg16
I11
sg17
I87
sbs(I3
I7
tp42
g1
(g10
g3
NtRp43
(dp44
g13
F3.8240958514147372
sg14
I3
sg15
I01
sg16
I7
sg17
I23
sbs(I7
I2
tp45
g1
(g10
g3
NtRp46
(dp47
g13
F5.9463037136656922
sg14
I7
sg15
I00
sg16
I2
sg17
I24
sbs(I1
I2
tp48
g1
(g10
g3
NtRp49
(dp50
g13
F20.678910051099233
sg14
I1
sg15
I01
sg16
I2
sg17
I1
sbs(I10
I8
tp51
g1
(g10
g3
NtRp52
(dp53
g13
F8.6391785228674181
sg14
I10
sg15
I01
sg16
I8
sg17
I72
sbs(I11
I5
tp54
g1
(g10
g3
NtRp55
(dp56
g13
F0.48710096663611946
sg14
I11
sg15
I01
sg16
I5
sg17
I102
sbs(I4
I4
tp57
g1
(g10
g3
NtRp58
(dp59
g13
F-6.2376443036824201
sg14
I4
sg15
I01
sg16
I4
sg17
I12
sbs(I1
I5
tp60
g1
(g10
g3
NtRp61
(dp62
g13
F-8.7130254785825088
sg14
I1
sg15
I01
sg16
I5
sg17
I22
sbs(I7
I9
tp63
g1
(g10
g3
NtRp64
(dp65
g13
F5.4165070709776968
sg14
I7
sg15
I01
sg16
I9
sg17
I54
sbs(I4
I10
tp66
g1
(g10
g3
NtRp67
(dp68
g13
F-4.8331434651621112
sg14
I4
sg15
I01
sg16
I10
sg17
I71
sbs(I3
I2
tp69
g1
(g10
g3
NtRp70
(dp71
g13
F-16.488133842844132
sg14
I3
sg15
I01
sg16
I2
sg17
I3
sbs(I8
I2
tp72
g1
(g10
g3
NtRp73
(dp74
g13
F17.935562294872916
sg14
I8
sg15
I01
sg16
I2
sg17
I26
sbs(I12
I2
tp75
g1
(g10
g3
NtRp76
(dp77
g13
F4.2663268211579179
sg14
I12
sg15
I01
sg16
I2
sg17
I89
sbs(I4
I5
tp78
g1
(g10
g3
NtRp79
(dp80
g13
F-27.133336246994855
sg14
I4
sg15
I01
sg16
I5
sg17
I10
sbs(I1
I13
tp81
g1
(g10
g3
NtRp82
(dp83
g13
F0.18363601751626257
sg14
I1
sg15
I01
sg16
I13
sg17
I105
sbs(I1
I4
tp84
g1
(g10
g3
NtRp85
(dp86
g13
F-9.0977701830670075
sg14
I1
sg15
I01
sg16
I4
sg17
I7
sbs(I13
I6
tp87
g1
(g10
g3
NtRp88
(dp89
g13
F24.333269515351319
sg14
I13
sg15
I01
sg16
I6
sg17
I106
sbs(I7
I12
tp90
g1
(g10
g3
NtRp91
(dp92
g13
F0.8677023709736007
sg14
I7
sg15
I01
sg16
I12
sg17
I96
sbs(I4
I2
tp93
g1
(g10
g3
NtRp94
(dp95
g13
F13.022611202843107
sg14
I4
sg15
I00
sg16
I2
sg17
I8
sbs(I9
I6
tp96
g1
(g10
g3
NtRp97
(dp98
g13
F0.26951451655806724
sg14
I9
sg15
I01
sg16
I6
sg17
I53
sbs(I3
I5
tp99
g1
(g10
g3
NtRp100
(dp101
g13
F-17.147808396898217
sg14
I3
sg15
I01
sg16
I5
sg17
I16
sbs(I10
I10
tp102
g1
(g10
g3
NtRp103
(dp104
g13
F13.257994430205139
sg14
I10
sg15
I01
sg16
I10
sg17
I92
sbs(I9
I2
tp105
g1
(g10
g3
NtRp106
(dp107
g13
F-19.063115683407172
sg14
I9
sg15
I01
sg16
I2
sg17
I52
sbs(I4
I3
tp108
g1
(g10
g3
NtRp109
(dp110
g13
F-1.7667187270412348
sg14
I4
sg15
I01
sg16
I3
sg17
I27
sbs(I1
I7
tp111
g1
(g10
g3
NtRp112
(dp113
g13
F2.5663168939905838
sg14
I1
sg15
I01
sg16
I7
sg17
I31
sbs(I5
I2
tp114
g1
(g10
g3
NtRp115
(dp116
g13
F-12.043257029510064
sg14
I5
sg15
I01
sg16
I2
sg17
I11
sbssS'_input_nodes'
p117
I1
sS'_output_nodes'
p118
I1
sS'_node_gene_type'
p119
cneat.genome
NodeGene
p120
sS'_conn_gene_type'
p121
g10
sS'fitness'
p122
F-0.72488212498554772
sS'parent2_id'
p123
I3302
sS'_id'
p124
I3319
sS'parent1_id'
p125
I3302
sS'_node_genes'
p126
(lp127
g1
(g120
g3
NtRp128
(dp129
S'_bias'
p130
I0
sS'_type'
p131
S'INPUT'
p132
sg124
I1
sS'_response'
p133
F4.9242730000000003
sS'_activation_type'
p134
Nsbag1
(g120
g3
NtRp135
(dp136
g130
F0.52975520824808475
sg131
S'OUTPUT'
p137
sg124
I2
sg133
F3.5149236187935542
sg134
S'tanh'
p138
sbag1
(g120
g3
NtRp139
(dp140
g130
F-0.63985583307761518
sg131
S'HIDDEN'
p141
sg124
I3
sg133
F9.409737104131068
sg134
g138
sbag1
(g120
g3
NtRp142
(dp143
g130
F0.86716115856201859
sg131
g141
sg124
I4
sg133
F5.2470278892054116
sg134
g138
sbag1
(g120
g3
NtRp144
(dp145
g130
F-2.8071112771427957
sg131
g141
sg124
I5
sg133
F7.7617967725231818
sg134
g138
sbag1
(g120
g3
NtRp146
(dp147
g130
F-0.77695182584318956
sg131
g141
sg124
I6
sg133
F5.9271149628580666
sg134
g138
sbag1
(g120
g3
NtRp148
(dp149
g130
F1.6637113784362996
sg131
g141
sg124
I7
sg133
F5.0060840761610903
sg134
g138
sbag1
(g120
g3
NtRp150
(dp151
g130
F-3.5304053438670158
sg131
g141
sg124
I8
sg133
F4.3515964700388903
sg134
g138
sbag1
(g120
g3
NtRp152
(dp153
g130
F1.0204825260381694
sg131
g141
sg124
I9
sg133
F4.8739653967700818
sg134
g138
sbag1
(g120
g3
NtRp154
(dp155
g130
F-1.2777952997545534
sg131
g141
sg124
I10
sg133
F3.9986482515626989
sg134
g138
sbag1
(g120
g3
NtRp156
(dp157
g130
F-1.9647929125572081
sg131
g141
sg124
I11
sg133
F7.5890912505307693
sg134
g138
sbag1
(g120
g3
NtRp158
(dp159
g130
F0.56455397434645949
sg131
g141
sg124
I12
sg133
F4.2674857559470061
sg134
g138
sbag1
(g120
g3
NtRp160
(dp161
g130
I0
sg131
g141
sg124
I13
sg133
F4.3330723698571774
sg134
g138
sbasb.