ccopy_reg
_reconstructor
p1
(cneat.chromosome
Chromosome
p2
c__builtin__
object
p3
NtRp4
(dp5
S'species_id'
p6
I35
sS'_connection_genes'
p7
(dp8
(I1
I3
tp9
g1
(cneat.genome
ConnectionGene
p10
g3
NtRp11
(dp12
S'_ConnectionGene__weight'
p13
F-28.857445856994786
sS'_ConnectionGene__in'
p14
I1
sS'_ConnectionGene__enabled'
p15
I01
sS'_ConnectionGene__out'
p16
I3
sS'_ConnectionGene__innov_number'
p17
I2
sbs(I3
I2
tp18
g1
(g10
g3
NtRp19
(dp20
g13
F-18.407262571422194
sg14
I3
sg15
I01
sg16
I2
sg17
I3
sbs(I6
I2
tp21
g1
(g10
g3
NtRp22
(dp23
g13
F15.010944885374855
sg14
I6
sg15
I01
sg16
I2
sg17
I15
sbs(I1
I6
tp24
g1
(g10
g3
NtRp25
(dp26
g13
F-8.4113466999173081
sg14
I1
sg15
I01
sg16
I6
sg17
I18
sbs(I1
I2
tp27
g1
(g10
g3
NtRp28
(dp29
g13
F27.88753717461325
sg14
I1
sg15
I01
sg16
I2
sg17
I1
sbs(I5
I5
tp30
g1
(g10
g3
NtRp31
(dp32
g13
F20.556150968720864
sg14
I5
sg15
I01
sg16
I5
sg17
I17
sbs(I7
I6
tp33
g1
(g10
g3
NtRp34
(dp35
g13
F-1.5018857685862321
sg14
I7
sg15
I01
sg16
I6
sg17
I44
sbs(I4
I4
tp36
g1
(g10
g3
NtRp37
(dp38
g13
F2.5839671528569945
sg14
I4
sg15
I01
sg16
I4
sg17
I12
sbs(I6
I3
tp39
g1
(g10
g3
NtRp40
(dp41
g13
F-2.6121244162790673
sg14
I6
sg15
I01
sg16
I3
sg17
I95
sbs(I2
I2
tp42
g1
(g10
g3
NtRp43
(dp44
g13
F2.5596146214961335
sg14
I2
sg15
I01
sg16
I2
sg17
I4
sbs(I5
I4
tp45
g1
(g10
g3
NtRp46
(dp47
g13
F6.3330408408820169
sg14
I5
sg15
I01
sg16
I4
sg17
I20
sbs(I8
I2
tp48
g1
(g10
g3
NtRp49
(dp50
g13
F-27.051947896239909
sg14
I8
sg15
I01
sg16
I2
sg17
I26
sbs(I4
I5
tp51
g1
(g10
g3
NtRp52
(dp53
g13
F13.236036741169606
sg14
I4
sg15
I01
sg16
I5
sg17
I10
sbs(I1
I4
tp54
g1
(g10
g3
NtRp55
(dp56
g13
F5.8894712381834129
sg14
I1
sg15
I01
sg16
I4
sg17
I7
sbs(I7
I5
tp57
g1
(g10
g3
NtRp58
(dp59
g13
F13.507193942037867
sg14
I7
sg15
I01
sg16
I5
sg17
I40
sbs(I1
I9
tp60
g1
(g10
g3
NtRp61
(dp62
g13
F-16.11742282930151
sg14
I1
sg15
I01
sg16
I9
sg17
I51
sbs(I4
I2
tp63
g1
(g10
g3
NtRp64
(dp65
g13
F-1.5657342696876593
sg14
I4
sg15
I01
sg16
I2
sg17
I8
sbs(I9
I2
tp66
g1
(g10
g3
NtRp67
(dp68
g13
F-2.449711717470509
sg14
I9
sg15
I01
sg16
I2
sg17
I52
sbs(I3
I4
tp69
g1
(g10
g3
NtRp70
(dp71
g13
F-17.479121987901895
sg14
I3
sg15
I01
sg16
I4
sg17
I13
sbs(I3
I8
tp72
g1
(g10
g3
NtRp73
(dp74
g13
F-23.372006834696268
sg14
I3
sg15
I01
sg16
I8
sg17
I39
sbs(I1
I7
tp75
g1
(g10
g3
NtRp76
(dp77
g13
F7.3813561440956237
sg14
I1
sg15
I01
sg16
I7
sg17
I31
sbs(I5
I2
tp78
g1
(g10
g3
NtRp79
(dp80
g13
F-22.206199922445951
sg14
I5
sg15
I01
sg16
I2
sg17
I11
sbssS'_input_nodes'
p81
I1
sS'_output_nodes'
p82
I1
sS'_node_gene_type'
p83
cneat.genome
NodeGene
p84
sS'_conn_gene_type'
p85
g10
sS'fitness'
p86
F-0.62775178617382532
sS'parent2_id'
p87
I3173
sS'_id'
p88
I3187
sS'parent1_id'
p89
I3173
sS'_node_genes'
p90
(lp91
g1
(g84
g3
NtRp92
(dp93
S'_bias'
p94
I0
sS'_type'
p95
S'INPUT'
p96
sg88
I1
sS'_response'
p97
F4.9242730000000003
sS'_activation_type'
p98
Nsbag1
(g84
g3
NtRp99
(dp100
g94
F4.5671553056749437
sg95
S'OUTPUT'
p101
sg88
I2
sg97
F4.9474418814653918
sg98
S'tanh'
p102
sbag1
(g84
g3
NtRp103
(dp104
g94
F4.7753513523395936
sg95
S'HIDDEN'
p105
sg88
I3
sg97
F4.4515301645076404
sg98
g102
sbag1
(g84
g3
NtRp106
(dp107
g94
F0.53251186738437573
sg95
g105
sg88
I4
sg97
F3.9948381304997334
sg98
g102
sbag1
(g84
g3
NtRp108
(dp109
g94
F3.1038450466350072
sg95
g105
sg88
I5
sg97
F6.161601497192196
sg98
g102
sbag1
(g84
g3
NtRp110
(dp111
g94
F-0.10466574088248363
sg95
g105
sg88
I6
sg97
F2.2416360689980088
sg98
g102
sbag1
(g84
g3
NtRp112
(dp113
g94
F-2.4568205335368694
sg95
g105
sg88
I7
sg97
F6.2202466651283297
sg98
g102
sbag1
(g84
g3
NtRp114
(dp115
g94
F2.2921262017071324
sg95
g105
sg88
I8
sg97
F6.9090580173022627
sg98
g102
sbag1
(g84
g3
NtRp116
(dp117
g94
F-0.66796867734259846
sg95
g105
sg88
I9
sg97
F5.7001305670566929
sg98
g102
sbasb.