ccopy_reg
_reconstructor
p1
(cneat.chromosome
Chromosome
p2
c__builtin__
object
p3
NtRp4
(dp5
S'species_id'
p6
I31
sS'_connection_genes'
p7
(dp8
(I1
I3
tp9
g1
(cneat.genome
ConnectionGene
p10
g3
NtRp11
(dp12
S'_ConnectionGene__weight'
p13
F4.8419389108318809
sS'_ConnectionGene__in'
p14
I1
sS'_ConnectionGene__enabled'
p15
I01
sS'_ConnectionGene__out'
p16
I3
sS'_ConnectionGene__innov_number'
p17
I2
sbs(I4
I8
tp18
g1
(g10
g3
NtRp19
(dp20
g13
F4.9228223651101457
sg14
I4
sg15
I00
sg16
I8
sg17
I25
sbs(I5
I6
tp21
g1
(g10
g3
NtRp22
(dp23
g13
F1.9051471099923276
sg14
I5
sg15
I01
sg16
I6
sg17
I38
sbs(I11
I2
tp24
g1
(g10
g3
NtRp25
(dp26
g13
F6.4771496394305101
sg14
I11
sg15
I01
sg16
I2
sg17
I74
sbs(I6
I2
tp27
g1
(g10
g3
NtRp28
(dp29
g13
F-25.884874712655598
sg14
I6
sg15
I00
sg16
I2
sg17
I15
sbs(I1
I6
tp30
g1
(g10
g3
NtRp31
(dp32
g13
F26.681957226875355
sg14
I1
sg15
I01
sg16
I6
sg17
I18
sbs(I7
I11
tp33
g1
(g10
g3
NtRp34
(dp35
g13
F-0.99140582890255358
sg14
I7
sg15
I01
sg16
I11
sg17
I87
sbs(I3
I7
tp36
g1
(g10
g3
NtRp37
(dp38
g13
F2.8507557841809419
sg14
I3
sg15
I01
sg16
I7
sg17
I23
sbs(I7
I2
tp39
g1
(g10
g3
NtRp40
(dp41
g13
F11.959721194699837
sg14
I7
sg15
I00
sg16
I2
sg17
I24
sbs(I1
I2
tp42
g1
(g10
g3
NtRp43
(dp44
g13
F27.196042040949454
sg14
I1
sg15
I01
sg16
I2
sg17
I1
sbs(I10
I8
tp45
g1
(g10
g3
NtRp46
(dp47
g13
F13.079086794028996
sg14
I10
sg15
I00
sg16
I8
sg17
I72
sbs(I4
I4
tp48
g1
(g10
g3
NtRp49
(dp50
g13
F-11.35630219858446
sg14
I4
sg15
I01
sg16
I4
sg17
I12
sbs(I1
I5
tp51
g1
(g10
g3
NtRp52
(dp53
g13
F-3.6200971971029254
sg14
I1
sg15
I01
sg16
I5
sg17
I22
sbs(I3
I5
tp54
g1
(g10
g3
NtRp55
(dp56
g13
F-12.641326540243133
sg14
I3
sg15
I01
sg16
I5
sg17
I16
sbs(I4
I10
tp57
g1
(g10
g3
NtRp58
(dp59
g13
F1.8431216364223708
sg14
I4
sg15
I01
sg16
I10
sg17
I71
sbs(I3
I2
tp60
g1
(g10
g3
NtRp61
(dp62
g13
F-18.642773616389395
sg14
I3
sg15
I00
sg16
I2
sg17
I3
sbs(I8
I2
tp63
g1
(g10
g3
NtRp64
(dp65
g13
F17.737460621293984
sg14
I8
sg15
I01
sg16
I2
sg17
I26
sbs(I4
I5
tp66
g1
(g10
g3
NtRp67
(dp68
g13
F-24.907396398179205
sg14
I4
sg15
I01
sg16
I5
sg17
I10
sbs(I1
I4
tp69
g1
(g10
g3
NtRp70
(dp71
g13
F-4.7986008872817063
sg14
I1
sg15
I01
sg16
I4
sg17
I7
sbs(I4
I2
tp72
g1
(g10
g3
NtRp73
(dp74
g13
F7.7805208193233106
sg14
I4
sg15
I00
sg16
I2
sg17
I8
sbs(I7
I9
tp75
g1
(g10
g3
NtRp76
(dp77
g13
F-1.1339503515061966
sg14
I7
sg15
I01
sg16
I9
sg17
I54
sbs(I9
I2
tp78
g1
(g10
g3
NtRp79
(dp80
g13
F-10.509143942068647
sg14
I9
sg15
I01
sg16
I2
sg17
I52
sbs(I4
I3
tp81
g1
(g10
g3
NtRp82
(dp83
g13
F-1.5732437997244348
sg14
I4
sg15
I01
sg16
I3
sg17
I27
sbs(I1
I7
tp84
g1
(g10
g3
NtRp85
(dp86
g13
F1.646291356625373
sg14
I1
sg15
I01
sg16
I7
sg17
I31
sbs(I5
I2
tp87
g1
(g10
g3
NtRp88
(dp89
g13
F-11.600908979810656
sg14
I5
sg15
I01
sg16
I2
sg17
I11
sbssS'_input_nodes'
p90
I1
sS'_output_nodes'
p91
I1
sS'_node_gene_type'
p92
cneat.genome
NodeGene
p93
sS'_conn_gene_type'
p94
g10
sS'fitness'
p95
F-0.72070475409914792
sS'parent2_id'
p96
I2838
sS'_id'
p97
I2840
sS'parent1_id'
p98
I2838
sS'_node_genes'
p99
(lp100
g1
(g93
g3
NtRp101
(dp102
S'_bias'
p103
I0
sS'_type'
p104
S'INPUT'
p105
sg97
I1
sS'_response'
p106
F4.9242730000000003
sS'_activation_type'
p107
Nsbag1
(g93
g3
NtRp108
(dp109
g103
F0.87175588911074819
sg104
S'OUTPUT'
p110
sg97
I2
sg106
F3.6022000555978977
sg107
S'tanh'
p111
sbag1
(g93
g3
NtRp112
(dp113
g103
F0.75732961597815773
sg104
S'HIDDEN'
p114
sg97
I3
sg106
F10.028217265085319
sg107
g111
sbag1
(g93
g3
NtRp115
(dp116
g103
F1.6763347468672485
sg104
g114
sg97
I4
sg106
F4.58272227275899
sg107
g111
sbag1
(g93
g3
NtRp117
(dp118
g103
F-1.7367593293650614
sg104
g114
sg97
I5
sg106
F8.9954109549530212
sg107
g111
sbag1
(g93
g3
NtRp119
(dp120
g103
F0.095100297328150812
sg104
g114
sg97
I6
sg106
F4.5877830772731185
sg107
g111
sbag1
(g93
g3
NtRp121
(dp122
g103
F0.34994281875910671
sg104
g114
sg97
I7
sg106
F5.8923995863982785
sg107
g111
sbag1
(g93
g3
NtRp123
(dp124
g103
F-3.4020209491874023
sg104
g114
sg97
I8
sg106
F3.992445076634779
sg107
g111
sbag1
(g93
g3
NtRp125
(dp126
g103
F-0.64286997752545938
sg104
g114
sg97
I9
sg106
F4.7211034064194335
sg107
g111
sbag1
(g93
g3
NtRp127
(dp128
g103
F0.39543745913632528
sg104
g114
sg97
I10
sg106
F3.0934015551256726
sg107
g111
sbag1
(g93
g3
NtRp129
(dp130
g103
I0
sg104
g114
sg97
I11
sg106
F4.9242730000000003
sg107
g111
sbasb.