ccopy_reg
_reconstructor
p1
(cneat.chromosome
Chromosome
p2
c__builtin__
object
p3
NtRp4
(dp5
S'species_id'
p6
I34
sS'_connection_genes'
p7
(dp8
(I1
I3
tp9
g1
(cneat.genome
ConnectionGene
p10
g3
NtRp11
(dp12
S'_ConnectionGene__weight'
p13
F1.7314255343184601
sS'_ConnectionGene__in'
p14
I1
sS'_ConnectionGene__enabled'
p15
I01
sS'_ConnectionGene__out'
p16
I3
sS'_ConnectionGene__innov_number'
p17
I2
sbs(I4
I8
tp18
g1
(g10
g3
NtRp19
(dp20
g13
F6.3269428122237965
sg14
I4
sg15
I00
sg16
I8
sg17
I25
sbs(I5
I6
tp21
g1
(g10
g3
NtRp22
(dp23
g13
F-1.4371821007358436
sg14
I5
sg15
I01
sg16
I6
sg17
I38
sbs(I11
I2
tp24
g1
(g10
g3
NtRp25
(dp26
g13
F1.7381356999230209
sg14
I11
sg15
I01
sg16
I2
sg17
I74
sbs(I6
I2
tp27
g1
(g10
g3
NtRp28
(dp29
g13
F-22.908623346166401
sg14
I6
sg15
I01
sg16
I2
sg17
I15
sbs(I1
I6
tp30
g1
(g10
g3
NtRp31
(dp32
g13
F29.026649865234781
sg14
I1
sg15
I01
sg16
I6
sg17
I18
sbs(I7
I11
tp33
g1
(g10
g3
NtRp34
(dp35
g13
F-2.30952185294676
sg14
I7
sg15
I01
sg16
I11
sg17
I87
sbs(I3
I7
tp36
g1
(g10
g3
NtRp37
(dp38
g13
F0.99039971009708783
sg14
I3
sg15
I01
sg16
I7
sg17
I23
sbs(I7
I2
tp39
g1
(g10
g3
NtRp40
(dp41
g13
F9.0359850568456892
sg14
I7
sg15
I00
sg16
I2
sg17
I24
sbs(I1
I2
tp42
g1
(g10
g3
NtRp43
(dp44
g13
F23.622882689349449
sg14
I1
sg15
I01
sg16
I2
sg17
I1
sbs(I10
I8
tp45
g1
(g10
g3
NtRp46
(dp47
g13
F15.274205716159404
sg14
I10
sg15
I01
sg16
I8
sg17
I72
sbs(I4
I4
tp48
g1
(g10
g3
NtRp49
(dp50
g13
F-5.1752555934579867
sg14
I4
sg15
I01
sg16
I4
sg17
I12
sbs(I1
I5
tp51
g1
(g10
g3
NtRp52
(dp53
g13
F-4.3506974536910814
sg14
I1
sg15
I01
sg16
I5
sg17
I22
sbs(I3
I5
tp54
g1
(g10
g3
NtRp55
(dp56
g13
F-18.912196290227893
sg14
I3
sg15
I01
sg16
I5
sg17
I16
sbs(I4
I10
tp57
g1
(g10
g3
NtRp58
(dp59
g13
F-2.0138530700013715
sg14
I4
sg15
I01
sg16
I10
sg17
I71
sbs(I3
I2
tp60
g1
(g10
g3
NtRp61
(dp62
g13
F-17.818885699620463
sg14
I3
sg15
I01
sg16
I2
sg17
I3
sbs(I8
I2
tp63
g1
(g10
g3
NtRp64
(dp65
g13
F18.719852503105177
sg14
I8
sg15
I01
sg16
I2
sg17
I26
sbs(I4
I5
tp66
g1
(g10
g3
NtRp67
(dp68
g13
F-24.783236103178986
sg14
I4
sg15
I01
sg16
I5
sg17
I10
sbs(I1
I4
tp69
g1
(g10
g3
NtRp70
(dp71
g13
F-13.516698962325322
sg14
I1
sg15
I01
sg16
I4
sg17
I7
sbs(I4
I2
tp72
g1
(g10
g3
NtRp73
(dp74
g13
F9.5842870948350924
sg14
I4
sg15
I00
sg16
I2
sg17
I8
sbs(I7
I9
tp75
g1
(g10
g3
NtRp76
(dp77
g13
F7.0835357750539707
sg14
I7
sg15
I01
sg16
I9
sg17
I54
sbs(I10
I10
tp78
g1
(g10
g3
NtRp79
(dp80
g13
F5.4359389914303415
sg14
I10
sg15
I01
sg16
I10
sg17
I92
sbs(I9
I2
tp81
g1
(g10
g3
NtRp82
(dp83
g13
F-13.441110867185344
sg14
I9
sg15
I01
sg16
I2
sg17
I52
sbs(I4
I3
tp84
g1
(g10
g3
NtRp85
(dp86
g13
F-1.6754498566880935
sg14
I4
sg15
I01
sg16
I3
sg17
I27
sbs(I1
I7
tp87
g1
(g10
g3
NtRp88
(dp89
g13
F-1.6417927969712305
sg14
I1
sg15
I01
sg16
I7
sg17
I31
sbs(I5
I2
tp90
g1
(g10
g3
NtRp91
(dp92
g13
F-13.052770679441196
sg14
I5
sg15
I01
sg16
I2
sg17
I11
sbssS'_input_nodes'
p93
I1
sS'_output_nodes'
p94
I1
sS'_node_gene_type'
p95
cneat.genome
NodeGene
p96
sS'_conn_gene_type'
p97
g10
sS'fitness'
p98
F-0.50377873499961723
sS'parent2_id'
p99
I3022
sS'_id'
p100
I3038
sS'parent1_id'
p101
I3002
sS'_node_genes'
p102
(lp103
g1
(g96
g3
NtRp104
(dp105
S'_bias'
p106
I0
sS'_type'
p107
S'INPUT'
p108
sg100
I1
sS'_response'
p109
F4.9242730000000003
sS'_activation_type'
p110
Nsbag1
(g96
g3
NtRp111
(dp112
g106
F0.52975520824808475
sg107
S'OUTPUT'
p113
sg100
I2
sg109
F3.428025784229646
sg110
S'tanh'
p114
sbag1
(g96
g3
NtRp115
(dp116
g106
F0.2452447501905301
sg107
S'HIDDEN'
p117
sg100
I3
sg109
F9.9192459116357412
sg110
g114
sbag1
(g96
g3
NtRp118
(dp119
g106
F0.63257745906500151
sg107
g117
sg100
I4
sg109
F5.101314017892582
sg110
g114
sbag1
(g96
g3
NtRp120
(dp121
g106
F-2.8071112771427957
sg107
g117
sg100
I5
sg109
F9.0137996488273355
sg110
g114
sbag1
(g96
g3
NtRp122
(dp123
g106
F0.039710364797012176
sg107
g117
sg100
I6
sg109
F4.5877830772731185
sg110
g114
sbag1
(g96
g3
NtRp124
(dp125
g106
F1.5180866803938788
sg107
g117
sg100
I7
sg109
F5.0013727451293395
sg110
g114
sbag1
(g96
g3
NtRp126
(dp127
g106
F-3.2523960013834836
sg107
g117
sg100
I8
sg109
F4.3515964700388903
sg110
g114
sbag1
(g96
g3
NtRp128
(dp129
g106
F0.17794490391477702
sg107
g117
sg100
I9
sg109
F4.5550207110308394
sg110
g114
sbag1
(g96
g3
NtRp130
(dp131
g106
F-0.87889668221064321
sg107
g117
sg100
I10
sg109
F3.7794100497136021
sg110
g114
sbag1
(g96
g3
NtRp132
(dp133
g106
F-0.6452282347409416
sg107
g117
sg100
I11
sg109
F6.2328174606048767
sg110
g114
sbasb.