ccopy_reg
_reconstructor
p1
(cneat.chromosome
Chromosome
p2
c__builtin__
object
p3
NtRp4
(dp5
S'species_id'
p6
I35
sS'_connection_genes'
p7
(dp8
(I1
I3
tp9
g1
(cneat.genome
ConnectionGene
p10
g3
NtRp11
(dp12
S'_ConnectionGene__weight'
p13
F-25.810749620700353
sS'_ConnectionGene__in'
p14
I1
sS'_ConnectionGene__enabled'
p15
I01
sS'_ConnectionGene__out'
p16
I3
sS'_ConnectionGene__innov_number'
p17
I2
sbs(I5
I4
tp18
g1
(g10
g3
NtRp19
(dp20
g13
F0.73904586460823829
sg14
I5
sg15
I01
sg16
I4
sg17
I20
sbs(I6
I2
tp21
g1
(g10
g3
NtRp22
(dp23
g13
F10.410185349914169
sg14
I6
sg15
I01
sg16
I2
sg17
I15
sbs(I1
I6
tp24
g1
(g10
g3
NtRp25
(dp26
g13
F-5.8220253422421298
sg14
I1
sg15
I01
sg16
I6
sg17
I18
sbs(I1
I2
tp27
g1
(g10
g3
NtRp28
(dp29
g13
F16.768611969570991
sg14
I1
sg15
I00
sg16
I2
sg17
I1
sbs(I5
I5
tp30
g1
(g10
g3
NtRp31
(dp32
g13
F15.418299839658937
sg14
I5
sg15
I01
sg16
I5
sg17
I17
sbs(I7
I6
tp33
g1
(g10
g3
NtRp34
(dp35
g13
F6.1967876149445313
sg14
I7
sg15
I01
sg16
I6
sg17
I44
sbs(I4
I4
tp36
g1
(g10
g3
NtRp37
(dp38
g13
F1.4118732654651565
sg14
I4
sg15
I01
sg16
I4
sg17
I12
sbs(I6
I3
tp39
g1
(g10
g3
NtRp40
(dp41
g13
F0.44061227482807913
sg14
I6
sg15
I01
sg16
I3
sg17
I95
sbs(I2
I2
tp42
g1
(g10
g3
NtRp43
(dp44
g13
F5.0530506763407601
sg14
I2
sg15
I01
sg16
I2
sg17
I4
sbs(I3
I2
tp45
g1
(g10
g3
NtRp46
(dp47
g13
F-9.0741264298037247
sg14
I3
sg15
I00
sg16
I2
sg17
I3
sbs(I8
I2
tp48
g1
(g10
g3
NtRp49
(dp50
g13
F-20.382819672237865
sg14
I8
sg15
I01
sg16
I2
sg17
I26
sbs(I4
I5
tp51
g1
(g10
g3
NtRp52
(dp53
g13
F13.625153155238893
sg14
I4
sg15
I01
sg16
I5
sg17
I10
sbs(I1
I4
tp54
g1
(g10
g3
NtRp55
(dp56
g13
F-0.42364878678643514
sg14
I1
sg15
I01
sg16
I4
sg17
I7
sbs(I7
I5
tp57
g1
(g10
g3
NtRp58
(dp59
g13
F5.3036145549973153
sg14
I7
sg15
I01
sg16
I5
sg17
I40
sbs(I1
I9
tp60
g1
(g10
g3
NtRp61
(dp62
g13
F-8.2919235924765236
sg14
I1
sg15
I01
sg16
I9
sg17
I51
sbs(I4
I2
tp63
g1
(g10
g3
NtRp64
(dp65
g13
F-2.3316265748140852
sg14
I4
sg15
I01
sg16
I2
sg17
I8
sbs(I9
I2
tp66
g1
(g10
g3
NtRp67
(dp68
g13
F-3.6314318235703364
sg14
I9
sg15
I01
sg16
I2
sg17
I52
sbs(I3
I4
tp69
g1
(g10
g3
NtRp70
(dp71
g13
F-11.028598767898703
sg14
I3
sg15
I01
sg16
I4
sg17
I13
sbs(I3
I8
tp72
g1
(g10
g3
NtRp73
(dp74
g13
F-15.836213038664278
sg14
I3
sg15
I01
sg16
I8
sg17
I39
sbs(I1
I7
tp75
g1
(g10
g3
NtRp76
(dp77
g13
F1.0013162284985093
sg14
I1
sg15
I01
sg16
I7
sg17
I31
sbs(I5
I2
tp78
g1
(g10
g3
NtRp79
(dp80
g13
F-23.963663190327793
sg14
I5
sg15
I01
sg16
I2
sg17
I11
sbssS'_input_nodes'
p81
I1
sS'_output_nodes'
p82
I1
sS'_node_gene_type'
p83
cneat.genome
NodeGene
p84
sS'_conn_gene_type'
p85
g10
sS'fitness'
p86
F-0.72748794783035142
sS'parent2_id'
p87
I2960
sS'_id'
p88
I2982
sS'parent1_id'
p89
I2960
sS'_node_genes'
p90
(lp91
g1
(g84
g3
NtRp92
(dp93
S'_bias'
p94
I0
sS'_type'
p95
S'INPUT'
p96
sg88
I1
sS'_response'
p97
F4.9242730000000003
sS'_activation_type'
p98
Nsbag1
(g84
g3
NtRp99
(dp100
g94
F4.5539790979780559
sg95
S'OUTPUT'
p101
sg88
I2
sg97
F5.1262628423199024
sg98
S'tanh'
p102
sbag1
(g84
g3
NtRp103
(dp104
g94
F4.6854958452160655
sg95
S'HIDDEN'
p105
sg88
I3
sg97
F4.4515301645076404
sg98
g102
sbag1
(g84
g3
NtRp106
(dp107
g94
F0.45678974231150349
sg95
g105
sg88
I4
sg97
F4.9059748764484041
sg98
g102
sbag1
(g84
g3
NtRp108
(dp109
g94
F3.6748614548771035
sg95
g105
sg88
I5
sg97
F6.161601497192196
sg98
g102
sbag1
(g84
g3
NtRp110
(dp111
g94
F-0.021126808715903167
sg95
g105
sg88
I6
sg97
F3.4735953414473912
sg98
g102
sbag1
(g84
g3
NtRp112
(dp113
g94
F-2.0645298792248883
sg95
g105
sg88
I7
sg97
F5.32287623767205
sg98
g102
sbag1
(g84
g3
NtRp114
(dp115
g94
F2.2921262017071324
sg95
g105
sg88
I8
sg97
F6.1372609904064106
sg98
g102
sbag1
(g84
g3
NtRp116
(dp117
g94
F-0.89476085160708008
sg95
g105
sg88
I9
sg97
F5.8023767458382878
sg98
g102
sbasb.