ccopy_reg
_reconstructor
p1
(cneat.chromosome
Chromosome
p2
c__builtin__
object
p3
NtRp4
(dp5
S'species_id'
p6
I40
sS'_connection_genes'
p7
(dp8
(I6
I9
tp9
g1
(cneat.genome
ConnectionGene
p10
g3
NtRp11
(dp12
S'_ConnectionGene__weight'
p13
F-8.262715042546283
sS'_ConnectionGene__in'
p14
I6
sS'_ConnectionGene__enabled'
p15
I01
sS'_ConnectionGene__out'
p16
I9
sS'_ConnectionGene__innov_number'
p17
I56
sbs(I1
I3
tp18
g1
(g10
g3
NtRp19
(dp20
g13
F1.9266686692464772
sg14
I1
sg15
I01
sg16
I3
sg17
I2
sbs(I4
I8
tp21
g1
(g10
g3
NtRp22
(dp23
g13
F-0.74530832217190146
sg14
I4
sg15
I00
sg16
I8
sg17
I25
sbs(I5
I6
tp24
g1
(g10
g3
NtRp25
(dp26
g13
F4.7748928021051027
sg14
I5
sg15
I01
sg16
I6
sg17
I38
sbs(I11
I2
tp27
g1
(g10
g3
NtRp28
(dp29
g13
F6.9679073722476774
sg14
I11
sg15
I01
sg16
I2
sg17
I74
sbs(I8
I9
tp30
g1
(g10
g3
NtRp31
(dp32
g13
F-5.2979199685209988
sg14
I8
sg15
I01
sg16
I9
sg17
I79
sbs(I6
I2
tp33
g1
(g10
g3
NtRp34
(dp35
g13
F-26.85342109558438
sg14
I6
sg15
I01
sg16
I2
sg17
I15
sbs(I1
I6
tp36
g1
(g10
g3
NtRp37
(dp38
g13
F29.548507262974777
sg14
I1
sg15
I01
sg16
I6
sg17
I18
sbs(I7
I11
tp39
g1
(g10
g3
NtRp40
(dp41
g13
F-4.222983854457242
sg14
I7
sg15
I01
sg16
I11
sg17
I87
sbs(I3
I7
tp42
g1
(g10
g3
NtRp43
(dp44
g13
F-1.1191964922036868
sg14
I3
sg15
I01
sg16
I7
sg17
I23
sbs(I7
I2
tp45
g1
(g10
g3
NtRp46
(dp47
g13
F10.632654469154946
sg14
I7
sg15
I01
sg16
I2
sg17
I24
sbs(I1
I2
tp48
g1
(g10
g3
NtRp49
(dp50
g13
F11.671611173600956
sg14
I1
sg15
I01
sg16
I2
sg17
I1
sbs(I10
I8
tp51
g1
(g10
g3
NtRp52
(dp53
g13
F7.6032584661598523
sg14
I10
sg15
I01
sg16
I8
sg17
I72
sbs(I7
I15
tp54
g1
(g10
g3
NtRp55
(dp56
g13
F3.956007434472137
sg14
I7
sg15
I01
sg16
I15
sg17
I112
sbs(I11
I5
tp57
g1
(g10
g3
NtRp58
(dp59
g13
F1.2945078754040984
sg14
I11
sg15
I01
sg16
I5
sg17
I102
sbs(I4
I4
tp60
g1
(g10
g3
NtRp61
(dp62
g13
F-1.8432745607856678
sg14
I4
sg15
I01
sg16
I4
sg17
I12
sbs(I1
I5
tp63
g1
(g10
g3
NtRp64
(dp65
g13
F1.7346089131130131
sg14
I1
sg15
I01
sg16
I5
sg17
I22
sbs(I3
I5
tp66
g1
(g10
g3
NtRp67
(dp68
g13
F-20.24681305523854
sg14
I3
sg15
I01
sg16
I5
sg17
I16
sbs(I4
I10
tp69
g1
(g10
g3
NtRp70
(dp71
g13
F-5.0447175592551954
sg14
I4
sg15
I01
sg16
I10
sg17
I71
sbs(I3
I2
tp72
g1
(g10
g3
NtRp73
(dp74
g13
F-20.216959832923052
sg14
I3
sg15
I01
sg16
I2
sg17
I3
sbs(I8
I2
tp75
g1
(g10
g3
NtRp76
(dp77
g13
F17.869437984982053
sg14
I8
sg15
I01
sg16
I2
sg17
I26
sbs(I12
I2
tp78
g1
(g10
g3
NtRp79
(dp80
g13
F3.7562948297245051
sg14
I12
sg15
I01
sg16
I2
sg17
I89
sbs(I4
I5
tp81
g1
(g10
g3
NtRp82
(dp83
g13
F-27.028976937263806
sg14
I4
sg15
I01
sg16
I5
sg17
I10
sbs(I1
I13
tp84
g1
(g10
g3
NtRp85
(dp86
g13
F-4.8538696710445057
sg14
I1
sg15
I01
sg16
I13
sg17
I105
sbs(I15
I9
tp87
g1
(g10
g3
NtRp88
(dp89
g13
F0.93921896693759954
sg14
I15
sg15
I01
sg16
I9
sg17
I113
sbs(I4
I14
tp90
g1
(g10
g3
NtRp91
(dp92
g13
F-1.9283417776089293
sg14
I4
sg15
I01
sg16
I14
sg17
I108
sbs(I1
I4
tp93
g1
(g10
g3
NtRp94
(dp95
g13
F-8.006616097967715
sg14
I1
sg15
I01
sg16
I4
sg17
I7
sbs(I4
I16
tp96
g1
(g10
g3
NtRp97
(dp98
g13
F1.7004578819188458
sg14
I4
sg15
I01
sg16
I16
sg17
I116
sbs(I13
I6
tp99
g1
(g10
g3
NtRp100
(dp101
g13
F16.196354865130449
sg14
I13
sg15
I01
sg16
I6
sg17
I106
sbs(I7
I12
tp102
g1
(g10
g3
NtRp103
(dp104
g13
F0.19285142103147201
sg14
I7
sg15
I01
sg16
I12
sg17
I96
sbs(I4
I2
tp105
g1
(g10
g3
NtRp106
(dp107
g13
F9.1600199700600964
sg14
I4
sg15
I00
sg16
I2
sg17
I8
sbs(I7
I9
tp108
g1
(g10
g3
NtRp109
(dp110
g13
F5.0913374902446513
sg14
I7
sg15
I00
sg16
I9
sg17
I54
sbs(I10
I10
tp111
g1
(g10
g3
NtRp112
(dp113
g13
F16.385119176022943
sg14
I10
sg15
I01
sg16
I10
sg17
I92
sbs(I9
I2
tp114
g1
(g10
g3
NtRp115
(dp116
g13
F-26.241850634912613
sg14
I9
sg15
I01
sg16
I2
sg17
I52
sbs(I16
I8
tp117
g1
(g10
g3
NtRp118
(dp119
g13
F3.7198320138354557
sg14
I16
sg15
I01
sg16
I8
sg17
I117
sbs(I4
I3
tp120
g1
(g10
g3
NtRp121
(dp122
g13
F-7.8290955787678298
sg14
I4
sg15
I01
sg16
I3
sg17
I27
sbs(I1
I7
tp123
g1
(g10
g3
NtRp124
(dp125
g13
F12.839834947843094
sg14
I1
sg15
I01
sg16
I7
sg17
I31
sbs(I5
I2
tp126
g1
(g10
g3
NtRp127
(dp128
g13
F-12.953144837474966
sg14
I5
sg15
I01
sg16
I2
sg17
I11
sbs(I14
I8
tp129
g1
(g10
g3
NtRp130
(dp131
g13
F-4.679375785100949
sg14
I14
sg15
I01
sg16
I8
sg17
I109
sbssS'_input_nodes'
p132
I1
sS'_output_nodes'
p133
I1
sS'_node_gene_type'
p134
cneat.genome
NodeGene
p135
sS'_conn_gene_type'
p136
g10
sS'fitness'
p137
F-1.091217186783334
sS'parent2_id'
p138
I3540
sS'_id'
p139
I3543
sS'parent1_id'
p140
I3540
sS'_node_genes'
p141
(lp142
g1
(g135
g3
NtRp143
(dp144
S'_bias'
p145
I0
sS'_type'
p146
S'INPUT'
p147
sg139
I1
sS'_response'
p148
F4.9242730000000003
sS'_activation_type'
p149
Nsbag1
(g135
g3
NtRp150
(dp151
g145
F1.5370613612282003
sg146
S'OUTPUT'
p152
sg139
I2
sg148
F4.6007571500056432
sg149
S'tanh'
p153
sbag1
(g135
g3
NtRp154
(dp155
g145
F0.16856963248053947
sg146
S'HIDDEN'
p156
sg139
I3
sg148
F8.7154438179257667
sg149
g153
sbag1
(g135
g3
NtRp157
(dp158
g145
F0.28850085197382969
sg146
g156
sg139
I4
sg148
F4.1523604990060239
sg149
g153
sbag1
(g135
g3
NtRp159
(dp160
g145
F-4.3621602500843082
sg146
g156
sg139
I5
sg148
F8.1367978308162439
sg149
g153
sbag1
(g135
g3
NtRp161
(dp162
g145
F0.91502601383576965
sg146
g156
sg139
I6
sg148
F6.9566440525613391
sg149
g153
sbag1
(g135
g3
NtRp163
(dp164
g145
F1.6637113784362996
sg146
g156
sg139
I7
sg148
F4.8470715949250316
sg149
g153
sbag1
(g135
g3
NtRp165
(dp166
g145
F-1.0167498031777669
sg146
g156
sg139
I8
sg148
F3.5849777852542739
sg149
g153
sbag1
(g135
g3
NtRp167
(dp168
g145
F0.92063389581054511
sg146
g156
sg139
I9
sg148
F5.0702000001883656
sg149
g153
sbag1
(g135
g3
NtRp169
(dp170
g145
F-1.3888316571821082
sg146
g156
sg139
I10
sg148
F3.7130132883065712
sg149
g153
sbag1
(g135
g3
NtRp171
(dp172
g145
F-2.1424591565512112
sg146
g156
sg139
I11
sg148
F9.3530280749824808
sg149
g153
sbag1
(g135
g3
NtRp173
(dp174
g145
F0.79788069791807825
sg146
g156
sg139
I12
sg148
F4.735374618912477
sg149
g153
sbag1
(g135
g3
NtRp175
(dp176
g145
F0.35188354427615226
sg146
g156
sg139
I13
sg148
F6.2330901940347276
sg149
g153
sbag1
(g135
g3
NtRp177
(dp178
g145
F-0.33241415857908341
sg146
g156
sg139
I14
sg148
F4.8109078147027056
sg149
g153
sbag1
(g135
g3
NtRp179
(dp180
g145
F1.1655203881689029
sg146
g156
sg139
I15
sg148
F5.0808669191182387
sg149
g153
sbag1
(g135
g3
NtRp181
(dp182
g145
F0.48419019784137241
sg146
g156
sg139
I16
sg148
F4.748179390101793
sg149
g153
sbasb.