ccopy_reg
_reconstructor
p1
(cneat.chromosome
Chromosome
p2
c__builtin__
object
p3
NtRp4
(dp5
S'species_id'
p6
I19
sS'_connection_genes'
p7
(dp8
(I1
I2
tp9
g1
(cneat.genome
ConnectionGene
p10
g3
NtRp11
(dp12
S'_ConnectionGene__weight'
p13
F17.870371787927013
sS'_ConnectionGene__in'
p14
I1
sS'_ConnectionGene__enabled'
p15
I01
sS'_ConnectionGene__out'
p16
I2
sS'_ConnectionGene__innov_number'
p17
I1
sbs(I3
I2
tp18
g1
(g10
g3
NtRp19
(dp20
g13
F-4.8877421089702953
sg14
I3
sg15
I00
sg16
I2
sg17
I3
sbs(I1
I3
tp21
g1
(g10
g3
NtRp22
(dp23
g13
F16.817345546861095
sg14
I1
sg15
I01
sg16
I3
sg17
I2
sbs(I5
I5
tp24
g1
(g10
g3
NtRp25
(dp26
g13
F-4.0987619763114527
sg14
I5
sg15
I01
sg16
I5
sg17
I17
sbs(I4
I5
tp27
g1
(g10
g3
NtRp28
(dp29
g13
F6.2578696244371779
sg14
I4
sg15
I01
sg16
I5
sg17
I10
sbs(I7
I6
tp30
g1
(g10
g3
NtRp31
(dp32
g13
F1.7297080340121309
sg14
I7
sg15
I01
sg16
I6
sg17
I44
sbs(I4
I4
tp33
g1
(g10
g3
NtRp34
(dp35
g13
F-9.8180328850916432
sg14
I4
sg15
I01
sg16
I4
sg17
I12
sbs(I5
I4
tp36
g1
(g10
g3
NtRp37
(dp38
g13
F-5.2942268551111455
sg14
I5
sg15
I01
sg16
I4
sg17
I20
sbs(I1
I4
tp39
g1
(g10
g3
NtRp40
(dp41
g13
F-15.552336433184239
sg14
I1
sg15
I01
sg16
I4
sg17
I7
sbs(I3
I8
tp42
g1
(g10
g3
NtRp43
(dp44
g13
F2.6157134198061129
sg14
I3
sg15
I01
sg16
I8
sg17
I39
sbs(I6
I2
tp45
g1
(g10
g3
NtRp46
(dp47
g13
F-16.029545513412153
sg14
I6
sg15
I01
sg16
I2
sg17
I15
sbs(I3
I6
tp48
g1
(g10
g3
NtRp49
(dp50
g13
F6.3651064756990934
sg14
I3
sg15
I00
sg16
I6
sg17
I21
sbs(I3
I7
tp51
g1
(g10
g3
NtRp52
(dp53
g13
F-4.9734259075097862
sg14
I3
sg15
I01
sg16
I7
sg17
I23
sbs(I4
I2
tp54
g1
(g10
g3
NtRp55
(dp56
g13
F-15.109473537553875
sg14
I4
sg15
I01
sg16
I2
sg17
I8
sbs(I5
I2
tp57
g1
(g10
g3
NtRp58
(dp59
g13
F-16.788513595943083
sg14
I5
sg15
I01
sg16
I2
sg17
I11
sbs(I8
I2
tp60
g1
(g10
g3
NtRp61
(dp62
g13
F-7.6596826210694067
sg14
I8
sg15
I01
sg16
I2
sg17
I26
sbssS'_input_nodes'
p63
I1
sS'_output_nodes'
p64
I1
sS'_node_gene_type'
p65
cneat.genome
NodeGene
p66
sS'_conn_gene_type'
p67
g10
sS'fitness'
p68
F-0.2378467929448275
sS'parent2_id'
p69
I1494
sS'_id'
p70
I1507
sS'parent1_id'
p71
I1494
sS'_node_genes'
p72
(lp73
g1
(g66
g3
NtRp74
(dp75
S'_bias'
p76
I0
sS'_type'
p77
S'INPUT'
p78
sg70
I1
sS'_response'
p79
F4.9242730000000003
sS'_activation_type'
p80
Nsbag1
(g66
g3
NtRp81
(dp82
g76
F1.6364867685780711
sg77
S'OUTPUT'
p83
sg70
I2
sg79
F8.0927142657009821
sg80
S'tanh'
p84
sbag1
(g66
g3
NtRp85
(dp86
g76
F2.38165389946532
sg77
S'HIDDEN'
p87
sg70
I3
sg79
F6.2339992064080958
sg80
g84
sbag1
(g66
g3
NtRp88
(dp89
g76
F0.55020341220667435
sg77
g87
sg70
I4
sg79
F5.5664384400189526
sg80
g84
sbag1
(g66
g3
NtRp90
(dp91
g76
F1.805101935597891
sg77
g87
sg70
I5
sg79
F6.0218283342377843
sg80
g84
sbag1
(g66
g3
NtRp92
(dp93
g76
F-0.31064480702874414
sg77
g87
sg70
I6
sg79
F4.6222265932805913
sg80
g84
sbag1
(g66
g3
NtRp94
(dp95
g76
F-0.22851213051872243
sg77
g87
sg70
I7
sg79
F6.3508076658478183
sg80
g84
sbag1
(g66
g3
NtRp96
(dp97
g76
F-0.44830182635060045
sg77
g87
sg70
I8
sg79
F4.648509656609205
sg80
g84
sbasb.