ccopy_reg
_reconstructor
p1
(cneat.chromosome
Chromosome
p2
c__builtin__
object
p3
NtRp4
(dp5
S'species_id'
p6
I32
sS'_connection_genes'
p7
(dp8
(I1
I2
tp9
g1
(cneat.genome
ConnectionGene
p10
g3
NtRp11
(dp12
S'_ConnectionGene__weight'
p13
F17.913950924131626
sS'_ConnectionGene__in'
p14
I1
sS'_ConnectionGene__enabled'
p15
I00
sS'_ConnectionGene__out'
p16
I2
sS'_ConnectionGene__innov_number'
p17
I1
sbs(I3
I2
tp18
g1
(g10
g3
NtRp19
(dp20
g13
F-10.213199045090811
sg14
I3
sg15
I00
sg16
I2
sg17
I3
sbs(I1
I3
tp21
g1
(g10
g3
NtRp22
(dp23
g13
F-26.21649118236828
sg14
I1
sg15
I01
sg16
I3
sg17
I2
sbs(I5
I5
tp24
g1
(g10
g3
NtRp25
(dp26
g13
F14.675956239129189
sg14
I5
sg15
I01
sg16
I5
sg17
I17
sbs(I4
I5
tp27
g1
(g10
g3
NtRp28
(dp29
g13
F14.986729490437263
sg14
I4
sg15
I01
sg16
I5
sg17
I10
sbs(I2
I2
tp30
g1
(g10
g3
NtRp31
(dp32
g13
F1.6915174379601454
sg14
I2
sg15
I01
sg16
I2
sg17
I4
sbs(I7
I6
tp33
g1
(g10
g3
NtRp34
(dp35
g13
F6.4603107138805411
sg14
I7
sg15
I01
sg16
I6
sg17
I44
sbs(I4
I4
tp36
g1
(g10
g3
NtRp37
(dp38
g13
F0.85257542086451354
sg14
I4
sg15
I01
sg16
I4
sg17
I12
sbs(I5
I2
tp39
g1
(g10
g3
NtRp40
(dp41
g13
F-20.915893269497822
sg14
I5
sg15
I01
sg16
I2
sg17
I11
sbs(I5
I4
tp42
g1
(g10
g3
NtRp43
(dp44
g13
F4.0219014779973428
sg14
I5
sg15
I01
sg16
I4
sg17
I20
sbs(I1
I4
tp45
g1
(g10
g3
NtRp46
(dp47
g13
F-3.3682125039599433
sg14
I1
sg15
I01
sg16
I4
sg17
I7
sbs(I3
I8
tp48
g1
(g10
g3
NtRp49
(dp50
g13
F-13.323832023331843
sg14
I3
sg15
I01
sg16
I8
sg17
I39
sbs(I9
I2
tp51
g1
(g10
g3
NtRp52
(dp53
g13
F1.8027630215206898
sg14
I9
sg15
I01
sg16
I2
sg17
I52
sbs(I7
I5
tp54
g1
(g10
g3
NtRp55
(dp56
g13
F5.9233948999634087
sg14
I7
sg15
I01
sg16
I5
sg17
I40
sbs(I1
I6
tp57
g1
(g10
g3
NtRp58
(dp59
g13
F-7.0484042119084771
sg14
I1
sg15
I01
sg16
I6
sg17
I18
sbs(I1
I9
tp60
g1
(g10
g3
NtRp61
(dp62
g13
F-6.3452093707289734
sg14
I1
sg15
I01
sg16
I9
sg17
I51
sbs(I1
I7
tp63
g1
(g10
g3
NtRp64
(dp65
g13
F3.1661332126940107
sg14
I1
sg15
I01
sg16
I7
sg17
I31
sbs(I6
I2
tp66
g1
(g10
g3
NtRp67
(dp68
g13
F6.4580200639452459
sg14
I6
sg15
I01
sg16
I2
sg17
I15
sbs(I4
I2
tp69
g1
(g10
g3
NtRp70
(dp71
g13
F-2.2945416810382411
sg14
I4
sg15
I01
sg16
I2
sg17
I8
sbs(I3
I4
tp72
g1
(g10
g3
NtRp73
(dp74
g13
F-11.042672144597189
sg14
I3
sg15
I01
sg16
I4
sg17
I13
sbs(I8
I2
tp75
g1
(g10
g3
NtRp76
(dp77
g13
F-21.865417080565596
sg14
I8
sg15
I01
sg16
I2
sg17
I26
sbssS'_input_nodes'
p78
I1
sS'_output_nodes'
p79
I1
sS'_node_gene_type'
p80
cneat.genome
NodeGene
p81
sS'_conn_gene_type'
p82
g10
sS'fitness'
p83
F-0.04737905346201552
sS'parent2_id'
p84
I2871
sS'_id'
p85
I2889
sS'parent1_id'
p86
I2871
sS'_node_genes'
p87
(lp88
g1
(g81
g3
NtRp89
(dp90
S'_bias'
p91
I0
sS'_type'
p92
S'INPUT'
p93
sg85
I1
sS'_response'
p94
F4.9242730000000003
sS'_activation_type'
p95
Nsbag1
(g81
g3
NtRp96
(dp97
g91
F4.5539790979780559
sg92
S'OUTPUT'
p98
sg85
I2
sg94
F5.1262628423199024
sg95
S'tanh'
p99
sbag1
(g81
g3
NtRp100
(dp101
g91
F4.8722854426882165
sg92
S'HIDDEN'
p102
sg85
I3
sg94
F4.7879844226132757
sg95
g99
sbag1
(g81
g3
NtRp103
(dp104
g91
F0.45678974231150349
sg92
g102
sg85
I4
sg94
F4.9059748764484041
sg95
g99
sbag1
(g81
g3
NtRp105
(dp106
g91
F4.074115338417621
sg92
g102
sg85
I5
sg94
F5.9023933312834869
sg95
g99
sbag1
(g81
g3
NtRp107
(dp108
g91
F-0.021126808715903167
sg92
g102
sg85
I6
sg94
F3.4735953414473912
sg95
g99
sbag1
(g81
g3
NtRp109
(dp110
g91
F-2.0645298792248883
sg92
g102
sg85
I7
sg94
F5.32287623767205
sg95
g99
sbag1
(g81
g3
NtRp111
(dp112
g91
F2.2921262017071324
sg92
g102
sg85
I8
sg94
F6.631745830630587
sg95
g99
sbag1
(g81
g3
NtRp113
(dp114
g91
F-0.59865556309587986
sg92
g102
sg85
I9
sg94
F5.6831832158408
sg95
g99
sbasb.