ccopy_reg
_reconstructor
p1
(cneat.chromosome
Chromosome
p2
c__builtin__
object
p3
NtRp4
(dp5
S'species_id'
p6
I32
sS'_connection_genes'
p7
(dp8
(I1
I2
tp9
g1
(cneat.genome
ConnectionGene
p10
g3
NtRp11
(dp12
S'_ConnectionGene__weight'
p13
F12.370673079786959
sS'_ConnectionGene__in'
p14
I1
sS'_ConnectionGene__enabled'
p15
I00
sS'_ConnectionGene__out'
p16
I2
sS'_ConnectionGene__innov_number'
p17
I1
sbs(I3
I2
tp18
g1
(g10
g3
NtRp19
(dp20
g13
F-18.202484589477308
sg14
I3
sg15
I00
sg16
I2
sg17
I3
sbs(I1
I3
tp21
g1
(g10
g3
NtRp22
(dp23
g13
F-22.135194296007523
sg14
I1
sg15
I01
sg16
I3
sg17
I2
sbs(I5
I5
tp24
g1
(g10
g3
NtRp25
(dp26
g13
F12.128961278582723
sg14
I5
sg15
I01
sg16
I5
sg17
I17
sbs(I4
I5
tp27
g1
(g10
g3
NtRp28
(dp29
g13
F17.062773844874958
sg14
I4
sg15
I01
sg16
I5
sg17
I10
sbs(I3
I4
tp30
g1
(g10
g3
NtRp31
(dp32
g13
F-6.534727922331335
sg14
I3
sg15
I01
sg16
I4
sg17
I13
sbs(I7
I6
tp33
g1
(g10
g3
NtRp34
(dp35
g13
F7.6906510240809318
sg14
I7
sg15
I01
sg16
I6
sg17
I44
sbs(I4
I4
tp36
g1
(g10
g3
NtRp37
(dp38
g13
F-4.7318608061568117
sg14
I4
sg15
I01
sg16
I4
sg17
I12
sbs(I5
I4
tp39
g1
(g10
g3
NtRp40
(dp41
g13
F6.4885673265276171
sg14
I5
sg15
I01
sg16
I4
sg17
I20
sbs(I1
I4
tp42
g1
(g10
g3
NtRp43
(dp44
g13
F-7.9676282277003345
sg14
I1
sg15
I01
sg16
I4
sg17
I7
sbs(I3
I8
tp45
g1
(g10
g3
NtRp46
(dp47
g13
F-14.29203234883845
sg14
I3
sg15
I01
sg16
I8
sg17
I39
sbs(I9
I2
tp48
g1
(g10
g3
NtRp49
(dp50
g13
F2.6112688871555152
sg14
I9
sg15
I01
sg16
I2
sg17
I52
sbs(I7
I5
tp51
g1
(g10
g3
NtRp52
(dp53
g13
F2.7976202271320796
sg14
I7
sg15
I01
sg16
I5
sg17
I40
sbs(I1
I6
tp54
g1
(g10
g3
NtRp55
(dp56
g13
F-2.9621415255818602
sg14
I1
sg15
I00
sg16
I6
sg17
I18
sbs(I1
I9
tp57
g1
(g10
g3
NtRp58
(dp59
g13
F-5.8271580540793586
sg14
I1
sg15
I01
sg16
I9
sg17
I51
sbs(I1
I7
tp60
g1
(g10
g3
NtRp61
(dp62
g13
F-1.3874867847909247
sg14
I1
sg15
I01
sg16
I7
sg17
I31
sbs(I6
I2
tp63
g1
(g10
g3
NtRp64
(dp65
g13
F5.4469160557392913
sg14
I6
sg15
I01
sg16
I2
sg17
I15
sbs(I4
I2
tp66
g1
(g10
g3
NtRp67
(dp68
g13
F-4.4940291437033828
sg14
I4
sg15
I01
sg16
I2
sg17
I8
sbs(I5
I2
tp69
g1
(g10
g3
NtRp70
(dp71
g13
F-21.871671413789894
sg14
I5
sg15
I01
sg16
I2
sg17
I11
sbs(I8
I2
tp72
g1
(g10
g3
NtRp73
(dp74
g13
F-15.469352145242937
sg14
I8
sg15
I01
sg16
I2
sg17
I26
sbssS'_input_nodes'
p75
I1
sS'_output_nodes'
p76
I1
sS'_node_gene_type'
p77
cneat.genome
NodeGene
p78
sS'_conn_gene_type'
p79
g10
sS'fitness'
p80
F-0.51571552829889411
sS'parent2_id'
p81
I2640
sS'_id'
p82
I2654
sS'parent1_id'
p83
I2640
sS'_node_genes'
p84
(lp85
g1
(g78
g3
NtRp86
(dp87
S'_bias'
p88
I0
sS'_type'
p89
S'INPUT'
p90
sg82
I1
sS'_response'
p91
F4.9242730000000003
sS'_activation_type'
p92
Nsbag1
(g78
g3
NtRp93
(dp94
g88
F4.7142368033077711
sg89
S'OUTPUT'
p95
sg82
I2
sg91
F5.3499285681696094
sg92
S'tanh'
p96
sbag1
(g78
g3
NtRp97
(dp98
g88
F4.8214719997742828
sg89
S'HIDDEN'
p99
sg82
I3
sg91
F5.3601142412977278
sg92
g96
sbag1
(g78
g3
NtRp100
(dp101
g88
F2.6250845160211127
sg89
g99
sg82
I4
sg91
F4.9784292217069614
sg92
g96
sbag1
(g78
g3
NtRp102
(dp103
g88
F3.4034481701085597
sg89
g99
sg82
I5
sg91
F5.9660987283536713
sg92
g96
sbag1
(g78
g3
NtRp104
(dp105
g88
F-0.19719078307485757
sg89
g99
sg82
I6
sg91
F5.3492035731151519
sg92
g96
sbag1
(g78
g3
NtRp106
(dp107
g88
F-2.0645298792248883
sg89
g99
sg82
I7
sg91
F4.4691148675236594
sg92
g96
sbag1
(g78
g3
NtRp108
(dp109
g88
F2.2669092963110731
sg89
g99
sg82
I8
sg91
F6.4314931255828709
sg92
g96
sbag1
(g78
g3
NtRp110
(dp111
g88
F-1.6710132579657149
sg89
g99
sg82
I9
sg91
F4.9302542414640982
sg92
g96
sbasb.