ccopy_reg
_reconstructor
p1
(cneat.chromosome
Chromosome
p2
c__builtin__
object
p3
NtRp4
(dp5
S'species_id'
p6
I34
sS'_connection_genes'
p7
(dp8
(I1
I3
tp9
g1
(cneat.genome
ConnectionGene
p10
g3
NtRp11
(dp12
S'_ConnectionGene__weight'
p13
F1.6546432590317715
sS'_ConnectionGene__in'
p14
I1
sS'_ConnectionGene__enabled'
p15
I01
sS'_ConnectionGene__out'
p16
I3
sS'_ConnectionGene__innov_number'
p17
I2
sbs(I4
I8
tp18
g1
(g10
g3
NtRp19
(dp20
g13
F3.7345900978715783
sg14
I4
sg15
I00
sg16
I8
sg17
I25
sbs(I5
I6
tp21
g1
(g10
g3
NtRp22
(dp23
g13
F-0.62415505974044772
sg14
I5
sg15
I01
sg16
I6
sg17
I38
sbs(I11
I2
tp24
g1
(g10
g3
NtRp25
(dp26
g13
F2.4999786280825442
sg14
I11
sg15
I01
sg16
I2
sg17
I74
sbs(I6
I2
tp27
g1
(g10
g3
NtRp28
(dp29
g13
F-22.995244343266346
sg14
I6
sg15
I00
sg16
I2
sg17
I15
sbs(I1
I6
tp30
g1
(g10
g3
NtRp31
(dp32
g13
F30
sg14
I1
sg15
I01
sg16
I6
sg17
I18
sbs(I7
I11
tp33
g1
(g10
g3
NtRp34
(dp35
g13
F-3.4057522843571491
sg14
I7
sg15
I01
sg16
I11
sg17
I87
sbs(I3
I7
tp36
g1
(g10
g3
NtRp37
(dp38
g13
F0.16921509239400256
sg14
I3
sg15
I01
sg16
I7
sg17
I23
sbs(I7
I2
tp39
g1
(g10
g3
NtRp40
(dp41
g13
F10.823592384219939
sg14
I7
sg15
I00
sg16
I2
sg17
I24
sbs(I1
I2
tp42
g1
(g10
g3
NtRp43
(dp44
g13
F27.57278474290516
sg14
I1
sg15
I01
sg16
I2
sg17
I1
sbs(I10
I8
tp45
g1
(g10
g3
NtRp46
(dp47
g13
F15.883052089152823
sg14
I10
sg15
I01
sg16
I8
sg17
I72
sbs(I4
I4
tp48
g1
(g10
g3
NtRp49
(dp50
g13
F-5.3988066998171647
sg14
I4
sg15
I01
sg16
I4
sg17
I12
sbs(I1
I5
tp51
g1
(g10
g3
NtRp52
(dp53
g13
F-6.1770401203842988
sg14
I1
sg15
I01
sg16
I5
sg17
I22
sbs(I3
I5
tp54
g1
(g10
g3
NtRp55
(dp56
g13
F-19.286192649765876
sg14
I3
sg15
I01
sg16
I5
sg17
I16
sbs(I4
I10
tp57
g1
(g10
g3
NtRp58
(dp59
g13
F-1.8891679395790724
sg14
I4
sg15
I01
sg16
I10
sg17
I71
sbs(I3
I2
tp60
g1
(g10
g3
NtRp61
(dp62
g13
F-19.562795935257142
sg14
I3
sg15
I01
sg16
I2
sg17
I3
sbs(I8
I2
tp63
g1
(g10
g3
NtRp64
(dp65
g13
F15.420759254837815
sg14
I8
sg15
I01
sg16
I2
sg17
I26
sbs(I4
I5
tp66
g1
(g10
g3
NtRp67
(dp68
g13
F-24.229254235390158
sg14
I4
sg15
I01
sg16
I5
sg17
I10
sbs(I1
I4
tp69
g1
(g10
g3
NtRp70
(dp71
g13
F-7.0077639020384392
sg14
I1
sg15
I01
sg16
I4
sg17
I7
sbs(I4
I2
tp72
g1
(g10
g3
NtRp73
(dp74
g13
F8.9931786533308564
sg14
I4
sg15
I00
sg16
I2
sg17
I8
sbs(I7
I9
tp75
g1
(g10
g3
NtRp76
(dp77
g13
F1.2553867977197615
sg14
I7
sg15
I01
sg16
I9
sg17
I54
sbs(I9
I2
tp78
g1
(g10
g3
NtRp79
(dp80
g13
F-12.139258746295766
sg14
I9
sg15
I01
sg16
I2
sg17
I52
sbs(I4
I3
tp81
g1
(g10
g3
NtRp82
(dp83
g13
F-2.2949349793977527
sg14
I4
sg15
I01
sg16
I3
sg17
I27
sbs(I1
I7
tp84
g1
(g10
g3
NtRp85
(dp86
g13
F-2.9962443986095586
sg14
I1
sg15
I01
sg16
I7
sg17
I31
sbs(I5
I2
tp87
g1
(g10
g3
NtRp88
(dp89
g13
F-11.187031858714107
sg14
I5
sg15
I01
sg16
I2
sg17
I11
sbssS'_input_nodes'
p90
I1
sS'_output_nodes'
p91
I1
sS'_node_gene_type'
p92
cneat.genome
NodeGene
p93
sS'_conn_gene_type'
p94
g10
sS'fitness'
p95
F-0.4371831076951237
sS'parent2_id'
p96
I2914
sS'_id'
p97
I2938
sS'parent1_id'
p98
I2914
sS'_node_genes'
p99
(lp100
g1
(g93
g3
NtRp101
(dp102
S'_bias'
p103
I0
sS'_type'
p104
S'INPUT'
p105
sg97
I1
sS'_response'
p106
F4.9242730000000003
sS'_activation_type'
p107
Nsbag1
(g93
g3
NtRp108
(dp109
g103
F0.52975520824808475
sg104
S'OUTPUT'
p110
sg97
I2
sg106
F3.428025784229646
sg107
S'tanh'
p111
sbag1
(g93
g3
NtRp112
(dp113
g103
F0.70790279846697368
sg104
S'HIDDEN'
p114
sg97
I3
sg106
F9.9192459116357412
sg107
g111
sbag1
(g93
g3
NtRp115
(dp116
g103
F0.35006840367168585
sg104
g114
sg97
I4
sg106
F5.101314017892582
sg107
g111
sbag1
(g93
g3
NtRp117
(dp118
g103
F-2.7113619610367379
sg104
g114
sg97
I5
sg106
F9.9723681443062926
sg107
g111
sbag1
(g93
g3
NtRp119
(dp120
g103
F0.039710364797012176
sg104
g114
sg97
I6
sg106
F4.5877830772731185
sg107
g111
sbag1
(g93
g3
NtRp121
(dp122
g103
F0.63423168807027985
sg104
g114
sg97
I7
sg106
F6.1306049494071528
sg107
g111
sbag1
(g93
g3
NtRp123
(dp124
g103
F-3.2523960013834836
sg104
g114
sg97
I8
sg106
F4.0206069840334004
sg107
g111
sbag1
(g93
g3
NtRp125
(dp126
g103
F-0.12021315954589606
sg104
g114
sg97
I9
sg106
F4.2520347626519417
sg107
g111
sbag1
(g93
g3
NtRp127
(dp128
g103
F-0.53371872733716308
sg104
g114
sg97
I10
sg106
F4.2064915638794114
sg107
g111
sbag1
(g93
g3
NtRp129
(dp130
g103
F-0.6452282347409416
sg104
g114
sg97
I11
sg106
F5.2876719389491083
sg107
g111
sbasb.