ccopy_reg
_reconstructor
p1
(cneat.chromosome
Chromosome
p2
c__builtin__
object
p3
NtRp4
(dp5
S'species_id'
p6
I27
sS'_connection_genes'
p7
(dp8
(I1
I2
tp9
g1
(cneat.genome
ConnectionGene
p10
g3
NtRp11
(dp12
S'_ConnectionGene__weight'
p13
F14.319496198388595
sS'_ConnectionGene__in'
p14
I1
sS'_ConnectionGene__enabled'
p15
I00
sS'_ConnectionGene__out'
p16
I2
sS'_ConnectionGene__innov_number'
p17
I1
sbs(I3
I2
tp18
g1
(g10
g3
NtRp19
(dp20
g13
F1.3945825309539512
sg14
I3
sg15
I00
sg16
I2
sg17
I3
sbs(I1
I3
tp21
g1
(g10
g3
NtRp22
(dp23
g13
F1.8679099586675125
sg14
I1
sg15
I01
sg16
I3
sg17
I2
sbs(I8
I2
tp24
g1
(g10
g3
NtRp25
(dp26
g13
F16.709036287349022
sg14
I8
sg15
I01
sg16
I2
sg17
I26
sbs(I4
I8
tp27
g1
(g10
g3
NtRp28
(dp29
g13
F11.561137616428329
sg14
I4
sg15
I01
sg16
I8
sg17
I25
sbs(I4
I5
tp30
g1
(g10
g3
NtRp31
(dp32
g13
F-23.576604320277148
sg14
I4
sg15
I01
sg16
I5
sg17
I10
sbs(I4
I2
tp33
g1
(g10
g3
NtRp34
(dp35
g13
F8.8323990536356884
sg14
I4
sg15
I00
sg16
I2
sg17
I8
sbs(I4
I4
tp36
g1
(g10
g3
NtRp37
(dp38
g13
F-6.8433373494740772
sg14
I4
sg15
I01
sg16
I4
sg17
I12
sbs(I1
I4
tp39
g1
(g10
g3
NtRp40
(dp41
g13
F0.49589556979786009
sg14
I1
sg15
I01
sg16
I4
sg17
I7
sbs(I9
I2
tp42
g1
(g10
g3
NtRp43
(dp44
g13
F-3.8120084229415694
sg14
I9
sg15
I01
sg16
I2
sg17
I52
sbs(I3
I5
tp45
g1
(g10
g3
NtRp46
(dp47
g13
F-15.608226486159285
sg14
I3
sg15
I01
sg16
I5
sg17
I16
sbs(I6
I2
tp48
g1
(g10
g3
NtRp49
(dp50
g13
F-18.27490957855451
sg14
I6
sg15
I00
sg16
I2
sg17
I15
sbs(I1
I6
tp51
g1
(g10
g3
NtRp52
(dp53
g13
F23.202229501285288
sg14
I1
sg15
I01
sg16
I6
sg17
I18
sbs(I1
I7
tp54
g1
(g10
g3
NtRp55
(dp56
g13
F-2.1379750909640851
sg14
I1
sg15
I01
sg16
I7
sg17
I31
sbs(I3
I7
tp57
g1
(g10
g3
NtRp58
(dp59
g13
F9.2299614575451976
sg14
I3
sg15
I01
sg16
I7
sg17
I23
sbs(I7
I9
tp60
g1
(g10
g3
NtRp61
(dp62
g13
F-4.2095375349685096
sg14
I7
sg15
I01
sg16
I9
sg17
I54
sbs(I5
I2
tp63
g1
(g10
g3
NtRp64
(dp65
g13
F-14.85240139934713
sg14
I5
sg15
I01
sg16
I2
sg17
I11
sbs(I7
I2
tp66
g1
(g10
g3
NtRp67
(dp68
g13
F7.1039129722149434
sg14
I7
sg15
I00
sg16
I2
sg17
I24
sbs(I1
I5
tp69
g1
(g10
g3
NtRp70
(dp71
g13
F-2.4777838271180674
sg14
I1
sg15
I01
sg16
I5
sg17
I22
sbssS'_input_nodes'
p72
I1
sS'_output_nodes'
p73
I1
sS'_node_gene_type'
p74
cneat.genome
NodeGene
p75
sS'_conn_gene_type'
p76
g10
sS'fitness'
p77
F-1.3448854120692839
sS'parent2_id'
p78
I2190
sS'_id'
p79
I2207
sS'parent1_id'
p80
I2190
sS'_node_genes'
p81
(lp82
g1
(g75
g3
NtRp83
(dp84
S'_bias'
p85
I0
sS'_type'
p86
S'INPUT'
p87
sg79
I1
sS'_response'
p88
F4.9242730000000003
sS'_activation_type'
p89
Nsbag1
(g75
g3
NtRp90
(dp91
g85
F0.45312314321603542
sg86
S'OUTPUT'
p92
sg79
I2
sg88
F4.058527653597646
sg89
S'tanh'
p93
sbag1
(g75
g3
NtRp94
(dp95
g85
F0.21663151979774536
sg86
S'HIDDEN'
p96
sg79
I3
sg88
F8.8743005189491324
sg89
g93
sbag1
(g75
g3
NtRp97
(dp98
g85
F0.1742912610832193
sg86
g96
sg79
I4
sg88
F4.7704643519854519
sg89
g93
sbag1
(g75
g3
NtRp99
(dp100
g85
F-1.0644991274106583
sg86
g96
sg79
I5
sg88
F7.3473369113819116
sg89
g93
sbag1
(g75
g3
NtRp101
(dp102
g85
F-0.68736857886187108
sg86
g96
sg79
I6
sg88
F3.0996083478124783
sg89
g93
sbag1
(g75
g3
NtRp103
(dp104
g85
F1.4075639086224925
sg86
g96
sg79
I7
sg88
F6.0346023555570749
sg89
g93
sbag1
(g75
g3
NtRp105
(dp106
g85
F-1.6052737697416768
sg86
g96
sg79
I8
sg88
F4.3991194222246053
sg89
g93
sbag1
(g75
g3
NtRp107
(dp108
g85
F-0.022343862045156031
sg86
g96
sg79
I9
sg88
F4.1627436586688367
sg89
g93
sbasb.