ccopy_reg
_reconstructor
p1
(cneat.chromosome
Chromosome
p2
c__builtin__
object
p3
NtRp4
(dp5
S'species_id'
p6
I23
sS'_connection_genes'
p7
(dp8
(I1
I2
tp9
g1
(cneat.genome
ConnectionGene
p10
g3
NtRp11
(dp12
S'_ConnectionGene__weight'
p13
F7.699539839260666
sS'_ConnectionGene__in'
p14
I1
sS'_ConnectionGene__enabled'
p15
I00
sS'_ConnectionGene__out'
p16
I2
sS'_ConnectionGene__innov_number'
p17
I1
sbs(I3
I2
tp18
g1
(g10
g3
NtRp19
(dp20
g13
F-11.935340452399231
sg14
I3
sg15
I00
sg16
I2
sg17
I3
sbs(I1
I3
tp21
g1
(g10
g3
NtRp22
(dp23
g13
F-10.708390910449312
sg14
I1
sg15
I01
sg16
I3
sg17
I2
sbs(I5
I5
tp24
g1
(g10
g3
NtRp25
(dp26
g13
F-1.5209175254285956
sg14
I5
sg15
I01
sg16
I5
sg17
I17
sbs(I4
I5
tp27
g1
(g10
g3
NtRp28
(dp29
g13
F9.1889646849515216
sg14
I4
sg15
I01
sg16
I5
sg17
I10
sbs(I3
I4
tp30
g1
(g10
g3
NtRp31
(dp32
g13
F-9.0443087891223684
sg14
I3
sg15
I01
sg16
I4
sg17
I13
sbs(I7
I6
tp33
g1
(g10
g3
NtRp34
(dp35
g13
F7.2221093066787807
sg14
I7
sg15
I01
sg16
I6
sg17
I44
sbs(I4
I4
tp36
g1
(g10
g3
NtRp37
(dp38
g13
F1.8486264556533851
sg14
I4
sg15
I01
sg16
I4
sg17
I12
sbs(I5
I4
tp39
g1
(g10
g3
NtRp40
(dp41
g13
F2.6481077438329059
sg14
I5
sg15
I01
sg16
I4
sg17
I20
sbs(I1
I4
tp42
g1
(g10
g3
NtRp43
(dp44
g13
F-7.737283379865568
sg14
I1
sg15
I01
sg16
I4
sg17
I7
sbs(I3
I8
tp45
g1
(g10
g3
NtRp46
(dp47
g13
F2.821869247116878
sg14
I3
sg15
I01
sg16
I8
sg17
I39
sbs(I7
I5
tp48
g1
(g10
g3
NtRp49
(dp50
g13
F-5.4066645876142081
sg14
I7
sg15
I01
sg16
I5
sg17
I40
sbs(I1
I6
tp51
g1
(g10
g3
NtRp52
(dp53
g13
F-4.5479437777518044
sg14
I1
sg15
I00
sg16
I6
sg17
I18
sbs(I1
I7
tp54
g1
(g10
g3
NtRp55
(dp56
g13
F6.8913083243350322
sg14
I1
sg15
I01
sg16
I7
sg17
I31
sbs(I6
I2
tp57
g1
(g10
g3
NtRp58
(dp59
g13
F-13.881822953597322
sg14
I6
sg15
I01
sg16
I2
sg17
I15
sbs(I4
I2
tp60
g1
(g10
g3
NtRp61
(dp62
g13
F-4.9347827178864563
sg14
I4
sg15
I01
sg16
I2
sg17
I8
sbs(I5
I2
tp63
g1
(g10
g3
NtRp64
(dp65
g13
F-10.835219492855467
sg14
I5
sg15
I01
sg16
I2
sg17
I11
sbs(I8
I2
tp66
g1
(g10
g3
NtRp67
(dp68
g13
F-5.0723424066275724
sg14
I8
sg15
I01
sg16
I2
sg17
I26
sbssS'_input_nodes'
p69
I1
sS'_output_nodes'
p70
I1
sS'_node_gene_type'
p71
cneat.genome
NodeGene
p72
sS'_conn_gene_type'
p73
g10
sS'fitness'
p74
F-0.29800736939774208
sS'parent2_id'
p75
I1784
sS'_id'
p76
I1799
sS'parent1_id'
p77
I1784
sS'_node_genes'
p78
(lp79
g1
(g72
g3
NtRp80
(dp81
S'_bias'
p82
I0
sS'_type'
p83
S'INPUT'
p84
sg76
I1
sS'_response'
p85
F4.9242730000000003
sS'_activation_type'
p86
Nsbag1
(g72
g3
NtRp87
(dp88
g82
F3.4273251746483337
sg83
S'OUTPUT'
p89
sg76
I2
sg85
F7.5103223606301226
sg86
S'tanh'
p90
sbag1
(g72
g3
NtRp91
(dp92
g82
F4.5239496191662569
sg83
S'HIDDEN'
p93
sg76
I3
sg85
F6.5146563068618946
sg86
g90
sbag1
(g72
g3
NtRp94
(dp95
g82
F1.9834479568270542
sg83
g93
sg76
I4
sg85
F4.2225120186639478
sg86
g90
sbag1
(g72
g3
NtRp96
(dp97
g82
F-0.29310237224398361
sg83
g93
sg76
I5
sg85
F5.8102014965873865
sg86
g90
sbag1
(g72
g3
NtRp98
(dp99
g82
F0.68117639407874897
sg83
g93
sg76
I6
sg85
F5.8284116901518734
sg86
g90
sbag1
(g72
g3
NtRp100
(dp101
g82
F-1.2648206460668185
sg83
g93
sg76
I7
sg85
F4.2399575745889937
sg86
g90
sbag1
(g72
g3
NtRp102
(dp103
g82
F0.85800392708349504
sg83
g93
sg76
I8
sg85
F5.5345861238148242
sg86
g90
sbasb.