ccopy_reg
_reconstructor
p1
(cneat.chromosome
Chromosome
p2
c__builtin__
object
p3
NtRp4
(dp5
S'species_id'
p6
I29
sS'_connection_genes'
p7
(dp8
(I1
I2
tp9
g1
(cneat.genome
ConnectionGene
p10
g3
NtRp11
(dp12
S'_ConnectionGene__weight'
p13
F15.503814470003704
sS'_ConnectionGene__in'
p14
I1
sS'_ConnectionGene__enabled'
p15
I00
sS'_ConnectionGene__out'
p16
I2
sS'_ConnectionGene__innov_number'
p17
I1
sbs(I3
I2
tp18
g1
(g10
g3
NtRp19
(dp20
g13
F-14.042567442750071
sg14
I3
sg15
I00
sg16
I2
sg17
I3
sbs(I1
I3
tp21
g1
(g10
g3
NtRp22
(dp23
g13
F-13.633381500209655
sg14
I1
sg15
I01
sg16
I3
sg17
I2
sbs(I5
I5
tp24
g1
(g10
g3
NtRp25
(dp26
g13
F5.6221924134927939
sg14
I5
sg15
I01
sg16
I5
sg17
I17
sbs(I4
I5
tp27
g1
(g10
g3
NtRp28
(dp29
g13
F14.681133614379286
sg14
I4
sg15
I01
sg16
I5
sg17
I10
sbs(I3
I4
tp30
g1
(g10
g3
NtRp31
(dp32
g13
F-6.428346440830218
sg14
I3
sg15
I01
sg16
I4
sg17
I13
sbs(I7
I6
tp33
g1
(g10
g3
NtRp34
(dp35
g13
F9.7392763308199903
sg14
I7
sg15
I01
sg16
I6
sg17
I44
sbs(I4
I4
tp36
g1
(g10
g3
NtRp37
(dp38
g13
F1.5198402880394331
sg14
I4
sg15
I01
sg16
I4
sg17
I12
sbs(I5
I4
tp39
g1
(g10
g3
NtRp40
(dp41
g13
F2.2857171530842457
sg14
I5
sg15
I01
sg16
I4
sg17
I20
sbs(I1
I4
tp42
g1
(g10
g3
NtRp43
(dp44
g13
F-2.2347924405127908
sg14
I1
sg15
I01
sg16
I4
sg17
I7
sbs(I3
I8
tp45
g1
(g10
g3
NtRp46
(dp47
g13
F-9.8064675776522279
sg14
I3
sg15
I01
sg16
I8
sg17
I39
sbs(I9
I2
tp48
g1
(g10
g3
NtRp49
(dp50
g13
F16.082623385588114
sg14
I9
sg15
I01
sg16
I2
sg17
I52
sbs(I7
I5
tp51
g1
(g10
g3
NtRp52
(dp53
g13
F-7.9421783819110008
sg14
I7
sg15
I01
sg16
I5
sg17
I40
sbs(I1
I6
tp54
g1
(g10
g3
NtRp55
(dp56
g13
F-5.9770552134817834
sg14
I1
sg15
I00
sg16
I6
sg17
I18
sbs(I1
I9
tp57
g1
(g10
g3
NtRp58
(dp59
g13
F-4.7480564796765581
sg14
I1
sg15
I01
sg16
I9
sg17
I51
sbs(I1
I7
tp60
g1
(g10
g3
NtRp61
(dp62
g13
F9.0497979956826811
sg14
I1
sg15
I01
sg16
I7
sg17
I31
sbs(I6
I2
tp63
g1
(g10
g3
NtRp64
(dp65
g13
F0.9250965116863118
sg14
I6
sg15
I01
sg16
I2
sg17
I15
sbs(I4
I2
tp66
g1
(g10
g3
NtRp67
(dp68
g13
F-11.378563727863774
sg14
I4
sg15
I01
sg16
I2
sg17
I8
sbs(I5
I2
tp69
g1
(g10
g3
NtRp70
(dp71
g13
F-19.506626090811935
sg14
I5
sg15
I01
sg16
I2
sg17
I11
sbs(I8
I2
tp72
g1
(g10
g3
NtRp73
(dp74
g13
F-12.109871107079863
sg14
I8
sg15
I01
sg16
I2
sg17
I26
sbssS'_input_nodes'
p75
I1
sS'_output_nodes'
p76
I1
sS'_node_gene_type'
p77
cneat.genome
NodeGene
p78
sS'_conn_gene_type'
p79
g10
sS'fitness'
p80
F-0.38127011471908379
sS'parent2_id'
p81
I2323
sS'_id'
p82
I2336
sS'parent1_id'
p83
I2323
sS'_node_genes'
p84
(lp85
g1
(g78
g3
NtRp86
(dp87
S'_bias'
p88
I0
sS'_type'
p89
S'INPUT'
p90
sg82
I1
sS'_response'
p91
F4.9242730000000003
sS'_activation_type'
p92
Nsbag1
(g78
g3
NtRp93
(dp94
g88
F3.0949128658860148
sg89
S'OUTPUT'
p95
sg82
I2
sg91
F7.5850811948594981
sg92
S'tanh'
p96
sbag1
(g78
g3
NtRp97
(dp98
g88
F4.8214719997742828
sg89
S'HIDDEN'
p99
sg82
I3
sg91
F4.6889791919635107
sg92
g96
sbag1
(g78
g3
NtRp100
(dp101
g88
F1.737000088112723
sg89
g99
sg82
I4
sg91
F4.7315554704952412
sg92
g96
sbag1
(g78
g3
NtRp102
(dp103
g88
F1.6682359594270491
sg89
g99
sg82
I5
sg91
F6.4931854217754159
sg92
g96
sbag1
(g78
g3
NtRp104
(dp105
g88
F-0.16851873660154321
sg89
g99
sg82
I6
sg91
F4.8752566153253802
sg92
g96
sbag1
(g78
g3
NtRp106
(dp107
g88
F-1.2614548719949454
sg89
g99
sg82
I7
sg91
F4.4691148675236594
sg92
g96
sbag1
(g78
g3
NtRp108
(dp109
g88
F1.9291514641934384
sg89
g99
sg82
I8
sg91
F6.4314931255828709
sg92
g96
sbag1
(g78
g3
NtRp110
(dp111
g88
I0
sg89
g99
sg82
I9
sg91
F4.823830506178993
sg92
g96
sbasb.