ccopy_reg
_reconstructor
p1
(cneat.chromosome
Chromosome
p2
c__builtin__
object
p3
NtRp4
(dp5
S'species_id'
p6
I39
sS'_connection_genes'
p7
(dp8
(I6
I9
tp9
g1
(cneat.genome
ConnectionGene
p10
g3
NtRp11
(dp12
S'_ConnectionGene__weight'
p13
F-3.1334990626101242
sS'_ConnectionGene__in'
p14
I6
sS'_ConnectionGene__enabled'
p15
I01
sS'_ConnectionGene__out'
p16
I9
sS'_ConnectionGene__innov_number'
p17
I56
sbs(I1
I3
tp18
g1
(g10
g3
NtRp19
(dp20
g13
F4.6171435039827191
sg14
I1
sg15
I01
sg16
I3
sg17
I2
sbs(I4
I8
tp21
g1
(g10
g3
NtRp22
(dp23
g13
F2.9139587493635788
sg14
I4
sg15
I00
sg16
I8
sg17
I25
sbs(I5
I6
tp24
g1
(g10
g3
NtRp25
(dp26
g13
F-2.4958029031092344
sg14
I5
sg15
I01
sg16
I6
sg17
I38
sbs(I11
I2
tp27
g1
(g10
g3
NtRp28
(dp29
g13
F6.8018538363188714
sg14
I11
sg15
I01
sg16
I2
sg17
I74
sbs(I8
I9
tp30
g1
(g10
g3
NtRp31
(dp32
g13
F-1.0959547243198757
sg14
I8
sg15
I01
sg16
I9
sg17
I79
sbs(I6
I2
tp33
g1
(g10
g3
NtRp34
(dp35
g13
F-24.73469484746991
sg14
I6
sg15
I01
sg16
I2
sg17
I15
sbs(I1
I6
tp36
g1
(g10
g3
NtRp37
(dp38
g13
F23.281441843660346
sg14
I1
sg15
I01
sg16
I6
sg17
I18
sbs(I7
I11
tp39
g1
(g10
g3
NtRp40
(dp41
g13
F-4.6622467447829301
sg14
I7
sg15
I01
sg16
I11
sg17
I87
sbs(I3
I7
tp42
g1
(g10
g3
NtRp43
(dp44
g13
F-0.69426918469581356
sg14
I3
sg15
I01
sg16
I7
sg17
I23
sbs(I7
I2
tp45
g1
(g10
g3
NtRp46
(dp47
g13
F7.8578902547823049
sg14
I7
sg15
I00
sg16
I2
sg17
I24
sbs(I1
I2
tp48
g1
(g10
g3
NtRp49
(dp50
g13
F19.305125400438897
sg14
I1
sg15
I01
sg16
I2
sg17
I1
sbs(I10
I8
tp51
g1
(g10
g3
NtRp52
(dp53
g13
F8.7318661310979291
sg14
I10
sg15
I01
sg16
I8
sg17
I72
sbs(I11
I5
tp54
g1
(g10
g3
NtRp55
(dp56
g13
F2.8129684908510177
sg14
I11
sg15
I01
sg16
I5
sg17
I102
sbs(I4
I4
tp57
g1
(g10
g3
NtRp58
(dp59
g13
F-6.3844121723900678
sg14
I4
sg15
I01
sg16
I4
sg17
I12
sbs(I1
I5
tp60
g1
(g10
g3
NtRp61
(dp62
g13
F-8.446399935397034
sg14
I1
sg15
I01
sg16
I5
sg17
I22
sbs(I3
I5
tp63
g1
(g10
g3
NtRp64
(dp65
g13
F-19.179486055284993
sg14
I3
sg15
I01
sg16
I5
sg17
I16
sbs(I4
I10
tp66
g1
(g10
g3
NtRp67
(dp68
g13
F-5.1808447420359887
sg14
I4
sg15
I01
sg16
I10
sg17
I71
sbs(I3
I2
tp69
g1
(g10
g3
NtRp70
(dp71
g13
F-16.488133842844132
sg14
I3
sg15
I01
sg16
I2
sg17
I3
sbs(I8
I2
tp72
g1
(g10
g3
NtRp73
(dp74
g13
F14.968140452460819
sg14
I8
sg15
I01
sg16
I2
sg17
I26
sbs(I12
I2
tp75
g1
(g10
g3
NtRp76
(dp77
g13
F3.4076234583879255
sg14
I12
sg15
I01
sg16
I2
sg17
I89
sbs(I4
I5
tp78
g1
(g10
g3
NtRp79
(dp80
g13
F-23.864575432831451
sg14
I4
sg15
I01
sg16
I5
sg17
I10
sbs(I1
I4
tp81
g1
(g10
g3
NtRp82
(dp83
g13
F-8.8329782570481097
sg14
I1
sg15
I01
sg16
I4
sg17
I7
sbs(I7
I12
tp84
g1
(g10
g3
NtRp85
(dp86
g13
F1.6134754711519288
sg14
I7
sg15
I01
sg16
I12
sg17
I96
sbs(I4
I2
tp87
g1
(g10
g3
NtRp88
(dp89
g13
F7.2277603015356569
sg14
I4
sg15
I00
sg16
I2
sg17
I8
sbs(I7
I9
tp90
g1
(g10
g3
NtRp91
(dp92
g13
F2.6457037766882241
sg14
I7
sg15
I01
sg16
I9
sg17
I54
sbs(I10
I10
tp93
g1
(g10
g3
NtRp94
(dp95
g13
F13.257994430205139
sg14
I10
sg15
I01
sg16
I10
sg17
I92
sbs(I9
I2
tp96
g1
(g10
g3
NtRp97
(dp98
g13
F-18.301308779798109
sg14
I9
sg15
I01
sg16
I2
sg17
I52
sbs(I4
I3
tp99
g1
(g10
g3
NtRp100
(dp101
g13
F-4.4507615733579948
sg14
I4
sg15
I01
sg16
I3
sg17
I27
sbs(I1
I7
tp102
g1
(g10
g3
NtRp103
(dp104
g13
F-0.65785437096364729
sg14
I1
sg15
I01
sg16
I7
sg17
I31
sbs(I5
I2
tp105
g1
(g10
g3
NtRp106
(dp107
g13
F-11.919093516618677
sg14
I5
sg15
I01
sg16
I2
sg17
I11
sbssS'_input_nodes'
p108
I1
sS'_output_nodes'
p109
I1
sS'_node_gene_type'
p110
cneat.genome
NodeGene
p111
sS'_conn_gene_type'
p112
g10
sS'fitness'
p113
F-0.55664448840652014
sS'parent2_id'
p114
I3248
sS'_id'
p115
I3275
sS'parent1_id'
p116
I3248
sS'_node_genes'
p117
(lp118
g1
(g111
g3
NtRp119
(dp120
S'_bias'
p121
I0
sS'_type'
p122
S'INPUT'
p123
sg115
I1
sS'_response'
p124
F4.9242730000000003
sS'_activation_type'
p125
Nsbag1
(g111
g3
NtRp126
(dp127
g121
F0.12708985867646932
sg122
S'OUTPUT'
p128
sg115
I2
sg124
F3.428025784229646
sg125
S'tanh'
p129
sbag1
(g111
g3
NtRp130
(dp131
g121
F-0.63985583307761518
sg122
S'HIDDEN'
p132
sg115
I3
sg124
F9.409737104131068
sg125
g129
sbag1
(g111
g3
NtRp133
(dp134
g121
F0.28850085197382969
sg122
g132
sg115
I4
sg124
F4.4945614374413863
sg125
g129
sbag1
(g111
g3
NtRp135
(dp136
g121
F-2.8071112771427957
sg122
g132
sg115
I5
sg124
F8.0674551452024179
sg125
g129
sbag1
(g111
g3
NtRp137
(dp138
g121
F0.039710364797012176
sg122
g132
sg115
I6
sg124
F6.6131960786901329
sg125
g129
sbag1
(g111
g3
NtRp139
(dp140
g121
F1.6637113784362996
sg122
g132
sg115
I7
sg124
F5.0060840761610903
sg125
g129
sbag1
(g111
g3
NtRp141
(dp142
g121
F-4.1884402162152323
sg122
g132
sg115
I8
sg124
F4.3515964700388903
sg125
g129
sbag1
(g111
g3
NtRp143
(dp144
g121
F1.0204825260381694
sg122
g132
sg115
I9
sg124
F4.8739653967700818
sg125
g129
sbag1
(g111
g3
NtRp145
(dp146
g121
F-0.87889668221064321
sg122
g132
sg115
I10
sg124
F3.9986482515626989
sg125
g129
sbag1
(g111
g3
NtRp147
(dp148
g121
F-1.7153737621353802
sg122
g132
sg115
I11
sg124
F8.2729946944808574
sg125
g129
sbag1
(g111
g3
NtRp149
(dp150
g121
F0.56455397434645949
sg122
g132
sg115
I12
sg124
F4.2674857559470061
sg125
g129
sbasb.