ccopy_reg
_reconstructor
p1
(cneat.chromosome
Chromosome
p2
c__builtin__
object
p3
NtRp4
(dp5
S'species_id'
p6
I13
sS'_connection_genes'
p7
(dp8
(I1
I2
tp9
g1
(cneat.genome
ConnectionGene
p10
g3
NtRp11
(dp12
S'_ConnectionGene__weight'
p13
F9.748482947345515
sS'_ConnectionGene__in'
p14
I1
sS'_ConnectionGene__enabled'
p15
I01
sS'_ConnectionGene__out'
p16
I2
sS'_ConnectionGene__innov_number'
p17
I1
sbs(I3
I2
tp18
g1
(g10
g3
NtRp19
(dp20
g13
F-3.0195988793609798
sg14
I3
sg15
I00
sg16
I2
sg17
I3
sbs(I1
I3
tp21
g1
(g10
g3
NtRp22
(dp23
g13
F14.148062805418627
sg14
I1
sg15
I01
sg16
I3
sg17
I2
sbs(I5
I5
tp24
g1
(g10
g3
NtRp25
(dp26
g13
F-3.7300789963767151
sg14
I5
sg15
I01
sg16
I5
sg17
I17
sbs(I4
I5
tp27
g1
(g10
g3
NtRp28
(dp29
g13
F6.1167785484376171
sg14
I4
sg15
I01
sg16
I5
sg17
I10
sbs(I4
I4
tp30
g1
(g10
g3
NtRp31
(dp32
g13
F-6.3996955737726058
sg14
I4
sg15
I01
sg16
I4
sg17
I12
sbs(I5
I4
tp33
g1
(g10
g3
NtRp34
(dp35
g13
F-11.835677525063295
sg14
I5
sg15
I01
sg16
I4
sg17
I20
sbs(I1
I4
tp36
g1
(g10
g3
NtRp37
(dp38
g13
F-15.103795522576082
sg14
I1
sg15
I01
sg16
I4
sg17
I7
sbs(I6
I2
tp39
g1
(g10
g3
NtRp40
(dp41
g13
F-6.8776486983988576
sg14
I6
sg15
I01
sg16
I2
sg17
I15
sbs(I3
I6
tp42
g1
(g10
g3
NtRp43
(dp44
g13
F5.1544323501264024
sg14
I3
sg15
I01
sg16
I6
sg17
I21
sbs(I4
I2
tp45
g1
(g10
g3
NtRp46
(dp47
g13
F-12.371469436777968
sg14
I4
sg15
I01
sg16
I2
sg17
I8
sbs(I5
I2
tp48
g1
(g10
g3
NtRp49
(dp50
g13
F-6.1447033706696281
sg14
I5
sg15
I01
sg16
I2
sg17
I11
sbssS'_input_nodes'
p51
I1
sS'_output_nodes'
p52
I1
sS'_node_gene_type'
p53
cneat.genome
NodeGene
p54
sS'_conn_gene_type'
p55
g10
sS'fitness'
p56
F-0.11523653686670957
sS'parent2_id'
p57
I1261
sS'_id'
p58
I1275
sS'parent1_id'
p59
I1261
sS'_node_genes'
p60
(lp61
g1
(g54
g3
NtRp62
(dp63
S'_bias'
p64
I0
sS'_type'
p65
S'INPUT'
p66
sg58
I1
sS'_response'
p67
F4.9242730000000003
sS'_activation_type'
p68
Nsbag1
(g54
g3
NtRp69
(dp70
g64
F1.9542829757025366
sg65
S'OUTPUT'
p71
sg58
I2
sg67
F8.4810860665624208
sg68
S'tanh'
p72
sbag1
(g54
g3
NtRp73
(dp74
g64
F2.38165389946532
sg65
S'HIDDEN'
p75
sg58
I3
sg67
F6.5626582900394066
sg68
g72
sbag1
(g54
g3
NtRp76
(dp77
g64
F0.82525763465881874
sg65
g75
sg58
I4
sg67
F5.4405458659199795
sg68
g72
sbag1
(g54
g3
NtRp78
(dp79
g64
F1.589649362359556
sg65
g75
sg58
I5
sg67
F5.4777619368805643
sg68
g72
sbag1
(g54
g3
NtRp80
(dp81
g64
F-0.31064480702874414
sg65
g75
sg58
I6
sg67
F4.6910493317240594
sg68
g72
sbasb.