ccopy_reg
_reconstructor
p1
(cneat.chromosome
Chromosome
p2
c__builtin__
object
p3
NtRp4
(dp5
S'species_id'
p6
I41
sS'_connection_genes'
p7
(dp8
(I1
I3
tp9
g1
(cneat.genome
ConnectionGene
p10
g3
NtRp11
(dp12
S'_ConnectionGene__weight'
p13
F-28.961498314663494
sS'_ConnectionGene__in'
p14
I1
sS'_ConnectionGene__enabled'
p15
I01
sS'_ConnectionGene__out'
p16
I3
sS'_ConnectionGene__innov_number'
p17
I2
sbs(I6
I6
tp18
g1
(g10
g3
NtRp19
(dp20
g13
F-0.034773471419878188
sg14
I6
sg15
I01
sg16
I6
sg17
I32
sbs(I5
I4
tp21
g1
(g10
g3
NtRp22
(dp23
g13
F6.0101960106053198
sg14
I5
sg15
I01
sg16
I4
sg17
I20
sbs(I6
I2
tp24
g1
(g10
g3
NtRp25
(dp26
g13
F4.1192212695856512
sg14
I6
sg15
I01
sg16
I2
sg17
I15
sbs(I1
I6
tp27
g1
(g10
g3
NtRp28
(dp29
g13
F-10.301623137879895
sg14
I1
sg15
I01
sg16
I6
sg17
I18
sbs(I1
I2
tp30
g1
(g10
g3
NtRp31
(dp32
g13
F29.291418185317429
sg14
I1
sg15
I01
sg16
I2
sg17
I1
sbs(I5
I5
tp33
g1
(g10
g3
NtRp34
(dp35
g13
F24.719224758089446
sg14
I5
sg15
I00
sg16
I5
sg17
I17
sbs(I7
I6
tp36
g1
(g10
g3
NtRp37
(dp38
g13
F-5.0110467537633063
sg14
I7
sg15
I01
sg16
I6
sg17
I44
sbs(I4
I4
tp39
g1
(g10
g3
NtRp40
(dp41
g13
F3.8090950656568756
sg14
I4
sg15
I01
sg16
I4
sg17
I12
sbs(I6
I3
tp42
g1
(g10
g3
NtRp43
(dp44
g13
F-3.7239376981737777
sg14
I6
sg15
I01
sg16
I3
sg17
I95
sbs(I2
I2
tp45
g1
(g10
g3
NtRp46
(dp47
g13
F3.7773710235581466
sg14
I2
sg15
I01
sg16
I2
sg17
I4
sbs(I3
I2
tp48
g1
(g10
g3
NtRp49
(dp50
g13
F-14.963632083594739
sg14
I3
sg15
I01
sg16
I2
sg17
I3
sbs(I8
I2
tp51
g1
(g10
g3
NtRp52
(dp53
g13
F-25.643235745095385
sg14
I8
sg15
I01
sg16
I2
sg17
I26
sbs(I4
I5
tp54
g1
(g10
g3
NtRp55
(dp56
g13
F10.378522815725407
sg14
I4
sg15
I01
sg16
I5
sg17
I10
sbs(I1
I4
tp57
g1
(g10
g3
NtRp58
(dp59
g13
F-0.88521828477444764
sg14
I1
sg15
I01
sg16
I4
sg17
I7
sbs(I7
I5
tp60
g1
(g10
g3
NtRp61
(dp62
g13
F15.386528182068336
sg14
I7
sg15
I01
sg16
I5
sg17
I40
sbs(I1
I9
tp63
g1
(g10
g3
NtRp64
(dp65
g13
F-16.660780133091841
sg14
I1
sg15
I01
sg16
I9
sg17
I51
sbs(I4
I2
tp66
g1
(g10
g3
NtRp67
(dp68
g13
F4.025618235914175
sg14
I4
sg15
I01
sg16
I2
sg17
I8
sbs(I10
I5
tp69
g1
(g10
g3
NtRp70
(dp71
g13
F26.378076309892666
sg14
I10
sg15
I01
sg16
I5
sg17
I70
sbs(I5
I10
tp72
g1
(g10
g3
NtRp73
(dp74
g13
F-5.426503659459617
sg14
I5
sg15
I01
sg16
I10
sg17
I85
sbs(I9
I2
tp75
g1
(g10
g3
NtRp76
(dp77
g13
F-2.997914497618372
sg14
I9
sg15
I01
sg16
I2
sg17
I52
sbs(I5
I2
tp78
g1
(g10
g3
NtRp79
(dp80
g13
F-17.376860138858927
sg14
I5
sg15
I01
sg16
I2
sg17
I11
sbs(I3
I8
tp81
g1
(g10
g3
NtRp82
(dp83
g13
F-16.413557489570515
sg14
I3
sg15
I01
sg16
I8
sg17
I39
sbs(I1
I7
tp84
g1
(g10
g3
NtRp85
(dp86
g13
F5.5341750723710756
sg14
I1
sg15
I01
sg16
I7
sg17
I31
sbs(I3
I4
tp87
g1
(g10
g3
NtRp88
(dp89
g13
F-20.395486425735541
sg14
I3
sg15
I01
sg16
I4
sg17
I13
sbssS'_input_nodes'
p90
I1
sS'_output_nodes'
p91
I1
sS'_node_gene_type'
p92
cneat.genome
NodeGene
p93
sS'_conn_gene_type'
p94
g10
sS'fitness'
p95
F-1.3991110329021215
sS'parent2_id'
p96
I3461
sS'_id'
p97
I3482
sS'parent1_id'
p98
I3461
sS'_node_genes'
p99
(lp100
g1
(g93
g3
NtRp101
(dp102
S'_bias'
p103
I0
sS'_type'
p104
S'INPUT'
p105
sg97
I1
sS'_response'
p106
F4.9242730000000003
sS'_activation_type'
p107
Nsbag1
(g93
g3
NtRp108
(dp109
g103
F5.359305576020243
sg104
S'OUTPUT'
p110
sg97
I2
sg106
F4.9063922307494519
sg107
S'tanh'
p111
sbag1
(g93
g3
NtRp112
(dp113
g103
F4.8757167877070939
sg104
S'HIDDEN'
p114
sg97
I3
sg106
F4.6763681389749214
sg107
g111
sbag1
(g93
g3
NtRp115
(dp116
g103
F0.45777157147853964
sg104
g114
sg97
I4
sg106
F3.9247670564404991
sg107
g111
sbag1
(g93
g3
NtRp117
(dp118
g103
F3.0298961501823003
sg104
g114
sg97
I5
sg106
F5.8928178688169712
sg107
g111
sbag1
(g93
g3
NtRp119
(dp120
g103
F-0.47572045774183797
sg104
g114
sg97
I6
sg106
F2.6546091626906509
sg107
g111
sbag1
(g93
g3
NtRp121
(dp122
g103
F-2.8327487191880043
sg104
g114
sg97
I7
sg106
F5.8050336068907846
sg107
g111
sbag1
(g93
g3
NtRp123
(dp124
g103
F2.2921262017071324
sg104
g114
sg97
I8
sg106
F6.6957905553329713
sg107
g111
sbag1
(g93
g3
NtRp125
(dp126
g103
F-1.3187383390511402
sg104
g114
sg97
I9
sg106
F5.7001305670566929
sg107
g111
sbag1
(g93
g3
NtRp127
(dp128
g103
F0.80921237624630971
sg104
g114
sg97
I10
sg106
F5.4973394790006678
sg107
g111
sbasb.