ccopy_reg
_reconstructor
p1
(cneat.chromosome
Chromosome
p2
c__builtin__
object
p3
NtRp4
(dp5
S'species_id'
p6
I35
sS'_connection_genes'
p7
(dp8
(I1
I3
tp9
g1
(cneat.genome
ConnectionGene
p10
g3
NtRp11
(dp12
S'_ConnectionGene__weight'
p13
F-27.749127634527561
sS'_ConnectionGene__in'
p14
I1
sS'_ConnectionGene__enabled'
p15
I01
sS'_ConnectionGene__out'
p16
I3
sS'_ConnectionGene__innov_number'
p17
I2
sbs(I5
I4
tp18
g1
(g10
g3
NtRp19
(dp20
g13
F5.4817897236175135
sg14
I5
sg15
I01
sg16
I4
sg17
I20
sbs(I6
I2
tp21
g1
(g10
g3
NtRp22
(dp23
g13
F13.781902718305622
sg14
I6
sg15
I01
sg16
I2
sg17
I15
sbs(I1
I6
tp24
g1
(g10
g3
NtRp25
(dp26
g13
F-8.4113466999173081
sg14
I1
sg15
I01
sg16
I6
sg17
I18
sbs(I1
I2
tp27
g1
(g10
g3
NtRp28
(dp29
g13
F26.238500689778061
sg14
I1
sg15
I01
sg16
I2
sg17
I1
sbs(I5
I5
tp30
g1
(g10
g3
NtRp31
(dp32
g13
F20.556150968720864
sg14
I5
sg15
I01
sg16
I5
sg17
I17
sbs(I7
I6
tp33
g1
(g10
g3
NtRp34
(dp35
g13
F-3.4519134758197429
sg14
I7
sg15
I01
sg16
I6
sg17
I44
sbs(I4
I4
tp36
g1
(g10
g3
NtRp37
(dp38
g13
F5.288920479824597
sg14
I4
sg15
I01
sg16
I4
sg17
I12
sbs(I6
I3
tp39
g1
(g10
g3
NtRp40
(dp41
g13
F-0.615914309345029
sg14
I6
sg15
I01
sg16
I3
sg17
I95
sbs(I2
I2
tp42
g1
(g10
g3
NtRp43
(dp44
g13
F3.3302601045787594
sg14
I2
sg15
I01
sg16
I2
sg17
I4
sbs(I3
I2
tp45
g1
(g10
g3
NtRp46
(dp47
g13
F-18.692866267443062
sg14
I3
sg15
I01
sg16
I2
sg17
I3
sbs(I8
I2
tp48
g1
(g10
g3
NtRp49
(dp50
g13
F-26.19303079582297
sg14
I8
sg15
I01
sg16
I2
sg17
I26
sbs(I4
I5
tp51
g1
(g10
g3
NtRp52
(dp53
g13
F14.057864167317858
sg14
I4
sg15
I01
sg16
I5
sg17
I10
sbs(I1
I4
tp54
g1
(g10
g3
NtRp55
(dp56
g13
F5.8894712381834129
sg14
I1
sg15
I01
sg16
I4
sg17
I7
sbs(I7
I5
tp57
g1
(g10
g3
NtRp58
(dp59
g13
F15.990122785967635
sg14
I7
sg15
I01
sg16
I5
sg17
I40
sbs(I1
I9
tp60
g1
(g10
g3
NtRp61
(dp62
g13
F-17.037821822145521
sg14
I1
sg15
I01
sg16
I9
sg17
I51
sbs(I4
I2
tp63
g1
(g10
g3
NtRp64
(dp65
g13
F-2.0080918406109967
sg14
I4
sg15
I01
sg16
I2
sg17
I8
sbs(I9
I2
tp66
g1
(g10
g3
NtRp67
(dp68
g13
F-4.0832228779330375
sg14
I9
sg15
I01
sg16
I2
sg17
I52
sbs(I3
I4
tp69
g1
(g10
g3
NtRp70
(dp71
g13
F-18.765000716515033
sg14
I3
sg15
I01
sg16
I4
sg17
I13
sbs(I3
I8
tp72
g1
(g10
g3
NtRp73
(dp74
g13
F-21.290342974168365
sg14
I3
sg15
I01
sg16
I8
sg17
I39
sbs(I1
I7
tp75
g1
(g10
g3
NtRp76
(dp77
g13
F4.8281957764216799
sg14
I1
sg15
I01
sg16
I7
sg17
I31
sbs(I5
I2
tp78
g1
(g10
g3
NtRp79
(dp80
g13
F-21.1290733966643
sg14
I5
sg15
I01
sg16
I2
sg17
I11
sbssS'_input_nodes'
p81
I1
sS'_output_nodes'
p82
I1
sS'_node_gene_type'
p83
cneat.genome
NodeGene
p84
sS'_conn_gene_type'
p85
g10
sS'fitness'
p86
F-0.17571520417056113
sS'parent2_id'
p87
I3187
sS'_id'
p88
I3226
sS'parent1_id'
p89
I3187
sS'_node_genes'
p90
(lp91
g1
(g84
g3
NtRp92
(dp93
S'_bias'
p94
I0
sS'_type'
p95
S'INPUT'
p96
sg88
I1
sS'_response'
p97
F4.9242730000000003
sS'_activation_type'
p98
Nsbag1
(g84
g3
NtRp99
(dp100
g94
F5.0093208376338776
sg95
S'OUTPUT'
p101
sg88
I2
sg97
F4.9474418814653918
sg98
S'tanh'
p102
sbag1
(g84
g3
NtRp103
(dp104
g94
F4.7753513523395936
sg95
S'HIDDEN'
p105
sg88
I3
sg97
F4.6763681389749214
sg98
g102
sbag1
(g84
g3
NtRp106
(dp107
g94
F0.53251186738437573
sg95
g105
sg88
I4
sg97
F3.9948381304997334
sg98
g102
sbag1
(g84
g3
NtRp108
(dp109
g94
F3.1038450466350072
sg95
g105
sg88
I5
sg97
F6.161601497192196
sg98
g102
sbag1
(g84
g3
NtRp110
(dp111
g94
F-0.10466574088248363
sg95
g105
sg88
I6
sg97
F2.2416360689980088
sg98
g102
sbag1
(g84
g3
NtRp112
(dp113
g94
F-2.4568205335368694
sg95
g105
sg88
I7
sg97
F6.2202466651283297
sg98
g102
sbag1
(g84
g3
NtRp114
(dp115
g94
F2.2921262017071324
sg95
g105
sg88
I8
sg97
F6.9090580173022627
sg98
g102
sbag1
(g84
g3
NtRp116
(dp117
g94
F-1.0389886694369641
sg95
g105
sg88
I9
sg97
F5.7001305670566929
sg98
g102
sbasb.