ccopy_reg
_reconstructor
p1
(cneat.chromosome
Chromosome
p2
c__builtin__
object
p3
NtRp4
(dp5
S'species_id'
p6
I39
sS'_connection_genes'
p7
(dp8
(I6
I9
tp9
g1
(cneat.genome
ConnectionGene
p10
g3
NtRp11
(dp12
S'_ConnectionGene__weight'
p13
F-1.4420472136354618
sS'_ConnectionGene__in'
p14
I6
sS'_ConnectionGene__enabled'
p15
I01
sS'_ConnectionGene__out'
p16
I9
sS'_ConnectionGene__innov_number'
p17
I56
sbs(I1
I3
tp18
g1
(g10
g3
NtRp19
(dp20
g13
F4.3181532712894635
sg14
I1
sg15
I01
sg16
I3
sg17
I2
sbs(I4
I8
tp21
g1
(g10
g3
NtRp22
(dp23
g13
F3.292590982156951
sg14
I4
sg15
I00
sg16
I8
sg17
I25
sbs(I5
I6
tp24
g1
(g10
g3
NtRp25
(dp26
g13
F-0.16010553995846877
sg14
I5
sg15
I01
sg16
I6
sg17
I38
sbs(I11
I2
tp27
g1
(g10
g3
NtRp28
(dp29
g13
F8.8035362288817947
sg14
I11
sg15
I01
sg16
I2
sg17
I74
sbs(I7
I14
tp30
g1
(g10
g3
NtRp31
(dp32
g13
F-1.1031342106161899
sg14
I7
sg15
I01
sg16
I14
sg17
I110
sbs(I8
I9
tp33
g1
(g10
g3
NtRp34
(dp35
g13
F-0.69323294272819513
sg14
I8
sg15
I01
sg16
I9
sg17
I79
sbs(I6
I2
tp36
g1
(g10
g3
NtRp37
(dp38
g13
F-24.957738883620021
sg14
I6
sg15
I01
sg16
I2
sg17
I15
sbs(I1
I6
tp39
g1
(g10
g3
NtRp40
(dp41
g13
F21.98107947306595
sg14
I1
sg15
I01
sg16
I6
sg17
I18
sbs(I7
I11
tp42
g1
(g10
g3
NtRp43
(dp44
g13
F-3.7663340001464394
sg14
I7
sg15
I00
sg16
I11
sg17
I87
sbs(I3
I7
tp45
g1
(g10
g3
NtRp46
(dp47
g13
F0.62323646028216284
sg14
I3
sg15
I01
sg16
I7
sg17
I23
sbs(I7
I2
tp48
g1
(g10
g3
NtRp49
(dp50
g13
F3.5005420693663059
sg14
I7
sg15
I00
sg16
I2
sg17
I24
sbs(I1
I2
tp51
g1
(g10
g3
NtRp52
(dp53
g13
F22.993491123959334
sg14
I1
sg15
I01
sg16
I2
sg17
I1
sbs(I10
I8
tp54
g1
(g10
g3
NtRp55
(dp56
g13
F9.4602367249744077
sg14
I10
sg15
I01
sg16
I8
sg17
I72
sbs(I11
I5
tp57
g1
(g10
g3
NtRp58
(dp59
g13
F-3.210740403778332
sg14
I11
sg15
I01
sg16
I5
sg17
I102
sbs(I4
I4
tp60
g1
(g10
g3
NtRp61
(dp62
g13
F-10.928617977805345
sg14
I4
sg15
I01
sg16
I4
sg17
I12
sbs(I1
I5
tp63
g1
(g10
g3
NtRp64
(dp65
g13
F-9.2074681609398059
sg14
I1
sg15
I01
sg16
I5
sg17
I22
sbs(I3
I5
tp66
g1
(g10
g3
NtRp67
(dp68
g13
F-19.962145629177488
sg14
I3
sg15
I01
sg16
I5
sg17
I16
sbs(I4
I10
tp69
g1
(g10
g3
NtRp70
(dp71
g13
F-3.1699704601451497
sg14
I4
sg15
I01
sg16
I10
sg17
I71
sbs(I3
I2
tp72
g1
(g10
g3
NtRp73
(dp74
g13
F-16.646776543405917
sg14
I3
sg15
I01
sg16
I2
sg17
I3
sbs(I8
I2
tp75
g1
(g10
g3
NtRp76
(dp77
g13
F21.227187975897085
sg14
I8
sg15
I01
sg16
I2
sg17
I26
sbs(I12
I2
tp78
g1
(g10
g3
NtRp79
(dp80
g13
F2.1898536637943171
sg14
I12
sg15
I01
sg16
I2
sg17
I89
sbs(I4
I5
tp81
g1
(g10
g3
NtRp82
(dp83
g13
F-23.912513738879916
sg14
I4
sg15
I01
sg16
I5
sg17
I10
sbs(I1
I13
tp84
g1
(g10
g3
NtRp85
(dp86
g13
F2.7086648765606514
sg14
I1
sg15
I01
sg16
I13
sg17
I105
sbs(I1
I4
tp87
g1
(g10
g3
NtRp88
(dp89
g13
F-4.7230159515850536
sg14
I1
sg15
I01
sg16
I4
sg17
I7
sbs(I13
I6
tp90
g1
(g10
g3
NtRp91
(dp92
g13
F24.748731000819451
sg14
I13
sg15
I01
sg16
I6
sg17
I106
sbs(I7
I12
tp93
g1
(g10
g3
NtRp94
(dp95
g13
F3.7308560021204142
sg14
I7
sg15
I01
sg16
I12
sg17
I96
sbs(I4
I2
tp96
g1
(g10
g3
NtRp97
(dp98
g13
F15.172741131504852
sg14
I4
sg15
I00
sg16
I2
sg17
I8
sbs(I7
I9
tp99
g1
(g10
g3
NtRp100
(dp101
g13
F4.0074853424094421
sg14
I7
sg15
I01
sg16
I9
sg17
I54
sbs(I14
I11
tp102
g1
(g10
g3
NtRp103
(dp104
g13
F-1.7401963319751339
sg14
I14
sg15
I01
sg16
I11
sg17
I111
sbs(I10
I10
tp105
g1
(g10
g3
NtRp106
(dp107
g13
F12.627728052742739
sg14
I10
sg15
I01
sg16
I10
sg17
I92
sbs(I9
I2
tp108
g1
(g10
g3
NtRp109
(dp110
g13
F-12.125232879594986
sg14
I9
sg15
I01
sg16
I2
sg17
I52
sbs(I4
I3
tp111
g1
(g10
g3
NtRp112
(dp113
g13
F-4.272482461429342
sg14
I4
sg15
I01
sg16
I3
sg17
I27
sbs(I1
I7
tp114
g1
(g10
g3
NtRp115
(dp116
g13
F1.3152569821491709
sg14
I1
sg15
I01
sg16
I7
sg17
I31
sbs(I5
I2
tp117
g1
(g10
g3
NtRp118
(dp119
g13
F-11.784890021870758
sg14
I5
sg15
I01
sg16
I2
sg17
I11
sbssS'_input_nodes'
p120
I1
sS'_output_nodes'
p121
I1
sS'_node_gene_type'
p122
cneat.genome
NodeGene
p123
sS'_conn_gene_type'
p124
g10
sS'fitness'
p125
F-1.4169870038668071
sS'parent2_id'
p126
I3348
sS'_id'
p127
I3381
sS'parent1_id'
p128
I3348
sS'_node_genes'
p129
(lp130
g1
(g123
g3
NtRp131
(dp132
S'_bias'
p133
I0
sS'_type'
p134
S'INPUT'
p135
sg127
I1
sS'_response'
p136
F4.9242730000000003
sS'_activation_type'
p137
Nsbag1
(g123
g3
NtRp138
(dp139
g133
F-0.41984392331764359
sg134
S'OUTPUT'
p140
sg127
I2
sg136
F3.0643115077576382
sg137
S'tanh'
p141
sbag1
(g123
g3
NtRp142
(dp143
g133
F-0.31153683326656045
sg134
S'HIDDEN'
p144
sg127
I3
sg136
F9.7952508724046243
sg137
g141
sbag1
(g123
g3
NtRp145
(dp146
g133
F0.86716115856201859
sg134
g144
sg127
I4
sg136
F5.101314017892582
sg137
g141
sbag1
(g123
g3
NtRp147
(dp148
g133
F-2.6200830531402737
sg134
g144
sg127
I5
sg136
F8.0674551452024179
sg137
g141
sbag1
(g123
g3
NtRp149
(dp150
g133
F-1.0464579781034091
sg134
g144
sg127
I6
sg136
F5.7891992418742193
sg137
g141
sbag1
(g123
g3
NtRp151
(dp152
g133
F1.081690083462163
sg134
g144
sg127
I7
sg136
F5.0060840761610903
sg137
g141
sbag1
(g123
g3
NtRp153
(dp154
g133
F-4.0746011013721048
sg134
g144
sg127
I8
sg136
F4.3515964700388903
sg137
g141
sbag1
(g123
g3
NtRp155
(dp156
g133
F1.0204825260381694
sg134
g144
sg127
I9
sg136
F4.5550207110308394
sg137
g141
sbag1
(g123
g3
NtRp157
(dp158
g133
F-0.87889668221064321
sg134
g144
sg127
I10
sg136
F4.1137510789099592
sg137
g141
sbag1
(g123
g3
NtRp159
(dp160
g133
F-1.2889605566451061
sg134
g144
sg127
I11
sg136
F8.1089774989098267
sg137
g141
sbag1
(g123
g3
NtRp161
(dp162
g133
F0.56455397434645949
sg134
g144
sg127
I12
sg136
F3.6260597431594621
sg137
g141
sbag1
(g123
g3
NtRp163
(dp164
g133
F0.48999931156509641
sg134
g144
sg127
I13
sg136
F4.9242730000000003
sg137
g141
sbag1
(g123
g3
NtRp165
(dp166
g133
I0
sg134
g144
sg127
I14
sg136
F4.9242730000000003
sg137
g141
sbasb.