ccopy_reg
_reconstructor
p1
(cneat.chromosome
Chromosome
p2
c__builtin__
object
p3
NtRp4
(dp5
S'species_id'
p6
I26
sS'_connection_genes'
p7
(dp8
(I1
I2
tp9
g1
(cneat.genome
ConnectionGene
p10
g3
NtRp11
(dp12
S'_ConnectionGene__weight'
p13
F13.451735842958376
sS'_ConnectionGene__in'
p14
I1
sS'_ConnectionGene__enabled'
p15
I00
sS'_ConnectionGene__out'
p16
I2
sS'_ConnectionGene__innov_number'
p17
I1
sbs(I3
I2
tp18
g1
(g10
g3
NtRp19
(dp20
g13
F-12.041155673501841
sg14
I3
sg15
I00
sg16
I2
sg17
I3
sbs(I1
I3
tp21
g1
(g10
g3
NtRp22
(dp23
g13
F-14.237709777611663
sg14
I1
sg15
I01
sg16
I3
sg17
I2
sbs(I5
I5
tp24
g1
(g10
g3
NtRp25
(dp26
g13
F1.7098142716139679
sg14
I5
sg15
I01
sg16
I5
sg17
I17
sbs(I4
I5
tp27
g1
(g10
g3
NtRp28
(dp29
g13
F15.818565212906108
sg14
I4
sg15
I01
sg16
I5
sg17
I10
sbs(I5
I2
tp30
g1
(g10
g3
NtRp31
(dp32
g13
F-20.811317395429704
sg14
I5
sg15
I01
sg16
I2
sg17
I11
sbs(I7
I6
tp33
g1
(g10
g3
NtRp34
(dp35
g13
F14.073553061106551
sg14
I7
sg15
I01
sg16
I6
sg17
I44
sbs(I4
I4
tp36
g1
(g10
g3
NtRp37
(dp38
g13
F1.405693245019328
sg14
I4
sg15
I01
sg16
I4
sg17
I12
sbs(I5
I4
tp39
g1
(g10
g3
NtRp40
(dp41
g13
F2.8454848070139604
sg14
I5
sg15
I01
sg16
I4
sg17
I20
sbs(I1
I4
tp42
g1
(g10
g3
NtRp43
(dp44
g13
F-5.9326239051718561
sg14
I1
sg15
I01
sg16
I4
sg17
I7
sbs(I3
I8
tp45
g1
(g10
g3
NtRp46
(dp47
g13
F-2.7160128693340968
sg14
I3
sg15
I01
sg16
I8
sg17
I39
sbs(I9
I2
tp48
g1
(g10
g3
NtRp49
(dp50
g13
F13.451735842958376
sg14
I9
sg15
I01
sg16
I2
sg17
I52
sbs(I7
I5
tp51
g1
(g10
g3
NtRp52
(dp53
g13
F-7.8421439775356099
sg14
I7
sg15
I01
sg16
I5
sg17
I40
sbs(I1
I6
tp54
g1
(g10
g3
NtRp55
(dp56
g13
F-10.313651691699992
sg14
I1
sg15
I00
sg16
I6
sg17
I18
sbs(I1
I9
tp57
g1
(g10
g3
NtRp58
(dp59
g13
F1
sg14
I1
sg15
I01
sg16
I9
sg17
I51
sbs(I1
I7
tp60
g1
(g10
g3
NtRp61
(dp62
g13
F5.0713869518918377
sg14
I1
sg15
I01
sg16
I7
sg17
I31
sbs(I6
I2
tp63
g1
(g10
g3
NtRp64
(dp65
g13
F-6.8314773121013959
sg14
I6
sg15
I01
sg16
I2
sg17
I15
sbs(I4
I2
tp66
g1
(g10
g3
NtRp67
(dp68
g13
F-6.8001803719240499
sg14
I4
sg15
I01
sg16
I2
sg17
I8
sbs(I3
I4
tp69
g1
(g10
g3
NtRp70
(dp71
g13
F-8.7447516960158342
sg14
I3
sg15
I01
sg16
I4
sg17
I13
sbs(I8
I2
tp72
g1
(g10
g3
NtRp73
(dp74
g13
F-4.8804590952680931
sg14
I8
sg15
I01
sg16
I2
sg17
I26
sbssS'_input_nodes'
p75
I1
sS'_output_nodes'
p76
I1
sS'_node_gene_type'
p77
cneat.genome
NodeGene
p78
sS'_conn_gene_type'
p79
g10
sS'fitness'
p80
F-0.087986471035122138
sS'parent2_id'
p81
I2130
sS'_id'
p82
I2167
sS'parent1_id'
p83
I2130
sS'_node_genes'
p84
(lp85
g1
(g78
g3
NtRp86
(dp87
S'_bias'
p88
I0
sS'_type'
p89
S'INPUT'
p90
sg82
I1
sS'_response'
p91
F4.9242730000000003
sS'_activation_type'
p92
Nsbag1
(g78
g3
NtRp93
(dp94
g88
F2.9901450543540293
sg89
S'OUTPUT'
p95
sg82
I2
sg91
F7.8622420826567412
sg92
S'tanh'
p96
sbag1
(g78
g3
NtRp97
(dp98
g88
F5.3963079105060334
sg89
S'HIDDEN'
p99
sg82
I3
sg91
F4.5374364112687671
sg92
g96
sbag1
(g78
g3
NtRp100
(dp101
g88
F2.1444515833443898
sg89
g99
sg82
I4
sg91
F4.3699804682160606
sg92
g96
sbag1
(g78
g3
NtRp102
(dp103
g88
F-0.19350648803272952
sg89
g99
sg82
I5
sg91
F6.6031748709765212
sg92
g96
sbag1
(g78
g3
NtRp104
(dp105
g88
F0.12960906908071035
sg89
g99
sg82
I6
sg91
F5.3509993068125103
sg92
g96
sbag1
(g78
g3
NtRp106
(dp107
g88
F-2.3849660342802226
sg89
g99
sg82
I7
sg91
F4.2721840588144087
sg92
g96
sbag1
(g78
g3
NtRp108
(dp109
g88
F1.4579564058210424
sg89
g99
sg82
I8
sg91
F5.2504519098615718
sg92
g96
sbag1
(g78
g3
NtRp110
(dp111
g88
I0
sg89
g99
sg82
I9
sg91
F4.9242730000000003
sg92
g96
sbasb.