ccopy_reg
_reconstructor
p1
(cneat.chromosome
Chromosome
p2
c__builtin__
object
p3
NtRp4
(dp5
S'species_id'
p6
I32
sS'_connection_genes'
p7
(dp8
(I1
I2
tp9
g1
(cneat.genome
ConnectionGene
p10
g3
NtRp11
(dp12
S'_ConnectionGene__weight'
p13
F15.987533746144305
sS'_ConnectionGene__in'
p14
I1
sS'_ConnectionGene__enabled'
p15
I00
sS'_ConnectionGene__out'
p16
I2
sS'_ConnectionGene__innov_number'
p17
I1
sbs(I3
I2
tp18
g1
(g10
g3
NtRp19
(dp20
g13
F-14.077370046839023
sg14
I3
sg15
I00
sg16
I2
sg17
I3
sbs(I1
I3
tp21
g1
(g10
g3
NtRp22
(dp23
g13
F-20.769106559024749
sg14
I1
sg15
I01
sg16
I3
sg17
I2
sbs(I5
I5
tp24
g1
(g10
g3
NtRp25
(dp26
g13
F12.189189859447204
sg14
I5
sg15
I01
sg16
I5
sg17
I17
sbs(I4
I5
tp27
g1
(g10
g3
NtRp28
(dp29
g13
F15.617546530746438
sg14
I4
sg15
I01
sg16
I5
sg17
I10
sbs(I5
I2
tp30
g1
(g10
g3
NtRp31
(dp32
g13
F-22.902057210695354
sg14
I5
sg15
I01
sg16
I2
sg17
I11
sbs(I7
I6
tp33
g1
(g10
g3
NtRp34
(dp35
g13
F9.0971993780250262
sg14
I7
sg15
I01
sg16
I6
sg17
I44
sbs(I4
I4
tp36
g1
(g10
g3
NtRp37
(dp38
g13
F-1.5876477588404669
sg14
I4
sg15
I01
sg16
I4
sg17
I12
sbs(I5
I4
tp39
g1
(g10
g3
NtRp40
(dp41
g13
F6.2263280387836906
sg14
I5
sg15
I01
sg16
I4
sg17
I20
sbs(I1
I4
tp42
g1
(g10
g3
NtRp43
(dp44
g13
F-7.6608809713389965
sg14
I1
sg15
I01
sg16
I4
sg17
I7
sbs(I2
I2
tp45
g1
(g10
g3
NtRp46
(dp47
g13
F-0.91565326296914495
sg14
I2
sg15
I01
sg16
I2
sg17
I4
sbs(I3
I8
tp48
g1
(g10
g3
NtRp49
(dp50
g13
F-17.878058496344043
sg14
I3
sg15
I01
sg16
I8
sg17
I39
sbs(I9
I2
tp51
g1
(g10
g3
NtRp52
(dp53
g13
F5.1491394784564761
sg14
I9
sg15
I01
sg16
I2
sg17
I52
sbs(I7
I5
tp54
g1
(g10
g3
NtRp55
(dp56
g13
F4.1609725596587817
sg14
I7
sg15
I01
sg16
I5
sg17
I40
sbs(I1
I6
tp57
g1
(g10
g3
NtRp58
(dp59
g13
F-6.7350426334886775
sg14
I1
sg15
I01
sg16
I6
sg17
I18
sbs(I1
I9
tp60
g1
(g10
g3
NtRp61
(dp62
g13
F-7.4103313450223958
sg14
I1
sg15
I01
sg16
I9
sg17
I51
sbs(I1
I7
tp63
g1
(g10
g3
NtRp64
(dp65
g13
F2.9711639222390911
sg14
I1
sg15
I01
sg16
I7
sg17
I31
sbs(I6
I2
tp66
g1
(g10
g3
NtRp67
(dp68
g13
F10.664259741902256
sg14
I6
sg15
I01
sg16
I2
sg17
I15
sbs(I4
I2
tp69
g1
(g10
g3
NtRp70
(dp71
g13
F-3.519689767341819
sg14
I4
sg15
I01
sg16
I2
sg17
I8
sbs(I3
I4
tp72
g1
(g10
g3
NtRp73
(dp74
g13
F-10.485343874106992
sg14
I3
sg15
I01
sg16
I4
sg17
I13
sbs(I8
I2
tp75
g1
(g10
g3
NtRp76
(dp77
g13
F-18.689332184182952
sg14
I8
sg15
I01
sg16
I2
sg17
I26
sbssS'_input_nodes'
p78
I1
sS'_output_nodes'
p79
I1
sS'_node_gene_type'
p80
cneat.genome
NodeGene
p81
sS'_conn_gene_type'
p82
g10
sS'fitness'
p83
F-0.011141743886521244
sS'parent2_id'
p84
I2778
sS'_id'
p85
I2795
sS'parent1_id'
p86
I2778
sS'_node_genes'
p87
(lp88
g1
(g81
g3
NtRp89
(dp90
S'_bias'
p91
I0
sS'_type'
p92
S'INPUT'
p93
sg85
I1
sS'_response'
p94
F4.9242730000000003
sS'_activation_type'
p95
Nsbag1
(g81
g3
NtRp96
(dp97
g91
F4.5539790979780559
sg92
S'OUTPUT'
p98
sg85
I2
sg94
F5.3499285681696094
sg95
S'tanh'
p99
sbag1
(g81
g3
NtRp100
(dp101
g91
F5.1279320450787864
sg92
S'HIDDEN'
p102
sg85
I3
sg94
F5.1852232424661722
sg95
g99
sbag1
(g81
g3
NtRp103
(dp104
g91
F1.3277969209844132
sg92
g102
sg85
I4
sg94
F4.3971859088603207
sg95
g99
sbag1
(g81
g3
NtRp105
(dp106
g91
F4.074115338417621
sg92
g102
sg85
I5
sg94
F5.9023933312834869
sg95
g99
sbag1
(g81
g3
NtRp107
(dp108
g91
F-0.021126808715903167
sg92
g102
sg85
I6
sg94
F4.1139334315959735
sg95
g99
sbag1
(g81
g3
NtRp109
(dp110
g91
F-2.0645298792248883
sg92
g102
sg85
I7
sg94
F5.2846064369921955
sg95
g99
sbag1
(g81
g3
NtRp111
(dp112
g91
F2.7802666792773438
sg92
g102
sg85
I8
sg94
F6.2666115405988627
sg95
g99
sbag1
(g81
g3
NtRp113
(dp114
g91
F-1.6710132579657149
sg92
g102
sg85
I9
sg94
F4.9049108992838741
sg95
g99
sbasb.