ccopy_reg
_reconstructor
p1
(cneat.chromosome
Chromosome
p2
c__builtin__
object
p3
NtRp4
(dp5
S'species_id'
p6
I45
sS'_connection_genes'
p7
(dp8
(I1
I3
tp9
g1
(cneat.genome
ConnectionGene
p10
g3
NtRp11
(dp12
S'_ConnectionGene__weight'
p13
F-30
sS'_ConnectionGene__in'
p14
I1
sS'_ConnectionGene__enabled'
p15
I01
sS'_ConnectionGene__out'
p16
I3
sS'_ConnectionGene__innov_number'
p17
I2
sbs(I6
I6
tp18
g1
(g10
g3
NtRp19
(dp20
g13
F-1.1171168958786075
sg14
I6
sg15
I01
sg16
I6
sg17
I32
sbs(I5
I4
tp21
g1
(g10
g3
NtRp22
(dp23
g13
F4.9217501797801733
sg14
I5
sg15
I01
sg16
I4
sg17
I20
sbs(I6
I2
tp24
g1
(g10
g3
NtRp25
(dp26
g13
F7.6645716102950594
sg14
I6
sg15
I01
sg16
I2
sg17
I15
sbs(I1
I6
tp27
g1
(g10
g3
NtRp28
(dp29
g13
F-5.9966155124011724
sg14
I1
sg15
I01
sg16
I6
sg17
I18
sbs(I1
I2
tp30
g1
(g10
g3
NtRp31
(dp32
g13
F27.897798827765993
sg14
I1
sg15
I01
sg16
I2
sg17
I1
sbs(I5
I5
tp33
g1
(g10
g3
NtRp34
(dp35
g13
F30
sg14
I5
sg15
I00
sg16
I5
sg17
I17
sbs(I7
I6
tp36
g1
(g10
g3
NtRp37
(dp38
g13
F-3.880893341273945
sg14
I7
sg15
I01
sg16
I6
sg17
I44
sbs(I4
I4
tp39
g1
(g10
g3
NtRp40
(dp41
g13
F6.2803211894813558
sg14
I4
sg15
I01
sg16
I4
sg17
I12
sbs(I6
I3
tp42
g1
(g10
g3
NtRp43
(dp44
g13
F-1.8589587132867536
sg14
I6
sg15
I01
sg16
I3
sg17
I95
sbs(I2
I2
tp45
g1
(g10
g3
NtRp46
(dp47
g13
F-0.83365899265845034
sg14
I2
sg15
I01
sg16
I2
sg17
I4
sbs(I3
I2
tp48
g1
(g10
g3
NtRp49
(dp50
g13
F-18.490927380864044
sg14
I3
sg15
I01
sg16
I2
sg17
I3
sbs(I8
I2
tp51
g1
(g10
g3
NtRp52
(dp53
g13
F-24.203383194083653
sg14
I8
sg15
I01
sg16
I2
sg17
I26
sbs(I4
I5
tp54
g1
(g10
g3
NtRp55
(dp56
g13
F9.7964475637126842
sg14
I4
sg15
I01
sg16
I5
sg17
I10
sbs(I1
I4
tp57
g1
(g10
g3
NtRp58
(dp59
g13
F-5.3724969156203466
sg14
I1
sg15
I01
sg16
I4
sg17
I7
sbs(I7
I5
tp60
g1
(g10
g3
NtRp61
(dp62
g13
F20.496389079763915
sg14
I7
sg15
I01
sg16
I5
sg17
I40
sbs(I1
I9
tp63
g1
(g10
g3
NtRp64
(dp65
g13
F-22.984940577493393
sg14
I1
sg15
I01
sg16
I9
sg17
I51
sbs(I4
I2
tp66
g1
(g10
g3
NtRp67
(dp68
g13
F1.8726899664914278
sg14
I4
sg15
I01
sg16
I2
sg17
I8
sbs(I10
I5
tp69
g1
(g10
g3
NtRp70
(dp71
g13
F24.237596455023567
sg14
I10
sg15
I01
sg16
I5
sg17
I70
sbs(I5
I10
tp72
g1
(g10
g3
NtRp73
(dp74
g13
F-4.0603049678306222
sg14
I5
sg15
I01
sg16
I10
sg17
I85
sbs(I9
I2
tp75
g1
(g10
g3
NtRp76
(dp77
g13
F-3.9722217652427534
sg14
I9
sg15
I01
sg16
I2
sg17
I52
sbs(I5
I2
tp78
g1
(g10
g3
NtRp79
(dp80
g13
F-22.371502174413099
sg14
I5
sg15
I01
sg16
I2
sg17
I11
sbs(I3
I8
tp81
g1
(g10
g3
NtRp82
(dp83
g13
F-11.487123550729686
sg14
I3
sg15
I01
sg16
I8
sg17
I39
sbs(I1
I7
tp84
g1
(g10
g3
NtRp85
(dp86
g13
F14.138243322689583
sg14
I1
sg15
I01
sg16
I7
sg17
I31
sbs(I3
I4
tp87
g1
(g10
g3
NtRp88
(dp89
g13
F-19.240926702548762
sg14
I3
sg15
I01
sg16
I4
sg17
I13
sbssS'_input_nodes'
p90
I1
sS'_output_nodes'
p91
I1
sS'_node_gene_type'
p92
cneat.genome
NodeGene
p93
sS'_conn_gene_type'
p94
g10
sS'fitness'
p95
F-2.0716727757083864
sS'parent2_id'
p96
I3571
sS'_id'
p97
I3598
sS'parent1_id'
p98
I3571
sS'_node_genes'
p99
(lp100
g1
(g93
g3
NtRp101
(dp102
S'_bias'
p103
I0
sS'_type'
p104
S'INPUT'
p105
sg97
I1
sS'_response'
p106
F4.9242730000000003
sS'_activation_type'
p107
Nsbag1
(g93
g3
NtRp108
(dp109
g103
F5.3359230872000998
sg104
S'OUTPUT'
p110
sg97
I2
sg106
F5.7668559338136305
sg107
S'tanh'
p111
sbag1
(g93
g3
NtRp112
(dp113
g103
F5.1663267327122231
sg104
S'HIDDEN'
p114
sg97
I3
sg106
F4.6763681389749214
sg107
g111
sbag1
(g93
g3
NtRp115
(dp116
g103
F1.3776985223271581
sg104
g114
sg97
I4
sg106
F3.8769649807996704
sg107
g111
sbag1
(g93
g3
NtRp117
(dp118
g103
F3.0546784538313911
sg104
g114
sg97
I5
sg106
F6.0003008036752972
sg107
g111
sbag1
(g93
g3
NtRp119
(dp120
g103
F-0.01425471766102504
sg104
g114
sg97
I6
sg106
F3.0256547281554442
sg107
g111
sbag1
(g93
g3
NtRp121
(dp122
g103
F-2.6512149549363597
sg104
g114
sg97
I7
sg106
F5.9860452572546077
sg107
g111
sbag1
(g93
g3
NtRp123
(dp124
g103
F2.2921262017071324
sg104
g114
sg97
I8
sg106
F5.6849526764103011
sg107
g111
sbag1
(g93
g3
NtRp125
(dp126
g103
F-1.4200004893707079
sg104
g114
sg97
I9
sg106
F5.7001305670566929
sg107
g111
sbag1
(g93
g3
NtRp127
(dp128
g103
F0.19509719770046563
sg104
g114
sg97
I10
sg106
F4.3464199665463115
sg107
g111
sbasb.