ccopy_reg
_reconstructor
p1
(cneat.chromosome
Chromosome
p2
c__builtin__
object
p3
NtRp4
(dp5
S'species_id'
p6
I29
sS'_connection_genes'
p7
(dp8
(I1
I3
tp9
g1
(cneat.genome
ConnectionGene
p10
g3
NtRp11
(dp12
S'_ConnectionGene__weight'
p13
F-11.080371083384652
sS'_ConnectionGene__in'
p14
I1
sS'_ConnectionGene__enabled'
p15
I01
sS'_ConnectionGene__out'
p16
I3
sS'_ConnectionGene__innov_number'
p17
I3
sbs(I6
I6
tp18
g1
(g10
g3
NtRp19
(dp20
g13
F3.4670660963292588
sg14
I6
sg15
I01
sg16
I6
sg17
I39
sbs(I11
I2
tp21
g1
(g10
g3
NtRp22
(dp23
g13
F-15.813744926154413
sg14
I11
sg15
I01
sg16
I2
sg17
I80
sbs(I4
I6
tp24
g1
(g10
g3
NtRp25
(dp26
g13
F9.3229187251652039
sg14
I4
sg15
I01
sg16
I6
sg17
I22
sbs(I6
I2
tp27
g1
(g10
g3
NtRp28
(dp29
g13
F9.690761116473773
sg14
I6
sg15
I01
sg16
I2
sg17
I21
sbs(I1
I11
tp30
g1
(g10
g3
NtRp31
(dp32
g13
F0.63338165729713936
sg14
I1
sg15
I01
sg16
I11
sg17
I77
sbs(I3
I14
tp33
g1
(g10
g3
NtRp34
(dp35
g13
F0.57988748746175522
sg14
I3
sg15
I01
sg16
I14
sg17
I155
sbs(I1
I2
tp36
g1
(g10
g3
NtRp37
(dp38
g13
F-28.265016909879417
sg14
I1
sg15
I01
sg16
I2
sg17
I1
sbs(I12
I2
tp39
g1
(g10
g3
NtRp40
(dp41
g13
F-10.893302725801648
sg14
I12
sg15
I01
sg16
I2
sg17
I82
sbs(I6
I7
tp42
g1
(g10
g3
NtRp43
(dp44
g13
F-2.7508621930939992
sg14
I6
sg15
I01
sg16
I7
sg17
I36
sbs(I3
I3
tp45
g1
(g10
g3
NtRp46
(dp47
g13
F-4.4397308769252524
sg14
I3
sg15
I01
sg16
I3
sg17
I15
sbs(I2
I9
tp48
g1
(g10
g3
NtRp49
(dp50
g13
F13.749789476742196
sg14
I2
sg15
I01
sg16
I9
sg17
I53
sbs(I13
I3
tp51
g1
(g10
g3
NtRp52
(dp53
g13
F-16.020815390687336
sg14
I13
sg15
I01
sg16
I3
sg17
I92
sbs(I8
I10
tp54
g1
(g10
g3
NtRp55
(dp56
g13
F30
sg14
I8
sg15
I01
sg16
I10
sg17
I74
sbs(I4
I13
tp57
g1
(g10
g3
NtRp58
(dp59
g13
F-19.267572022364966
sg14
I4
sg15
I01
sg16
I13
sg17
I102
sbs(I1
I5
tp60
g1
(g10
g3
NtRp61
(dp62
g13
F-10.043105828495724
sg14
I1
sg15
I00
sg16
I5
sg17
I11
sbs(I5
I8
tp63
g1
(g10
g3
NtRp64
(dp65
g13
F-8.3721951799073899
sg14
I5
sg15
I01
sg16
I8
sg17
I42
sbs(I2
I2
tp66
g1
(g10
g3
NtRp67
(dp68
g13
F29.432343172986378
sg14
I2
sg15
I01
sg16
I2
sg17
I2
sbs(I3
I2
tp69
g1
(g10
g3
NtRp70
(dp71
g13
F-22.20953139692713
sg14
I3
sg15
I01
sg16
I2
sg17
I4
sbs(I2
I6
tp72
g1
(g10
g3
NtRp73
(dp74
g13
F11.616056023481745
sg14
I2
sg15
I01
sg16
I6
sg17
I38
sbs(I8
I2
tp75
g1
(g10
g3
NtRp76
(dp77
g13
F-17.494548565783216
sg14
I8
sg15
I01
sg16
I2
sg17
I43
sbs(I5
I11
tp78
g1
(g10
g3
NtRp79
(dp80
g13
F9.6812493081082973
sg14
I5
sg15
I01
sg16
I11
sg17
I79
sbs(I9
I3
tp81
g1
(g10
g3
NtRp82
(dp83
g13
F-9.4227708829918484
sg14
I9
sg15
I01
sg16
I3
sg17
I60
sbs(I1
I4
tp84
g1
(g10
g3
NtRp85
(dp86
g13
F-11.679201725192865
sg14
I1
sg15
I01
sg16
I4
sg17
I6
sbs(I9
I10
tp87
g1
(g10
g3
NtRp88
(dp89
g13
F-5.1131306260056926
sg14
I9
sg15
I01
sg16
I10
sg17
I90
sbs(I7
I5
tp90
g1
(g10
g3
NtRp91
(dp92
g13
F-9.7259683444247749
sg14
I7
sg15
I01
sg16
I5
sg17
I30
sbs(I2
I3
tp93
g1
(g10
g3
NtRp94
(dp95
g13
F-7.2549196725115763
sg14
I2
sg15
I01
sg16
I3
sg17
I5
sbs(I1
I9
tp96
g1
(g10
g3
NtRp97
(dp98
g13
F-12.797706851923381
sg14
I1
sg15
I01
sg16
I9
sg17
I58
sbs(I4
I2
tp99
g1
(g10
g3
NtRp100
(dp101
g13
F-14.995903438261099
sg14
I4
sg15
I00
sg16
I2
sg17
I7
sbs(I3
I5
tp102
g1
(g10
g3
NtRp103
(dp104
g13
F10.552063810437648
sg14
I3
sg15
I01
sg16
I5
sg17
I14
sbs(I14
I5
tp105
g1
(g10
g3
NtRp106
(dp107
g13
F16.298271405088808
sg14
I14
sg15
I01
sg16
I5
sg17
I156
sbs(I8
I12
tp108
g1
(g10
g3
NtRp109
(dp110
g13
F-2.9575593133000728
sg14
I8
sg15
I01
sg16
I12
sg17
I88
sbs(I11
I3
tp111
g1
(g10
g3
NtRp112
(dp113
g13
F0.33950147400691399
sg14
I11
sg15
I01
sg16
I3
sg17
I78
sbs(I3
I8
tp114
g1
(g10
g3
NtRp115
(dp116
g13
F-20.44979096465357
sg14
I3
sg15
I01
sg16
I8
sg17
I44
sbs(I4
I3
tp117
g1
(g10
g3
NtRp118
(dp119
g13
F-2.6043436514458724
sg14
I4
sg15
I00
sg16
I3
sg17
I10
sbs(I1
I7
tp120
g1
(g10
g3
NtRp121
(dp122
g13
F-9.6336835002782433
sg14
I1
sg15
I01
sg16
I7
sg17
I29
sbs(I5
I2
tp123
g1
(g10
g3
NtRp124
(dp125
g13
F-19.47834895116759
sg14
I5
sg15
I00
sg16
I2
sg17
I9
sbs(I10
I2
tp126
g1
(g10
g3
NtRp127
(dp128
g13
F-7.9571965181428119
sg14
I10
sg15
I01
sg16
I2
sg17
I65
sbssS'_input_nodes'
p129
I1
sS'_output_nodes'
p130
I1
sS'_node_gene_type'
p131
cneat.genome
NodeGene
p132
sS'_conn_gene_type'
p133
g10
sS'fitness'
p134
F0.97241688929225079
sS'parent2_id'
p135
I4933
sS'_id'
p136
I4983
sS'parent1_id'
p137
I4948
sS'_node_genes'
p138
(lp139
g1
(g132
g3
NtRp140
(dp141
S'_bias'
p142
I0
sS'_type'
p143
S'INPUT'
p144
sg136
I1
sS'_response'
p145
F4.9242730000000003
sS'_activation_type'
p146
Nsbag1
(g132
g3
NtRp147
(dp148
g142
F-5.212168982248369
sg143
S'OUTPUT'
p149
sg136
I2
sg145
F4.3629670598217727
sg146
S'tanh'
p150
sbag1
(g132
g3
NtRp151
(dp152
g142
F-1.2374221581473095
sg143
S'HIDDEN'
p153
sg136
I3
sg145
F2.1054500518611574
sg146
g150
sbag1
(g132
g3
NtRp154
(dp155
g142
F0.0058275549569100082
sg143
g153
sg136
I4
sg145
F8.4385416788951879
sg146
g150
sbag1
(g132
g3
NtRp156
(dp157
g142
F2.0756274157134862
sg143
g153
sg136
I5
sg145
F9.8402872015580449
sg146
g150
sbag1
(g132
g3
NtRp158
(dp159
g142
F2.9065881605451818
sg143
g153
sg136
I6
sg145
F6.58155230776367
sg146
g150
sbag1
(g132
g3
NtRp160
(dp161
g142
F-2.1735095904466211
sg143
g153
sg136
I7
sg145
F2.9022433876416858
sg146
g150
sbag1
(g132
g3
NtRp162
(dp163
g142
F1.2529578312656389
sg143
g153
sg136
I8
sg145
F7.8908735281480773
sg146
g150
sbag1
(g132
g3
NtRp164
(dp165
g142
F-2.2487014317787111
sg143
g153
sg136
I9
sg145
F5.7706040517273749
sg146
g150
sbag1
(g132
g3
NtRp166
(dp167
g142
F-0.79458055390895854
sg143
g153
sg136
I10
sg145
F5.0471639170186444
sg146
g150
sbag1
(g132
g3
NtRp168
(dp169
g142
F-2.653468953713586
sg143
g153
sg136
I11
sg145
F9.0581221366281177
sg146
g150
sbag1
(g132
g3
NtRp170
(dp171
g142
F3.2216303348487476
sg143
g153
sg136
I12
sg145
F5.835972866767662
sg146
g150
sbag1
(g132
g3
NtRp172
(dp173
g142
F0.12424461405231302
sg143
g153
sg136
I13
sg145
F6.4537330769720089
sg146
g150
sbag1
(g132
g3
NtRp174
(dp175
g142
F0.79790112633965871
sg143
g153
sg136
I14
sg145
F5.2659208749666844
sg146
g150
sbasb.