ccopy_reg
_reconstructor
p1
(cneat.chromosome
Chromosome
p2
c__builtin__
object
p3
NtRp4
(dp5
S'species_id'
p6
I37
sS'_connection_genes'
p7
(dp8
(I1
I21
tp9
g1
(cneat.genome
ConnectionGene
p10
g3
NtRp11
(dp12
S'_ConnectionGene__weight'
p13
F1.2823671433174977
sS'_ConnectionGene__in'
p14
I1
sS'_ConnectionGene__enabled'
p15
I01
sS'_ConnectionGene__out'
p16
I21
sS'_ConnectionGene__innov_number'
p17
I222
sbs(I1
I3
tp18
g1
(g10
g3
NtRp19
(dp20
g13
F-8.9514685934822467
sg14
I1
sg15
I00
sg16
I3
sg17
I3
sbs(I6
I6
tp21
g1
(g10
g3
NtRp22
(dp23
g13
F29.137433477131996
sg14
I6
sg15
I01
sg16
I6
sg17
I39
sbs(I11
I2
tp24
g1
(g10
g3
NtRp25
(dp26
g13
F8.49787420267395
sg14
I11
sg15
I01
sg16
I2
sg17
I80
sbs(I1
I15
tp27
g1
(g10
g3
NtRp28
(dp29
g13
F-10.496491895596726
sg14
I1
sg15
I01
sg16
I15
sg17
I146
sbs(I6
I2
tp30
g1
(g10
g3
NtRp31
(dp32
g13
F30
sg14
I6
sg15
I01
sg16
I2
sg17
I21
sbs(I16
I14
tp33
g1
(g10
g3
NtRp34
(dp35
g13
F-10.058301996146644
sg14
I16
sg15
I01
sg16
I14
sg17
I193
sbs(I5
I8
tp36
g1
(g10
g3
NtRp37
(dp38
g13
F7.5366262590437891
sg14
I5
sg15
I01
sg16
I8
sg17
I42
sbs(I1
I2
tp39
g1
(g10
g3
NtRp40
(dp41
g13
F-27.030014797499636
sg14
I1
sg15
I01
sg16
I2
sg17
I1
sbs(I12
I2
tp42
g1
(g10
g3
NtRp43
(dp44
g13
F9.5530281526056768
sg14
I12
sg15
I01
sg16
I2
sg17
I82
sbs(I2
I19
tp45
g1
(g10
g3
NtRp46
(dp47
g13
F9.6745706476294018
sg14
I2
sg15
I01
sg16
I19
sg17
I210
sbs(I3
I3
tp48
g1
(g10
g3
NtRp49
(dp50
g13
F-2.498321500894932
sg14
I3
sg15
I01
sg16
I3
sg17
I15
sbs(I2
I9
tp51
g1
(g10
g3
NtRp52
(dp53
g13
F11.192423934435281
sg14
I2
sg15
I01
sg16
I9
sg17
I53
sbs(I13
I3
tp54
g1
(g10
g3
NtRp55
(dp56
g13
F0.2716918932705954
sg14
I13
sg15
I01
sg16
I3
sg17
I92
sbs(I8
I10
tp57
g1
(g10
g3
NtRp58
(dp59
g13
F28.763622430863567
sg14
I8
sg15
I00
sg16
I10
sg17
I74
sbs(I4
I13
tp60
g1
(g10
g3
NtRp61
(dp62
g13
F-17.666526392329406
sg14
I4
sg15
I01
sg16
I13
sg17
I102
sbs(I1
I5
tp63
g1
(g10
g3
NtRp64
(dp65
g13
F-12.481837619608278
sg14
I1
sg15
I00
sg16
I5
sg17
I11
sbs(I9
I11
tp66
g1
(g10
g3
NtRp67
(dp68
g13
F-8.6276558087276971
sg14
I9
sg15
I01
sg16
I11
sg17
I101
sbs(I19
I3
tp69
g1
(g10
g3
NtRp70
(dp71
g13
F-1.8411719915440514
sg14
I19
sg15
I01
sg16
I3
sg17
I212
sbs(I2
I2
tp72
g1
(g10
g3
NtRp73
(dp74
g13
F13.282555444609649
sg14
I2
sg15
I01
sg16
I2
sg17
I2
sbs(I8
I16
tp75
g1
(g10
g3
NtRp76
(dp77
g13
F-3.7130958987511269
sg14
I8
sg15
I01
sg16
I16
sg17
I177
sbs(I8
I18
tp78
g1
(g10
g3
NtRp79
(dp80
g13
F3.2926661651645368
sg14
I8
sg15
I01
sg16
I18
sg17
I208
sbs(I3
I2
tp81
g1
(g10
g3
NtRp82
(dp83
g13
F-18.260051598621466
sg14
I3
sg15
I01
sg16
I2
sg17
I4
sbs(I2
I6
tp84
g1
(g10
g3
NtRp85
(dp86
g13
F-6.5564673469751265
sg14
I2
sg15
I00
sg16
I6
sg17
I38
sbs(I8
I2
tp87
g1
(g10
g3
NtRp88
(dp89
g13
F-16.447058052840198
sg14
I8
sg15
I01
sg16
I2
sg17
I43
sbs(I5
I11
tp90
g1
(g10
g3
NtRp91
(dp92
g13
F-9.0048755693613014
sg14
I5
sg15
I01
sg16
I11
sg17
I79
sbs(I15
I3
tp93
g1
(g10
g3
NtRp94
(dp95
g13
F-0.54786704708335066
sg14
I15
sg15
I01
sg16
I3
sg17
I147
sbs(I9
I3
tp96
g1
(g10
g3
NtRp97
(dp98
g13
F-9.206774832630984
sg14
I9
sg15
I01
sg16
I3
sg17
I60
sbs(I2
I20
tp99
g1
(g10
g3
NtRp100
(dp101
g13
F4.0660721271140092
sg14
I2
sg15
I01
sg16
I20
sg17
I220
sbs(I1
I4
tp102
g1
(g10
g3
NtRp103
(dp104
g13
F-30
sg14
I1
sg15
I01
sg16
I4
sg17
I6
sbs(I9
I10
tp105
g1
(g10
g3
NtRp106
(dp107
g13
F-21.610801525993121
sg14
I9
sg15
I01
sg16
I10
sg17
I90
sbs(I7
I5
tp108
g1
(g10
g3
NtRp109
(dp110
g13
F-12.561835704013822
sg14
I7
sg15
I01
sg16
I5
sg17
I30
sbs(I2
I3
tp111
g1
(g10
g3
NtRp112
(dp113
g13
F-1.0876044269716567
sg14
I2
sg15
I00
sg16
I3
sg17
I5
sbs(I1
I9
tp114
g1
(g10
g3
NtRp115
(dp116
g13
F8.3957413549201707
sg14
I1
sg15
I01
sg16
I9
sg17
I58
sbs(I13
I9
tp117
g1
(g10
g3
NtRp118
(dp119
g13
F-4.7181769445906045
sg14
I13
sg15
I01
sg16
I9
sg17
I112
sbs(I8
I17
tp120
g1
(g10
g3
NtRp121
(dp122
g13
F6.0949950899214995
sg14
I8
sg15
I01
sg16
I17
sg17
I205
sbs(I4
I2
tp123
g1
(g10
g3
NtRp124
(dp125
g13
F-2.6506443761401304
sg14
I4
sg15
I01
sg16
I2
sg17
I7
sbs(I14
I2
tp126
g1
(g10
g3
NtRp127
(dp128
g13
F-14.510546356983541
sg14
I14
sg15
I01
sg16
I2
sg17
I138
sbs(I3
I5
tp129
g1
(g10
g3
NtRp130
(dp131
g13
F10.386638088390418
sg14
I3
sg15
I01
sg16
I5
sg17
I14
sbs(I11
I7
tp132
g1
(g10
g3
NtRp133
(dp134
g13
F2.4841973417357481
sg14
I11
sg15
I01
sg16
I7
sg17
I168
sbs(I10
I5
tp135
g1
(g10
g3
NtRp136
(dp137
g13
F-3.8946107413769662
sg14
I10
sg15
I01
sg16
I5
sg17
I76
sbs(I4
I6
tp138
g1
(g10
g3
NtRp139
(dp140
g13
F-7.2476290421362464
sg14
I4
sg15
I01
sg16
I6
sg17
I22
sbs(I15
I2
tp141
g1
(g10
g3
NtRp142
(dp143
g13
F1.991771215804524
sg14
I15
sg15
I01
sg16
I2
sg17
I170
sbs(I8
I12
tp144
g1
(g10
g3
NtRp145
(dp146
g13
F-3.5485188929029894
sg14
I8
sg15
I01
sg16
I12
sg17
I88
sbs(I19
I16
tp147
g1
(g10
g3
NtRp148
(dp149
g13
F-0.18610033324705874
sg14
I19
sg15
I01
sg16
I16
sg17
I231
sbs(I18
I10
tp150
g1
(g10
g3
NtRp151
(dp152
g13
F21.249901531533933
sg14
I18
sg15
I01
sg16
I10
sg17
I209
sbs(I11
I3
tp153
g1
(g10
g3
NtRp154
(dp155
g13
F-15.045132305855569
sg14
I11
sg15
I01
sg16
I3
sg17
I78
sbs(I21
I3
tp156
g1
(g10
g3
NtRp157
(dp158
g13
F-10.805455566395539
sg14
I21
sg15
I01
sg16
I3
sg17
I224
sbs(I3
I8
tp159
g1
(g10
g3
NtRp160
(dp161
g13
F14.564976612992311
sg14
I3
sg15
I01
sg16
I8
sg17
I44
sbs(I8
I14
tp162
g1
(g10
g3
NtRp163
(dp164
g13
F3.3477146642256499
sg14
I8
sg15
I00
sg16
I14
sg17
I119
sbs(I20
I6
tp165
g1
(g10
g3
NtRp166
(dp167
g13
F-3.7750786910646728
sg14
I20
sg15
I01
sg16
I6
sg17
I221
sbs(I17
I12
tp168
g1
(g10
g3
NtRp169
(dp170
g13
F-4.7829021555113878
sg14
I17
sg15
I01
sg16
I12
sg17
I207
sbs(I1
I7
tp171
g1
(g10
g3
NtRp172
(dp173
g13
F10.897182228003441
sg14
I1
sg15
I01
sg16
I7
sg17
I29
sbs(I4
I3
tp174
g1
(g10
g3
NtRp175
(dp176
g13
F16.089948515915534
sg14
I4
sg15
I01
sg16
I3
sg17
I10
sbs(I5
I2
tp177
g1
(g10
g3
NtRp178
(dp179
g13
F-0.52917202665538599
sg14
I5
sg15
I01
sg16
I2
sg17
I9
sbs(I10
I2
tp180
g1
(g10
g3
NtRp181
(dp182
g13
F-2.26116176509663
sg14
I10
sg15
I01
sg16
I2
sg17
I65
sbssS'_input_nodes'
p183
I1
sS'_output_nodes'
p184
I1
sS'_node_gene_type'
p185
cneat.genome
NodeGene
p186
sS'_conn_gene_type'
p187
g10
sS'fitness'
p188
F0.97477898724622791
sS'parent2_id'
p189
I6029
sS'_id'
p190
I6040
sS'parent1_id'
p191
I6029
sS'_node_genes'
p192
(lp193
g1
(g186
g3
NtRp194
(dp195
S'_bias'
p196
I0
sS'_type'
p197
S'INPUT'
p198
sg190
I1
sS'_response'
p199
F4.9242730000000003
sS'_activation_type'
p200
Nsbag1
(g186
g3
NtRp201
(dp202
g196
F-7.3929655084240062
sg197
S'OUTPUT'
p203
sg190
I2
sg199
F4.6227498587651921
sg200
S'tanh'
p204
sbag1
(g186
g3
NtRp205
(dp206
g196
F1.5603199251252904
sg197
S'HIDDEN'
p207
sg190
I3
sg199
F3.2335306548161902
sg200
g204
sbag1
(g186
g3
NtRp208
(dp209
g196
F-5.2399019761226588
sg197
g207
sg190
I4
sg199
F6.9998324994215881
sg200
g204
sbag1
(g186
g3
NtRp210
(dp211
g196
F3.7234703301056258
sg197
g207
sg190
I5
sg199
F12.2408408541404
sg200
g204
sbag1
(g186
g3
NtRp212
(dp213
g196
F0.41827536951369004
sg197
g207
sg190
I6
sg199
F4.9549740370451065
sg200
g204
sbag1
(g186
g3
NtRp214
(dp215
g196
F-1.6870217850113352
sg197
g207
sg190
I7
sg199
F0.81664293430796808
sg200
g204
sbag1
(g186
g3
NtRp216
(dp217
g196
F-1.417090409543726
sg197
g207
sg190
I8
sg199
F10.889460236054077
sg200
g204
sbag1
(g186
g3
NtRp218
(dp219
g196
F-1.5569295413664979
sg197
g207
sg190
I9
sg199
F7.7989559649633051
sg200
g204
sbag1
(g186
g3
NtRp220
(dp221
g196
F-1.3091444556488756
sg197
g207
sg190
I10
sg199
F8.0380237229740317
sg200
g204
sbag1
(g186
g3
NtRp222
(dp223
g196
F0.68342953524674221
sg197
g207
sg190
I11
sg199
F9.1716339570281029
sg200
g204
sbag1
(g186
g3
NtRp224
(dp225
g196
F0.0021890422043427948
sg197
g207
sg190
I12
sg199
F4.7360294406854244
sg200
g204
sbag1
(g186
g3
NtRp226
(dp227
g196
F-1.7508336688026247
sg197
g207
sg190
I13
sg199
F3.5605219663972676
sg200
g204
sbag1
(g186
g3
NtRp228
(dp229
g196
F3.5635334164103476
sg197
g207
sg190
I14
sg199
F4.5814605486007212
sg200
g204
sbag1
(g186
g3
NtRp230
(dp231
g196
F-1.8583318408432896
sg197
g207
sg190
I15
sg199
F5.1714918708382349
sg200
g204
sbag1
(g186
g3
NtRp232
(dp233
g196
F-1.5158015040583011
sg197
g207
sg190
I16
sg199
F4.5144765435200771
sg200
g204
sbag1
(g186
g3
NtRp234
(dp235
g196
F-0.44794775346711235
sg197
g207
sg190
I17
sg199
F4.6858875219210745
sg200
g204
sbag1
(g186
g3
NtRp236
(dp237
g196
F1.0029888403410419
sg197
g207
sg190
I18
sg199
F5.1966332654462821
sg200
g204
sbag1
(g186
g3
NtRp238
(dp239
g196
F-0.39066446463220339
sg197
g207
sg190
I19
sg199
F3.9274611473223962
sg200
g204
sbag1
(g186
g3
NtRp240
(dp241
g196
F0.25845869837229218
sg197
g207
sg190
I20
sg199
F5.54368649280807
sg200
g204
sbag1
(g186
g3
NtRp242
(dp243
g196
F0.035522515108915242
sg197
g207
sg190
I21
sg199
F4.9242730000000003
sg200
g204
sbasb.