ccopy_reg
_reconstructor
p1
(cneat.chromosome
Chromosome
p2
c__builtin__
object
p3
NtRp4
(dp5
S'species_id'
p6
I9
sS'_connection_genes'
p7
(dp8
(I1
I2
tp9
g1
(cneat.genome
ConnectionGene
p10
g3
NtRp11
(dp12
S'_ConnectionGene__weight'
p13
F-16.964058503281748
sS'_ConnectionGene__in'
p14
I1
sS'_ConnectionGene__enabled'
p15
I01
sS'_ConnectionGene__out'
p16
I2
sS'_ConnectionGene__innov_number'
p17
I1
sbs(I3
I2
tp18
g1
(g10
g3
NtRp19
(dp20
g13
F-9.7890727262945045
sg14
I3
sg15
I01
sg16
I2
sg17
I4
sbs(I4
I6
tp21
g1
(g10
g3
NtRp22
(dp23
g13
F2.0106794941722788
sg14
I4
sg15
I01
sg16
I6
sg17
I22
sbs(I1
I4
tp24
g1
(g10
g3
NtRp25
(dp26
g13
F6.8122985427486356
sg14
I1
sg15
I01
sg16
I4
sg17
I6
sbs(I1
I5
tp27
g1
(g10
g3
NtRp28
(dp29
g13
F1.0447039146707096
sg14
I1
sg15
I01
sg16
I5
sg17
I11
sbs(I6
I2
tp30
g1
(g10
g3
NtRp31
(dp32
g13
F8.8687764247353584
sg14
I6
sg15
I01
sg16
I2
sg17
I21
sbs(I2
I3
tp33
g1
(g10
g3
NtRp34
(dp35
g13
F2.6958246207670804
sg14
I2
sg15
I01
sg16
I3
sg17
I5
sbs(I4
I3
tp36
g1
(g10
g3
NtRp37
(dp38
g13
F5.8735016219885434
sg14
I4
sg15
I01
sg16
I3
sg17
I10
sbs(I2
I2
tp39
g1
(g10
g3
NtRp40
(dp41
g13
F9.7044010854391995
sg14
I2
sg15
I00
sg16
I2
sg17
I2
sbs(I4
I2
tp42
g1
(g10
g3
NtRp43
(dp44
g13
F2.3679829431738111
sg14
I4
sg15
I00
sg16
I2
sg17
I7
sbs(I5
I2
tp45
g1
(g10
g3
NtRp46
(dp47
g13
F-5.4040789386947132
sg14
I5
sg15
I01
sg16
I2
sg17
I9
sbssS'_input_nodes'
p48
I1
sS'_output_nodes'
p49
I1
sS'_node_gene_type'
p50
cneat.genome
NodeGene
p51
sS'_conn_gene_type'
p52
g10
sS'fitness'
p53
F0.94488653412100765
sS'parent2_id'
p54
I1883
sS'_id'
p55
I1899
sS'parent1_id'
p56
I1883
sS'_node_genes'
p57
(lp58
g1
(g51
g3
NtRp59
(dp60
S'_bias'
p61
I0
sS'_type'
p62
S'INPUT'
p63
sg55
I1
sS'_response'
p64
F4.9242730000000003
sS'_activation_type'
p65
Nsbag1
(g51
g3
NtRp66
(dp67
g61
F-3.6331151763377609
sg62
S'OUTPUT'
p68
sg55
I2
sg64
F6.2362791919171201
sg65
S'tanh'
p69
sbag1
(g51
g3
NtRp70
(dp71
g61
F-1.0661829772325815
sg62
S'HIDDEN'
p72
sg55
I3
sg64
F4.5703571225103801
sg65
g69
sbag1
(g51
g3
NtRp73
(dp74
g61
F-1.5171599586807902
sg62
g72
sg55
I4
sg64
F4.5117780934691316
sg65
g69
sbag1
(g51
g3
NtRp75
(dp76
g61
F1.9376172935284668
sg62
g72
sg55
I5
sg64
F7.9434808704859066
sg65
g69
sbag1
(g51
g3
NtRp77
(dp78
g61
F-0.96902503188465072
sg62
g72
sg55
I6
sg64
F6.0374510732317157
sg65
g69
sbasb.