ccopy_reg
_reconstructor
p1
(cneat.chromosome
Chromosome
p2
c__builtin__
object
p3
NtRp4
(dp5
S'species_id'
p6
I28
sS'_connection_genes'
p7
(dp8
(I1
I3
tp9
g1
(cneat.genome
ConnectionGene
p10
g3
NtRp11
(dp12
S'_ConnectionGene__weight'
p13
F-6.2856659303300964
sS'_ConnectionGene__in'
p14
I1
sS'_ConnectionGene__enabled'
p15
I01
sS'_ConnectionGene__out'
p16
I3
sS'_ConnectionGene__innov_number'
p17
I3
sbs(I6
I6
tp18
g1
(g10
g3
NtRp19
(dp20
g13
F11.573166934746382
sg14
I6
sg15
I01
sg16
I6
sg17
I39
sbs(I11
I2
tp21
g1
(g10
g3
NtRp22
(dp23
g13
F-11.719377683091738
sg14
I11
sg15
I01
sg16
I2
sg17
I80
sbs(I1
I15
tp24
g1
(g10
g3
NtRp25
(dp26
g13
F0.67139306060418891
sg14
I1
sg15
I01
sg16
I15
sg17
I146
sbs(I6
I2
tp27
g1
(g10
g3
NtRp28
(dp29
g13
F18.677136035306876
sg14
I6
sg15
I01
sg16
I2
sg17
I21
sbs(I5
I8
tp30
g1
(g10
g3
NtRp31
(dp32
g13
F-1.5739612831378083
sg14
I5
sg15
I01
sg16
I8
sg17
I42
sbs(I1
I2
tp33
g1
(g10
g3
NtRp34
(dp35
g13
F-30
sg14
I1
sg15
I01
sg16
I2
sg17
I1
sbs(I12
I2
tp36
g1
(g10
g3
NtRp37
(dp38
g13
F3.6185224055770533
sg14
I12
sg15
I01
sg16
I2
sg17
I82
sbs(I3
I3
tp39
g1
(g10
g3
NtRp40
(dp41
g13
F-11.73132159305678
sg14
I3
sg15
I01
sg16
I3
sg17
I15
sbs(I2
I9
tp42
g1
(g10
g3
NtRp43
(dp44
g13
F9.4941880165944461
sg14
I2
sg15
I01
sg16
I9
sg17
I53
sbs(I13
I3
tp45
g1
(g10
g3
NtRp46
(dp47
g13
F1.422761721102257
sg14
I13
sg15
I01
sg16
I3
sg17
I92
sbs(I8
I10
tp48
g1
(g10
g3
NtRp49
(dp50
g13
F28.683553762649716
sg14
I8
sg15
I01
sg16
I10
sg17
I74
sbs(I4
I13
tp51
g1
(g10
g3
NtRp52
(dp53
g13
F-4.1301064079964611
sg14
I4
sg15
I01
sg16
I13
sg17
I102
sbs(I1
I5
tp54
g1
(g10
g3
NtRp55
(dp56
g13
F-9.9186040136869451
sg14
I1
sg15
I00
sg16
I5
sg17
I11
sbs(I2
I2
tp57
g1
(g10
g3
NtRp58
(dp59
g13
F22.64705004303535
sg14
I2
sg15
I01
sg16
I2
sg17
I2
sbs(I3
I2
tp60
g1
(g10
g3
NtRp61
(dp62
g13
F-28.917597803801502
sg14
I3
sg15
I01
sg16
I2
sg17
I4
sbs(I2
I6
tp63
g1
(g10
g3
NtRp64
(dp65
g13
F0.23547377338615172
sg14
I2
sg15
I01
sg16
I6
sg17
I38
sbs(I8
I2
tp66
g1
(g10
g3
NtRp67
(dp68
g13
F-16.981336445189598
sg14
I8
sg15
I01
sg16
I2
sg17
I43
sbs(I5
I11
tp69
g1
(g10
g3
NtRp70
(dp71
g13
F8.1887586043715572
sg14
I5
sg15
I01
sg16
I11
sg17
I79
sbs(I15
I3
tp72
g1
(g10
g3
NtRp73
(dp74
g13
F-2.1492979989176
sg14
I15
sg15
I01
sg16
I3
sg17
I147
sbs(I9
I3
tp75
g1
(g10
g3
NtRp76
(dp77
g13
F-18.431740674431037
sg14
I9
sg15
I01
sg16
I3
sg17
I60
sbs(I1
I4
tp78
g1
(g10
g3
NtRp79
(dp80
g13
F-24.187858677346824
sg14
I1
sg15
I01
sg16
I4
sg17
I6
sbs(I9
I10
tp81
g1
(g10
g3
NtRp82
(dp83
g13
F-22.264263034476965
sg14
I9
sg15
I01
sg16
I10
sg17
I90
sbs(I7
I5
tp84
g1
(g10
g3
NtRp85
(dp86
g13
F0.27008747395942012
sg14
I7
sg15
I01
sg16
I5
sg17
I30
sbs(I2
I3
tp87
g1
(g10
g3
NtRp88
(dp89
g13
F-2.9288934468869874
sg14
I2
sg15
I01
sg16
I3
sg17
I5
sbs(I1
I9
tp90
g1
(g10
g3
NtRp91
(dp92
g13
F-10.164289897193996
sg14
I1
sg15
I01
sg16
I9
sg17
I58
sbs(I4
I2
tp93
g1
(g10
g3
NtRp94
(dp95
g13
F-15.095223246558868
sg14
I4
sg15
I00
sg16
I2
sg17
I7
sbs(I14
I2
tp96
g1
(g10
g3
NtRp97
(dp98
g13
F-12.315533646480864
sg14
I14
sg15
I01
sg16
I2
sg17
I138
sbs(I3
I5
tp99
g1
(g10
g3
NtRp100
(dp101
g13
F7.4575979863830844
sg14
I3
sg15
I01
sg16
I5
sg17
I14
sbs(I4
I6
tp102
g1
(g10
g3
NtRp103
(dp104
g13
F-1.6761228703224977
sg14
I4
sg15
I01
sg16
I6
sg17
I22
sbs(I8
I12
tp105
g1
(g10
g3
NtRp106
(dp107
g13
F-5.5039369915660679
sg14
I8
sg15
I01
sg16
I12
sg17
I88
sbs(I11
I3
tp108
g1
(g10
g3
NtRp109
(dp110
g13
F-1.1363393208506496
sg14
I11
sg15
I01
sg16
I3
sg17
I78
sbs(I3
I8
tp111
g1
(g10
g3
NtRp112
(dp113
g13
F0.43403500169538589
sg14
I3
sg15
I01
sg16
I8
sg17
I44
sbs(I8
I14
tp114
g1
(g10
g3
NtRp115
(dp116
g13
F-6.4307967851150263
sg14
I8
sg15
I01
sg16
I14
sg17
I119
sbs(I4
I3
tp117
g1
(g10
g3
NtRp118
(dp119
g13
F7.2524520601000741
sg14
I4
sg15
I00
sg16
I3
sg17
I10
sbs(I1
I7
tp120
g1
(g10
g3
NtRp121
(dp122
g13
F-2.7861950781251092
sg14
I1
sg15
I01
sg16
I7
sg17
I29
sbs(I5
I2
tp123
g1
(g10
g3
NtRp124
(dp125
g13
F-11.572069631698525
sg14
I5
sg15
I01
sg16
I2
sg17
I9
sbs(I10
I2
tp126
g1
(g10
g3
NtRp127
(dp128
g13
F-7.7408095346676058
sg14
I10
sg15
I01
sg16
I2
sg17
I65
sbssS'_input_nodes'
p129
I1
sS'_output_nodes'
p130
I1
sS'_node_gene_type'
p131
cneat.genome
NodeGene
p132
sS'_conn_gene_type'
p133
g10
sS'fitness'
p134
F0.91094191522240309
sS'parent2_id'
p135
I4495
sS'_id'
p136
I4527
sS'parent1_id'
p137
I4495
sS'_node_genes'
p138
(lp139
g1
(g132
g3
NtRp140
(dp141
S'_bias'
p142
I0
sS'_type'
p143
S'INPUT'
p144
sg136
I1
sS'_response'
p145
F4.9242730000000003
sS'_activation_type'
p146
Nsbag1
(g132
g3
NtRp147
(dp148
g142
F-6.4095380425183688
sg143
S'OUTPUT'
p149
sg136
I2
sg145
F3.8450481978822895
sg146
S'tanh'
p150
sbag1
(g132
g3
NtRp151
(dp152
g142
F-0.23297240321624285
sg143
S'HIDDEN'
p153
sg136
I3
sg145
F5.332781949075625
sg146
g150
sbag1
(g132
g3
NtRp154
(dp155
g142
F-2.5880302479538519
sg143
g153
sg136
I4
sg145
F9.1751206745740728
sg146
g150
sbag1
(g132
g3
NtRp156
(dp157
g142
F3.7063542640437777
sg143
g153
sg136
I5
sg145
F8.4995262904783075
sg146
g150
sbag1
(g132
g3
NtRp158
(dp159
g142
F0.25733445943618011
sg143
g153
sg136
I6
sg145
F7.2745385305771002
sg146
g150
sbag1
(g132
g3
NtRp160
(dp161
g142
F-0.8262817154153872
sg143
g153
sg136
I7
sg145
F2.0493632962586892
sg146
g150
sbag1
(g132
g3
NtRp162
(dp163
g142
F-1.109260819578946
sg143
g153
sg136
I8
sg145
F9.5012805407944683
sg146
g150
sbag1
(g132
g3
NtRp164
(dp165
g142
F0.72646924087270315
sg143
g153
sg136
I9
sg145
F6.0476463331186094
sg146
g150
sbag1
(g132
g3
NtRp166
(dp167
g142
F-1.116347210386885
sg143
g153
sg136
I10
sg145
F6.2551161205526506
sg146
g150
sbag1
(g132
g3
NtRp168
(dp169
g142
F-0.82509705450349458
sg143
g153
sg136
I11
sg145
F7.6952537804057357
sg146
g150
sbag1
(g132
g3
NtRp170
(dp171
g142
F0.52550104376222451
sg143
g153
sg136
I12
sg145
F6.2835988859141567
sg146
g150
sbag1
(g132
g3
NtRp172
(dp173
g142
F-0.91104047772228758
sg143
g153
sg136
I13
sg145
F4.5658628838185136
sg146
g150
sbag1
(g132
g3
NtRp174
(dp175
g142
F0.84489465763446459
sg143
g153
sg136
I14
sg145
F4.4401713737220536
sg146
g150
sbag1
(g132
g3
NtRp176
(dp177
g142
F-0.96721528606587936
sg143
g153
sg136
I15
sg145
F4.6415032451522862
sg146
g150
sbasb.