ccopy_reg
_reconstructor
p1
(cneat.chromosome
Chromosome
p2
c__builtin__
object
p3
NtRp4
(dp5
S'species_id'
p6
I42
sS'_connection_genes'
p7
(dp8
(I17
I12
tp9
g1
(cneat.genome
ConnectionGene
p10
g3
NtRp11
(dp12
S'_ConnectionGene__weight'
p13
F-5.2462786411464792
sS'_ConnectionGene__in'
p14
I17
sS'_ConnectionGene__enabled'
p15
I01
sS'_ConnectionGene__out'
p16
I12
sS'_ConnectionGene__innov_number'
p17
I207
sbs(I1
I3
tp18
g1
(g10
g3
NtRp19
(dp20
g13
F2.3522795277734021
sg14
I1
sg15
I01
sg16
I3
sg17
I3
sbs(I6
I6
tp21
g1
(g10
g3
NtRp22
(dp23
g13
F23.931852405011558
sg14
I6
sg15
I01
sg16
I6
sg17
I39
sbs(I11
I2
tp24
g1
(g10
g3
NtRp25
(dp26
g13
F0.73556751885577576
sg14
I11
sg15
I01
sg16
I2
sg17
I80
sbs(I1
I15
tp27
g1
(g10
g3
NtRp28
(dp29
g13
F-7.9424306335144701
sg14
I1
sg15
I01
sg16
I15
sg17
I146
sbs(I6
I2
tp30
g1
(g10
g3
NtRp31
(dp32
g13
F27.134942415487636
sg14
I6
sg15
I01
sg16
I2
sg17
I21
sbs(I22
I6
tp33
g1
(g10
g3
NtRp34
(dp35
g13
F-0.026792743462589294
sg14
I22
sg15
I01
sg16
I6
sg17
I267
sbs(I16
I14
tp36
g1
(g10
g3
NtRp37
(dp38
g13
F-24.912589290310489
sg14
I16
sg15
I01
sg16
I14
sg17
I193
sbs(I5
I8
tp39
g1
(g10
g3
NtRp40
(dp41
g13
F2.2290535653142252
sg14
I5
sg15
I00
sg16
I8
sg17
I42
sbs(I8
I2
tp42
g1
(g10
g3
NtRp43
(dp44
g13
F-30
sg14
I8
sg15
I01
sg16
I2
sg17
I43
sbs(I1
I2
tp45
g1
(g10
g3
NtRp46
(dp47
g13
F-11.687183819725197
sg14
I1
sg15
I01
sg16
I2
sg17
I1
sbs(I12
I2
tp48
g1
(g10
g3
NtRp49
(dp50
g13
F4.7352981737745976
sg14
I12
sg15
I01
sg16
I2
sg17
I82
sbs(I2
I19
tp51
g1
(g10
g3
NtRp52
(dp53
g13
F18.409990835993685
sg14
I2
sg15
I01
sg16
I19
sg17
I210
sbs(I3
I3
tp54
g1
(g10
g3
NtRp55
(dp56
g13
F-11.88245741260214
sg14
I3
sg15
I01
sg16
I3
sg17
I15
sbs(I2
I9
tp57
g1
(g10
g3
NtRp58
(dp59
g13
F30
sg14
I2
sg15
I01
sg16
I9
sg17
I53
sbs(I13
I3
tp60
g1
(g10
g3
NtRp61
(dp62
g13
F7.5123515690452694
sg14
I13
sg15
I01
sg16
I3
sg17
I92
sbs(I8
I10
tp63
g1
(g10
g3
NtRp64
(dp65
g13
F24.193681061285723
sg14
I8
sg15
I01
sg16
I10
sg17
I74
sbs(I21
I8
tp66
g1
(g10
g3
NtRp67
(dp68
g13
F0.34786615841270518
sg14
I21
sg15
I01
sg16
I8
sg17
I250
sbs(I4
I13
tp69
g1
(g10
g3
NtRp70
(dp71
g13
F-1.1329882087715781
sg14
I4
sg15
I01
sg16
I13
sg17
I102
sbs(I1
I5
tp72
g1
(g10
g3
NtRp73
(dp74
g13
F-6.9850873750795515
sg14
I1
sg15
I01
sg16
I5
sg17
I11
sbs(I9
I11
tp75
g1
(g10
g3
NtRp76
(dp77
g13
F-3.5161245579389107
sg14
I9
sg15
I01
sg16
I11
sg17
I101
sbs(I19
I3
tp78
g1
(g10
g3
NtRp79
(dp80
g13
F15.123623598535026
sg14
I19
sg15
I01
sg16
I3
sg17
I212
sbs(I2
I2
tp81
g1
(g10
g3
NtRp82
(dp83
g13
F-3.790039588087657
sg14
I2
sg15
I01
sg16
I2
sg17
I2
sbs(I12
I10
tp84
g1
(g10
g3
NtRp85
(dp86
g13
F-9.1340727916950843
sg14
I12
sg15
I01
sg16
I10
sg17
I105
sbs(I8
I16
tp87
g1
(g10
g3
NtRp88
(dp89
g13
F-19.196462507438167
sg14
I8
sg15
I01
sg16
I16
sg17
I177
sbs(I12
I3
tp90
g1
(g10
g3
NtRp91
(dp92
g13
F8.9093605720595583
sg14
I12
sg15
I01
sg16
I3
sg17
I86
sbs(I8
I18
tp93
g1
(g10
g3
NtRp94
(dp95
g13
F4.0390379970755621
sg14
I8
sg15
I01
sg16
I18
sg17
I208
sbs(I3
I2
tp96
g1
(g10
g3
NtRp97
(dp98
g13
F-25.759563148896422
sg14
I3
sg15
I01
sg16
I2
sg17
I4
sbs(I2
I6
tp99
g1
(g10
g3
NtRp100
(dp101
g13
F-1.8728755889145903
sg14
I2
sg15
I00
sg16
I6
sg17
I38
sbs(I20
I22
tp102
g1
(g10
g3
NtRp103
(dp104
g13
F2.0939628639535375
sg14
I20
sg15
I01
sg16
I22
sg17
I266
sbs(I5
I11
tp105
g1
(g10
g3
NtRp106
(dp107
g13
F-19.871849783432832
sg14
I5
sg15
I01
sg16
I11
sg17
I79
sbs(I15
I3
tp108
g1
(g10
g3
NtRp109
(dp110
g13
F-9.7890240653605662
sg14
I15
sg15
I01
sg16
I3
sg17
I147
sbs(I9
I3
tp111
g1
(g10
g3
NtRp112
(dp113
g13
F-5.4276363847087516
sg14
I9
sg15
I01
sg16
I3
sg17
I60
sbs(I2
I20
tp114
g1
(g10
g3
NtRp115
(dp116
g13
F6.7215386750599588
sg14
I2
sg15
I01
sg16
I20
sg17
I220
sbs(I1
I4
tp117
g1
(g10
g3
NtRp118
(dp119
g13
F-27.674830605500912
sg14
I1
sg15
I01
sg16
I4
sg17
I6
sbs(I9
I10
tp120
g1
(g10
g3
NtRp121
(dp122
g13
F-20.946783430966555
sg14
I9
sg15
I01
sg16
I10
sg17
I90
sbs(I7
I5
tp123
g1
(g10
g3
NtRp124
(dp125
g13
F0.61337683565842371
sg14
I7
sg15
I01
sg16
I5
sg17
I30
sbs(I2
I3
tp126
g1
(g10
g3
NtRp127
(dp128
g13
F11.509226412574916
sg14
I2
sg15
I00
sg16
I3
sg17
I5
sbs(I1
I9
tp129
g1
(g10
g3
NtRp130
(dp131
g13
F25.164547427391941
sg14
I1
sg15
I01
sg16
I9
sg17
I58
sbs(I8
I17
tp132
g1
(g10
g3
NtRp133
(dp134
g13
F12.719937290312235
sg14
I8
sg15
I01
sg16
I17
sg17
I205
sbs(I4
I2
tp135
g1
(g10
g3
NtRp136
(dp137
g13
F-15.619965651817715
sg14
I4
sg15
I01
sg16
I2
sg17
I7
sbs(I14
I2
tp138
g1
(g10
g3
NtRp139
(dp140
g13
F-3.7364888846559405
sg14
I14
sg15
I01
sg16
I2
sg17
I138
sbs(I3
I5
tp141
g1
(g10
g3
NtRp142
(dp143
g13
F22.314223176380185
sg14
I3
sg15
I01
sg16
I5
sg17
I14
sbs(I10
I5
tp144
g1
(g10
g3
NtRp145
(dp146
g13
F7.1889775082511393
sg14
I10
sg15
I01
sg16
I5
sg17
I76
sbs(I4
I6
tp147
g1
(g10
g3
NtRp148
(dp149
g13
F-15.218491567443969
sg14
I4
sg15
I01
sg16
I6
sg17
I22
sbs(I15
I2
tp150
g1
(g10
g3
NtRp151
(dp152
g13
F0.36608652259293351
sg14
I15
sg15
I01
sg16
I2
sg17
I170
sbs(I8
I12
tp153
g1
(g10
g3
NtRp154
(dp155
g13
F0.032226914740445228
sg14
I8
sg15
I01
sg16
I12
sg17
I88
sbs(I18
I10
tp156
g1
(g10
g3
NtRp157
(dp158
g13
F29.194414559276794
sg14
I18
sg15
I01
sg16
I10
sg17
I209
sbs(I5
I21
tp159
g1
(g10
g3
NtRp160
(dp161
g13
F4.4122218275026004
sg14
I5
sg15
I01
sg16
I21
sg17
I249
sbs(I11
I3
tp162
g1
(g10
g3
NtRp163
(dp164
g13
F-12.296302384520217
sg14
I11
sg15
I01
sg16
I3
sg17
I78
sbs(I3
I8
tp165
g1
(g10
g3
NtRp166
(dp167
g13
F15.623485353794237
sg14
I3
sg15
I01
sg16
I8
sg17
I44
sbs(I8
I14
tp168
g1
(g10
g3
NtRp169
(dp170
g13
F4.983950859268635
sg14
I8
sg15
I01
sg16
I14
sg17
I119
sbs(I20
I6
tp171
g1
(g10
g3
NtRp172
(dp173
g13
F0.14840765261165834
sg14
I20
sg15
I00
sg16
I6
sg17
I221
sbs(I4
I3
tp174
g1
(g10
g3
NtRp175
(dp176
g13
F13.004426922940581
sg14
I4
sg15
I01
sg16
I3
sg17
I10
sbs(I1
I7
tp177
g1
(g10
g3
NtRp178
(dp179
g13
F6.7078953187831578
sg14
I1
sg15
I01
sg16
I7
sg17
I29
sbs(I13
I9
tp180
g1
(g10
g3
NtRp181
(dp182
g13
F-4.7827292739438567
sg14
I13
sg15
I01
sg16
I9
sg17
I112
sbs(I5
I2
tp183
g1
(g10
g3
NtRp184
(dp185
g13
F-6.9109724933645724
sg14
I5
sg15
I01
sg16
I2
sg17
I9
sbs(I10
I2
tp186
g1
(g10
g3
NtRp187
(dp188
g13
F-10.490787670675505
sg14
I10
sg15
I01
sg16
I2
sg17
I65
sbssS'_input_nodes'
p189
I1
sS'_output_nodes'
p190
I1
sS'_node_gene_type'
p191
cneat.genome
NodeGene
p192
sS'_conn_gene_type'
p193
g10
sS'fitness'
p194
F0.81673666055566685
sS'parent2_id'
p195
I6713
sS'_id'
p196
I6730
sS'parent1_id'
p197
I6713
sS'_node_genes'
p198
(lp199
g1
(g192
g3
NtRp200
(dp201
S'_bias'
p202
I0
sS'_type'
p203
S'INPUT'
p204
sg196
I1
sS'_response'
p205
F4.9242730000000003
sS'_activation_type'
p206
Nsbag1
(g192
g3
NtRp207
(dp208
g202
F-6.2383086225928288
sg203
S'OUTPUT'
p209
sg196
I2
sg205
F5.278709701649392
sg206
S'tanh'
p210
sbag1
(g192
g3
NtRp211
(dp212
g202
F1.3326774390667044
sg203
S'HIDDEN'
p213
sg196
I3
sg205
F1.8960438906186265
sg206
g210
sbag1
(g192
g3
NtRp214
(dp215
g202
F-4.6831980471535291
sg203
g213
sg196
I4
sg205
F7.0286249293153027
sg206
g210
sbag1
(g192
g3
NtRp216
(dp217
g202
F4.3561516061362964
sg203
g213
sg196
I5
sg205
F11.675554480715634
sg206
g210
sbag1
(g192
g3
NtRp218
(dp219
g202
F-1.6788830024960602
sg203
g213
sg196
I6
sg205
F5.069582499556164
sg206
g210
sbag1
(g192
g3
NtRp220
(dp221
g202
F0.47287051361852034
sg203
g213
sg196
I7
sg205
F0.88776873632244391
sg206
g210
sbag1
(g192
g3
NtRp222
(dp223
g202
F-1.8825949476480988
sg203
g213
sg196
I8
sg205
F9.2005778865800849
sg206
g210
sbag1
(g192
g3
NtRp224
(dp225
g202
F-0.9817839020211605
sg203
g213
sg196
I9
sg205
F7.4486099342385934
sg206
g210
sbag1
(g192
g3
NtRp226
(dp227
g202
F-0.78273764851605765
sg203
g213
sg196
I10
sg205
F7.5839618187653386
sg206
g210
sbag1
(g192
g3
NtRp228
(dp229
g202
F-0.10832342045932206
sg203
g213
sg196
I11
sg205
F6.335578573208049
sg206
g210
sbag1
(g192
g3
NtRp230
(dp231
g202
F0.77894438982209113
sg203
g213
sg196
I12
sg205
F3.2370555116194253
sg206
g210
sbag1
(g192
g3
NtRp232
(dp233
g202
F-2.0421473222309365
sg203
g213
sg196
I13
sg205
F4.1771152931438555
sg206
g210
sbag1
(g192
g3
NtRp234
(dp235
g202
F4.3328961544930538
sg203
g213
sg196
I14
sg205
F5.1492852054274856
sg206
g210
sbag1
(g192
g3
NtRp236
(dp237
g202
F-3.3613163187725332
sg203
g213
sg196
I15
sg205
F6.1081185515331615
sg206
g210
sbag1
(g192
g3
NtRp238
(dp239
g202
F-0.23469253585771832
sg203
g213
sg196
I16
sg205
F3.6085629163088786
sg206
g210
sbag1
(g192
g3
NtRp240
(dp241
g202
F1.6239454210516757
sg203
g213
sg196
I17
sg205
F7.0117529064675974
sg206
g210
sbag1
(g192
g3
NtRp242
(dp243
g202
F1.6031408393873763
sg203
g213
sg196
I18
sg205
F4.2552765658013412
sg206
g210
sbag1
(g192
g3
NtRp244
(dp245
g202
F-0.72342239904663674
sg203
g213
sg196
I19
sg205
F2.8345292303704008
sg206
g210
sbag1
(g192
g3
NtRp246
(dp247
g202
F0.084874371422975825
sg203
g213
sg196
I20
sg205
F5.1841826288275232
sg206
g210
sbag1
(g192
g3
NtRp248
(dp249
g202
F0.38455149427284152
sg203
g213
sg196
I21
sg205
F3.4753107428964309
sg206
g210
sbag1
(g192
g3
NtRp250
(dp251
g202
F-0.18238054564702724
sg203
g213
sg196
I22
sg205
F6.5815588178022741
sg206
g210
sbasb.