ccopy_reg
_reconstructor
p1
(cneat.chromosome
Chromosome
p2
c__builtin__
object
p3
NtRp4
(dp5
S'species_id'
p6
I17
sS'_connection_genes'
p7
(dp8
(I1
I3
tp9
g1
(cneat.genome
ConnectionGene
p10
g3
NtRp11
(dp12
S'_ConnectionGene__weight'
p13
F0.94477101548576448
sS'_ConnectionGene__in'
p14
I1
sS'_ConnectionGene__enabled'
p15
I00
sS'_ConnectionGene__out'
p16
I3
sS'_ConnectionGene__innov_number'
p17
I3
sbs(I6
I6
tp18
g1
(g10
g3
NtRp19
(dp20
g13
F20.204454917734026
sg14
I6
sg15
I01
sg16
I6
sg17
I39
sbs(I11
I2
tp21
g1
(g10
g3
NtRp22
(dp23
g13
F-15.775172958637425
sg14
I11
sg15
I01
sg16
I2
sg17
I80
sbs(I6
I2
tp24
g1
(g10
g3
NtRp25
(dp26
g13
F17.736479687252157
sg14
I6
sg15
I01
sg16
I2
sg17
I21
sbs(I5
I8
tp27
g1
(g10
g3
NtRp28
(dp29
g13
F2.7173009973669981
sg14
I5
sg15
I01
sg16
I8
sg17
I42
sbs(I1
I2
tp30
g1
(g10
g3
NtRp31
(dp32
g13
F-10.992789508320358
sg14
I1
sg15
I01
sg16
I2
sg17
I1
sbs(I12
I2
tp33
g1
(g10
g3
NtRp34
(dp35
g13
F-0.54275384613834543
sg14
I12
sg15
I01
sg16
I2
sg17
I82
sbs(I3
I3
tp36
g1
(g10
g3
NtRp37
(dp38
g13
F-7.8911677398902063
sg14
I3
sg15
I01
sg16
I3
sg17
I15
sbs(I2
I9
tp39
g1
(g10
g3
NtRp40
(dp41
g13
F1.1820996260235241
sg14
I2
sg15
I01
sg16
I9
sg17
I53
sbs(I8
I10
tp42
g1
(g10
g3
NtRp43
(dp44
g13
F3.3564781599222671
sg14
I8
sg15
I01
sg16
I10
sg17
I74
sbs(I1
I5
tp45
g1
(g10
g3
NtRp46
(dp47
g13
F-1.2291282763513935
sg14
I1
sg15
I00
sg16
I5
sg17
I11
sbs(I2
I2
tp48
g1
(g10
g3
NtRp49
(dp50
g13
F24.54508199285916
sg14
I2
sg15
I00
sg16
I2
sg17
I2
sbs(I3
I2
tp51
g1
(g10
g3
NtRp52
(dp53
g13
F-20.824165772734169
sg14
I3
sg15
I01
sg16
I2
sg17
I4
sbs(I2
I6
tp54
g1
(g10
g3
NtRp55
(dp56
g13
F8.1278611496756739
sg14
I2
sg15
I01
sg16
I6
sg17
I38
sbs(I8
I2
tp57
g1
(g10
g3
NtRp58
(dp59
g13
F-4.8778217675259992
sg14
I8
sg15
I00
sg16
I2
sg17
I43
sbs(I5
I11
tp60
g1
(g10
g3
NtRp61
(dp62
g13
F0.93941746456185704
sg14
I5
sg15
I01
sg16
I11
sg17
I79
sbs(I9
I3
tp63
g1
(g10
g3
NtRp64
(dp65
g13
F-7.1675195795839821
sg14
I9
sg15
I01
sg16
I3
sg17
I60
sbs(I1
I4
tp66
g1
(g10
g3
NtRp67
(dp68
g13
F-14.468581115103591
sg14
I1
sg15
I01
sg16
I4
sg17
I6
sbs(I9
I10
tp69
g1
(g10
g3
NtRp70
(dp71
g13
F-0.52877620387730218
sg14
I9
sg15
I01
sg16
I10
sg17
I90
sbs(I7
I5
tp72
g1
(g10
g3
NtRp73
(dp74
g13
F6.5488412746804903
sg14
I7
sg15
I01
sg16
I5
sg17
I30
sbs(I2
I3
tp75
g1
(g10
g3
NtRp76
(dp77
g13
F-1.6388685038221757
sg14
I2
sg15
I01
sg16
I3
sg17
I5
sbs(I1
I9
tp78
g1
(g10
g3
NtRp79
(dp80
g13
F-8.7835138189457354
sg14
I1
sg15
I01
sg16
I9
sg17
I58
sbs(I4
I2
tp81
g1
(g10
g3
NtRp82
(dp83
g13
F-23.93094843474594
sg14
I4
sg15
I00
sg16
I2
sg17
I7
sbs(I3
I5
tp84
g1
(g10
g3
NtRp85
(dp86
g13
F-11.542200778553315
sg14
I3
sg15
I01
sg16
I5
sg17
I14
sbs(I4
I6
tp87
g1
(g10
g3
NtRp88
(dp89
g13
F22.420377124551379
sg14
I4
sg15
I01
sg16
I6
sg17
I22
sbs(I8
I12
tp90
g1
(g10
g3
NtRp91
(dp92
g13
F1.2812865433062355
sg14
I8
sg15
I01
sg16
I12
sg17
I88
sbs(I11
I3
tp93
g1
(g10
g3
NtRp94
(dp95
g13
F2.3632264267391911
sg14
I11
sg15
I01
sg16
I3
sg17
I78
sbs(I3
I8
tp96
g1
(g10
g3
NtRp97
(dp98
g13
F-2.5280068564880032
sg14
I3
sg15
I01
sg16
I8
sg17
I44
sbs(I4
I3
tp99
g1
(g10
g3
NtRp100
(dp101
g13
F1.5685917962603744
sg14
I4
sg15
I01
sg16
I3
sg17
I10
sbs(I1
I7
tp102
g1
(g10
g3
NtRp103
(dp104
g13
F-3.2654545941320814
sg14
I1
sg15
I01
sg16
I7
sg17
I29
sbs(I5
I2
tp105
g1
(g10
g3
NtRp106
(dp107
g13
F-27.796259983522877
sg14
I5
sg15
I00
sg16
I2
sg17
I9
sbs(I10
I2
tp108
g1
(g10
g3
NtRp109
(dp110
g13
F-8.519394188139886
sg14
I10
sg15
I01
sg16
I2
sg17
I65
sbssS'_input_nodes'
p111
I1
sS'_output_nodes'
p112
I1
sS'_node_gene_type'
p113
cneat.genome
NodeGene
p114
sS'_conn_gene_type'
p115
g10
sS'fitness'
p116
F0.84684805308756184
sS'parent2_id'
p117
I3012
sS'_id'
p118
I3025
sS'parent1_id'
p119
I3012
sS'_node_genes'
p120
(lp121
g1
(g114
g3
NtRp122
(dp123
S'_bias'
p124
I0
sS'_type'
p125
S'INPUT'
p126
sg118
I1
sS'_response'
p127
F4.9242730000000003
sS'_activation_type'
p128
Nsbag1
(g114
g3
NtRp129
(dp130
g124
F-3.2459897750341171
sg125
S'OUTPUT'
p131
sg118
I2
sg127
F4.7006431914443629
sg128
S'tanh'
p132
sbag1
(g114
g3
NtRp133
(dp134
g124
F-0.99879735524878044
sg125
S'HIDDEN'
p135
sg118
I3
sg127
F4.2063008496907752
sg128
g132
sbag1
(g114
g3
NtRp136
(dp137
g124
F-0.79649818493731706
sg125
g135
sg118
I4
sg127
F5.0827781491716557
sg128
g132
sbag1
(g114
g3
NtRp138
(dp139
g124
F2.8575897731050142
sg125
g135
sg118
I5
sg127
F11.280147035372298
sg128
g132
sbag1
(g114
g3
NtRp140
(dp141
g124
F3.1771255257789499
sg125
g135
sg118
I6
sg127
F8.7114797427752713
sg128
g132
sbag1
(g114
g3
NtRp142
(dp143
g124
F-1.4808985409995732
sg125
g135
sg118
I7
sg127
F5.0323894984199766
sg128
g132
sbag1
(g114
g3
NtRp144
(dp145
g124
F0.013776146612648921
sg125
g135
sg118
I8
sg127
F6.9940247814249688
sg128
g132
sbag1
(g114
g3
NtRp146
(dp147
g124
F0.2405405098280049
sg125
g135
sg118
I9
sg127
F4.5132611651985757
sg128
g132
sbag1
(g114
g3
NtRp148
(dp149
g124
F1.5156066175064706
sg125
g135
sg118
I10
sg127
F4.9242730000000003
sg128
g132
sbag1
(g114
g3
NtRp150
(dp151
g124
F0.51468790782509466
sg125
g135
sg118
I11
sg127
F4.9242730000000003
sg128
g132
sbag1
(g114
g3
NtRp152
(dp153
g124
I0
sg125
g135
sg118
I12
sg127
F4.9242730000000003
sg128
g132
sbasb.