ccopy_reg
_reconstructor
p1
(cneat.chromosome
Chromosome
p2
c__builtin__
object
p3
NtRp4
(dp5
S'species_id'
p6
I23
sS'_connection_genes'
p7
(dp8
(I1
I3
tp9
g1
(cneat.genome
ConnectionGene
p10
g3
NtRp11
(dp12
S'_ConnectionGene__weight'
p13
F-3.2091208385873724
sS'_ConnectionGene__in'
p14
I1
sS'_ConnectionGene__enabled'
p15
I01
sS'_ConnectionGene__out'
p16
I3
sS'_ConnectionGene__innov_number'
p17
I3
sbs(I6
I6
tp18
g1
(g10
g3
NtRp19
(dp20
g13
F11.175181445994015
sg14
I6
sg15
I01
sg16
I6
sg17
I39
sbs(I11
I2
tp21
g1
(g10
g3
NtRp22
(dp23
g13
F-9.5125996627924749
sg14
I11
sg15
I01
sg16
I2
sg17
I80
sbs(I6
I2
tp24
g1
(g10
g3
NtRp25
(dp26
g13
F18.293104182826486
sg14
I6
sg15
I01
sg16
I2
sg17
I21
sbs(I5
I8
tp27
g1
(g10
g3
NtRp28
(dp29
g13
F-0.51011212007878859
sg14
I5
sg15
I01
sg16
I8
sg17
I42
sbs(I1
I2
tp30
g1
(g10
g3
NtRp31
(dp32
g13
F-28.399166376722928
sg14
I1
sg15
I01
sg16
I2
sg17
I1
sbs(I12
I2
tp33
g1
(g10
g3
NtRp34
(dp35
g13
F9.2816359485600017
sg14
I12
sg15
I01
sg16
I2
sg17
I82
sbs(I3
I3
tp36
g1
(g10
g3
NtRp37
(dp38
g13
F-2.5307551642264077
sg14
I3
sg15
I01
sg16
I3
sg17
I15
sbs(I2
I9
tp39
g1
(g10
g3
NtRp40
(dp41
g13
F0.22284111261355743
sg14
I2
sg15
I01
sg16
I9
sg17
I53
sbs(I13
I3
tp42
g1
(g10
g3
NtRp43
(dp44
g13
F2.8758283625557288
sg14
I13
sg15
I01
sg16
I3
sg17
I92
sbs(I8
I10
tp45
g1
(g10
g3
NtRp46
(dp47
g13
F25.081595559984994
sg14
I8
sg15
I01
sg16
I10
sg17
I74
sbs(I4
I13
tp48
g1
(g10
g3
NtRp49
(dp50
g13
F-5.9823066103001761
sg14
I4
sg15
I01
sg16
I13
sg17
I102
sbs(I1
I5
tp51
g1
(g10
g3
NtRp52
(dp53
g13
F-3.6027350675412739
sg14
I1
sg15
I00
sg16
I5
sg17
I11
sbs(I2
I2
tp54
g1
(g10
g3
NtRp55
(dp56
g13
F24.093800616662374
sg14
I2
sg15
I01
sg16
I2
sg17
I2
sbs(I3
I2
tp57
g1
(g10
g3
NtRp58
(dp59
g13
F-18.729141068548795
sg14
I3
sg15
I01
sg16
I2
sg17
I4
sbs(I2
I6
tp60
g1
(g10
g3
NtRp61
(dp62
g13
F5.4487173244949858
sg14
I2
sg15
I01
sg16
I6
sg17
I38
sbs(I8
I2
tp63
g1
(g10
g3
NtRp64
(dp65
g13
F-6.768639453408503
sg14
I8
sg15
I01
sg16
I2
sg17
I43
sbs(I5
I11
tp66
g1
(g10
g3
NtRp67
(dp68
g13
F7.2341512238187713
sg14
I5
sg15
I01
sg16
I11
sg17
I79
sbs(I9
I3
tp69
g1
(g10
g3
NtRp70
(dp71
g13
F-9.2261150728388532
sg14
I9
sg15
I01
sg16
I3
sg17
I60
sbs(I1
I4
tp72
g1
(g10
g3
NtRp73
(dp74
g13
F-19.210738088043719
sg14
I1
sg15
I01
sg16
I4
sg17
I6
sbs(I9
I10
tp75
g1
(g10
g3
NtRp76
(dp77
g13
F-11.753972704469216
sg14
I9
sg15
I01
sg16
I10
sg17
I90
sbs(I7
I5
tp78
g1
(g10
g3
NtRp79
(dp80
g13
F-5.1591460860828668
sg14
I7
sg15
I01
sg16
I5
sg17
I30
sbs(I2
I3
tp81
g1
(g10
g3
NtRp82
(dp83
g13
F-6.0333277844231379
sg14
I2
sg15
I01
sg16
I3
sg17
I5
sbs(I1
I9
tp84
g1
(g10
g3
NtRp85
(dp86
g13
F-11.986082067627208
sg14
I1
sg15
I01
sg16
I9
sg17
I58
sbs(I4
I2
tp87
g1
(g10
g3
NtRp88
(dp89
g13
F-22.313956725601813
sg14
I4
sg15
I00
sg16
I2
sg17
I7
sbs(I3
I5
tp90
g1
(g10
g3
NtRp91
(dp92
g13
F5.9892564202678198
sg14
I3
sg15
I01
sg16
I5
sg17
I14
sbs(I4
I6
tp93
g1
(g10
g3
NtRp94
(dp95
g13
F12.008893824191478
sg14
I4
sg15
I01
sg16
I6
sg17
I22
sbs(I8
I12
tp96
g1
(g10
g3
NtRp97
(dp98
g13
F-3.6817481487344832
sg14
I8
sg15
I01
sg16
I12
sg17
I88
sbs(I11
I3
tp99
g1
(g10
g3
NtRp100
(dp101
g13
F2.4133146400053667
sg14
I11
sg15
I01
sg16
I3
sg17
I78
sbs(I3
I8
tp102
g1
(g10
g3
NtRp103
(dp104
g13
F1.9186132494552879
sg14
I3
sg15
I01
sg16
I8
sg17
I44
sbs(I4
I3
tp105
g1
(g10
g3
NtRp106
(dp107
g13
F-5.0497094775582374
sg14
I4
sg15
I00
sg16
I3
sg17
I10
sbs(I1
I7
tp108
g1
(g10
g3
NtRp109
(dp110
g13
F1.5406135025579188
sg14
I1
sg15
I01
sg16
I7
sg17
I29
sbs(I5
I2
tp111
g1
(g10
g3
NtRp112
(dp113
g13
F-19.267016101860506
sg14
I5
sg15
I00
sg16
I2
sg17
I9
sbs(I10
I2
tp114
g1
(g10
g3
NtRp115
(dp116
g13
F-5.1630544284552746
sg14
I10
sg15
I01
sg16
I2
sg17
I65
sbssS'_input_nodes'
p117
I1
sS'_output_nodes'
p118
I1
sS'_node_gene_type'
p119
cneat.genome
NodeGene
p120
sS'_conn_gene_type'
p121
g10
sS'fitness'
p122
F0.99977990236871073
sS'parent2_id'
p123
I4097
sS'_id'
p124
I4111
sS'parent1_id'
p125
I4097
sS'_node_genes'
p126
(lp127
g1
(g120
g3
NtRp128
(dp129
S'_bias'
p130
I0
sS'_type'
p131
S'INPUT'
p132
sg124
I1
sS'_response'
p133
F4.9242730000000003
sS'_activation_type'
p134
Nsbag1
(g120
g3
NtRp135
(dp136
g130
F-5.9557926067674289
sg131
S'OUTPUT'
p137
sg124
I2
sg133
F4.5917185631104562
sg134
S'tanh'
p138
sbag1
(g120
g3
NtRp139
(dp140
g130
F-0.10196216896096932
sg131
S'HIDDEN'
p141
sg124
I3
sg133
F3.7113562255621706
sg134
g138
sbag1
(g120
g3
NtRp142
(dp143
g130
F-1.1779526864690979
sg131
g141
sg124
I4
sg133
F8.2506040577249316
sg134
g138
sbag1
(g120
g3
NtRp144
(dp145
g130
F2.5656440104049301
sg131
g141
sg124
I5
sg133
F8.849055805557704
sg134
g138
sbag1
(g120
g3
NtRp146
(dp147
g130
F1.4451274231030857
sg131
g141
sg124
I6
sg133
F7.5798411688690956
sg134
g138
sbag1
(g120
g3
NtRp148
(dp149
g130
F-1.0283586682411103
sg131
g141
sg124
I7
sg133
F2.6970468370765648
sg134
g138
sbag1
(g120
g3
NtRp150
(dp151
g130
F-0.3383115860190824
sg131
g141
sg124
I8
sg133
F9.4790672590112681
sg134
g138
sbag1
(g120
g3
NtRp152
(dp153
g130
F0.31981795500974725
sg131
g141
sg124
I9
sg133
F5.6823675966233109
sg134
g138
sbag1
(g120
g3
NtRp154
(dp155
g130
F-1.5696982724852637
sg131
g141
sg124
I10
sg133
F5.4688402145629702
sg134
g138
sbag1
(g120
g3
NtRp156
(dp157
g130
F-0.65879813168245038
sg131
g141
sg124
I11
sg133
F6.6131729465392386
sg134
g138
sbag1
(g120
g3
NtRp158
(dp159
g130
F-0.7506390765072346
sg131
g141
sg124
I12
sg133
F6.2835988859141567
sg134
g138
sbag1
(g120
g3
NtRp160
(dp161
g130
F-1.4894443278027087
sg131
g141
sg124
I13
sg133
F4.9941279154498996
sg134
g138
sbasb.