ccopy_reg
_reconstructor
p1
(cneat.chromosome
Chromosome
p2
c__builtin__
object
p3
NtRp4
(dp5
S'species_id'
p6
I14
sS'_connection_genes'
p7
(dp8
(I1
I3
tp9
g1
(cneat.genome
ConnectionGene
p10
g3
NtRp11
(dp12
S'_ConnectionGene__weight'
p13
F4.9395145154374189
sS'_ConnectionGene__in'
p14
I1
sS'_ConnectionGene__enabled'
p15
I00
sS'_ConnectionGene__out'
p16
I3
sS'_ConnectionGene__innov_number'
p17
I3
sbs(I6
I6
tp18
g1
(g10
g3
NtRp19
(dp20
g13
F22.9597513923683
sg14
I6
sg15
I01
sg16
I6
sg17
I39
sbs(I6
I2
tp21
g1
(g10
g3
NtRp22
(dp23
g13
F13.589380363159897
sg14
I6
sg15
I01
sg16
I2
sg17
I21
sbs(I5
I8
tp24
g1
(g10
g3
NtRp25
(dp26
g13
F8.6691325980602159
sg14
I5
sg15
I01
sg16
I8
sg17
I42
sbs(I1
I2
tp27
g1
(g10
g3
NtRp28
(dp29
g13
F-21.039485946028886
sg14
I1
sg15
I01
sg16
I2
sg17
I1
sbs(I3
I3
tp30
g1
(g10
g3
NtRp31
(dp32
g13
F-5.8584946570957195
sg14
I3
sg15
I01
sg16
I3
sg17
I15
sbs(I2
I9
tp33
g1
(g10
g3
NtRp34
(dp35
g13
F-2.8626241646860504
sg14
I2
sg15
I01
sg16
I9
sg17
I53
sbs(I8
I10
tp36
g1
(g10
g3
NtRp37
(dp38
g13
F3.5325247728055662
sg14
I8
sg15
I01
sg16
I10
sg17
I74
sbs(I1
I5
tp39
g1
(g10
g3
NtRp40
(dp41
g13
F2.0954809961607639
sg14
I1
sg15
I00
sg16
I5
sg17
I11
sbs(I2
I2
tp42
g1
(g10
g3
NtRp43
(dp44
g13
F14.404860722852861
sg14
I2
sg15
I00
sg16
I2
sg17
I2
sbs(I3
I2
tp45
g1
(g10
g3
NtRp46
(dp47
g13
F-15.640630613313743
sg14
I3
sg15
I01
sg16
I2
sg17
I4
sbs(I2
I6
tp48
g1
(g10
g3
NtRp49
(dp50
g13
F3.3272892889759822
sg14
I2
sg15
I01
sg16
I6
sg17
I38
sbs(I8
I2
tp51
g1
(g10
g3
NtRp52
(dp53
g13
F-7.4163092199669407
sg14
I8
sg15
I00
sg16
I2
sg17
I43
sbs(I9
I3
tp54
g1
(g10
g3
NtRp55
(dp56
g13
F-3.2869840190813209
sg14
I9
sg15
I01
sg16
I3
sg17
I60
sbs(I1
I4
tp57
g1
(g10
g3
NtRp58
(dp59
g13
F-10.12395420758798
sg14
I1
sg15
I01
sg16
I4
sg17
I6
sbs(I7
I5
tp60
g1
(g10
g3
NtRp61
(dp62
g13
F11.17678845235198
sg14
I7
sg15
I01
sg16
I5
sg17
I30
sbs(I2
I3
tp63
g1
(g10
g3
NtRp64
(dp65
g13
F-3.3220739759506985
sg14
I2
sg15
I01
sg16
I3
sg17
I5
sbs(I1
I9
tp66
g1
(g10
g3
NtRp67
(dp68
g13
F-6.5410337984982698
sg14
I1
sg15
I01
sg16
I9
sg17
I58
sbs(I4
I2
tp69
g1
(g10
g3
NtRp70
(dp71
g13
F-20.456923762556396
sg14
I4
sg15
I00
sg16
I2
sg17
I7
sbs(I3
I5
tp72
g1
(g10
g3
NtRp73
(dp74
g13
F-13.818672961864479
sg14
I3
sg15
I01
sg16
I5
sg17
I14
sbs(I4
I6
tp75
g1
(g10
g3
NtRp76
(dp77
g13
F28.724556040802753
sg14
I4
sg15
I01
sg16
I6
sg17
I22
sbs(I4
I3
tp78
g1
(g10
g3
NtRp79
(dp80
g13
F2.0322507863675705
sg14
I4
sg15
I01
sg16
I3
sg17
I10
sbs(I1
I7
tp81
g1
(g10
g3
NtRp82
(dp83
g13
F0.25099693901998682
sg14
I1
sg15
I01
sg16
I7
sg17
I29
sbs(I5
I2
tp84
g1
(g10
g3
NtRp85
(dp86
g13
F-22.438643617862819
sg14
I5
sg15
I01
sg16
I2
sg17
I9
sbs(I10
I2
tp87
g1
(g10
g3
NtRp88
(dp89
g13
F-4.8991657139128986
sg14
I10
sg15
I01
sg16
I2
sg17
I65
sbssS'_input_nodes'
p90
I1
sS'_output_nodes'
p91
I1
sS'_node_gene_type'
p92
cneat.genome
NodeGene
p93
sS'_conn_gene_type'
p94
g10
sS'fitness'
p95
F0.99088731851988332
sS'parent2_id'
p96
I2701
sS'_id'
p97
I2731
sS'parent1_id'
p98
I2707
sS'_node_genes'
p99
(lp100
g1
(g93
g3
NtRp101
(dp102
S'_bias'
p103
I0
sS'_type'
p104
S'INPUT'
p105
sg97
I1
sS'_response'
p106
F4.9242730000000003
sS'_activation_type'
p107
Nsbag1
(g93
g3
NtRp108
(dp109
g103
F-2.9004911055772742
sg104
S'OUTPUT'
p110
sg97
I2
sg106
F5.6604761075415411
sg107
S'tanh'
p111
sbag1
(g93
g3
NtRp112
(dp113
g103
F-1.0438587953371896
sg104
S'HIDDEN'
p114
sg97
I3
sg106
F4.0250956286023047
sg107
g111
sbag1
(g93
g3
NtRp115
(dp116
g103
F-0.61730718009149377
sg104
g114
sg97
I4
sg106
F5.0736599784230183
sg107
g111
sbag1
(g93
g3
NtRp117
(dp118
g103
F3.2457195017928804
sg104
g114
sg97
I5
sg106
F10.582110315060868
sg107
g111
sbag1
(g93
g3
NtRp119
(dp120
g103
F2.6043296673396101
sg104
g114
sg97
I6
sg106
F9.1892556248529313
sg107
g111
sbag1
(g93
g3
NtRp121
(dp122
g103
F-1.7346757325721012
sg104
g114
sg97
I7
sg106
F4.3428884024477163
sg107
g111
sbag1
(g93
g3
NtRp123
(dp124
g103
F0.69858167433506069
sg104
g114
sg97
I8
sg106
F5.3093559056289701
sg107
g111
sbag1
(g93
g3
NtRp125
(dp126
g103
F-0.42999190004413013
sg104
g114
sg97
I9
sg106
F4.8099348533128179
sg107
g111
sbag1
(g93
g3
NtRp127
(dp128
g103
F0.64638211586011163
sg104
g114
sg97
I10
sg106
F4.9242730000000003
sg107
g111
sbasb.