ccopy_reg
_reconstructor
p1
(cneat.chromosome
Chromosome
p2
c__builtin__
object
p3
NtRp4
(dp5
S'species_id'
p6
I20
sS'_connection_genes'
p7
(dp8
(I1
I3
tp9
g1
(cneat.genome
ConnectionGene
p10
g3
NtRp11
(dp12
S'_ConnectionGene__weight'
p13
F3.0318309786731801
sS'_ConnectionGene__in'
p14
I1
sS'_ConnectionGene__enabled'
p15
I01
sS'_ConnectionGene__out'
p16
I3
sS'_ConnectionGene__innov_number'
p17
I3
sbs(I6
I6
tp18
g1
(g10
g3
NtRp19
(dp20
g13
F19.341375797799621
sg14
I6
sg15
I01
sg16
I6
sg17
I39
sbs(I11
I2
tp21
g1
(g10
g3
NtRp22
(dp23
g13
F-13.983383045330127
sg14
I11
sg15
I01
sg16
I2
sg17
I80
sbs(I6
I2
tp24
g1
(g10
g3
NtRp25
(dp26
g13
F11.489743382447356
sg14
I6
sg15
I01
sg16
I2
sg17
I21
sbs(I5
I8
tp27
g1
(g10
g3
NtRp28
(dp29
g13
F-2.266843217993868
sg14
I5
sg15
I01
sg16
I8
sg17
I42
sbs(I1
I2
tp30
g1
(g10
g3
NtRp31
(dp32
g13
F-16.30603518189977
sg14
I1
sg15
I01
sg16
I2
sg17
I1
sbs(I12
I2
tp33
g1
(g10
g3
NtRp34
(dp35
g13
F7.9381707306118949
sg14
I12
sg15
I01
sg16
I2
sg17
I82
sbs(I3
I3
tp36
g1
(g10
g3
NtRp37
(dp38
g13
F-10.555956243979891
sg14
I3
sg15
I01
sg16
I3
sg17
I15
sbs(I2
I9
tp39
g1
(g10
g3
NtRp40
(dp41
g13
F-2.0527948914775553
sg14
I2
sg15
I01
sg16
I9
sg17
I53
sbs(I8
I10
tp42
g1
(g10
g3
NtRp43
(dp44
g13
F7.0769773014002961
sg14
I8
sg15
I01
sg16
I10
sg17
I74
sbs(I1
I5
tp45
g1
(g10
g3
NtRp46
(dp47
g13
F2.682113389429492
sg14
I1
sg15
I00
sg16
I5
sg17
I11
sbs(I2
I2
tp48
g1
(g10
g3
NtRp49
(dp50
g13
F20.95238780271724
sg14
I2
sg15
I00
sg16
I2
sg17
I2
sbs(I3
I2
tp51
g1
(g10
g3
NtRp52
(dp53
g13
F-16.066496312097772
sg14
I3
sg15
I01
sg16
I2
sg17
I4
sbs(I2
I6
tp54
g1
(g10
g3
NtRp55
(dp56
g13
F9.8577595583330542
sg14
I2
sg15
I01
sg16
I6
sg17
I38
sbs(I8
I2
tp57
g1
(g10
g3
NtRp58
(dp59
g13
F-6.45603893076989
sg14
I8
sg15
I01
sg16
I2
sg17
I43
sbs(I5
I11
tp60
g1
(g10
g3
NtRp61
(dp62
g13
F18.293166926663631
sg14
I5
sg15
I01
sg16
I11
sg17
I79
sbs(I9
I3
tp63
g1
(g10
g3
NtRp64
(dp65
g13
F-9.1618189138667177
sg14
I9
sg15
I01
sg16
I3
sg17
I60
sbs(I1
I4
tp66
g1
(g10
g3
NtRp67
(dp68
g13
F-18.524395997887876
sg14
I1
sg15
I01
sg16
I4
sg17
I6
sbs(I9
I10
tp69
g1
(g10
g3
NtRp70
(dp71
g13
F-5.0824305931719804
sg14
I9
sg15
I01
sg16
I10
sg17
I90
sbs(I7
I5
tp72
g1
(g10
g3
NtRp73
(dp74
g13
F-2.7316172930903795
sg14
I7
sg15
I01
sg16
I5
sg17
I30
sbs(I2
I3
tp75
g1
(g10
g3
NtRp76
(dp77
g13
F-5.3422928389013844
sg14
I2
sg15
I01
sg16
I3
sg17
I5
sbs(I1
I9
tp78
g1
(g10
g3
NtRp79
(dp80
g13
F-9.6668843713784973
sg14
I1
sg15
I01
sg16
I9
sg17
I58
sbs(I4
I2
tp81
g1
(g10
g3
NtRp82
(dp83
g13
F-26.722511585645055
sg14
I4
sg15
I00
sg16
I2
sg17
I7
sbs(I3
I5
tp84
g1
(g10
g3
NtRp85
(dp86
g13
F-5.1197042951180292
sg14
I3
sg15
I01
sg16
I5
sg17
I14
sbs(I4
I6
tp87
g1
(g10
g3
NtRp88
(dp89
g13
F16.753268935928698
sg14
I4
sg15
I01
sg16
I6
sg17
I22
sbs(I8
I12
tp90
g1
(g10
g3
NtRp91
(dp92
g13
F-6.6763007711449216
sg14
I8
sg15
I01
sg16
I12
sg17
I88
sbs(I11
I3
tp93
g1
(g10
g3
NtRp94
(dp95
g13
F5.7640985967262033
sg14
I11
sg15
I01
sg16
I3
sg17
I78
sbs(I3
I8
tp96
g1
(g10
g3
NtRp97
(dp98
g13
F4.0196237639276609
sg14
I3
sg15
I01
sg16
I8
sg17
I44
sbs(I4
I3
tp99
g1
(g10
g3
NtRp100
(dp101
g13
F0.91497415417219807
sg14
I4
sg15
I01
sg16
I3
sg17
I10
sbs(I1
I7
tp102
g1
(g10
g3
NtRp103
(dp104
g13
F7.5363229094532791
sg14
I1
sg15
I01
sg16
I7
sg17
I29
sbs(I5
I2
tp105
g1
(g10
g3
NtRp106
(dp107
g13
F-22.123097155968782
sg14
I5
sg15
I00
sg16
I2
sg17
I9
sbs(I10
I2
tp108
g1
(g10
g3
NtRp109
(dp110
g13
F-10.139543344671981
sg14
I10
sg15
I01
sg16
I2
sg17
I65
sbssS'_input_nodes'
p111
I1
sS'_output_nodes'
p112
I1
sS'_node_gene_type'
p113
cneat.genome
NodeGene
p114
sS'_conn_gene_type'
p115
g10
sS'fitness'
p116
F0.98319822789175382
sS'parent2_id'
p117
I3437
sS'_id'
p118
I3455
sS'parent1_id'
p119
I3437
sS'_node_genes'
p120
(lp121
g1
(g114
g3
NtRp122
(dp123
S'_bias'
p124
I0
sS'_type'
p125
S'INPUT'
p126
sg118
I1
sS'_response'
p127
F4.9242730000000003
sS'_activation_type'
p128
Nsbag1
(g114
g3
NtRp129
(dp130
g124
F-3.3469424657688203
sg125
S'OUTPUT'
p131
sg118
I2
sg127
F4.8936311348779373
sg128
S'tanh'
p132
sbag1
(g114
g3
NtRp133
(dp134
g124
F-0.65445748811275806
sg125
S'HIDDEN'
p135
sg118
I3
sg127
F3.6920217506095918
sg128
g132
sbag1
(g114
g3
NtRp136
(dp137
g124
F-1.2657522063098103
sg125
g135
sg118
I4
sg127
F7.0755646444306262
sg128
g132
sbag1
(g114
g3
NtRp138
(dp139
g124
F2.4698958600881213
sg125
g135
sg118
I5
sg127
F9.1698171571327496
sg128
g132
sbag1
(g114
g3
NtRp140
(dp141
g124
F1.0550134273891298
sg125
g135
sg118
I6
sg127
F8.3715771649908852
sg128
g132
sbag1
(g114
g3
NtRp142
(dp143
g124
F0.032990065441071609
sg125
g135
sg118
I7
sg127
F4.2811274642359063
sg128
g132
sbag1
(g114
g3
NtRp144
(dp145
g124
F-0.74228467809048682
sg125
g135
sg118
I8
sg127
F8.6417702506349752
sg128
g132
sbag1
(g114
g3
NtRp146
(dp147
g124
F0.66169325045192218
sg125
g135
sg118
I9
sg127
F3.5225690133350125
sg128
g132
sbag1
(g114
g3
NtRp148
(dp149
g124
F0.49269304933307034
sg125
g135
sg118
I10
sg127
F4.9301334861803552
sg128
g132
sbag1
(g114
g3
NtRp150
(dp151
g124
F-0.64916364442164665
sg125
g135
sg118
I11
sg127
F4.9242730000000003
sg128
g132
sbag1
(g114
g3
NtRp152
(dp153
g124
F-0.30856248950835896
sg125
g135
sg118
I12
sg127
F5.4502671400722367
sg128
g132
sbasb.