ccopy_reg
_reconstructor
p1
(cneat.chromosome
Chromosome
p2
c__builtin__
object
p3
NtRp4
(dp5
S'species_id'
p6
I56
sS'_connection_genes'
p7
(dp8
(I17
I12
tp9
g1
(cneat.genome
ConnectionGene
p10
g3
NtRp11
(dp12
S'_ConnectionGene__weight'
p13
F-9.6289031183881537
sS'_ConnectionGene__in'
p14
I17
sS'_ConnectionGene__enabled'
p15
I01
sS'_ConnectionGene__out'
p16
I12
sS'_ConnectionGene__innov_number'
p17
I207
sbs(I25
I16
tp18
g1
(g10
g3
NtRp19
(dp20
g13
F-1.06554008892912
sg14
I25
sg15
I01
sg16
I16
sg17
I340
sbs(I1
I3
tp21
g1
(g10
g3
NtRp22
(dp23
g13
F-13.661253181901422
sg14
I1
sg15
I01
sg16
I3
sg17
I3
sbs(I6
I6
tp24
g1
(g10
g3
NtRp25
(dp26
g13
F28.307147164007954
sg14
I6
sg15
I01
sg16
I6
sg17
I39
sbs(I1
I26
tp27
g1
(g10
g3
NtRp28
(dp29
g13
F-14.679096710671548
sg14
I1
sg15
I01
sg16
I26
sg17
I364
sbs(I11
I2
tp30
g1
(g10
g3
NtRp31
(dp32
g13
F-8.7994799744486691
sg14
I11
sg15
I01
sg16
I2
sg17
I80
sbs(I7
I11
tp33
g1
(g10
g3
NtRp34
(dp35
g13
F-5.1331563052515135
sg14
I7
sg15
I01
sg16
I11
sg17
I123
sbs(I27
I6
tp36
g1
(g10
g3
NtRp37
(dp38
g13
F-6.5261456473185699
sg14
I27
sg15
I01
sg16
I6
sg17
I379
sbs(I28
I8
tp39
g1
(g10
g3
NtRp40
(dp41
g13
F-1.4502883207217006
sg14
I28
sg15
I01
sg16
I8
sg17
I407
sbs(I23
I3
tp42
g1
(g10
g3
NtRp43
(dp44
g13
F-25.436262564465189
sg14
I23
sg15
I01
sg16
I3
sg17
I246
sbs(I6
I2
tp45
g1
(g10
g3
NtRp46
(dp47
g13
F21.997266819369401
sg14
I6
sg15
I01
sg16
I2
sg17
I21
sbs(I22
I6
tp48
g1
(g10
g3
NtRp49
(dp50
g13
F9.7042072007456444
sg14
I22
sg15
I01
sg16
I6
sg17
I267
sbs(I16
I14
tp51
g1
(g10
g3
NtRp52
(dp53
g13
F-16.505080701313958
sg14
I16
sg15
I01
sg16
I14
sg17
I193
sbs(I5
I8
tp54
g1
(g10
g3
NtRp55
(dp56
g13
F10.658314938654057
sg14
I5
sg15
I00
sg16
I8
sg17
I42
sbs(I20
I22
tp57
g1
(g10
g3
NtRp58
(dp59
g13
F7.6587030576525468
sg14
I20
sg15
I01
sg16
I22
sg17
I266
sbs(I1
I2
tp60
g1
(g10
g3
NtRp61
(dp62
g13
F17.797733486212408
sg14
I1
sg15
I01
sg16
I2
sg17
I1
sbs(I12
I2
tp63
g1
(g10
g3
NtRp64
(dp65
g13
F27.485219166976496
sg14
I12
sg15
I01
sg16
I2
sg17
I82
sbs(I14
I2
tp66
g1
(g10
g3
NtRp67
(dp68
g13
F-4.0071215311867299
sg14
I14
sg15
I01
sg16
I2
sg17
I138
sbs(I2
I19
tp69
g1
(g10
g3
NtRp70
(dp71
g13
F-0.97988376121265386
sg14
I2
sg15
I01
sg16
I19
sg17
I210
sbs(I3
I3
tp72
g1
(g10
g3
NtRp73
(dp74
g13
F-29.839129800244311
sg14
I3
sg15
I01
sg16
I3
sg17
I15
sbs(I2
I9
tp75
g1
(g10
g3
NtRp76
(dp77
g13
F-3.3877698742588827
sg14
I2
sg15
I01
sg16
I9
sg17
I53
sbs(I13
I3
tp78
g1
(g10
g3
NtRp79
(dp80
g13
F-0.60929966776653055
sg14
I13
sg15
I00
sg16
I3
sg17
I92
sbs(I24
I27
tp81
g1
(g10
g3
NtRp82
(dp83
g13
F-2.4510037219350047
sg14
I24
sg15
I01
sg16
I27
sg17
I378
sbs(I8
I10
tp84
g1
(g10
g3
NtRp85
(dp86
g13
F28.328849674590987
sg14
I8
sg15
I01
sg16
I10
sg17
I74
sbs(I21
I8
tp87
g1
(g10
g3
NtRp88
(dp89
g13
F-1.6900828993375629
sg14
I21
sg15
I00
sg16
I8
sg17
I250
sbs(I4
I13
tp90
g1
(g10
g3
NtRp91
(dp92
g13
F1.2358073027279874
sg14
I4
sg15
I01
sg16
I13
sg17
I102
sbs(I1
I5
tp93
g1
(g10
g3
NtRp94
(dp95
g13
F1.8249867429524826
sg14
I1
sg15
I01
sg16
I5
sg17
I11
sbs(I9
I11
tp96
g1
(g10
g3
NtRp97
(dp98
g13
F24.11788694702016
sg14
I9
sg15
I01
sg16
I11
sg17
I101
sbs(I19
I3
tp99
g1
(g10
g3
NtRp100
(dp101
g13
F26.219169054016614
sg14
I19
sg15
I01
sg16
I3
sg17
I212
sbs(I2
I2
tp102
g1
(g10
g3
NtRp103
(dp104
g13
F7.1053554868301099
sg14
I2
sg15
I01
sg16
I2
sg17
I2
sbs(I12
I10
tp105
g1
(g10
g3
NtRp106
(dp107
g13
F25.543896712643281
sg14
I12
sg15
I01
sg16
I10
sg17
I105
sbs(I8
I16
tp108
g1
(g10
g3
NtRp109
(dp110
g13
F-18.902689465309443
sg14
I8
sg15
I00
sg16
I16
sg17
I177
sbs(I21
I28
tp111
g1
(g10
g3
NtRp112
(dp113
g13
F-0.3181061655958235
sg14
I21
sg15
I01
sg16
I28
sg17
I406
sbs(I12
I3
tp114
g1
(g10
g3
NtRp115
(dp116
g13
F27.699196517551954
sg14
I12
sg15
I01
sg16
I3
sg17
I86
sbs(I20
I6
tp117
g1
(g10
g3
NtRp118
(dp119
g13
F-21.881281514693942
sg14
I20
sg15
I01
sg16
I6
sg17
I221
sbs(I8
I25
tp120
g1
(g10
g3
NtRp121
(dp122
g13
F-8.919331729270894
sg14
I8
sg15
I01
sg16
I25
sg17
I339
sbs(I3
I2
tp123
g1
(g10
g3
NtRp124
(dp125
g13
F-29.050448048212477
sg14
I3
sg15
I01
sg16
I2
sg17
I4
sbs(I2
I6
tp126
g1
(g10
g3
NtRp127
(dp128
g13
F-15.503674922079133
sg14
I2
sg15
I01
sg16
I6
sg17
I38
sbs(I8
I2
tp129
g1
(g10
g3
NtRp130
(dp131
g13
F-14.132142745915731
sg14
I8
sg15
I01
sg16
I2
sg17
I43
sbs(I5
I11
tp132
g1
(g10
g3
NtRp133
(dp134
g13
F-15.540274996840816
sg14
I5
sg15
I01
sg16
I11
sg17
I79
sbs(I15
I3
tp135
g1
(g10
g3
NtRp136
(dp137
g13
F-16.717417421401201
sg14
I15
sg15
I01
sg16
I3
sg17
I147
sbs(I9
I3
tp138
g1
(g10
g3
NtRp139
(dp140
g13
F-7.5717258649188715
sg14
I9
sg15
I01
sg16
I3
sg17
I60
sbs(I2
I20
tp141
g1
(g10
g3
NtRp142
(dp143
g13
F14.780195777180463
sg14
I2
sg15
I01
sg16
I20
sg17
I220
sbs(I1
I4
tp144
g1
(g10
g3
NtRp145
(dp146
g13
F-15.215002958465952
sg14
I1
sg15
I00
sg16
I4
sg17
I6
sbs(I9
I10
tp147
g1
(g10
g3
NtRp148
(dp149
g13
F-5.897007683458499
sg14
I9
sg15
I01
sg16
I10
sg17
I90
sbs(I7
I5
tp150
g1
(g10
g3
NtRp151
(dp152
g13
F17.1471196149459
sg14
I7
sg15
I01
sg16
I5
sg17
I30
sbs(I2
I3
tp153
g1
(g10
g3
NtRp154
(dp155
g13
F16.839049240863059
sg14
I2
sg15
I00
sg16
I3
sg17
I5
sbs(I1
I9
tp156
g1
(g10
g3
NtRp157
(dp158
g13
F29.664559560592579
sg14
I1
sg15
I01
sg16
I9
sg17
I58
sbs(I26
I4
tp159
g1
(g10
g3
NtRp160
(dp161
g13
F-25.626829832013676
sg14
I26
sg15
I01
sg16
I4
sg17
I365
sbs(I8
I17
tp162
g1
(g10
g3
NtRp163
(dp164
g13
F20.205283498365699
sg14
I8
sg15
I01
sg16
I17
sg17
I205
sbs(I4
I2
tp165
g1
(g10
g3
NtRp166
(dp167
g13
F-6.5427687015888356
sg14
I4
sg15
I01
sg16
I2
sg17
I7
sbs(I1
I15
tp168
g1
(g10
g3
NtRp169
(dp170
g13
F-21.67704294686969
sg14
I1
sg15
I01
sg16
I15
sg17
I146
sbs(I3
I5
tp171
g1
(g10
g3
NtRp172
(dp173
g13
F26.730514049623043
sg14
I3
sg15
I01
sg16
I5
sg17
I14
sbs(I10
I5
tp174
g1
(g10
g3
NtRp175
(dp176
g13
F-10.735014183905225
sg14
I10
sg15
I01
sg16
I5
sg17
I76
sbs(I13
I23
tp177
g1
(g10
g3
NtRp178
(dp179
g13
F10.043651293109638
sg14
I13
sg15
I01
sg16
I23
sg17
I287
sbs(I4
I6
tp180
g1
(g10
g3
NtRp181
(dp182
g13
F-15.562193259802349
sg14
I4
sg15
I01
sg16
I6
sg17
I22
sbs(I15
I2
tp183
g1
(g10
g3
NtRp184
(dp185
g13
F3.1213797273606354
sg14
I15
sg15
I01
sg16
I2
sg17
I170
sbs(I8
I12
tp186
g1
(g10
g3
NtRp187
(dp188
g13
F7.8702741354938599
sg14
I8
sg15
I01
sg16
I12
sg17
I88
sbs(I18
I10
tp189
g1
(g10
g3
NtRp190
(dp191
g13
F4.5545585664227275
sg14
I18
sg15
I01
sg16
I10
sg17
I209
sbs(I20
I24
tp192
g1
(g10
g3
NtRp193
(dp194
g13
F-10.908353644023666
sg14
I20
sg15
I01
sg16
I24
sg17
I330
sbs(I11
I3
tp195
g1
(g10
g3
NtRp196
(dp197
g13
F-15.741346393498914
sg14
I11
sg15
I01
sg16
I3
sg17
I78
sbs(I24
I6
tp198
g1
(g10
g3
NtRp199
(dp200
g13
F-6.5007445977207912
sg14
I24
sg15
I00
sg16
I6
sg17
I328
sbs(I3
I8
tp201
g1
(g10
g3
NtRp202
(dp203
g13
F10.063680301769956
sg14
I3
sg15
I01
sg16
I8
sg17
I44
sbs(I8
I14
tp204
g1
(g10
g3
NtRp205
(dp206
g13
F13.911389205823777
sg14
I8
sg15
I01
sg16
I14
sg17
I119
sbs(I8
I18
tp207
g1
(g10
g3
NtRp208
(dp209
g13
F0.41390086916249713
sg14
I8
sg15
I01
sg16
I18
sg17
I208
sbs(I4
I3
tp210
g1
(g10
g3
NtRp211
(dp212
g13
F-1.3364446652100028
sg14
I4
sg15
I01
sg16
I3
sg17
I10
sbs(I1
I7
tp213
g1
(g10
g3
NtRp214
(dp215
g13
F-20.239710434974103
sg14
I1
sg15
I01
sg16
I7
sg17
I29
sbs(I13
I9
tp216
g1
(g10
g3
NtRp217
(dp218
g13
F5.9148907833563706
sg14
I13
sg15
I01
sg16
I9
sg17
I112
sbs(I10
I2
tp219
g1
(g10
g3
NtRp220
(dp221
g13
F-18.202793945347796
sg14
I10
sg15
I01
sg16
I2
sg17
I65
sbs(I5
I2
tp222
g1
(g10
g3
NtRp223
(dp224
g13
F-27.128903587295106
sg14
I5
sg15
I01
sg16
I2
sg17
I9
sbs(I5
I21
tp225
g1
(g10
g3
NtRp226
(dp227
g13
F18.178362642613337
sg14
I5
sg15
I01
sg16
I21
sg17
I249
sbssS'_input_nodes'
p228
I1
sS'_output_nodes'
p229
I1
sS'_node_gene_type'
p230
cneat.genome
NodeGene
p231
sS'_conn_gene_type'
p232
g10
sS'fitness'
p233
F0.93081597887055756
sS'parent2_id'
p234
I9000
sS'_id'
p235
I9017
sS'parent1_id'
p236
I9000
sS'_node_genes'
p237
(lp238
g1
(g231
g3
NtRp239
(dp240
S'_bias'
p241
I0
sS'_type'
p242
S'INPUT'
p243
sg235
I1
sS'_response'
p244
F4.9242730000000003
sS'_activation_type'
p245
Nsbag1
(g231
g3
NtRp246
(dp247
g241
F-5.6229756621065095
sg242
S'OUTPUT'
p248
sg235
I2
sg244
F5.1041947720807892
sg245
S'tanh'
p249
sbag1
(g231
g3
NtRp250
(dp251
g241
F1.8860726942990582
sg242
S'HIDDEN'
p252
sg235
I3
sg244
F2.1499493457799139
sg245
g249
sbag1
(g231
g3
NtRp253
(dp254
g241
F-1.1357558269078012
sg242
g252
sg235
I4
sg244
F6.5551178906895782
sg245
g249
sbag1
(g231
g3
NtRp255
(dp256
g241
F4.510038204967862
sg242
g252
sg235
I5
sg244
F7.153729917425494
sg245
g249
sbag1
(g231
g3
NtRp257
(dp258
g241
F-2.0147660373607224
sg242
g252
sg235
I6
sg244
F5.5363022143497034
sg245
g249
sbag1
(g231
g3
NtRp259
(dp260
g241
F0.11020360997024209
sg242
g252
sg235
I7
sg244
F-3.1231142975743555
sg245
g249
sbag1
(g231
g3
NtRp261
(dp262
g241
F-3.1724105904840827
sg242
g252
sg235
I8
sg244
F7.8319479570572863
sg245
g249
sbag1
(g231
g3
NtRp263
(dp264
g241
F2.1933776436426107
sg242
g252
sg235
I9
sg244
F3.4547106189482988
sg245
g249
sbag1
(g231
g3
NtRp265
(dp266
g241
F1.6140881050008198
sg242
g252
sg235
I10
sg244
F6.6631730131516997
sg245
g249
sbag1
(g231
g3
NtRp267
(dp268
g241
F2.6184779690412996
sg242
g252
sg235
I11
sg244
F7.2957889114879775
sg245
g249
sbag1
(g231
g3
NtRp269
(dp270
g241
F2.1760535465746713
sg242
g252
sg235
I12
sg244
F5.2684776070535051
sg245
g249
sbag1
(g231
g3
NtRp271
(dp272
g241
F-2.3412545483135241
sg242
g252
sg235
I13
sg244
F4.6486589063483645
sg245
g249
sbag1
(g231
g3
NtRp273
(dp274
g241
F3.8842646807708414
sg242
g252
sg235
I14
sg244
F5.1258660105058924
sg245
g249
sbag1
(g231
g3
NtRp275
(dp276
g241
F-4.8687345098290482
sg242
g252
sg235
I15
sg244
F4.9923412774643738
sg245
g249
sbag1
(g231
g3
NtRp277
(dp278
g241
F3.8674326171044759
sg242
g252
sg235
I16
sg244
F3.9883277284509799
sg245
g249
sbag1
(g231
g3
NtRp279
(dp280
g241
F3.0320167137093388
sg242
g252
sg235
I17
sg244
F5.8525087059452465
sg245
g249
sbag1
(g231
g3
NtRp281
(dp282
g241
F2.2044767069432498
sg242
g252
sg235
I18
sg244
F0.91625979256607226
sg245
g249
sbag1
(g231
g3
NtRp283
(dp284
g241
F3.1190816354053936
sg242
g252
sg235
I19
sg244
F-0.54738929003646963
sg245
g249
sbag1
(g231
g3
NtRp285
(dp286
g241
F-0.63901136200386555
sg242
g252
sg235
I20
sg244
F-0.05944315149828705
sg245
g249
sbag1
(g231
g3
NtRp287
(dp288
g241
F-0.21156776763884227
sg242
g252
sg235
I21
sg244
F2.1689183995391423
sg245
g249
sbag1
(g231
g3
NtRp289
(dp290
g241
F-0.63196450247857039
sg242
g252
sg235
I22
sg244
F5.9320672701030555
sg245
g249
sbag1
(g231
g3
NtRp291
(dp292
g241
F0.28642065652659565
sg242
g252
sg235
I23
sg244
F5.1050641800802135
sg245
g249
sbag1
(g231
g3
NtRp293
(dp294
g241
F-0.22854721747964946
sg242
g252
sg235
I24
sg244
F4.8918462630133082
sg245
g249
sbag1
(g231
g3
NtRp295
(dp296
g241
F-4.0622402260435146
sg242
g252
sg235
I25
sg244
F5.2567262211749073
sg245
g249
sbag1
(g231
g3
NtRp297
(dp298
g241
F-1.0991046910762603
sg242
g252
sg235
I26
sg244
F3.6606357919394639
sg245
g249
sbag1
(g231
g3
NtRp299
(dp300
g241
F-0.1330881063225659
sg242
g252
sg235
I27
sg244
F4.2683508199170923
sg245
g249
sbag1
(g231
g3
NtRp301
(dp302
g241
F0.94557769071020714
sg242
g252
sg235
I28
sg244
F4.9242730000000003
sg245
g249
sbasb.