ccopy_reg
_reconstructor
p1
(cneat.chromosome
Chromosome
p2
c__builtin__
object
p3
NtRp4
(dp5
S'species_id'
p6
I31
sS'_connection_genes'
p7
(dp8
(I1
I3
tp9
g1
(cneat.genome
ConnectionGene
p10
g3
NtRp11
(dp12
S'_ConnectionGene__weight'
p13
F-10.345748819539418
sS'_ConnectionGene__in'
p14
I1
sS'_ConnectionGene__enabled'
p15
I01
sS'_ConnectionGene__out'
p16
I3
sS'_ConnectionGene__innov_number'
p17
I3
sbs(I6
I6
tp18
g1
(g10
g3
NtRp19
(dp20
g13
F17.185358467525745
sg14
I6
sg15
I01
sg16
I6
sg17
I39
sbs(I11
I2
tp21
g1
(g10
g3
NtRp22
(dp23
g13
F-3.0958816880920312
sg14
I11
sg15
I01
sg16
I2
sg17
I80
sbs(I1
I15
tp24
g1
(g10
g3
NtRp25
(dp26
g13
F-2.335408810843707
sg14
I1
sg15
I01
sg16
I15
sg17
I146
sbs(I6
I2
tp27
g1
(g10
g3
NtRp28
(dp29
g13
F28.904343271285907
sg14
I6
sg15
I01
sg16
I2
sg17
I21
sbs(I5
I8
tp30
g1
(g10
g3
NtRp31
(dp32
g13
F4.6442010462028112
sg14
I5
sg15
I01
sg16
I8
sg17
I42
sbs(I1
I2
tp33
g1
(g10
g3
NtRp34
(dp35
g13
F-11.888393909520461
sg14
I1
sg15
I01
sg16
I2
sg17
I1
sbs(I12
I2
tp36
g1
(g10
g3
NtRp37
(dp38
g13
F9.8739031323482607
sg14
I12
sg15
I01
sg16
I2
sg17
I82
sbs(I3
I3
tp39
g1
(g10
g3
NtRp40
(dp41
g13
F-13.070473071426672
sg14
I3
sg15
I01
sg16
I3
sg17
I15
sbs(I2
I9
tp42
g1
(g10
g3
NtRp43
(dp44
g13
F16.283829415568079
sg14
I2
sg15
I01
sg16
I9
sg17
I53
sbs(I13
I3
tp45
g1
(g10
g3
NtRp46
(dp47
g13
F1.9883586885736133
sg14
I13
sg15
I01
sg16
I3
sg17
I92
sbs(I8
I10
tp48
g1
(g10
g3
NtRp49
(dp50
g13
F26.55466255311493
sg14
I8
sg15
I01
sg16
I10
sg17
I74
sbs(I4
I13
tp51
g1
(g10
g3
NtRp52
(dp53
g13
F-7.9808155442964388
sg14
I4
sg15
I01
sg16
I13
sg17
I102
sbs(I1
I5
tp54
g1
(g10
g3
NtRp55
(dp56
g13
F-13.547216121545445
sg14
I1
sg15
I00
sg16
I5
sg17
I11
sbs(I2
I2
tp57
g1
(g10
g3
NtRp58
(dp59
g13
F7.7138334004016258
sg14
I2
sg15
I01
sg16
I2
sg17
I2
sbs(I3
I2
tp60
g1
(g10
g3
NtRp61
(dp62
g13
F-30
sg14
I3
sg15
I01
sg16
I2
sg17
I4
sbs(I2
I6
tp63
g1
(g10
g3
NtRp64
(dp65
g13
F10.109756893312786
sg14
I2
sg15
I01
sg16
I6
sg17
I38
sbs(I8
I2
tp66
g1
(g10
g3
NtRp67
(dp68
g13
F-12.200428695212011
sg14
I8
sg15
I01
sg16
I2
sg17
I43
sbs(I5
I11
tp69
g1
(g10
g3
NtRp70
(dp71
g13
F-2.2117647619081375
sg14
I5
sg15
I01
sg16
I11
sg17
I79
sbs(I15
I3
tp72
g1
(g10
g3
NtRp73
(dp74
g13
F0.64721114026775117
sg14
I15
sg15
I01
sg16
I3
sg17
I147
sbs(I9
I3
tp75
g1
(g10
g3
NtRp76
(dp77
g13
F-14.881285182412677
sg14
I9
sg15
I01
sg16
I3
sg17
I60
sbs(I1
I4
tp78
g1
(g10
g3
NtRp79
(dp80
g13
F-20.054624171408712
sg14
I1
sg15
I01
sg16
I4
sg17
I6
sbs(I9
I10
tp81
g1
(g10
g3
NtRp82
(dp83
g13
F-18.656082907730358
sg14
I9
sg15
I01
sg16
I10
sg17
I90
sbs(I7
I5
tp84
g1
(g10
g3
NtRp85
(dp86
g13
F3.8605254831939688
sg14
I7
sg15
I01
sg16
I5
sg17
I30
sbs(I2
I3
tp87
g1
(g10
g3
NtRp88
(dp89
g13
F-2.2351851496739861
sg14
I2
sg15
I01
sg16
I3
sg17
I5
sbs(I1
I9
tp90
g1
(g10
g3
NtRp91
(dp92
g13
F5.9699049616591964
sg14
I1
sg15
I01
sg16
I9
sg17
I58
sbs(I4
I2
tp93
g1
(g10
g3
NtRp94
(dp95
g13
F-20.898501807027795
sg14
I4
sg15
I01
sg16
I2
sg17
I7
sbs(I14
I2
tp96
g1
(g10
g3
NtRp97
(dp98
g13
F-8.6800286127522632
sg14
I14
sg15
I01
sg16
I2
sg17
I138
sbs(I3
I5
tp99
g1
(g10
g3
NtRp100
(dp101
g13
F1.8899885418626305
sg14
I3
sg15
I01
sg16
I5
sg17
I14
sbs(I10
I5
tp102
g1
(g10
g3
NtRp103
(dp104
g13
F0.62409329826993898
sg14
I10
sg15
I01
sg16
I5
sg17
I76
sbs(I4
I6
tp105
g1
(g10
g3
NtRp106
(dp107
g13
F-11.575484938293501
sg14
I4
sg15
I01
sg16
I6
sg17
I22
sbs(I8
I12
tp108
g1
(g10
g3
NtRp109
(dp110
g13
F-4.7021850173490449
sg14
I8
sg15
I01
sg16
I12
sg17
I88
sbs(I11
I3
tp111
g1
(g10
g3
NtRp112
(dp113
g13
F-13.376669399789597
sg14
I11
sg15
I01
sg16
I3
sg17
I78
sbs(I3
I8
tp114
g1
(g10
g3
NtRp115
(dp116
g13
F10.503207234323463
sg14
I3
sg15
I01
sg16
I8
sg17
I44
sbs(I8
I14
tp117
g1
(g10
g3
NtRp118
(dp119
g13
F-6.3771002198582813
sg14
I8
sg15
I01
sg16
I14
sg17
I119
sbs(I4
I3
tp120
g1
(g10
g3
NtRp121
(dp122
g13
F5.4663731081741833
sg14
I4
sg15
I00
sg16
I3
sg17
I10
sbs(I1
I7
tp123
g1
(g10
g3
NtRp124
(dp125
g13
F-0.19276168837957164
sg14
I1
sg15
I01
sg16
I7
sg17
I29
sbs(I5
I2
tp126
g1
(g10
g3
NtRp127
(dp128
g13
F-5.9510232586726959
sg14
I5
sg15
I01
sg16
I2
sg17
I9
sbs(I10
I2
tp129
g1
(g10
g3
NtRp130
(dp131
g13
F-12.802884850904459
sg14
I10
sg15
I01
sg16
I2
sg17
I65
sbssS'_input_nodes'
p132
I1
sS'_output_nodes'
p133
I1
sS'_node_gene_type'
p134
cneat.genome
NodeGene
p135
sS'_conn_gene_type'
p136
g10
sS'fitness'
p137
F0.99970330807706786
sS'parent2_id'
p138
I4975
sS'_id'
p139
I4999
sS'parent1_id'
p140
I4975
sS'_node_genes'
p141
(lp142
g1
(g135
g3
NtRp143
(dp144
S'_bias'
p145
I0
sS'_type'
p146
S'INPUT'
p147
sg139
I1
sS'_response'
p148
F4.9242730000000003
sS'_activation_type'
p149
Nsbag1
(g135
g3
NtRp150
(dp151
g145
F-6.6077607332748762
sg146
S'OUTPUT'
p152
sg139
I2
sg148
F3.3129291474119
sg149
S'tanh'
p153
sbag1
(g135
g3
NtRp154
(dp155
g145
F0.37438756789934974
sg146
S'HIDDEN'
p156
sg139
I3
sg148
F5.5433989205326268
sg149
g153
sbag1
(g135
g3
NtRp157
(dp158
g145
F-3.4776143832440192
sg146
g156
sg139
I4
sg148
F8.5241891219960912
sg149
g153
sbag1
(g135
g3
NtRp159
(dp160
g145
F3.4943725519924849
sg146
g156
sg139
I5
sg148
F9.4393929423436749
sg149
g153
sbag1
(g135
g3
NtRp161
(dp162
g145
F0.696532424468983
sg146
g156
sg139
I6
sg148
F6.6657247013805367
sg149
g153
sbag1
(g135
g3
NtRp163
(dp164
g145
F-2.1160585576461877
sg146
g156
sg139
I7
sg148
F2.6011995891161996
sg149
g153
sbag1
(g135
g3
NtRp165
(dp166
g145
F-1.0493133257664145
sg146
g156
sg139
I8
sg148
F10.568421635790907
sg149
g153
sbag1
(g135
g3
NtRp167
(dp168
g145
F-0.81506881018521837
sg146
g156
sg139
I9
sg148
F6.4940004262689772
sg149
g153
sbag1
(g135
g3
NtRp169
(dp170
g145
F-0.7716155171179262
sg146
g156
sg139
I10
sg148
F6.9258106452998112
sg149
g153
sbag1
(g135
g3
NtRp171
(dp172
g145
F-0.75024212210292918
sg146
g156
sg139
I11
sg148
F8.4958881840877432
sg149
g153
sbag1
(g135
g3
NtRp173
(dp174
g145
F0.95498950232440127
sg146
g156
sg139
I12
sg148
F5.3043433876858961
sg149
g153
sbag1
(g135
g3
NtRp175
(dp176
g145
F-1.7024154096263375
sg146
g156
sg139
I13
sg148
F5.1384567936136456
sg149
g153
sbag1
(g135
g3
NtRp177
(dp178
g145
F2.2337452036068646
sg146
g156
sg139
I14
sg148
F3.8323181366051582
sg149
g153
sbag1
(g135
g3
NtRp179
(dp180
g145
F-0.88133725388093942
sg146
g156
sg139
I15
sg148
F5.5177970875356444
sg149
g153
sbasb.