ccopy_reg
_reconstructor
p1
(cneat.chromosome
Chromosome
p2
c__builtin__
object
p3
NtRp4
(dp5
S'species_id'
p6
I14
sS'_connection_genes'
p7
(dp8
(I1
I3
tp9
g1
(cneat.genome
ConnectionGene
p10
g3
NtRp11
(dp12
S'_ConnectionGene__weight'
p13
F-3.4206337364810748
sS'_ConnectionGene__in'
p14
I1
sS'_ConnectionGene__enabled'
p15
I00
sS'_ConnectionGene__out'
p16
I3
sS'_ConnectionGene__innov_number'
p17
I3
sbs(I6
I6
tp18
g1
(g10
g3
NtRp19
(dp20
g13
F22.715673294415907
sg14
I6
sg15
I01
sg16
I6
sg17
I39
sbs(I6
I2
tp21
g1
(g10
g3
NtRp22
(dp23
g13
F7.1222127489139835
sg14
I6
sg15
I01
sg16
I2
sg17
I21
sbs(I5
I8
tp24
g1
(g10
g3
NtRp25
(dp26
g13
F4.8640915171738754
sg14
I5
sg15
I01
sg16
I8
sg17
I42
sbs(I1
I2
tp27
g1
(g10
g3
NtRp28
(dp29
g13
F-14.376261154649042
sg14
I1
sg15
I01
sg16
I2
sg17
I1
sbs(I3
I3
tp30
g1
(g10
g3
NtRp31
(dp32
g13
F-7.1575804480051586
sg14
I3
sg15
I01
sg16
I3
sg17
I15
sbs(I2
I9
tp33
g1
(g10
g3
NtRp34
(dp35
g13
F1.6464501585369637
sg14
I2
sg15
I01
sg16
I9
sg17
I53
sbs(I1
I5
tp36
g1
(g10
g3
NtRp37
(dp38
g13
F0.1974652072448102
sg14
I1
sg15
I00
sg16
I5
sg17
I11
sbs(I2
I2
tp39
g1
(g10
g3
NtRp40
(dp41
g13
F14.001453317126785
sg14
I2
sg15
I00
sg16
I2
sg17
I2
sbs(I3
I2
tp42
g1
(g10
g3
NtRp43
(dp44
g13
F-21.966231603805465
sg14
I3
sg15
I01
sg16
I2
sg17
I4
sbs(I2
I6
tp45
g1
(g10
g3
NtRp46
(dp47
g13
F5.0140020722649501
sg14
I2
sg15
I01
sg16
I6
sg17
I38
sbs(I8
I2
tp48
g1
(g10
g3
NtRp49
(dp50
g13
F-6.1557295558190388
sg14
I8
sg15
I01
sg16
I2
sg17
I43
sbs(I9
I3
tp51
g1
(g10
g3
NtRp52
(dp53
g13
F-1.6379460648578237
sg14
I9
sg15
I01
sg16
I3
sg17
I60
sbs(I1
I4
tp54
g1
(g10
g3
NtRp55
(dp56
g13
F-9.8697159616105559
sg14
I1
sg15
I01
sg16
I4
sg17
I6
sbs(I7
I5
tp57
g1
(g10
g3
NtRp58
(dp59
g13
F8.9419721481649521
sg14
I7
sg15
I01
sg16
I5
sg17
I30
sbs(I2
I3
tp60
g1
(g10
g3
NtRp61
(dp62
g13
F-2.7005231285864255
sg14
I2
sg15
I01
sg16
I3
sg17
I5
sbs(I1
I9
tp63
g1
(g10
g3
NtRp64
(dp65
g13
F-6.5534415429077777
sg14
I1
sg15
I01
sg16
I9
sg17
I58
sbs(I4
I2
tp66
g1
(g10
g3
NtRp67
(dp68
g13
F-18.11018022970304
sg14
I4
sg15
I00
sg16
I2
sg17
I7
sbs(I3
I5
tp69
g1
(g10
g3
NtRp70
(dp71
g13
F-13.818672961864479
sg14
I3
sg15
I01
sg16
I5
sg17
I14
sbs(I4
I6
tp72
g1
(g10
g3
NtRp73
(dp74
g13
F26.390018964690604
sg14
I4
sg15
I01
sg16
I6
sg17
I22
sbs(I4
I3
tp75
g1
(g10
g3
NtRp76
(dp77
g13
F-0.22727126042790036
sg14
I4
sg15
I01
sg16
I3
sg17
I10
sbs(I1
I7
tp78
g1
(g10
g3
NtRp79
(dp80
g13
F-0.079914484896050908
sg14
I1
sg15
I01
sg16
I7
sg17
I29
sbs(I5
I2
tp81
g1
(g10
g3
NtRp82
(dp83
g13
F-22.438643617862819
sg14
I5
sg15
I01
sg16
I2
sg17
I9
sbssS'_input_nodes'
p84
I1
sS'_output_nodes'
p85
I1
sS'_node_gene_type'
p86
cneat.genome
NodeGene
p87
sS'_conn_gene_type'
p88
g10
sS'fitness'
p89
F0.96504824444767856
sS'parent2_id'
p90
I2671
sS'_id'
p91
I2697
sS'parent1_id'
p92
I2671
sS'_node_genes'
p93
(lp94
g1
(g87
g3
NtRp95
(dp96
S'_bias'
p97
I0
sS'_type'
p98
S'INPUT'
p99
sg91
I1
sS'_response'
p100
F4.9242730000000003
sS'_activation_type'
p101
Nsbag1
(g87
g3
NtRp102
(dp103
g97
F-2.9004911055772742
sg98
S'OUTPUT'
p104
sg91
I2
sg100
F5.5467003845268223
sg101
S'tanh'
p105
sbag1
(g87
g3
NtRp106
(dp107
g97
F-1.0438587953371896
sg98
S'HIDDEN'
p108
sg91
I3
sg100
F4.0250956286023047
sg101
g105
sbag1
(g87
g3
NtRp109
(dp110
g97
F-0.61730718009149377
sg98
g108
sg91
I4
sg100
F5.4750755768593802
sg101
g105
sbag1
(g87
g3
NtRp111
(dp112
g97
F3.2457195017928804
sg98
g108
sg91
I5
sg100
F10.833757736600658
sg101
g105
sbag1
(g87
g3
NtRp113
(dp114
g97
F2.6043296673396101
sg98
g108
sg91
I6
sg100
F9.0211873728617249
sg101
g105
sbag1
(g87
g3
NtRp115
(dp116
g97
F-1.7346757325721012
sg98
g108
sg91
I7
sg100
F4.5629895612453737
sg101
g105
sbag1
(g87
g3
NtRp117
(dp118
g97
F0.52659146815651048
sg98
g108
sg91
I8
sg100
F5.3093559056289701
sg101
g105
sbag1
(g87
g3
NtRp119
(dp120
g97
F-0.42999190004413013
sg98
g108
sg91
I9
sg100
F4.8099348533128179
sg101
g105
sbasb.