ccopy_reg
_reconstructor
p1
(cneat.chromosome
Chromosome
p2
c__builtin__
object
p3
NtRp4
(dp5
S'species_id'
p6
I15
sS'_connection_genes'
p7
(dp8
(I1
I3
tp9
g1
(cneat.genome
ConnectionGene
p10
g3
NtRp11
(dp12
S'_ConnectionGene__weight'
p13
F1.2531085510321485
sS'_ConnectionGene__in'
p14
I1
sS'_ConnectionGene__enabled'
p15
I00
sS'_ConnectionGene__out'
p16
I3
sS'_ConnectionGene__innov_number'
p17
I3
sbs(I6
I6
tp18
g1
(g10
g3
NtRp19
(dp20
g13
F21.421168776786544
sg14
I6
sg15
I01
sg16
I6
sg17
I39
sbs(I6
I2
tp21
g1
(g10
g3
NtRp22
(dp23
g13
F9.9521613553652628
sg14
I6
sg15
I01
sg16
I2
sg17
I21
sbs(I5
I8
tp24
g1
(g10
g3
NtRp25
(dp26
g13
F10.613529696035535
sg14
I5
sg15
I01
sg16
I8
sg17
I42
sbs(I1
I2
tp27
g1
(g10
g3
NtRp28
(dp29
g13
F-20.143955865795562
sg14
I1
sg15
I01
sg16
I2
sg17
I1
sbs(I3
I3
tp30
g1
(g10
g3
NtRp31
(dp32
g13
F-4.2319688883281481
sg14
I3
sg15
I01
sg16
I3
sg17
I15
sbs(I2
I9
tp33
g1
(g10
g3
NtRp34
(dp35
g13
F0.84234386326204236
sg14
I2
sg15
I01
sg16
I9
sg17
I53
sbs(I4
I4
tp36
g1
(g10
g3
NtRp37
(dp38
g13
F0.35891376830687782
sg14
I4
sg15
I01
sg16
I4
sg17
I16
sbs(I1
I5
tp39
g1
(g10
g3
NtRp40
(dp41
g13
F-5.816055506561761
sg14
I1
sg15
I00
sg16
I5
sg17
I11
sbs(I2
I2
tp42
g1
(g10
g3
NtRp43
(dp44
g13
F14.965302522719988
sg14
I2
sg15
I00
sg16
I2
sg17
I2
sbs(I1
I10
tp45
g1
(g10
g3
NtRp46
(dp47
g13
F-2.0161880694983774
sg14
I1
sg15
I01
sg16
I10
sg17
I71
sbs(I3
I2
tp48
g1
(g10
g3
NtRp49
(dp50
g13
F-18.669709525285558
sg14
I3
sg15
I01
sg16
I2
sg17
I4
sbs(I2
I6
tp51
g1
(g10
g3
NtRp52
(dp53
g13
F2.928803327154629
sg14
I2
sg15
I01
sg16
I6
sg17
I38
sbs(I8
I2
tp54
g1
(g10
g3
NtRp55
(dp56
g13
F-7.6706667865774563
sg14
I8
sg15
I01
sg16
I2
sg17
I43
sbs(I9
I3
tp57
g1
(g10
g3
NtRp58
(dp59
g13
F1.2805997655037276
sg14
I9
sg15
I01
sg16
I3
sg17
I60
sbs(I1
I4
tp60
g1
(g10
g3
NtRp61
(dp62
g13
F-7.3454359327934293
sg14
I1
sg15
I01
sg16
I4
sg17
I6
sbs(I7
I5
tp63
g1
(g10
g3
NtRp64
(dp65
g13
F12.722169205959712
sg14
I7
sg15
I01
sg16
I5
sg17
I30
sbs(I2
I3
tp66
g1
(g10
g3
NtRp67
(dp68
g13
F-10.582309535925575
sg14
I2
sg15
I01
sg16
I3
sg17
I5
sbs(I1
I9
tp69
g1
(g10
g3
NtRp70
(dp71
g13
F-6.2909059579852347
sg14
I1
sg15
I01
sg16
I9
sg17
I58
sbs(I4
I2
tp72
g1
(g10
g3
NtRp73
(dp74
g13
F-16.639323756103515
sg14
I4
sg15
I00
sg16
I2
sg17
I7
sbs(I3
I5
tp75
g1
(g10
g3
NtRp76
(dp77
g13
F-18.016352419348404
sg14
I3
sg15
I01
sg16
I5
sg17
I14
sbs(I10
I5
tp78
g1
(g10
g3
NtRp79
(dp80
g13
F-7.3576386316153259
sg14
I10
sg15
I01
sg16
I5
sg17
I76
sbs(I4
I6
tp81
g1
(g10
g3
NtRp82
(dp83
g13
F30
sg14
I4
sg15
I01
sg16
I6
sg17
I22
sbs(I4
I3
tp84
g1
(g10
g3
NtRp85
(dp86
g13
F-0.014482937032709087
sg14
I4
sg15
I01
sg16
I3
sg17
I10
sbs(I1
I7
tp87
g1
(g10
g3
NtRp88
(dp89
g13
F6.0410741697913659
sg14
I1
sg15
I01
sg16
I7
sg17
I29
sbs(I5
I2
tp90
g1
(g10
g3
NtRp91
(dp92
g13
F-25.128053828556403
sg14
I5
sg15
I01
sg16
I2
sg17
I9
sbssS'_input_nodes'
p93
I1
sS'_output_nodes'
p94
I1
sS'_node_gene_type'
p95
cneat.genome
NodeGene
p96
sS'_conn_gene_type'
p97
g10
sS'fitness'
p98
F0.97305232549043819
sS'parent2_id'
p99
I2835
sS'_id'
p100
I2857
sS'parent1_id'
p101
I2835
sS'_node_genes'
p102
(lp103
g1
(g96
g3
NtRp104
(dp105
S'_bias'
p106
I0
sS'_type'
p107
S'INPUT'
p108
sg100
I1
sS'_response'
p109
F4.9242730000000003
sS'_activation_type'
p110
Nsbag1
(g96
g3
NtRp111
(dp112
g106
F-2.8337362986903978
sg107
S'OUTPUT'
p113
sg100
I2
sg109
F5.3407589632196668
sg110
S'tanh'
p114
sbag1
(g96
g3
NtRp115
(dp116
g106
F-1.0438587953371896
sg107
S'HIDDEN'
p117
sg100
I3
sg109
F3.4617662161252061
sg110
g114
sbag1
(g96
g3
NtRp118
(dp119
g106
F-0.55999809737569439
sg107
g117
sg100
I4
sg109
F5.1346094866895724
sg110
g114
sbag1
(g96
g3
NtRp120
(dp121
g106
F4.2346634051971446
sg107
g117
sg100
I5
sg109
F9.633559712014554
sg110
g114
sbag1
(g96
g3
NtRp122
(dp123
g106
F2.6043296673396101
sg107
g117
sg100
I6
sg109
F9.633416938113033
sg110
g114
sbag1
(g96
g3
NtRp124
(dp125
g106
F-1.9617072376898279
sg107
g117
sg100
I7
sg109
F4.5629895612453737
sg110
g114
sbag1
(g96
g3
NtRp126
(dp127
g106
F1.7376433886947067
sg107
g117
sg100
I8
sg109
F5.7798132733332634
sg110
g114
sbag1
(g96
g3
NtRp128
(dp129
g106
F-0.79040908398910859
sg107
g117
sg100
I9
sg109
F5.1251149662897255
sg110
g114
sbag1
(g96
g3
NtRp130
(dp131
g106
F0.068561895740585882
sg107
g117
sg100
I10
sg109
F4.8172373328992526
sg110
g114
sbasb.