ccopy_reg
_reconstructor
p1
(cneat.chromosome
Chromosome
p2
c__builtin__
object
p3
NtRp4
(dp5
S'species_id'
p6
I31
sS'_connection_genes'
p7
(dp8
(I1
I3
tp9
g1
(cneat.genome
ConnectionGene
p10
g3
NtRp11
(dp12
S'_ConnectionGene__weight'
p13
F-5.3226920643028706
sS'_ConnectionGene__in'
p14
I1
sS'_ConnectionGene__enabled'
p15
I01
sS'_ConnectionGene__out'
p16
I3
sS'_ConnectionGene__innov_number'
p17
I3
sbs(I6
I6
tp18
g1
(g10
g3
NtRp19
(dp20
g13
F21.752633851142114
sg14
I6
sg15
I01
sg16
I6
sg17
I39
sbs(I11
I2
tp21
g1
(g10
g3
NtRp22
(dp23
g13
F-0.46004840223503862
sg14
I11
sg15
I01
sg16
I2
sg17
I80
sbs(I1
I15
tp24
g1
(g10
g3
NtRp25
(dp26
g13
F-7.62278926484613
sg14
I1
sg15
I01
sg16
I15
sg17
I146
sbs(I6
I2
tp27
g1
(g10
g3
NtRp28
(dp29
g13
F30
sg14
I6
sg15
I01
sg16
I2
sg17
I21
sbs(I16
I14
tp30
g1
(g10
g3
NtRp31
(dp32
g13
F-12.479703565130709
sg14
I16
sg15
I01
sg16
I14
sg17
I193
sbs(I5
I8
tp33
g1
(g10
g3
NtRp34
(dp35
g13
F-0.066139738351794514
sg14
I5
sg15
I01
sg16
I8
sg17
I42
sbs(I1
I2
tp36
g1
(g10
g3
NtRp37
(dp38
g13
F-21.129285367645178
sg14
I1
sg15
I01
sg16
I2
sg17
I1
sbs(I12
I2
tp39
g1
(g10
g3
NtRp40
(dp41
g13
F4.7273081985939394
sg14
I12
sg15
I01
sg16
I2
sg17
I82
sbs(I3
I3
tp42
g1
(g10
g3
NtRp43
(dp44
g13
F-4.7180398541863413
sg14
I3
sg15
I01
sg16
I3
sg17
I15
sbs(I2
I9
tp45
g1
(g10
g3
NtRp46
(dp47
g13
F18.806528652614567
sg14
I2
sg15
I01
sg16
I9
sg17
I53
sbs(I13
I3
tp48
g1
(g10
g3
NtRp49
(dp50
g13
F4.1025934079727335
sg14
I13
sg15
I01
sg16
I3
sg17
I92
sbs(I8
I10
tp51
g1
(g10
g3
NtRp52
(dp53
g13
F22.553584878804493
sg14
I8
sg15
I01
sg16
I10
sg17
I74
sbs(I4
I13
tp54
g1
(g10
g3
NtRp55
(dp56
g13
F-10.745697041025998
sg14
I4
sg15
I01
sg16
I13
sg17
I102
sbs(I1
I5
tp57
g1
(g10
g3
NtRp58
(dp59
g13
F-18.590584968789056
sg14
I1
sg15
I00
sg16
I5
sg17
I11
sbs(I9
I11
tp60
g1
(g10
g3
NtRp61
(dp62
g13
F-3.6695947218495468
sg14
I9
sg15
I01
sg16
I11
sg17
I101
sbs(I2
I2
tp63
g1
(g10
g3
NtRp64
(dp65
g13
F5.3070849325758207
sg14
I2
sg15
I01
sg16
I2
sg17
I2
sbs(I8
I16
tp66
g1
(g10
g3
NtRp67
(dp68
g13
F-1.1805164695033565
sg14
I8
sg15
I01
sg16
I16
sg17
I177
sbs(I3
I2
tp69
g1
(g10
g3
NtRp70
(dp71
g13
F-21.45500161419908
sg14
I3
sg15
I01
sg16
I2
sg17
I4
sbs(I2
I6
tp72
g1
(g10
g3
NtRp73
(dp74
g13
F1.5079719011428958
sg14
I2
sg15
I01
sg16
I6
sg17
I38
sbs(I8
I2
tp75
g1
(g10
g3
NtRp76
(dp77
g13
F-21.150092511216098
sg14
I8
sg15
I01
sg16
I2
sg17
I43
sbs(I5
I11
tp78
g1
(g10
g3
NtRp79
(dp80
g13
F5.2779194258096993
sg14
I5
sg15
I01
sg16
I11
sg17
I79
sbs(I15
I3
tp81
g1
(g10
g3
NtRp82
(dp83
g13
F0.6791871911563967
sg14
I15
sg15
I00
sg16
I3
sg17
I147
sbs(I9
I3
tp84
g1
(g10
g3
NtRp85
(dp86
g13
F-12.581654982145249
sg14
I9
sg15
I01
sg16
I3
sg17
I60
sbs(I1
I4
tp87
g1
(g10
g3
NtRp88
(dp89
g13
F-22.361729266682325
sg14
I1
sg15
I01
sg16
I4
sg17
I6
sbs(I9
I10
tp90
g1
(g10
g3
NtRp91
(dp92
g13
F-22.352505385520971
sg14
I9
sg15
I01
sg16
I10
sg17
I90
sbs(I7
I5
tp93
g1
(g10
g3
NtRp94
(dp95
g13
F-7.3555402824074303
sg14
I7
sg15
I01
sg16
I5
sg17
I30
sbs(I2
I3
tp96
g1
(g10
g3
NtRp97
(dp98
g13
F-2.1417446812661787
sg14
I2
sg15
I01
sg16
I3
sg17
I5
sbs(I1
I9
tp99
g1
(g10
g3
NtRp100
(dp101
g13
F4.127857098914899
sg14
I1
sg15
I01
sg16
I9
sg17
I58
sbs(I4
I2
tp102
g1
(g10
g3
NtRp103
(dp104
g13
F-9.4197246616210979
sg14
I4
sg15
I01
sg16
I2
sg17
I7
sbs(I14
I2
tp105
g1
(g10
g3
NtRp106
(dp107
g13
F0.28459018227837962
sg14
I14
sg15
I01
sg16
I2
sg17
I138
sbs(I3
I5
tp108
g1
(g10
g3
NtRp109
(dp110
g13
F4.4506331975576456
sg14
I3
sg15
I01
sg16
I5
sg17
I14
sbs(I10
I5
tp111
g1
(g10
g3
NtRp112
(dp113
g13
F-5.7477128917828644
sg14
I10
sg15
I01
sg16
I5
sg17
I76
sbs(I4
I6
tp114
g1
(g10
g3
NtRp115
(dp116
g13
F-13.035713229479876
sg14
I4
sg15
I01
sg16
I6
sg17
I22
sbs(I15
I2
tp117
g1
(g10
g3
NtRp118
(dp119
g13
F8.5586884649641046
sg14
I15
sg15
I01
sg16
I2
sg17
I170
sbs(I8
I12
tp120
g1
(g10
g3
NtRp121
(dp122
g13
F-0.80646221703577536
sg14
I8
sg15
I01
sg16
I12
sg17
I88
sbs(I11
I3
tp123
g1
(g10
g3
NtRp124
(dp125
g13
F-15.798443987723257
sg14
I11
sg15
I01
sg16
I3
sg17
I78
sbs(I3
I8
tp126
g1
(g10
g3
NtRp127
(dp128
g13
F21.965514085655411
sg14
I3
sg15
I01
sg16
I8
sg17
I44
sbs(I8
I14
tp129
g1
(g10
g3
NtRp130
(dp131
g13
F6.3064938651812117
sg14
I8
sg15
I00
sg16
I14
sg17
I119
sbs(I4
I3
tp132
g1
(g10
g3
NtRp133
(dp134
g13
F17.716421759698296
sg14
I4
sg15
I00
sg16
I3
sg17
I10
sbs(I1
I7
tp135
g1
(g10
g3
NtRp136
(dp137
g13
F11.230254172277078
sg14
I1
sg15
I01
sg16
I7
sg17
I29
sbs(I5
I2
tp138
g1
(g10
g3
NtRp139
(dp140
g13
F10.319321996573406
sg14
I5
sg15
I01
sg16
I2
sg17
I9
sbs(I10
I2
tp141
g1
(g10
g3
NtRp142
(dp143
g13
F-14.152685685534415
sg14
I10
sg15
I01
sg16
I2
sg17
I65
sbssS'_input_nodes'
p144
I1
sS'_output_nodes'
p145
I1
sS'_node_gene_type'
p146
cneat.genome
NodeGene
p147
sS'_conn_gene_type'
p148
g10
sS'fitness'
p149
F0.93646404671085381
sS'parent2_id'
p150
I5586
sS'_id'
p151
I5616
sS'parent1_id'
p152
I5586
sS'_node_genes'
p153
(lp154
g1
(g147
g3
NtRp155
(dp156
S'_bias'
p157
I0
sS'_type'
p158
S'INPUT'
p159
sg151
I1
sS'_response'
p160
F4.9242730000000003
sS'_activation_type'
p161
Nsbag1
(g147
g3
NtRp162
(dp163
g157
F-6.7531317988116566
sg158
S'OUTPUT'
p164
sg151
I2
sg160
F4.0053856709443423
sg161
S'tanh'
p165
sbag1
(g147
g3
NtRp166
(dp167
g157
F2.4899950782074076
sg158
S'HIDDEN'
p168
sg151
I3
sg160
F5.4323226961703046
sg161
g165
sbag1
(g147
g3
NtRp169
(dp170
g157
F-4.5968978796189433
sg158
g168
sg151
I4
sg160
F6.7023450009908849
sg161
g165
sbag1
(g147
g3
NtRp171
(dp172
g157
F4.0011622520573296
sg158
g168
sg151
I5
sg160
F12.311223744900753
sg161
g165
sbag1
(g147
g3
NtRp173
(dp174
g157
F0.2754472350739755
sg158
g168
sg151
I6
sg160
F6.1482148028904389
sg161
g165
sbag1
(g147
g3
NtRp175
(dp176
g157
F-1.232588462465448
sg158
g168
sg151
I7
sg160
F1.044952838465526
sg161
g165
sbag1
(g147
g3
NtRp177
(dp178
g157
F-1.5142164414213899
sg158
g168
sg151
I8
sg160
F12.077719017928011
sg161
g165
sbag1
(g147
g3
NtRp179
(dp180
g157
F-1.2012765529744771
sg158
g168
sg151
I9
sg160
F8.3468051885364449
sg161
g165
sbag1
(g147
g3
NtRp181
(dp182
g157
F0.0072673235991820295
sg158
g168
sg151
I10
sg160
F7.290855241101359
sg161
g165
sbag1
(g147
g3
NtRp183
(dp184
g157
F0.60470492348819715
sg158
g168
sg151
I11
sg160
F9.0076809962246447
sg161
g165
sbag1
(g147
g3
NtRp185
(dp186
g157
F1.2291855045541715
sg158
g168
sg151
I12
sg160
F4.3334816766289137
sg161
g165
sbag1
(g147
g3
NtRp187
(dp188
g157
F-2.1947756501733604
sg158
g168
sg151
I13
sg160
F4.5296335210371597
sg161
g165
sbag1
(g147
g3
NtRp189
(dp190
g157
F4.4586003193752051
sg158
g168
sg151
I14
sg160
F3.8215851433819967
sg161
g165
sbag1
(g147
g3
NtRp191
(dp192
g157
F-1.1506558326932677
sg158
g168
sg151
I15
sg160
F6.0200600702186957
sg161
g165
sbag1
(g147
g3
NtRp193
(dp194
g157
F0.54287781431579518
sg158
g168
sg151
I16
sg160
F3.7615781442337881
sg161
g165
sbasb.