ccopy_reg
_reconstructor
p1
(cneat.chromosome
Chromosome
p2
c__builtin__
object
p3
NtRp4
(dp5
S'species_id'
p6
I6
sS'_connection_genes'
p7
(dp8
(I1
I2
tp9
g1
(cneat.genome
ConnectionGene
p10
g3
NtRp11
(dp12
S'_ConnectionGene__weight'
p13
F-12.96522383476694
sS'_ConnectionGene__in'
p14
I1
sS'_ConnectionGene__enabled'
p15
I01
sS'_ConnectionGene__out'
p16
I2
sS'_ConnectionGene__innov_number'
p17
I1
sbs(I2
I7
tp18
g1
(g10
g3
NtRp19
(dp20
g13
F1
sg14
I2
sg15
I01
sg16
I7
sg17
I31
sbs(I3
I2
tp21
g1
(g10
g3
NtRp22
(dp23
g13
F6.2989452103044918
sg14
I3
sg15
I01
sg16
I2
sg17
I4
sbs(I4
I6
tp24
g1
(g10
g3
NtRp25
(dp26
g13
F6.0575773969719737
sg14
I4
sg15
I01
sg16
I6
sg17
I22
sbs(I1
I4
tp27
g1
(g10
g3
NtRp28
(dp29
g13
F0.614432572005982
sg14
I1
sg15
I01
sg16
I4
sg17
I6
sbs(I1
I5
tp30
g1
(g10
g3
NtRp31
(dp32
g13
F-2.5592237462772713
sg14
I1
sg15
I01
sg16
I5
sg17
I11
sbs(I6
I2
tp33
g1
(g10
g3
NtRp34
(dp35
g13
F-12.282425110714053
sg14
I6
sg15
I01
sg16
I2
sg17
I21
sbs(I2
I3
tp36
g1
(g10
g3
NtRp37
(dp38
g13
F7.4219045328218201
sg14
I2
sg15
I01
sg16
I3
sg17
I5
sbs(I4
I3
tp39
g1
(g10
g3
NtRp40
(dp41
g13
F-1.2417469778449857
sg14
I4
sg15
I01
sg16
I3
sg17
I10
sbs(I2
I2
tp42
g1
(g10
g3
NtRp43
(dp44
g13
F4.9075222855865981
sg14
I2
sg15
I00
sg16
I2
sg17
I2
sbs(I4
I2
tp45
g1
(g10
g3
NtRp46
(dp47
g13
F-14.286907910608591
sg14
I4
sg15
I00
sg16
I2
sg17
I7
sbs(I5
I2
tp48
g1
(g10
g3
NtRp49
(dp50
g13
F-2.2815778073302333
sg14
I5
sg15
I01
sg16
I2
sg17
I9
sbs(I7
I2
tp51
g1
(g10
g3
NtRp52
(dp53
g13
F4.9075222855865981
sg14
I7
sg15
I01
sg16
I2
sg17
I35
sbs(I3
I5
tp54
g1
(g10
g3
NtRp55
(dp56
g13
F-0.08251632142348897
sg14
I3
sg15
I01
sg16
I5
sg17
I14
sbssS'_input_nodes'
p57
I1
sS'_output_nodes'
p58
I1
sS'_node_gene_type'
p59
cneat.genome
NodeGene
p60
sS'_conn_gene_type'
p61
g10
sS'fitness'
p62
F0.96873253979114082
sS'parent2_id'
p63
I1641
sS'_id'
p64
I1713
sS'parent1_id'
p65
I1676
sS'_node_genes'
p66
(lp67
g1
(g60
g3
NtRp68
(dp69
S'_bias'
p70
I0
sS'_type'
p71
S'INPUT'
p72
sg64
I1
sS'_response'
p73
F4.9242730000000003
sS'_activation_type'
p74
Nsbag1
(g60
g3
NtRp75
(dp76
g70
F-0.9083996360768738
sg71
S'OUTPUT'
p77
sg64
I2
sg73
F4.8434521684526111
sg74
S'tanh'
p78
sbag1
(g60
g3
NtRp79
(dp80
g70
F-0.92393361495189841
sg71
S'HIDDEN'
p81
sg64
I3
sg73
F5.4715773797048008
sg74
g78
sbag1
(g60
g3
NtRp82
(dp83
g70
F2.3754014184111631
sg71
g81
sg64
I4
sg73
F4.3954717949682642
sg74
g78
sbag1
(g60
g3
NtRp84
(dp85
g70
F0.2775237567503428
sg71
g81
sg64
I5
sg73
F4.9532474216925184
sg74
g78
sbag1
(g60
g3
NtRp86
(dp87
g70
F0.013600698402251098
sg71
g81
sg64
I6
sg73
F5.6252183680104482
sg74
g78
sbag1
(g60
g3
NtRp88
(dp89
g70
I0
sg71
g81
sg64
I7
sg73
F4.9242730000000003
sg74
g78
sbasb.