ccopy_reg
_reconstructor
p1
(cneat.chromosome
Chromosome
p2
c__builtin__
object
p3
NtRp4
(dp5
S'species_id'
p6
I31
sS'_connection_genes'
p7
(dp8
(I1
I3
tp9
g1
(cneat.genome
ConnectionGene
p10
g3
NtRp11
(dp12
S'_ConnectionGene__weight'
p13
F-8.9074983096670763
sS'_ConnectionGene__in'
p14
I1
sS'_ConnectionGene__enabled'
p15
I01
sS'_ConnectionGene__out'
p16
I3
sS'_ConnectionGene__innov_number'
p17
I3
sbs(I6
I6
tp18
g1
(g10
g3
NtRp19
(dp20
g13
F21.698075167336945
sg14
I6
sg15
I01
sg16
I6
sg17
I39
sbs(I11
I2
tp21
g1
(g10
g3
NtRp22
(dp23
g13
F-3.5486602321423248
sg14
I11
sg15
I01
sg16
I2
sg17
I80
sbs(I1
I15
tp24
g1
(g10
g3
NtRp25
(dp26
g13
F-0.49190056559328432
sg14
I1
sg15
I01
sg16
I15
sg17
I146
sbs(I6
I2
tp27
g1
(g10
g3
NtRp28
(dp29
g13
F26.489129970750504
sg14
I6
sg15
I01
sg16
I2
sg17
I21
sbs(I5
I8
tp30
g1
(g10
g3
NtRp31
(dp32
g13
F9.5772861575926012
sg14
I5
sg15
I01
sg16
I8
sg17
I42
sbs(I1
I2
tp33
g1
(g10
g3
NtRp34
(dp35
g13
F-18.874631269499389
sg14
I1
sg15
I01
sg16
I2
sg17
I1
sbs(I12
I2
tp36
g1
(g10
g3
NtRp37
(dp38
g13
F9.6792324634412594
sg14
I12
sg15
I01
sg16
I2
sg17
I82
sbs(I3
I3
tp39
g1
(g10
g3
NtRp40
(dp41
g13
F-7.5342715642772013
sg14
I3
sg15
I01
sg16
I3
sg17
I15
sbs(I2
I9
tp42
g1
(g10
g3
NtRp43
(dp44
g13
F18.327417601849422
sg14
I2
sg15
I01
sg16
I9
sg17
I53
sbs(I13
I3
tp45
g1
(g10
g3
NtRp46
(dp47
g13
F7.0788154903145637
sg14
I13
sg15
I01
sg16
I3
sg17
I92
sbs(I8
I10
tp48
g1
(g10
g3
NtRp49
(dp50
g13
F28.77598758512854
sg14
I8
sg15
I01
sg16
I10
sg17
I74
sbs(I4
I13
tp51
g1
(g10
g3
NtRp52
(dp53
g13
F-7.2264936669627833
sg14
I4
sg15
I01
sg16
I13
sg17
I102
sbs(I1
I5
tp54
g1
(g10
g3
NtRp55
(dp56
g13
F-12.890717609598507
sg14
I1
sg15
I00
sg16
I5
sg17
I11
sbs(I2
I2
tp57
g1
(g10
g3
NtRp58
(dp59
g13
F9.1657532616468398
sg14
I2
sg15
I01
sg16
I2
sg17
I2
sbs(I3
I2
tp60
g1
(g10
g3
NtRp61
(dp62
g13
F-29.567033736212849
sg14
I3
sg15
I01
sg16
I2
sg17
I4
sbs(I2
I6
tp63
g1
(g10
g3
NtRp64
(dp65
g13
F9.7938604546568602
sg14
I2
sg15
I01
sg16
I6
sg17
I38
sbs(I8
I2
tp66
g1
(g10
g3
NtRp67
(dp68
g13
F-10.337744841461779
sg14
I8
sg15
I01
sg16
I2
sg17
I43
sbs(I5
I11
tp69
g1
(g10
g3
NtRp70
(dp71
g13
F-7.7441855343574932
sg14
I5
sg15
I01
sg16
I11
sg17
I79
sbs(I15
I3
tp72
g1
(g10
g3
NtRp73
(dp74
g13
F-3.9109736014241427
sg14
I15
sg15
I01
sg16
I3
sg17
I147
sbs(I9
I3
tp75
g1
(g10
g3
NtRp76
(dp77
g13
F-12.329139738784665
sg14
I9
sg15
I01
sg16
I3
sg17
I60
sbs(I1
I4
tp78
g1
(g10
g3
NtRp79
(dp80
g13
F-28.16105899335794
sg14
I1
sg15
I01
sg16
I4
sg17
I6
sbs(I9
I10
tp81
g1
(g10
g3
NtRp82
(dp83
g13
F-20.0418356734517
sg14
I9
sg15
I01
sg16
I10
sg17
I90
sbs(I7
I5
tp84
g1
(g10
g3
NtRp85
(dp86
g13
F-4.617925112357196
sg14
I7
sg15
I01
sg16
I5
sg17
I30
sbs(I2
I3
tp87
g1
(g10
g3
NtRp88
(dp89
g13
F1.531292073798159
sg14
I2
sg15
I01
sg16
I3
sg17
I5
sbs(I1
I9
tp90
g1
(g10
g3
NtRp91
(dp92
g13
F4.116610033900221
sg14
I1
sg15
I01
sg16
I9
sg17
I58
sbs(I4
I2
tp93
g1
(g10
g3
NtRp94
(dp95
g13
F-16.757817171473096
sg14
I4
sg15
I01
sg16
I2
sg17
I7
sbs(I14
I2
tp96
g1
(g10
g3
NtRp97
(dp98
g13
F-10.995977718111938
sg14
I14
sg15
I01
sg16
I2
sg17
I138
sbs(I3
I5
tp99
g1
(g10
g3
NtRp100
(dp101
g13
F-2.2999897913985352
sg14
I3
sg15
I01
sg16
I5
sg17
I14
sbs(I10
I5
tp102
g1
(g10
g3
NtRp103
(dp104
g13
F-0.22570316346975883
sg14
I10
sg15
I01
sg16
I5
sg17
I76
sbs(I4
I6
tp105
g1
(g10
g3
NtRp106
(dp107
g13
F-11.007369466557936
sg14
I4
sg15
I01
sg16
I6
sg17
I22
sbs(I15
I2
tp108
g1
(g10
g3
NtRp109
(dp110
g13
F6.5083396747074129
sg14
I15
sg15
I01
sg16
I2
sg17
I170
sbs(I8
I12
tp111
g1
(g10
g3
NtRp112
(dp113
g13
F14.276919677761851
sg14
I8
sg15
I01
sg16
I12
sg17
I88
sbs(I11
I3
tp114
g1
(g10
g3
NtRp115
(dp116
g13
F-12.045318393381212
sg14
I11
sg15
I01
sg16
I3
sg17
I78
sbs(I3
I8
tp117
g1
(g10
g3
NtRp118
(dp119
g13
F14.341599561733531
sg14
I3
sg15
I01
sg16
I8
sg17
I44
sbs(I8
I14
tp120
g1
(g10
g3
NtRp121
(dp122
g13
F-6.2963687396821095
sg14
I8
sg15
I01
sg16
I14
sg17
I119
sbs(I4
I3
tp123
g1
(g10
g3
NtRp124
(dp125
g13
F8.3340383347576221
sg14
I4
sg15
I00
sg16
I3
sg17
I10
sbs(I1
I7
tp126
g1
(g10
g3
NtRp127
(dp128
g13
F8.607765023304232
sg14
I1
sg15
I01
sg16
I7
sg17
I29
sbs(I5
I2
tp129
g1
(g10
g3
NtRp130
(dp131
g13
F3.5971509145803315
sg14
I5
sg15
I01
sg16
I2
sg17
I9
sbs(I10
I2
tp132
g1
(g10
g3
NtRp133
(dp134
g13
F-11.694757533600882
sg14
I10
sg15
I01
sg16
I2
sg17
I65
sbssS'_input_nodes'
p135
I1
sS'_output_nodes'
p136
I1
sS'_node_gene_type'
p137
cneat.genome
NodeGene
p138
sS'_conn_gene_type'
p139
g10
sS'fitness'
p140
F0.9858835818922661
sS'parent2_id'
p141
I5283
sS'_id'
p142
I5300
sS'parent1_id'
p143
I5289
sS'_node_genes'
p144
(lp145
g1
(g138
g3
NtRp146
(dp147
S'_bias'
p148
I0
sS'_type'
p149
S'INPUT'
p150
sg142
I1
sS'_response'
p151
F4.9242730000000003
sS'_activation_type'
p152
Nsbag1
(g138
g3
NtRp153
(dp154
g148
F-6.4381845632175523
sg149
S'OUTPUT'
p155
sg142
I2
sg151
F3.5821849425770282
sg152
S'tanh'
p156
sbag1
(g138
g3
NtRp157
(dp158
g148
F1.617933407610634
sg149
S'HIDDEN'
p159
sg142
I3
sg151
F6.0359533565051553
sg152
g156
sbag1
(g138
g3
NtRp160
(dp161
g148
F-3.4002347844700731
sg149
g159
sg142
I4
sg151
F8.2723881194355009
sg152
g156
sbag1
(g138
g3
NtRp162
(dp163
g148
F4.0670210395862485
sg149
g159
sg142
I5
sg151
F12.035013873548282
sg152
g156
sbag1
(g138
g3
NtRp164
(dp165
g148
F0.078943945310519639
sg149
g159
sg142
I6
sg151
F5.9506067789792949
sg152
g156
sbag1
(g138
g3
NtRp166
(dp167
g148
F-2.4883861151122102
sg149
g159
sg142
I7
sg151
F1.0412261481906642
sg152
g156
sbag1
(g138
g3
NtRp168
(dp169
g148
F-0.84512062575838565
sg149
g159
sg142
I8
sg151
F10.748042739552449
sg152
g156
sbag1
(g138
g3
NtRp170
(dp171
g148
F-0.72446690460938656
sg149
g159
sg142
I9
sg151
F7.6108775826528099
sg152
g156
sbag1
(g138
g3
NtRp172
(dp173
g148
F-0.7716155171179262
sg149
g159
sg142
I10
sg151
F7.3771250845717731
sg152
g156
sbag1
(g138
g3
NtRp174
(dp175
g148
F0.3132882943371631
sg149
g159
sg142
I11
sg151
F9.6744965723867455
sg152
g156
sbag1
(g138
g3
NtRp176
(dp177
g148
F1.4332016627586888
sg149
g159
sg142
I12
sg151
F4.7758507636354848
sg152
g156
sbag1
(g138
g3
NtRp178
(dp179
g148
F-2.8045203380787882
sg149
g159
sg142
I13
sg151
F4.3597373606583885
sg152
g156
sbag1
(g138
g3
NtRp180
(dp181
g148
F2.842938910599659
sg149
g159
sg142
I14
sg151
F3.7699499365767166
sg152
g156
sbag1
(g138
g3
NtRp182
(dp183
g148
F-2.0729746775343734
sg149
g159
sg142
I15
sg151
F5.556958807835974
sg152
g156
sbasb.