ccopy_reg
_reconstructor
p1
(cneat.chromosome
Chromosome
p2
c__builtin__
object
p3
NtRp4
(dp5
S'species_id'
p6
I9
sS'_connection_genes'
p7
(dp8
(I1
I2
tp9
g1
(cneat.genome
ConnectionGene
p10
g3
NtRp11
(dp12
S'_ConnectionGene__weight'
p13
F-16.850501678587204
sS'_ConnectionGene__in'
p14
I1
sS'_ConnectionGene__enabled'
p15
I01
sS'_ConnectionGene__out'
p16
I2
sS'_ConnectionGene__innov_number'
p17
I1
sbs(I3
I2
tp18
g1
(g10
g3
NtRp19
(dp20
g13
F-13.260115931695905
sg14
I3
sg15
I01
sg16
I2
sg17
I4
sbs(I4
I6
tp21
g1
(g10
g3
NtRp22
(dp23
g13
F3.9835476710142976
sg14
I4
sg15
I01
sg16
I6
sg17
I22
sbs(I1
I4
tp24
g1
(g10
g3
NtRp25
(dp26
g13
F8.1060603995665677
sg14
I1
sg15
I01
sg16
I4
sg17
I6
sbs(I6
I3
tp27
g1
(g10
g3
NtRp28
(dp29
g13
F-1.0475563829295345
sg14
I6
sg15
I01
sg16
I3
sg17
I23
sbs(I1
I5
tp30
g1
(g10
g3
NtRp31
(dp32
g13
F-1.1260911586125852
sg14
I1
sg15
I01
sg16
I5
sg17
I11
sbs(I6
I2
tp33
g1
(g10
g3
NtRp34
(dp35
g13
F14.136105965629277
sg14
I6
sg15
I01
sg16
I2
sg17
I21
sbs(I2
I3
tp36
g1
(g10
g3
NtRp37
(dp38
g13
F0.66590943068126851
sg14
I2
sg15
I01
sg16
I3
sg17
I5
sbs(I4
I3
tp39
g1
(g10
g3
NtRp40
(dp41
g13
F5.337920182226676
sg14
I4
sg15
I01
sg16
I3
sg17
I10
sbs(I2
I2
tp42
g1
(g10
g3
NtRp43
(dp44
g13
F10.903874842929879
sg14
I2
sg15
I00
sg16
I2
sg17
I2
sbs(I4
I2
tp45
g1
(g10
g3
NtRp46
(dp47
g13
F7.3140619258591597
sg14
I4
sg15
I00
sg16
I2
sg17
I7
sbs(I2
I5
tp48
g1
(g10
g3
NtRp49
(dp50
g13
F-1.568872914830695
sg14
I2
sg15
I01
sg16
I5
sg17
I18
sbs(I5
I2
tp51
g1
(g10
g3
NtRp52
(dp53
g13
F-8.3067940855153957
sg14
I5
sg15
I01
sg16
I2
sg17
I9
sbssS'_input_nodes'
p54
I1
sS'_output_nodes'
p55
I1
sS'_node_gene_type'
p56
cneat.genome
NodeGene
p57
sS'_conn_gene_type'
p58
g10
sS'fitness'
p59
F0.95231786737383262
sS'parent2_id'
p60
I1985
sS'_id'
p61
I2020
sS'parent1_id'
p62
I1985
sS'_node_genes'
p63
(lp64
g1
(g57
g3
NtRp65
(dp66
S'_bias'
p67
I0
sS'_type'
p68
S'INPUT'
p69
sg61
I1
sS'_response'
p70
F4.9242730000000003
sS'_activation_type'
p71
Nsbag1
(g57
g3
NtRp72
(dp73
g67
F-3.6331151763377609
sg68
S'OUTPUT'
p74
sg61
I2
sg70
F5.9095347667161819
sg71
S'tanh'
p75
sbag1
(g57
g3
NtRp76
(dp77
g67
F-1.1917050715356519
sg68
S'HIDDEN'
p78
sg61
I3
sg70
F4.5703571225103801
sg71
g75
sbag1
(g57
g3
NtRp79
(dp80
g67
F-1.5171599586807902
sg68
g78
sg61
I4
sg70
F4.5117780934691316
sg71
g75
sbag1
(g57
g3
NtRp81
(dp82
g67
F1.7216654407328122
sg68
g78
sg61
I5
sg70
F7.2482304398956625
sg71
g75
sbag1
(g57
g3
NtRp83
(dp84
g67
F-1.2343126581132289
sg68
g78
sg61
I6
sg70
F6.0374510732317157
sg71
g75
sbasb.