ccopy_reg
_reconstructor
p1
(cneat.chromosome
Chromosome
p2
c__builtin__
object
p3
NtRp4
(dp5
S'species_id'
p6
I38
sS'_connection_genes'
p7
(dp8
(I1
I3
tp9
g1
(cneat.genome
ConnectionGene
p10
g3
NtRp11
(dp12
S'_ConnectionGene__weight'
p13
F0.39224824625479709
sS'_ConnectionGene__in'
p14
I1
sS'_ConnectionGene__enabled'
p15
I01
sS'_ConnectionGene__out'
p16
I3
sS'_ConnectionGene__innov_number'
p17
I3
sbs(I6
I6
tp18
g1
(g10
g3
NtRp19
(dp20
g13
F19.853826502500336
sg14
I6
sg15
I01
sg16
I6
sg17
I39
sbs(I11
I2
tp21
g1
(g10
g3
NtRp22
(dp23
g13
F-7.6682950909506555
sg14
I11
sg15
I01
sg16
I2
sg17
I80
sbs(I1
I15
tp24
g1
(g10
g3
NtRp25
(dp26
g13
F-15.550658634520952
sg14
I1
sg15
I01
sg16
I15
sg17
I146
sbs(I6
I2
tp27
g1
(g10
g3
NtRp28
(dp29
g13
F27.91293042105098
sg14
I6
sg15
I01
sg16
I2
sg17
I21
sbs(I16
I14
tp30
g1
(g10
g3
NtRp31
(dp32
g13
F-30
sg14
I16
sg15
I01
sg16
I14
sg17
I193
sbs(I5
I8
tp33
g1
(g10
g3
NtRp34
(dp35
g13
F22.931607897593263
sg14
I5
sg15
I01
sg16
I8
sg17
I42
sbs(I1
I2
tp36
g1
(g10
g3
NtRp37
(dp38
g13
F-19.084957481684974
sg14
I1
sg15
I01
sg16
I2
sg17
I1
sbs(I12
I2
tp39
g1
(g10
g3
NtRp40
(dp41
g13
F17.38058853167167
sg14
I12
sg15
I01
sg16
I2
sg17
I82
sbs(I2
I19
tp42
g1
(g10
g3
NtRp43
(dp44
g13
F19.088730700280259
sg14
I2
sg15
I01
sg16
I19
sg17
I210
sbs(I3
I3
tp45
g1
(g10
g3
NtRp46
(dp47
g13
F-8.8571545034038657
sg14
I3
sg15
I01
sg16
I3
sg17
I15
sbs(I2
I9
tp48
g1
(g10
g3
NtRp49
(dp50
g13
F17.421718968477641
sg14
I2
sg15
I01
sg16
I9
sg17
I53
sbs(I13
I3
tp51
g1
(g10
g3
NtRp52
(dp53
g13
F3.5951430276196215
sg14
I13
sg15
I01
sg16
I3
sg17
I92
sbs(I13
I9
tp54
g1
(g10
g3
NtRp55
(dp56
g13
F-14.200044253368228
sg14
I13
sg15
I01
sg16
I9
sg17
I112
sbs(I8
I10
tp57
g1
(g10
g3
NtRp58
(dp59
g13
F25.258478161449233
sg14
I8
sg15
I00
sg16
I10
sg17
I74
sbs(I4
I13
tp60
g1
(g10
g3
NtRp61
(dp62
g13
F-2.8963336337933598
sg14
I4
sg15
I01
sg16
I13
sg17
I102
sbs(I1
I5
tp63
g1
(g10
g3
NtRp64
(dp65
g13
F-13.548787047804225
sg14
I1
sg15
I01
sg16
I5
sg17
I11
sbs(I9
I11
tp66
g1
(g10
g3
NtRp67
(dp68
g13
F-7.3324258188104121
sg14
I9
sg15
I00
sg16
I11
sg17
I101
sbs(I19
I3
tp69
g1
(g10
g3
NtRp70
(dp71
g13
F17.785855367151328
sg14
I19
sg15
I01
sg16
I3
sg17
I212
sbs(I2
I2
tp72
g1
(g10
g3
NtRp73
(dp74
g13
F7.4961739058182451
sg14
I2
sg15
I01
sg16
I2
sg17
I2
sbs(I8
I16
tp75
g1
(g10
g3
NtRp76
(dp77
g13
F0.0011537536257866937
sg14
I8
sg15
I01
sg16
I16
sg17
I177
sbs(I8
I18
tp78
g1
(g10
g3
NtRp79
(dp80
g13
F18.861178299660455
sg14
I8
sg15
I01
sg16
I18
sg17
I208
sbs(I3
I2
tp81
g1
(g10
g3
NtRp82
(dp83
g13
F-30
sg14
I3
sg15
I01
sg16
I2
sg17
I4
sbs(I2
I6
tp84
g1
(g10
g3
NtRp85
(dp86
g13
F-5.8633520758979065
sg14
I2
sg15
I00
sg16
I6
sg17
I38
sbs(I8
I2
tp87
g1
(g10
g3
NtRp88
(dp89
g13
F-25.401609019734348
sg14
I8
sg15
I01
sg16
I2
sg17
I43
sbs(I5
I11
tp90
g1
(g10
g3
NtRp91
(dp92
g13
F-10.546421249632676
sg14
I5
sg15
I00
sg16
I11
sg17
I79
sbs(I15
I3
tp93
g1
(g10
g3
NtRp94
(dp95
g13
F-8.7607360361550679
sg14
I15
sg15
I01
sg16
I3
sg17
I147
sbs(I9
I3
tp96
g1
(g10
g3
NtRp97
(dp98
g13
F-1.3114385987621868
sg14
I9
sg15
I01
sg16
I3
sg17
I60
sbs(I2
I20
tp99
g1
(g10
g3
NtRp100
(dp101
g13
F2.8097977504570144
sg14
I2
sg15
I01
sg16
I20
sg17
I220
sbs(I1
I4
tp102
g1
(g10
g3
NtRp103
(dp104
g13
F-27.151476678652372
sg14
I1
sg15
I01
sg16
I4
sg17
I6
sbs(I9
I10
tp105
g1
(g10
g3
NtRp106
(dp107
g13
F-10.749633459051472
sg14
I9
sg15
I01
sg16
I10
sg17
I90
sbs(I7
I5
tp108
g1
(g10
g3
NtRp109
(dp110
g13
F-4.2498517007813081
sg14
I7
sg15
I01
sg16
I5
sg17
I30
sbs(I2
I3
tp111
g1
(g10
g3
NtRp112
(dp113
g13
F10.902888545860025
sg14
I2
sg15
I00
sg16
I3
sg17
I5
sbs(I1
I9
tp114
g1
(g10
g3
NtRp115
(dp116
g13
F21.340094331573823
sg14
I1
sg15
I01
sg16
I9
sg17
I58
sbs(I21
I11
tp117
g1
(g10
g3
NtRp118
(dp119
g13
F-11.290864219086876
sg14
I21
sg15
I01
sg16
I11
sg17
I258
sbs(I8
I17
tp120
g1
(g10
g3
NtRp121
(dp122
g13
F-6.3539405847776731
sg14
I8
sg15
I01
sg16
I17
sg17
I205
sbs(I4
I2
tp123
g1
(g10
g3
NtRp124
(dp125
g13
F-12.852564220704675
sg14
I4
sg15
I01
sg16
I2
sg17
I7
sbs(I14
I2
tp126
g1
(g10
g3
NtRp127
(dp128
g13
F-0.88673083660705432
sg14
I14
sg15
I01
sg16
I2
sg17
I138
sbs(I3
I5
tp129
g1
(g10
g3
NtRp130
(dp131
g13
F3.1499445544208524
sg14
I3
sg15
I01
sg16
I5
sg17
I14
sbs(I10
I5
tp132
g1
(g10
g3
NtRp133
(dp134
g13
F2.5655241792595569
sg14
I10
sg15
I01
sg16
I5
sg17
I76
sbs(I4
I6
tp135
g1
(g10
g3
NtRp136
(dp137
g13
F-19.004912673340272
sg14
I4
sg15
I01
sg16
I6
sg17
I22
sbs(I15
I2
tp138
g1
(g10
g3
NtRp139
(dp140
g13
F0.73472237170996801
sg14
I15
sg15
I01
sg16
I2
sg17
I170
sbs(I8
I12
tp141
g1
(g10
g3
NtRp142
(dp143
g13
F1.342779730331189
sg14
I8
sg15
I01
sg16
I12
sg17
I88
sbs(I18
I10
tp144
g1
(g10
g3
NtRp145
(dp146
g13
F13.558033574085705
sg14
I18
sg15
I01
sg16
I10
sg17
I209
sbs(I5
I21
tp147
g1
(g10
g3
NtRp148
(dp149
g13
F4.0487934931729797
sg14
I5
sg15
I01
sg16
I21
sg17
I249
sbs(I11
I3
tp150
g1
(g10
g3
NtRp151
(dp152
g13
F-12.75587560129469
sg14
I11
sg15
I01
sg16
I3
sg17
I78
sbs(I3
I8
tp153
g1
(g10
g3
NtRp154
(dp155
g13
F17.224980318421142
sg14
I3
sg15
I01
sg16
I8
sg17
I44
sbs(I8
I14
tp156
g1
(g10
g3
NtRp157
(dp158
g13
F-6.481422368985311
sg14
I8
sg15
I01
sg16
I14
sg17
I119
sbs(I20
I6
tp159
g1
(g10
g3
NtRp160
(dp161
g13
F-1.5812188873754911
sg14
I20
sg15
I01
sg16
I6
sg17
I221
sbs(I17
I12
tp162
g1
(g10
g3
NtRp163
(dp164
g13
F-0.74817019155153153
sg14
I17
sg15
I01
sg16
I12
sg17
I207
sbs(I1
I7
tp165
g1
(g10
g3
NtRp166
(dp167
g13
F8.6045142718734624
sg14
I1
sg15
I01
sg16
I7
sg17
I29
sbs(I4
I3
tp168
g1
(g10
g3
NtRp169
(dp170
g13
F10.003810918866398
sg14
I4
sg15
I01
sg16
I3
sg17
I10
sbs(I5
I2
tp171
g1
(g10
g3
NtRp172
(dp173
g13
F-0.012891368867219616
sg14
I5
sg15
I01
sg16
I2
sg17
I9
sbs(I10
I2
tp174
g1
(g10
g3
NtRp175
(dp176
g13
F-15.396883962223873
sg14
I10
sg15
I01
sg16
I2
sg17
I65
sbssS'_input_nodes'
p177
I1
sS'_output_nodes'
p178
I1
sS'_node_gene_type'
p179
cneat.genome
NodeGene
p180
sS'_conn_gene_type'
p181
g10
sS'fitness'
p182
F0.89623827423594848
sS'parent2_id'
p183
I6452
sS'_id'
p184
I6525
sS'parent1_id'
p185
I6489
sS'_node_genes'
p186
(lp187
g1
(g180
g3
NtRp188
(dp189
S'_bias'
p190
I0
sS'_type'
p191
S'INPUT'
p192
sg184
I1
sS'_response'
p193
F4.9242730000000003
sS'_activation_type'
p194
Nsbag1
(g180
g3
NtRp195
(dp196
g190
F-6.6123338410818278
sg191
S'OUTPUT'
p197
sg184
I2
sg193
F5.5573898593439779
sg194
S'tanh'
p198
sbag1
(g180
g3
NtRp199
(dp200
g190
F1.5695189838433765
sg191
S'HIDDEN'
p201
sg184
I3
sg193
F2.7956670986237229
sg194
g198
sbag1
(g180
g3
NtRp202
(dp203
g190
F-4.4164906359431004
sg191
g201
sg184
I4
sg193
F3.0670209068012975
sg194
g198
sbag1
(g180
g3
NtRp204
(dp205
g190
F4.799423513017401
sg191
g201
sg184
I5
sg193
F13.099814249209038
sg194
g198
sbag1
(g180
g3
NtRp206
(dp207
g190
F0.48524572837327984
sg191
g201
sg184
I6
sg193
F4.4785176564325111
sg194
g198
sbag1
(g180
g3
NtRp208
(dp209
g190
F-1.458172861044609
sg191
g201
sg184
I7
sg193
F-1.4712719854761025
sg194
g198
sbag1
(g180
g3
NtRp210
(dp211
g190
F-2.8106548261510267
sg191
g201
sg184
I8
sg193
F9.1813898907277789
sg194
g198
sbag1
(g180
g3
NtRp212
(dp213
g190
F-1.6668917481905694
sg191
g201
sg184
I9
sg193
F7.5334159512885499
sg194
g198
sbag1
(g180
g3
NtRp214
(dp215
g190
F-0.67518971131564176
sg191
g201
sg184
I10
sg193
F7.3425846260931955
sg194
g198
sbag1
(g180
g3
NtRp216
(dp217
g190
F0.30705969168780156
sg191
g201
sg184
I11
sg193
F6.6679423149052433
sg194
g198
sbag1
(g180
g3
NtRp218
(dp219
g190
F-0.59725171028047774
sg191
g201
sg184
I12
sg193
F4.7474786685778874
sg194
g198
sbag1
(g180
g3
NtRp220
(dp221
g190
F-1.8519403225539892
sg191
g201
sg184
I13
sg193
F4.0432305525481684
sg194
g198
sbag1
(g180
g3
NtRp222
(dp223
g190
F4.2751544013755369
sg191
g201
sg184
I14
sg193
F4.2176575826962193
sg194
g198
sbag1
(g180
g3
NtRp224
(dp225
g190
F-2.9769169322451132
sg191
g201
sg184
I15
sg193
F6.1448370268120547
sg194
g198
sbag1
(g180
g3
NtRp226
(dp227
g190
F-2.2754259055609607
sg191
g201
sg184
I16
sg193
F3.4518183289611422
sg194
g198
sbag1
(g180
g3
NtRp228
(dp229
g190
F0.45665841569000165
sg191
g201
sg184
I17
sg193
F6.3734742497756933
sg194
g198
sbag1
(g180
g3
NtRp230
(dp231
g190
F0.55045227396457208
sg191
g201
sg184
I18
sg193
F4.9802025385332396
sg194
g198
sbag1
(g180
g3
NtRp232
(dp233
g190
F-0.2569208217794367
sg191
g201
sg184
I19
sg193
F2.8160332597564834
sg194
g198
sbag1
(g180
g3
NtRp234
(dp235
g190
F0.26831403089548478
sg191
g201
sg184
I20
sg193
F6.0079646727678435
sg194
g198
sbag1
(g180
g3
NtRp236
(dp237
g190
I0
sg191
g201
sg184
I21
sg193
F4.0385034906815855
sg194
g198
sbasb.