ccopy_reg
_reconstructor
p1
(cneat.chromosome
Chromosome
p2
c__builtin__
object
p3
NtRp4
(dp5
S'species_id'
p6
I6
sS'_connection_genes'
p7
(dp8
(I1
I2
tp9
g1
(cneat.genome
ConnectionGene
p10
g3
NtRp11
(dp12
S'_ConnectionGene__weight'
p13
F-11.157774735913561
sS'_ConnectionGene__in'
p14
I1
sS'_ConnectionGene__enabled'
p15
I01
sS'_ConnectionGene__out'
p16
I2
sS'_ConnectionGene__innov_number'
p17
I1
sbs(I3
I2
tp18
g1
(g10
g3
NtRp19
(dp20
g13
F2.0256603045305668
sg14
I3
sg15
I01
sg16
I2
sg17
I4
sbs(I4
I6
tp21
g1
(g10
g3
NtRp22
(dp23
g13
F1
sg14
I4
sg15
I01
sg16
I6
sg17
I22
sbs(I1
I4
tp24
g1
(g10
g3
NtRp25
(dp26
g13
F-1.1961287736320285
sg14
I1
sg15
I01
sg16
I4
sg17
I6
sbs(I1
I5
tp27
g1
(g10
g3
NtRp28
(dp29
g13
F-8.4938178553654939
sg14
I1
sg15
I01
sg16
I5
sg17
I11
sbs(I6
I2
tp30
g1
(g10
g3
NtRp31
(dp32
g13
F-10.663908344207938
sg14
I6
sg15
I01
sg16
I2
sg17
I21
sbs(I2
I3
tp33
g1
(g10
g3
NtRp34
(dp35
g13
F7.8430183886096643
sg14
I2
sg15
I01
sg16
I3
sg17
I5
sbs(I4
I3
tp36
g1
(g10
g3
NtRp37
(dp38
g13
F5.1349454711372724
sg14
I4
sg15
I01
sg16
I3
sg17
I10
sbs(I2
I2
tp39
g1
(g10
g3
NtRp40
(dp41
g13
F9.1314520835383775
sg14
I2
sg15
I00
sg16
I2
sg17
I2
sbs(I4
I2
tp42
g1
(g10
g3
NtRp43
(dp44
g13
F-10.663908344207938
sg14
I4
sg15
I00
sg16
I2
sg17
I7
sbs(I5
I2
tp45
g1
(g10
g3
NtRp46
(dp47
g13
F-12.055594449580436
sg14
I5
sg15
I01
sg16
I2
sg17
I9
sbs(I3
I5
tp48
g1
(g10
g3
NtRp49
(dp50
g13
F0.61957905253425904
sg14
I3
sg15
I01
sg16
I5
sg17
I14
sbssS'_input_nodes'
p51
I1
sS'_output_nodes'
p52
I1
sS'_node_gene_type'
p53
cneat.genome
NodeGene
p54
sS'_conn_gene_type'
p55
g10
sS'fitness'
p56
F0.96448730124700788
sS'parent2_id'
p57
I1224
sS'_id'
p58
I1250
sS'parent1_id'
p59
I1224
sS'_node_genes'
p60
(lp61
g1
(g54
g3
NtRp62
(dp63
S'_bias'
p64
I0
sS'_type'
p65
S'INPUT'
p66
sg58
I1
sS'_response'
p67
F4.9242730000000003
sS'_activation_type'
p68
Nsbag1
(g54
g3
NtRp69
(dp70
g64
F0.48145069160102744
sg65
S'OUTPUT'
p71
sg58
I2
sg67
F4.7467108417711295
sg68
S'tanh'
p72
sbag1
(g54
g3
NtRp73
(dp74
g64
F-1.193926995019214
sg65
S'HIDDEN'
p75
sg58
I3
sg67
F4.62159504058015
sg68
g72
sbag1
(g54
g3
NtRp76
(dp77
g64
F0.88819011750065879
sg65
g75
sg58
I4
sg67
F4.5216550677867842
sg68
g72
sbag1
(g54
g3
NtRp78
(dp79
g64
F-0.0028135599970814384
sg65
g75
sg58
I5
sg67
F5.0677237887379487
sg68
g72
sbag1
(g54
g3
NtRp80
(dp81
g64
I0
sg65
g75
sg58
I6
sg67
F4.9242730000000003
sg68
g72
sbasb.