ccopy_reg
_reconstructor
p1
(cneat.chromosome
Chromosome
p2
c__builtin__
object
p3
NtRp4
(dp5
S'species_id'
p6
I7
sS'_connection_genes'
p7
(dp8
(I1
I2
tp9
g1
(cneat.genome
ConnectionGene
p10
g3
NtRp11
(dp12
S'_ConnectionGene__weight'
p13
F-12.475370587308161
sS'_ConnectionGene__in'
p14
I1
sS'_ConnectionGene__enabled'
p15
I01
sS'_ConnectionGene__out'
p16
I2
sS'_ConnectionGene__innov_number'
p17
I1
sbs(I3
I2
tp18
g1
(g10
g3
NtRp19
(dp20
g13
F-25.587852313018491
sg14
I3
sg15
I01
sg16
I2
sg17
I4
sbs(I4
I6
tp21
g1
(g10
g3
NtRp22
(dp23
g13
F1.663052416091543
sg14
I4
sg15
I01
sg16
I6
sg17
I22
sbs(I1
I4
tp24
g1
(g10
g3
NtRp25
(dp26
g13
F7.5177605116317183
sg14
I1
sg15
I01
sg16
I4
sg17
I6
sbs(I1
I5
tp27
g1
(g10
g3
NtRp28
(dp29
g13
F2.3586301264456302
sg14
I1
sg15
I01
sg16
I5
sg17
I11
sbs(I6
I2
tp30
g1
(g10
g3
NtRp31
(dp32
g13
F-5.1011139429202466
sg14
I6
sg15
I01
sg16
I2
sg17
I21
sbs(I2
I3
tp33
g1
(g10
g3
NtRp34
(dp35
g13
F6.2707334157866139
sg14
I2
sg15
I01
sg16
I3
sg17
I5
sbs(I4
I3
tp36
g1
(g10
g3
NtRp37
(dp38
g13
F-2.3854290036691776
sg14
I4
sg15
I01
sg16
I3
sg17
I10
sbs(I2
I2
tp39
g1
(g10
g3
NtRp40
(dp41
g13
F8.3135030742756832
sg14
I2
sg15
I00
sg16
I2
sg17
I2
sbs(I4
I2
tp42
g1
(g10
g3
NtRp43
(dp44
g13
F4.6754992784836933
sg14
I4
sg15
I00
sg16
I2
sg17
I7
sbs(I5
I2
tp45
g1
(g10
g3
NtRp46
(dp47
g13
F-19.302725666222557
sg14
I5
sg15
I01
sg16
I2
sg17
I9
sbssS'_input_nodes'
p48
I1
sS'_output_nodes'
p49
I1
sS'_node_gene_type'
p50
cneat.genome
NodeGene
p51
sS'_conn_gene_type'
p52
g10
sS'fitness'
p53
F0.9070570093524456
sS'parent2_id'
p54
I1479
sS'_id'
p55
I1496
sS'parent1_id'
p56
I1479
sS'_node_genes'
p57
(lp58
g1
(g51
g3
NtRp59
(dp60
S'_bias'
p61
I0
sS'_type'
p62
S'INPUT'
p63
sg55
I1
sS'_response'
p64
F4.9242730000000003
sS'_activation_type'
p65
Nsbag1
(g51
g3
NtRp66
(dp67
g61
F-2.6174625537356597
sg62
S'OUTPUT'
p68
sg55
I2
sg64
F6.443996637497289
sg65
S'tanh'
p69
sbag1
(g51
g3
NtRp70
(dp71
g61
F-1.6938197995122517
sg62
S'HIDDEN'
p72
sg55
I3
sg64
F4.8622130801826087
sg65
g69
sbag1
(g51
g3
NtRp73
(dp74
g61
F-1.7202108516018075
sg62
g72
sg55
I4
sg64
F4.5635198022628476
sg65
g69
sbag1
(g51
g3
NtRp75
(dp76
g61
F1.5097597458317422
sg62
g72
sg55
I5
sg64
F7.5350361991301096
sg65
g69
sbag1
(g51
g3
NtRp77
(dp78
g61
F0.29526028550839978
sg62
g72
sg55
I6
sg64
F6.1338793540965231
sg65
g69
sbasb.