ccopy_reg
_reconstructor
p1
(cneat.chromosome
Chromosome
p2
c__builtin__
object
p3
NtRp4
(dp5
S'species_id'
p6
I19
sS'_connection_genes'
p7
(dp8
(I1
I3
tp9
g1
(cneat.genome
ConnectionGene
p10
g3
NtRp11
(dp12
S'_ConnectionGene__weight'
p13
F-5.9160117110006185
sS'_ConnectionGene__in'
p14
I1
sS'_ConnectionGene__enabled'
p15
I00
sS'_ConnectionGene__out'
p16
I3
sS'_ConnectionGene__innov_number'
p17
I3
sbs(I6
I6
tp18
g1
(g10
g3
NtRp19
(dp20
g13
F19.116912323717816
sg14
I6
sg15
I01
sg16
I6
sg17
I39
sbs(I6
I2
tp21
g1
(g10
g3
NtRp22
(dp23
g13
F16.266305820828894
sg14
I6
sg15
I01
sg16
I2
sg17
I21
sbs(I5
I8
tp24
g1
(g10
g3
NtRp25
(dp26
g13
F8.862547165103944
sg14
I5
sg15
I01
sg16
I8
sg17
I42
sbs(I1
I2
tp27
g1
(g10
g3
NtRp28
(dp29
g13
F-22.360228688272297
sg14
I1
sg15
I01
sg16
I2
sg17
I1
sbs(I3
I3
tp30
g1
(g10
g3
NtRp31
(dp32
g13
F-2.4095743548545201
sg14
I3
sg15
I01
sg16
I3
sg17
I15
sbs(I2
I9
tp33
g1
(g10
g3
NtRp34
(dp35
g13
F0.7039058581821136
sg14
I2
sg15
I01
sg16
I9
sg17
I53
sbs(I3
I10
tp36
g1
(g10
g3
NtRp37
(dp38
g13
F4.2513605916584423
sg14
I3
sg15
I01
sg16
I10
sg17
I64
sbs(I4
I4
tp39
g1
(g10
g3
NtRp40
(dp41
g13
F-5.03541064302172
sg14
I4
sg15
I01
sg16
I4
sg17
I16
sbs(I1
I5
tp42
g1
(g10
g3
NtRp43
(dp44
g13
F-12.815398989536643
sg14
I1
sg15
I00
sg16
I5
sg17
I11
sbs(I2
I2
tp45
g1
(g10
g3
NtRp46
(dp47
g13
F17.475119496588494
sg14
I2
sg15
I00
sg16
I2
sg17
I2
sbs(I1
I10
tp48
g1
(g10
g3
NtRp49
(dp50
g13
F-1.9979053904937434
sg14
I1
sg15
I01
sg16
I10
sg17
I71
sbs(I3
I2
tp51
g1
(g10
g3
NtRp52
(dp53
g13
F-21.364827562418458
sg14
I3
sg15
I01
sg16
I2
sg17
I4
sbs(I2
I6
tp54
g1
(g10
g3
NtRp55
(dp56
g13
F7.2983012213175318
sg14
I2
sg15
I01
sg16
I6
sg17
I38
sbs(I8
I2
tp57
g1
(g10
g3
NtRp58
(dp59
g13
F2.3015466291346214
sg14
I8
sg15
I01
sg16
I2
sg17
I43
sbs(I9
I3
tp60
g1
(g10
g3
NtRp61
(dp62
g13
F10.953210267379687
sg14
I9
sg15
I01
sg16
I3
sg17
I60
sbs(I1
I4
tp63
g1
(g10
g3
NtRp64
(dp65
g13
F-12.598371637652052
sg14
I1
sg15
I01
sg16
I4
sg17
I6
sbs(I7
I5
tp66
g1
(g10
g3
NtRp67
(dp68
g13
F17.068231599986156
sg14
I7
sg15
I01
sg16
I5
sg17
I30
sbs(I2
I3
tp69
g1
(g10
g3
NtRp70
(dp71
g13
F-15.536955091220925
sg14
I2
sg15
I01
sg16
I3
sg17
I5
sbs(I1
I9
tp72
g1
(g10
g3
NtRp73
(dp74
g13
F-4.8808902661068219
sg14
I1
sg15
I01
sg16
I9
sg17
I58
sbs(I4
I2
tp75
g1
(g10
g3
NtRp76
(dp77
g13
F-12.942309986401884
sg14
I4
sg15
I00
sg16
I2
sg17
I7
sbs(I3
I5
tp78
g1
(g10
g3
NtRp79
(dp80
g13
F-14.112663413251342
sg14
I3
sg15
I01
sg16
I5
sg17
I14
sbs(I10
I5
tp81
g1
(g10
g3
NtRp82
(dp83
g13
F-8.9879157002374441
sg14
I10
sg15
I01
sg16
I5
sg17
I76
sbs(I4
I6
tp84
g1
(g10
g3
NtRp85
(dp86
g13
F29.429037380986376
sg14
I4
sg15
I01
sg16
I6
sg17
I22
sbs(I4
I3
tp87
g1
(g10
g3
NtRp88
(dp89
g13
F7.3537831469584063
sg14
I4
sg15
I01
sg16
I3
sg17
I10
sbs(I1
I7
tp90
g1
(g10
g3
NtRp91
(dp92
g13
F4.5328743325353411
sg14
I1
sg15
I01
sg16
I7
sg17
I29
sbs(I5
I2
tp93
g1
(g10
g3
NtRp94
(dp95
g13
F-29.74026282551451
sg14
I5
sg15
I01
sg16
I2
sg17
I9
sbssS'_input_nodes'
p96
I1
sS'_output_nodes'
p97
I1
sS'_node_gene_type'
p98
cneat.genome
NodeGene
p99
sS'_conn_gene_type'
p100
g10
sS'fitness'
p101
F0.99700856822209705
sS'parent2_id'
p102
I3054
sS'_id'
p103
I3075
sS'parent1_id'
p104
I3054
sS'_node_genes'
p105
(lp106
g1
(g99
g3
NtRp107
(dp108
S'_bias'
p109
I0
sS'_type'
p110
S'INPUT'
p111
sg103
I1
sS'_response'
p112
F4.9242730000000003
sS'_activation_type'
p113
Nsbag1
(g99
g3
NtRp114
(dp115
g109
F-2.1195767257409628
sg110
S'OUTPUT'
p116
sg103
I2
sg112
F4.5963343624341615
sg113
S'tanh'
p117
sbag1
(g99
g3
NtRp118
(dp119
g109
F-1.0747178021428692
sg110
S'HIDDEN'
p120
sg103
I3
sg112
F3.7502273722688257
sg113
g117
sbag1
(g99
g3
NtRp121
(dp122
g109
F-0.26553348121871728
sg110
g120
sg103
I4
sg112
F5.1346094866895724
sg113
g117
sbag1
(g99
g3
NtRp123
(dp124
g109
F4.8703326479356548
sg110
g120
sg103
I5
sg112
F9.2847162515018766
sg113
g117
sbag1
(g99
g3
NtRp125
(dp126
g109
F2.6043296673396101
sg110
g120
sg103
I6
sg112
F9.9300020573272771
sg113
g117
sbag1
(g99
g3
NtRp127
(dp128
g109
F-3.9768435806991977
sg110
g120
sg103
I7
sg112
F4.3856401838005885
sg113
g117
sbag1
(g99
g3
NtRp129
(dp130
g109
F1.7376433886947067
sg110
g120
sg103
I8
sg112
F5.4713556177451821
sg113
g117
sbag1
(g99
g3
NtRp131
(dp132
g109
F-0.79040908398910859
sg110
g120
sg103
I9
sg112
F5.1251149662897255
sg113
g117
sbag1
(g99
g3
NtRp133
(dp134
g109
F-0.09446726375606182
sg110
g120
sg103
I10
sg112
F4.5389661426028791
sg113
g117
sbasb.