ccopy_reg
_reconstructor
p1
(cneat.chromosome
Chromosome
p2
c__builtin__
object
p3
NtRp4
(dp5
S'species_id'
p6
I17
sS'_connection_genes'
p7
(dp8
(I1
I3
tp9
g1
(cneat.genome
ConnectionGene
p10
g3
NtRp11
(dp12
S'_ConnectionGene__weight'
p13
F-2.2946818460432263
sS'_ConnectionGene__in'
p14
I1
sS'_ConnectionGene__enabled'
p15
I00
sS'_ConnectionGene__out'
p16
I3
sS'_ConnectionGene__innov_number'
p17
I3
sbs(I6
I6
tp18
g1
(g10
g3
NtRp19
(dp20
g13
F23.253126867711568
sg14
I6
sg15
I01
sg16
I6
sg17
I39
sbs(I11
I2
tp21
g1
(g10
g3
NtRp22
(dp23
g13
F-19.877184673079132
sg14
I11
sg15
I01
sg16
I2
sg17
I80
sbs(I6
I2
tp24
g1
(g10
g3
NtRp25
(dp26
g13
F16.396608913813118
sg14
I6
sg15
I01
sg16
I2
sg17
I21
sbs(I5
I8
tp27
g1
(g10
g3
NtRp28
(dp29
g13
F4.5506593905712593
sg14
I5
sg15
I01
sg16
I8
sg17
I42
sbs(I1
I2
tp30
g1
(g10
g3
NtRp31
(dp32
g13
F-10.894951846906423
sg14
I1
sg15
I01
sg16
I2
sg17
I1
sbs(I12
I2
tp33
g1
(g10
g3
NtRp34
(dp35
g13
F-3.3169710368186154
sg14
I12
sg15
I01
sg16
I2
sg17
I82
sbs(I3
I3
tp36
g1
(g10
g3
NtRp37
(dp38
g13
F-11.992120953559933
sg14
I3
sg15
I01
sg16
I3
sg17
I15
sbs(I2
I9
tp39
g1
(g10
g3
NtRp40
(dp41
g13
F1.7339469577001732
sg14
I2
sg15
I01
sg16
I9
sg17
I53
sbs(I8
I10
tp42
g1
(g10
g3
NtRp43
(dp44
g13
F2.3493192768364182
sg14
I8
sg15
I01
sg16
I10
sg17
I74
sbs(I1
I5
tp45
g1
(g10
g3
NtRp46
(dp47
g13
F4.2475045240130074
sg14
I1
sg15
I00
sg16
I5
sg17
I11
sbs(I2
I2
tp48
g1
(g10
g3
NtRp49
(dp50
g13
F18.141265102273156
sg14
I2
sg15
I00
sg16
I2
sg17
I2
sbs(I3
I2
tp51
g1
(g10
g3
NtRp52
(dp53
g13
F-21.747584724830268
sg14
I3
sg15
I01
sg16
I2
sg17
I4
sbs(I2
I6
tp54
g1
(g10
g3
NtRp55
(dp56
g13
F5.5952723575684216
sg14
I2
sg15
I01
sg16
I6
sg17
I38
sbs(I8
I2
tp57
g1
(g10
g3
NtRp58
(dp59
g13
F-4.6395507180211304
sg14
I8
sg15
I00
sg16
I2
sg17
I43
sbs(I5
I11
tp60
g1
(g10
g3
NtRp61
(dp62
g13
F-0.68898946513464265
sg14
I5
sg15
I01
sg16
I11
sg17
I79
sbs(I9
I3
tp63
g1
(g10
g3
NtRp64
(dp65
g13
F-4.7063370198279113
sg14
I9
sg15
I01
sg16
I3
sg17
I60
sbs(I1
I4
tp66
g1
(g10
g3
NtRp67
(dp68
g13
F-11.402477927801232
sg14
I1
sg15
I01
sg16
I4
sg17
I6
sbs(I7
I5
tp69
g1
(g10
g3
NtRp70
(dp71
g13
F8.0086866862266
sg14
I7
sg15
I01
sg16
I5
sg17
I30
sbs(I2
I3
tp72
g1
(g10
g3
NtRp73
(dp74
g13
F-0.97921007401659055
sg14
I2
sg15
I01
sg16
I3
sg17
I5
sbs(I1
I9
tp75
g1
(g10
g3
NtRp76
(dp77
g13
F-5.6099379914457117
sg14
I1
sg15
I01
sg16
I9
sg17
I58
sbs(I4
I2
tp78
g1
(g10
g3
NtRp79
(dp80
g13
F-21.900697500549732
sg14
I4
sg15
I00
sg16
I2
sg17
I7
sbs(I3
I5
tp81
g1
(g10
g3
NtRp82
(dp83
g13
F-9.5870294701381091
sg14
I3
sg15
I01
sg16
I5
sg17
I14
sbs(I4
I6
tp84
g1
(g10
g3
NtRp85
(dp86
g13
F25.420951915284277
sg14
I4
sg15
I01
sg16
I6
sg17
I22
sbs(I8
I12
tp87
g1
(g10
g3
NtRp88
(dp89
g13
F0.48138688225778281
sg14
I8
sg15
I01
sg16
I12
sg17
I88
sbs(I11
I3
tp90
g1
(g10
g3
NtRp91
(dp92
g13
F-0.064960201978390142
sg14
I11
sg15
I01
sg16
I3
sg17
I78
sbs(I3
I8
tp93
g1
(g10
g3
NtRp94
(dp95
g13
F-0.75930295409843762
sg14
I3
sg15
I01
sg16
I8
sg17
I44
sbs(I4
I3
tp96
g1
(g10
g3
NtRp97
(dp98
g13
F2.2279018820066505
sg14
I4
sg15
I01
sg16
I3
sg17
I10
sbs(I1
I7
tp99
g1
(g10
g3
NtRp100
(dp101
g13
F-0.81283323230314863
sg14
I1
sg15
I01
sg16
I7
sg17
I29
sbs(I5
I2
tp102
g1
(g10
g3
NtRp103
(dp104
g13
F-27.367427414938746
sg14
I5
sg15
I00
sg16
I2
sg17
I9
sbs(I10
I2
tp105
g1
(g10
g3
NtRp106
(dp107
g13
F-5.483307649651886
sg14
I10
sg15
I01
sg16
I2
sg17
I65
sbssS'_input_nodes'
p108
I1
sS'_output_nodes'
p109
I1
sS'_node_gene_type'
p110
cneat.genome
NodeGene
p111
sS'_conn_gene_type'
p112
g10
sS'fitness'
p113
F0.91018691152622622
sS'parent2_id'
p114
I2911
sS'_id'
p115
I2924
sS'parent1_id'
p116
I2911
sS'_node_genes'
p117
(lp118
g1
(g111
g3
NtRp119
(dp120
S'_bias'
p121
I0
sS'_type'
p122
S'INPUT'
p123
sg115
I1
sS'_response'
p124
F4.9242730000000003
sS'_activation_type'
p125
Nsbag1
(g111
g3
NtRp126
(dp127
g121
F-3.1274044062825346
sg122
S'OUTPUT'
p128
sg115
I2
sg124
F4.7113486116455849
sg125
S'tanh'
p129
sbag1
(g111
g3
NtRp130
(dp131
g121
F-1.0438587953371896
sg122
S'HIDDEN'
p132
sg115
I3
sg124
F4.2311664658299897
sg125
g129
sbag1
(g111
g3
NtRp133
(dp134
g121
F-0.79649818493731706
sg122
g132
sg115
I4
sg124
F4.1025879734600172
sg125
g129
sbag1
(g111
g3
NtRp135
(dp136
g121
F3.1587753228791526
sg122
g132
sg115
I5
sg124
F11.230698693811458
sg125
g129
sbag1
(g111
g3
NtRp137
(dp138
g121
F2.5156777959558183
sg122
g132
sg115
I6
sg124
F8.7114797427752713
sg125
g129
sbag1
(g111
g3
NtRp139
(dp140
g121
F-1.9389298948012907
sg122
g132
sg115
I7
sg124
F5.0323894984199766
sg125
g129
sbag1
(g111
g3
NtRp141
(dp142
g121
F0.29612405209271003
sg122
g132
sg115
I8
sg124
F5.4636550674368847
sg125
g129
sbag1
(g111
g3
NtRp143
(dp144
g121
F-0.42999190004413013
sg122
g132
sg115
I9
sg124
F4.5132611651985757
sg125
g129
sbag1
(g111
g3
NtRp145
(dp146
g121
F0.79235755022735999
sg122
g132
sg115
I10
sg124
F4.9242730000000003
sg125
g129
sbag1
(g111
g3
NtRp147
(dp148
g121
I0
sg122
g132
sg115
I11
sg124
F4.9242730000000003
sg125
g129
sbag1
(g111
g3
NtRp149
(dp150
g121
I0
sg122
g132
sg115
I12
sg124
F4.9242730000000003
sg125
g129
sbasb.