ccopy_reg
_reconstructor
p1
(cneat.chromosome
Chromosome
p2
c__builtin__
object
p3
NtRp4
(dp5
S'species_id'
p6
I51
sS'_connection_genes'
p7
(dp8
(I1
I3
tp9
g1
(cneat.genome
ConnectionGene
p10
g3
NtRp11
(dp12
S'_ConnectionGene__weight'
p13
F0.29462930872523874
sS'_ConnectionGene__in'
p14
I1
sS'_ConnectionGene__enabled'
p15
I01
sS'_ConnectionGene__out'
p16
I3
sS'_ConnectionGene__innov_number'
p17
I3
sbs(I20
I25
tp18
g1
(g10
g3
NtRp19
(dp20
g13
F-5.9879154615214221
sg14
I20
sg15
I01
sg16
I25
sg17
I341
sbs(I15
I2
tp21
g1
(g10
g3
NtRp22
(dp23
g13
F5.7502325113010864
sg14
I15
sg15
I01
sg16
I2
sg17
I170
sbs(I6
I6
tp24
g1
(g10
g3
NtRp25
(dp26
g13
F26.957597383444778
sg14
I6
sg15
I01
sg16
I6
sg17
I39
sbs(I11
I2
tp27
g1
(g10
g3
NtRp28
(dp29
g13
F1.3551870656438254
sg14
I11
sg15
I01
sg16
I2
sg17
I80
sbs(I7
I11
tp30
g1
(g10
g3
NtRp31
(dp32
g13
F-1.8533167727522177
sg14
I7
sg15
I01
sg16
I11
sg17
I123
sbs(I1
I15
tp33
g1
(g10
g3
NtRp34
(dp35
g13
F-13.633189914982523
sg14
I1
sg15
I01
sg16
I15
sg17
I146
sbs(I23
I3
tp36
g1
(g10
g3
NtRp37
(dp38
g13
F-1.9622751493752504
sg14
I23
sg15
I01
sg16
I3
sg17
I246
sbs(I6
I2
tp39
g1
(g10
g3
NtRp40
(dp41
g13
F24.873367711304301
sg14
I6
sg15
I01
sg16
I2
sg17
I21
sbs(I22
I6
tp42
g1
(g10
g3
NtRp43
(dp44
g13
F13.935234865365839
sg14
I22
sg15
I01
sg16
I6
sg17
I267
sbs(I16
I14
tp45
g1
(g10
g3
NtRp46
(dp47
g13
F-28.48077087581375
sg14
I16
sg15
I01
sg16
I14
sg17
I193
sbs(I5
I8
tp48
g1
(g10
g3
NtRp49
(dp50
g13
F4.5863101586189723
sg14
I5
sg15
I00
sg16
I8
sg17
I42
sbs(I20
I22
tp51
g1
(g10
g3
NtRp52
(dp53
g13
F16.263537474476401
sg14
I20
sg15
I00
sg16
I22
sg17
I266
sbs(I1
I2
tp54
g1
(g10
g3
NtRp55
(dp56
g13
F-4.9372301533903356
sg14
I1
sg15
I01
sg16
I2
sg17
I1
sbs(I12
I2
tp57
g1
(g10
g3
NtRp58
(dp59
g13
F24.723748160793814
sg14
I12
sg15
I01
sg16
I2
sg17
I82
sbs(I8
I24
tp60
g1
(g10
g3
NtRp61
(dp62
g13
F-0.61447479499126323
sg14
I8
sg15
I01
sg16
I24
sg17
I301
sbs(I2
I19
tp63
g1
(g10
g3
NtRp64
(dp65
g13
F10.462917886341046
sg14
I2
sg15
I01
sg16
I19
sg17
I210
sbs(I3
I3
tp66
g1
(g10
g3
NtRp67
(dp68
g13
F-14.027718987819904
sg14
I3
sg15
I01
sg16
I3
sg17
I15
sbs(I2
I9
tp69
g1
(g10
g3
NtRp70
(dp71
g13
F20.671252125950176
sg14
I2
sg15
I01
sg16
I9
sg17
I53
sbs(I13
I3
tp72
g1
(g10
g3
NtRp73
(dp74
g13
F15.031540785318896
sg14
I13
sg15
I01
sg16
I3
sg17
I92
sbs(I5
I11
tp75
g1
(g10
g3
NtRp76
(dp77
g13
F-10.434143190810152
sg14
I5
sg15
I01
sg16
I11
sg17
I79
sbs(I8
I10
tp78
g1
(g10
g3
NtRp79
(dp80
g13
F7.9996736637246704
sg14
I8
sg15
I01
sg16
I10
sg17
I74
sbs(I21
I8
tp81
g1
(g10
g3
NtRp82
(dp83
g13
F18.856186309037803
sg14
I21
sg15
I01
sg16
I8
sg17
I250
sbs(I4
I13
tp84
g1
(g10
g3
NtRp85
(dp86
g13
F-16.595855102906476
sg14
I4
sg15
I01
sg16
I13
sg17
I102
sbs(I1
I5
tp87
g1
(g10
g3
NtRp88
(dp89
g13
F2.0593478420915816
sg14
I1
sg15
I01
sg16
I5
sg17
I11
sbs(I9
I11
tp90
g1
(g10
g3
NtRp91
(dp92
g13
F11.648137387317224
sg14
I9
sg15
I01
sg16
I11
sg17
I101
sbs(I19
I3
tp93
g1
(g10
g3
NtRp94
(dp95
g13
F23.619226040974244
sg14
I19
sg15
I01
sg16
I3
sg17
I212
sbs(I2
I2
tp96
g1
(g10
g3
NtRp97
(dp98
g13
F-4.9726826440086995
sg14
I2
sg15
I01
sg16
I2
sg17
I2
sbs(I12
I10
tp99
g1
(g10
g3
NtRp100
(dp101
g13
F5.1692809521479068
sg14
I12
sg15
I01
sg16
I10
sg17
I105
sbs(I8
I16
tp102
g1
(g10
g3
NtRp103
(dp104
g13
F-20.441087198809718
sg14
I8
sg15
I01
sg16
I16
sg17
I177
sbs(I25
I22
tp105
g1
(g10
g3
NtRp106
(dp107
g13
F14.485722611850859
sg14
I25
sg15
I01
sg16
I22
sg17
I342
sbs(I15
I15
tp108
g1
(g10
g3
NtRp109
(dp110
g13
F-2.0201888818438833
sg14
I15
sg15
I01
sg16
I15
sg17
I368
sbs(I12
I3
tp111
g1
(g10
g3
NtRp112
(dp113
g13
F19.851198675404067
sg14
I12
sg15
I01
sg16
I3
sg17
I86
sbs(I20
I6
tp114
g1
(g10
g3
NtRp115
(dp116
g13
F-2.7970864914138502
sg14
I20
sg15
I00
sg16
I6
sg17
I221
sbs(I3
I2
tp117
g1
(g10
g3
NtRp118
(dp119
g13
F-19.638228480839789
sg14
I3
sg15
I01
sg16
I2
sg17
I4
sbs(I2
I6
tp120
g1
(g10
g3
NtRp121
(dp122
g13
F-13.402686052576895
sg14
I2
sg15
I01
sg16
I6
sg17
I38
sbs(I8
I2
tp123
g1
(g10
g3
NtRp124
(dp125
g13
F-14.691211333507734
sg14
I8
sg15
I01
sg16
I2
sg17
I43
sbs(I3
I13
tp126
g1
(g10
g3
NtRp127
(dp128
g13
F-2.0251430119753411
sg14
I3
sg15
I01
sg16
I13
sg17
I91
sbs(I15
I3
tp129
g1
(g10
g3
NtRp130
(dp131
g13
F6.4498109977003866
sg14
I15
sg15
I01
sg16
I3
sg17
I147
sbs(I9
I3
tp132
g1
(g10
g3
NtRp133
(dp134
g13
F-12.0302484752947
sg14
I9
sg15
I01
sg16
I3
sg17
I60
sbs(I2
I20
tp135
g1
(g10
g3
NtRp136
(dp137
g13
F0.13151286148919317
sg14
I2
sg15
I01
sg16
I20
sg17
I220
sbs(I1
I4
tp138
g1
(g10
g3
NtRp139
(dp140
g13
F-20.191816358865481
sg14
I1
sg15
I01
sg16
I4
sg17
I6
sbs(I9
I10
tp141
g1
(g10
g3
NtRp142
(dp143
g13
F-26.36248588317677
sg14
I9
sg15
I01
sg16
I10
sg17
I90
sbs(I7
I5
tp144
g1
(g10
g3
NtRp145
(dp146
g13
F19.242524785877066
sg14
I7
sg15
I01
sg16
I5
sg17
I30
sbs(I2
I3
tp147
g1
(g10
g3
NtRp148
(dp149
g13
F9.3602329161056375
sg14
I2
sg15
I00
sg16
I3
sg17
I5
sbs(I1
I9
tp150
g1
(g10
g3
NtRp151
(dp152
g13
F16.193056964520203
sg14
I1
sg15
I01
sg16
I9
sg17
I58
sbs(I13
I9
tp153
g1
(g10
g3
NtRp154
(dp155
g13
F4.6377890864737719
sg14
I13
sg15
I01
sg16
I9
sg17
I112
sbs(I8
I17
tp156
g1
(g10
g3
NtRp157
(dp158
g13
F29.488256622146679
sg14
I8
sg15
I01
sg16
I17
sg17
I205
sbs(I4
I2
tp159
g1
(g10
g3
NtRp160
(dp161
g13
F-0.16483304157921896
sg14
I4
sg15
I01
sg16
I2
sg17
I7
sbs(I14
I2
tp162
g1
(g10
g3
NtRp163
(dp164
g13
F10.315596935131905
sg14
I14
sg15
I01
sg16
I2
sg17
I138
sbs(I24
I18
tp165
g1
(g10
g3
NtRp166
(dp167
g13
F-18.775071837063365
sg14
I24
sg15
I01
sg16
I18
sg17
I331
sbs(I3
I5
tp168
g1
(g10
g3
NtRp169
(dp170
g13
F26.740010385857865
sg14
I3
sg15
I01
sg16
I5
sg17
I14
sbs(I10
I5
tp171
g1
(g10
g3
NtRp172
(dp173
g13
F-1.5856278555278598
sg14
I10
sg15
I01
sg16
I5
sg17
I76
sbs(I13
I23
tp174
g1
(g10
g3
NtRp175
(dp176
g13
F9.9413097395354022
sg14
I13
sg15
I01
sg16
I23
sg17
I287
sbs(I4
I6
tp177
g1
(g10
g3
NtRp178
(dp179
g13
F-3.9714448260680388
sg14
I4
sg15
I01
sg16
I6
sg17
I22
sbs(I3
I22
tp180
g1
(g10
g3
NtRp181
(dp182
g13
F10.45597986180479
sg14
I3
sg15
I01
sg16
I22
sg17
I377
sbs(I8
I12
tp183
g1
(g10
g3
NtRp184
(dp185
g13
F19.66643403223437
sg14
I8
sg15
I01
sg16
I12
sg17
I88
sbs(I18
I10
tp186
g1
(g10
g3
NtRp187
(dp188
g13
F23.145637740212749
sg14
I18
sg15
I01
sg16
I10
sg17
I209
sbs(I11
I3
tp189
g1
(g10
g3
NtRp190
(dp191
g13
F-0.21383726722352048
sg14
I11
sg15
I01
sg16
I3
sg17
I78
sbs(I3
I8
tp192
g1
(g10
g3
NtRp193
(dp194
g13
F-7.9306540272680692
sg14
I3
sg15
I01
sg16
I8
sg17
I44
sbs(I8
I14
tp195
g1
(g10
g3
NtRp196
(dp197
g13
F7.5325270061007101
sg14
I8
sg15
I01
sg16
I14
sg17
I119
sbs(I18
I6
tp198
g1
(g10
g3
NtRp199
(dp200
g13
F-4.8242741864003031
sg14
I18
sg15
I01
sg16
I6
sg17
I317
sbs(I8
I18
tp201
g1
(g10
g3
NtRp202
(dp203
g13
F-18.57209281336268
sg14
I8
sg15
I00
sg16
I18
sg17
I208
sbs(I17
I12
tp204
g1
(g10
g3
NtRp205
(dp206
g13
F9.0315119348155086
sg14
I17
sg15
I01
sg16
I12
sg17
I207
sbs(I1
I7
tp207
g1
(g10
g3
NtRp208
(dp209
g13
F-7.7882837557434925
sg14
I1
sg15
I01
sg16
I7
sg17
I29
sbs(I4
I3
tp210
g1
(g10
g3
NtRp211
(dp212
g13
F21.840875102727949
sg14
I4
sg15
I01
sg16
I3
sg17
I10
sbs(I10
I2
tp213
g1
(g10
g3
NtRp214
(dp215
g13
F1.0796351556153976
sg14
I10
sg15
I01
sg16
I2
sg17
I65
sbs(I5
I2
tp216
g1
(g10
g3
NtRp217
(dp218
g13
F-22.257885767894791
sg14
I5
sg15
I01
sg16
I2
sg17
I9
sbs(I5
I16
tp219
g1
(g10
g3
NtRp220
(dp221
g13
F1.1716696017398267
sg14
I5
sg15
I01
sg16
I16
sg17
I191
sbs(I5
I21
tp222
g1
(g10
g3
NtRp223
(dp224
g13
F21.054030311157383
sg14
I5
sg15
I01
sg16
I21
sg17
I249
sbssS'_input_nodes'
p225
I1
sS'_output_nodes'
p226
I1
sS'_node_gene_type'
p227
cneat.genome
NodeGene
p228
sS'_conn_gene_type'
p229
g10
sS'fitness'
p230
F0.96852230218012791
sS'parent2_id'
p231
I8690
sS'_id'
p232
I8747
sS'parent1_id'
p233
I8690
sS'_node_genes'
p234
(lp235
g1
(g228
g3
NtRp236
(dp237
S'_bias'
p238
I0
sS'_type'
p239
S'INPUT'
p240
sg232
I1
sS'_response'
p241
F4.9242730000000003
sS'_activation_type'
p242
Nsbag1
(g228
g3
NtRp243
(dp244
g238
F-5.3803175649740274
sg239
S'OUTPUT'
p245
sg232
I2
sg241
F5.1118664425853355
sg242
S'tanh'
p246
sbag1
(g228
g3
NtRp247
(dp248
g238
F-2.0604911931616448
sg239
S'HIDDEN'
p249
sg232
I3
sg241
F1.3346221247617009
sg242
g246
sbag1
(g228
g3
NtRp250
(dp251
g238
F-2.9046248344060603
sg239
g249
sg232
I4
sg241
F7.510750357230795
sg242
g246
sbag1
(g228
g3
NtRp252
(dp253
g238
F5.7239532820623813
sg239
g249
sg232
I5
sg241
F9.6421673921056072
sg242
g246
sbag1
(g228
g3
NtRp254
(dp255
g238
F-1.109471716265245
sg239
g249
sg232
I6
sg241
F6.0825672287776715
sg242
g246
sbag1
(g228
g3
NtRp256
(dp257
g238
F0.82904837534342479
sg239
g249
sg232
I7
sg241
F2.7323475754017239
sg242
g246
sbag1
(g228
g3
NtRp258
(dp259
g238
F-2.6605090318134361
sg239
g249
sg232
I8
sg241
F7.2884067732992595
sg242
g246
sbag1
(g228
g3
NtRp260
(dp261
g238
F0.20129020768546207
sg239
g249
sg232
I9
sg241
F6.7778841384001156
sg242
g246
sbag1
(g228
g3
NtRp262
(dp263
g238
F0.806970340352132
sg239
g249
sg232
I10
sg241
F7.1149355318226037
sg242
g246
sbag1
(g228
g3
NtRp264
(dp265
g238
F-0.65197416537986275
sg239
g249
sg232
I11
sg241
F6.5329214033607537
sg242
g246
sbag1
(g228
g3
NtRp266
(dp267
g238
F2.7660141064481225
sg239
g249
sg232
I12
sg241
F0.99839597366841371
sg242
g246
sbag1
(g228
g3
NtRp268
(dp269
g238
F-2.1970689513458517
sg239
g249
sg232
I13
sg241
F4.162924047217329
sg242
g246
sbag1
(g228
g3
NtRp270
(dp271
g238
F5.3268448244182931
sg239
g249
sg232
I14
sg241
F4.8990655358311663
sg242
g246
sbag1
(g228
g3
NtRp272
(dp273
g238
F-3.7779387872677903
sg239
g249
sg232
I15
sg241
F1.9809533576747722
sg242
g246
sbag1
(g228
g3
NtRp274
(dp275
g238
F1.0154466889618599
sg239
g249
sg232
I16
sg241
F1.8958268045288549
sg242
g246
sbag1
(g228
g3
NtRp276
(dp277
g238
F1.2359957710164
sg239
g249
sg232
I17
sg241
F10.438619480340261
sg242
g246
sbag1
(g228
g3
NtRp278
(dp279
g238
F1.9635301867373844
sg239
g249
sg232
I18
sg241
F3.5276572318765105
sg242
g246
sbag1
(g228
g3
NtRp280
(dp281
g238
F4.1707751668303832
sg239
g249
sg232
I19
sg241
F0.90204406403403281
sg242
g246
sbag1
(g228
g3
NtRp282
(dp283
g238
F-0.22768847382354601
sg239
g249
sg232
I20
sg241
F6.5719504650932299
sg242
g246
sbag1
(g228
g3
NtRp284
(dp285
g238
F-1.9146933227899847
sg239
g249
sg232
I21
sg241
F3.8775754601979084
sg242
g246
sbag1
(g228
g3
NtRp286
(dp287
g238
F-0.76813888064591751
sg239
g249
sg232
I22
sg241
F4.4315870615834951
sg242
g246
sbag1
(g228
g3
NtRp288
(dp289
g238
F-1.481539573246748
sg239
g249
sg232
I23
sg241
F4.3521297132348682
sg242
g246
sbag1
(g228
g3
NtRp290
(dp291
g238
F-0.33437945363347749
sg239
g249
sg232
I24
sg241
F5.1345215422173345
sg242
g246
sbag1
(g228
g3
NtRp292
(dp293
g238
F1.349613560362577
sg239
g249
sg232
I25
sg241
F6.6968316791589384
sg242
g246
sbasb.