ccopy_reg
_reconstructor
p1
(cneat.chromosome
Chromosome
p2
c__builtin__
object
p3
NtRp4
(dp5
S'species_id'
p6
I30
sS'_connection_genes'
p7
(dp8
(I1
I3
tp9
g1
(cneat.genome
ConnectionGene
p10
g3
NtRp11
(dp12
S'_ConnectionGene__weight'
p13
F-8.021081046647522
sS'_ConnectionGene__in'
p14
I1
sS'_ConnectionGene__enabled'
p15
I01
sS'_ConnectionGene__out'
p16
I3
sS'_ConnectionGene__innov_number'
p17
I3
sbs(I6
I6
tp18
g1
(g10
g3
NtRp19
(dp20
g13
F15.811947080788759
sg14
I6
sg15
I01
sg16
I6
sg17
I39
sbs(I11
I2
tp21
g1
(g10
g3
NtRp22
(dp23
g13
F-3.6484279356196385
sg14
I11
sg15
I01
sg16
I2
sg17
I80
sbs(I1
I15
tp24
g1
(g10
g3
NtRp25
(dp26
g13
F1.691066258605481
sg14
I1
sg15
I01
sg16
I15
sg17
I146
sbs(I6
I2
tp27
g1
(g10
g3
NtRp28
(dp29
g13
F20.638829652378497
sg14
I6
sg15
I01
sg16
I2
sg17
I21
sbs(I5
I8
tp30
g1
(g10
g3
NtRp31
(dp32
g13
F4.2802833969579126
sg14
I5
sg15
I01
sg16
I8
sg17
I42
sbs(I1
I2
tp33
g1
(g10
g3
NtRp34
(dp35
g13
F-24.013535663262292
sg14
I1
sg15
I01
sg16
I2
sg17
I1
sbs(I12
I2
tp36
g1
(g10
g3
NtRp37
(dp38
g13
F-0.93664113986859698
sg14
I12
sg15
I01
sg16
I2
sg17
I82
sbs(I3
I3
tp39
g1
(g10
g3
NtRp40
(dp41
g13
F-16.11615713379333
sg14
I3
sg15
I01
sg16
I3
sg17
I15
sbs(I2
I9
tp42
g1
(g10
g3
NtRp43
(dp44
g13
F16.658992887230823
sg14
I2
sg15
I01
sg16
I9
sg17
I53
sbs(I13
I3
tp45
g1
(g10
g3
NtRp46
(dp47
g13
F2.1045008456327716
sg14
I13
sg15
I01
sg16
I3
sg17
I92
sbs(I8
I10
tp48
g1
(g10
g3
NtRp49
(dp50
g13
F25.201709436939257
sg14
I8
sg15
I01
sg16
I10
sg17
I74
sbs(I4
I13
tp51
g1
(g10
g3
NtRp52
(dp53
g13
F-6.3615890557409598
sg14
I4
sg15
I01
sg16
I13
sg17
I102
sbs(I1
I5
tp54
g1
(g10
g3
NtRp55
(dp56
g13
F-6.3240927012631785
sg14
I1
sg15
I00
sg16
I5
sg17
I11
sbs(I2
I2
tp57
g1
(g10
g3
NtRp58
(dp59
g13
F17.114786679170201
sg14
I2
sg15
I01
sg16
I2
sg17
I2
sbs(I3
I2
tp60
g1
(g10
g3
NtRp61
(dp62
g13
F-29.733786023504511
sg14
I3
sg15
I01
sg16
I2
sg17
I4
sbs(I2
I6
tp63
g1
(g10
g3
NtRp64
(dp65
g13
F3.5396804353996005
sg14
I2
sg15
I01
sg16
I6
sg17
I38
sbs(I8
I2
tp66
g1
(g10
g3
NtRp67
(dp68
g13
F-20.521291407472791
sg14
I8
sg15
I01
sg16
I2
sg17
I43
sbs(I5
I11
tp69
g1
(g10
g3
NtRp70
(dp71
g13
F-0.40905834325648271
sg14
I5
sg15
I01
sg16
I11
sg17
I79
sbs(I15
I3
tp72
g1
(g10
g3
NtRp73
(dp74
g13
F-4.3586938167794393
sg14
I15
sg15
I01
sg16
I3
sg17
I147
sbs(I9
I3
tp75
g1
(g10
g3
NtRp76
(dp77
g13
F-15.282026764848348
sg14
I9
sg15
I01
sg16
I3
sg17
I60
sbs(I1
I4
tp78
g1
(g10
g3
NtRp79
(dp80
g13
F-18.549372060961652
sg14
I1
sg15
I01
sg16
I4
sg17
I6
sbs(I9
I10
tp81
g1
(g10
g3
NtRp82
(dp83
g13
F-19.505001178995979
sg14
I9
sg15
I01
sg16
I10
sg17
I90
sbs(I7
I5
tp84
g1
(g10
g3
NtRp85
(dp86
g13
F1.8296030197800808
sg14
I7
sg15
I01
sg16
I5
sg17
I30
sbs(I2
I3
tp87
g1
(g10
g3
NtRp88
(dp89
g13
F0.85181728548737001
sg14
I2
sg15
I01
sg16
I3
sg17
I5
sbs(I1
I9
tp90
g1
(g10
g3
NtRp91
(dp92
g13
F-3.0503997038960877
sg14
I1
sg15
I01
sg16
I9
sg17
I58
sbs(I4
I2
tp93
g1
(g10
g3
NtRp94
(dp95
g13
F-14.478315190421641
sg14
I4
sg15
I00
sg16
I2
sg17
I7
sbs(I14
I2
tp96
g1
(g10
g3
NtRp97
(dp98
g13
F-2.8233123039592356
sg14
I14
sg15
I01
sg16
I2
sg17
I138
sbs(I3
I5
tp99
g1
(g10
g3
NtRp100
(dp101
g13
F4.3475827199151773
sg14
I3
sg15
I01
sg16
I5
sg17
I14
sbs(I4
I6
tp102
g1
(g10
g3
NtRp103
(dp104
g13
F-9.8230494215446456
sg14
I4
sg15
I01
sg16
I6
sg17
I22
sbs(I8
I12
tp105
g1
(g10
g3
NtRp106
(dp107
g13
F-6.696829183745896
sg14
I8
sg15
I01
sg16
I12
sg17
I88
sbs(I11
I3
tp108
g1
(g10
g3
NtRp109
(dp110
g13
F-10.125690186993261
sg14
I11
sg15
I01
sg16
I3
sg17
I78
sbs(I3
I8
tp111
g1
(g10
g3
NtRp112
(dp113
g13
F4.1677358022739117
sg14
I3
sg15
I01
sg16
I8
sg17
I44
sbs(I8
I14
tp114
g1
(g10
g3
NtRp115
(dp116
g13
F-9.0343606462819039
sg14
I8
sg15
I01
sg16
I14
sg17
I119
sbs(I4
I3
tp117
g1
(g10
g3
NtRp118
(dp119
g13
F6.9252463548102794
sg14
I4
sg15
I00
sg16
I3
sg17
I10
sbs(I1
I7
tp120
g1
(g10
g3
NtRp121
(dp122
g13
F0.016186889130154425
sg14
I1
sg15
I01
sg16
I7
sg17
I29
sbs(I5
I2
tp123
g1
(g10
g3
NtRp124
(dp125
g13
F-7.2902786391232599
sg14
I5
sg15
I01
sg16
I2
sg17
I9
sbs(I10
I2
tp126
g1
(g10
g3
NtRp127
(dp128
g13
F-12.555231123646706
sg14
I10
sg15
I01
sg16
I2
sg17
I65
sbssS'_input_nodes'
p129
I1
sS'_output_nodes'
p130
I1
sS'_node_gene_type'
p131
cneat.genome
NodeGene
p132
sS'_conn_gene_type'
p133
g10
sS'fitness'
p134
F0.95249437693471684
sS'parent2_id'
p135
I4780
sS'_id'
p136
I4795
sS'parent1_id'
p137
I4780
sS'_node_genes'
p138
(lp139
g1
(g132
g3
NtRp140
(dp141
S'_bias'
p142
I0
sS'_type'
p143
S'INPUT'
p144
sg136
I1
sS'_response'
p145
F4.9242730000000003
sS'_activation_type'
p146
Nsbag1
(g132
g3
NtRp147
(dp148
g142
F-6.2492656706989278
sg143
S'OUTPUT'
p149
sg136
I2
sg145
F4.3241487817458504
sg146
S'tanh'
p150
sbag1
(g132
g3
NtRp151
(dp152
g142
F0.1052961484873296
sg143
S'HIDDEN'
p153
sg136
I3
sg145
F5.132232657500003
sg146
g150
sbag1
(g132
g3
NtRp154
(dp155
g142
F-2.8431581464873523
sg143
g153
sg136
I4
sg145
F8.5002458474784213
sg146
g150
sbag1
(g132
g3
NtRp156
(dp157
g142
F3.6574971151325508
sg143
g153
sg136
I5
sg145
F8.8291975850454705
sg146
g150
sbag1
(g132
g3
NtRp158
(dp159
g142
F0.1210583546985104
sg143
g153
sg136
I6
sg145
F6.941544198824471
sg146
g150
sbag1
(g132
g3
NtRp160
(dp161
g142
F-0.8262817154153872
sg143
g153
sg136
I7
sg145
F3.5189572760700045
sg146
g150
sbag1
(g132
g3
NtRp162
(dp163
g142
F-1.0493133257664145
sg143
g153
sg136
I8
sg145
F10.936342097418336
sg146
g150
sbag1
(g132
g3
NtRp164
(dp165
g142
F0.10385730337335727
sg143
g153
sg136
I9
sg145
F6.4940004262689772
sg146
g150
sbag1
(g132
g3
NtRp166
(dp167
g142
F-0.76859553104264644
sg143
g153
sg136
I10
sg145
F5.9644452248665036
sg146
g150
sbag1
(g132
g3
NtRp168
(dp169
g142
F-0.8297920289209193
sg143
g153
sg136
I11
sg145
F8.4958881840877432
sg146
g150
sbag1
(g132
g3
NtRp170
(dp171
g142
F0.44280495242352691
sg143
g153
sg136
I12
sg145
F6.5219894811810608
sg146
g150
sbag1
(g132
g3
NtRp172
(dp173
g142
F-0.98461567663214855
sg143
g153
sg136
I13
sg145
F4.9145598386282519
sg146
g150
sbag1
(g132
g3
NtRp174
(dp175
g142
F0.84489465763446459
sg143
g153
sg136
I14
sg145
F4.5087033178375462
sg146
g150
sbag1
(g132
g3
NtRp176
(dp177
g142
F-0.065946616518767209
sg143
g153
sg136
I15
sg145
F4.9477967114462214
sg146
g150
sbasb.