ccopy_reg
_reconstructor
p1
(cneat.chromosome
Chromosome
p2
c__builtin__
object
p3
NtRp4
(dp5
S'species_id'
p6
I48
sS'_connection_genes'
p7
(dp8
(I1
I21
tp9
g1
(cneat.genome
ConnectionGene
p10
g3
NtRp11
(dp12
S'_ConnectionGene__weight'
p13
F12.720610203691486
sS'_ConnectionGene__in'
p14
I1
sS'_ConnectionGene__enabled'
p15
I01
sS'_ConnectionGene__out'
p16
I21
sS'_ConnectionGene__innov_number'
p17
I222
sbs(I1
I3
tp18
g1
(g10
g3
NtRp19
(dp20
g13
F-18.366330017282365
sg14
I1
sg15
I01
sg16
I3
sg17
I3
sbs(I6
I6
tp21
g1
(g10
g3
NtRp22
(dp23
g13
F22.561732522312774
sg14
I6
sg15
I01
sg16
I6
sg17
I39
sbs(I11
I2
tp24
g1
(g10
g3
NtRp25
(dp26
g13
F15.36590256012677
sg14
I11
sg15
I01
sg16
I2
sg17
I80
sbs(I1
I15
tp27
g1
(g10
g3
NtRp28
(dp29
g13
F-17.456254778911237
sg14
I1
sg15
I01
sg16
I15
sg17
I146
sbs(I6
I2
tp30
g1
(g10
g3
NtRp31
(dp32
g13
F17.979692184335573
sg14
I6
sg15
I01
sg16
I2
sg17
I21
sbs(I16
I14
tp33
g1
(g10
g3
NtRp34
(dp35
g13
F-4.9947409148324287
sg14
I16
sg15
I01
sg16
I14
sg17
I193
sbs(I5
I8
tp36
g1
(g10
g3
NtRp37
(dp38
g13
F-5.1694038358153716
sg14
I5
sg15
I01
sg16
I8
sg17
I42
sbs(I1
I2
tp39
g1
(g10
g3
NtRp40
(dp41
g13
F-25.206504438865345
sg14
I1
sg15
I01
sg16
I2
sg17
I1
sbs(I12
I2
tp42
g1
(g10
g3
NtRp43
(dp44
g13
F11.243351737171146
sg14
I12
sg15
I01
sg16
I2
sg17
I82
sbs(I2
I19
tp45
g1
(g10
g3
NtRp46
(dp47
g13
F6.0932291707352872
sg14
I2
sg15
I01
sg16
I19
sg17
I210
sbs(I3
I3
tp48
g1
(g10
g3
NtRp49
(dp50
g13
F-2.0401497947477081
sg14
I3
sg15
I01
sg16
I3
sg17
I15
sbs(I2
I9
tp51
g1
(g10
g3
NtRp52
(dp53
g13
F22.481656151607535
sg14
I2
sg15
I01
sg16
I9
sg17
I53
sbs(I13
I3
tp54
g1
(g10
g3
NtRp55
(dp56
g13
F11.096385662766188
sg14
I13
sg15
I01
sg16
I3
sg17
I92
sbs(I4
I3
tp57
g1
(g10
g3
NtRp58
(dp59
g13
F9.2217344217615977
sg14
I4
sg15
I01
sg16
I3
sg17
I10
sbs(I5
I14
tp60
g1
(g10
g3
NtRp61
(dp62
g13
F0.87389516981743287
sg14
I5
sg15
I01
sg16
I14
sg17
I132
sbs(I8
I10
tp63
g1
(g10
g3
NtRp64
(dp65
g13
F24.697527791109817
sg14
I8
sg15
I00
sg16
I10
sg17
I74
sbs(I4
I13
tp66
g1
(g10
g3
NtRp67
(dp68
g13
F-18.358300849556947
sg14
I4
sg15
I01
sg16
I13
sg17
I102
sbs(I1
I5
tp69
g1
(g10
g3
NtRp70
(dp71
g13
F-17.012719288300495
sg14
I1
sg15
I01
sg16
I5
sg17
I11
sbs(I9
I11
tp72
g1
(g10
g3
NtRp73
(dp74
g13
F-8.7108586841708195
sg14
I9
sg15
I01
sg16
I11
sg17
I101
sbs(I19
I3
tp75
g1
(g10
g3
NtRp76
(dp77
g13
F-8.5186894824650032
sg14
I19
sg15
I01
sg16
I3
sg17
I212
sbs(I2
I2
tp78
g1
(g10
g3
NtRp79
(dp80
g13
F4.0119867547030026
sg14
I2
sg15
I01
sg16
I2
sg17
I2
sbs(I3
I16
tp81
g1
(g10
g3
NtRp82
(dp83
g13
F0.5372565085325034
sg14
I3
sg15
I01
sg16
I16
sg17
I188
sbs(I8
I16
tp84
g1
(g10
g3
NtRp85
(dp86
g13
F21.061754704990332
sg14
I8
sg15
I01
sg16
I16
sg17
I177
sbs(I20
I6
tp87
g1
(g10
g3
NtRp88
(dp89
g13
F-11.998346737863683
sg14
I20
sg15
I01
sg16
I6
sg17
I221
sbs(I3
I2
tp90
g1
(g10
g3
NtRp91
(dp92
g13
F-4.9239956136830525
sg14
I3
sg15
I01
sg16
I2
sg17
I4
sbs(I2
I6
tp93
g1
(g10
g3
NtRp94
(dp95
g13
F-16.034900569780213
sg14
I2
sg15
I01
sg16
I6
sg17
I38
sbs(I8
I2
tp96
g1
(g10
g3
NtRp97
(dp98
g13
F-15.318615354367292
sg14
I8
sg15
I01
sg16
I2
sg17
I43
sbs(I5
I11
tp99
g1
(g10
g3
NtRp100
(dp101
g13
F-8.3750268900049054
sg14
I5
sg15
I01
sg16
I11
sg17
I79
sbs(I15
I3
tp102
g1
(g10
g3
NtRp103
(dp104
g13
F15.357316288521726
sg14
I15
sg15
I01
sg16
I3
sg17
I147
sbs(I9
I3
tp105
g1
(g10
g3
NtRp106
(dp107
g13
F16.182309600249283
sg14
I9
sg15
I01
sg16
I3
sg17
I60
sbs(I2
I20
tp108
g1
(g10
g3
NtRp109
(dp110
g13
F14.902800264856822
sg14
I2
sg15
I01
sg16
I20
sg17
I220
sbs(I1
I4
tp111
g1
(g10
g3
NtRp112
(dp113
g13
F-7.4034971483892544
sg14
I1
sg15
I01
sg16
I4
sg17
I6
sbs(I9
I10
tp114
g1
(g10
g3
NtRp115
(dp116
g13
F-17.825875117720063
sg14
I9
sg15
I01
sg16
I10
sg17
I90
sbs(I7
I5
tp117
g1
(g10
g3
NtRp118
(dp119
g13
F-22.519099121703366
sg14
I7
sg15
I01
sg16
I5
sg17
I30
sbs(I2
I3
tp120
g1
(g10
g3
NtRp121
(dp122
g13
F3.7901180664969383
sg14
I2
sg15
I01
sg16
I3
sg17
I5
sbs(I1
I9
tp123
g1
(g10
g3
NtRp124
(dp125
g13
F14.790207490994922
sg14
I1
sg15
I01
sg16
I9
sg17
I58
sbs(I8
I17
tp126
g1
(g10
g3
NtRp127
(dp128
g13
F8.6207927358568206
sg14
I8
sg15
I01
sg16
I17
sg17
I205
sbs(I4
I2
tp129
g1
(g10
g3
NtRp130
(dp131
g13
F-3.5216399462036465
sg14
I4
sg15
I01
sg16
I2
sg17
I7
sbs(I14
I2
tp132
g1
(g10
g3
NtRp133
(dp134
g13
F-15.72335827020661
sg14
I14
sg15
I01
sg16
I2
sg17
I138
sbs(I5
I3
tp135
g1
(g10
g3
NtRp136
(dp137
g13
F-9.4075222385136374
sg14
I5
sg15
I01
sg16
I3
sg17
I19
sbs(I3
I5
tp138
g1
(g10
g3
NtRp139
(dp140
g13
F26.211841120673906
sg14
I3
sg15
I01
sg16
I5
sg17
I14
sbs(I11
I7
tp141
g1
(g10
g3
NtRp142
(dp143
g13
F4.1241033658432595
sg14
I11
sg15
I01
sg16
I7
sg17
I168
sbs(I10
I5
tp144
g1
(g10
g3
NtRp145
(dp146
g13
F6.2939578360629653
sg14
I10
sg15
I01
sg16
I5
sg17
I76
sbs(I4
I6
tp147
g1
(g10
g3
NtRp148
(dp149
g13
F-11.511270736307168
sg14
I4
sg15
I01
sg16
I6
sg17
I22
sbs(I15
I2
tp150
g1
(g10
g3
NtRp151
(dp152
g13
F18.596505143323665
sg14
I15
sg15
I01
sg16
I2
sg17
I170
sbs(I8
I12
tp153
g1
(g10
g3
NtRp154
(dp155
g13
F-1.0056213640299108
sg14
I8
sg15
I01
sg16
I12
sg17
I88
sbs(I19
I16
tp156
g1
(g10
g3
NtRp157
(dp158
g13
F-2.2846873068377835
sg14
I19
sg15
I01
sg16
I16
sg17
I231
sbs(I22
I12
tp159
g1
(g10
g3
NtRp160
(dp161
g13
F10.644688148074128
sg14
I22
sg15
I01
sg16
I12
sg17
I226
sbs(I18
I10
tp162
g1
(g10
g3
NtRp163
(dp164
g13
F26.383242448190465
sg14
I18
sg15
I01
sg16
I10
sg17
I209
sbs(I8
I22
tp165
g1
(g10
g3
NtRp166
(dp167
g13
F-5.1785622315765814
sg14
I8
sg15
I01
sg16
I22
sg17
I225
sbs(I11
I3
tp168
g1
(g10
g3
NtRp169
(dp170
g13
F-7.6002077446780927
sg14
I11
sg15
I01
sg16
I3
sg17
I78
sbs(I21
I3
tp171
g1
(g10
g3
NtRp172
(dp173
g13
F-26.93723075096942
sg14
I21
sg15
I01
sg16
I3
sg17
I224
sbs(I3
I8
tp174
g1
(g10
g3
NtRp175
(dp176
g13
F6.9652180882300421
sg14
I3
sg15
I01
sg16
I8
sg17
I44
sbs(I8
I14
tp177
g1
(g10
g3
NtRp178
(dp179
g13
F-1.9753608742022664
sg14
I8
sg15
I00
sg16
I14
sg17
I119
sbs(I8
I18
tp180
g1
(g10
g3
NtRp181
(dp182
g13
F3.9711295274822351
sg14
I8
sg15
I01
sg16
I18
sg17
I208
sbs(I17
I12
tp183
g1
(g10
g3
NtRp184
(dp185
g13
F-8.2895121411661545
sg14
I17
sg15
I01
sg16
I12
sg17
I207
sbs(I1
I7
tp186
g1
(g10
g3
NtRp187
(dp188
g13
F13.054093317222746
sg14
I1
sg15
I01
sg16
I7
sg17
I29
sbs(I13
I9
tp189
g1
(g10
g3
NtRp190
(dp191
g13
F-7.882526947340585
sg14
I13
sg15
I01
sg16
I9
sg17
I112
sbs(I5
I2
tp192
g1
(g10
g3
NtRp193
(dp194
g13
F4.5053742280936415
sg14
I5
sg15
I01
sg16
I2
sg17
I9
sbs(I10
I2
tp195
g1
(g10
g3
NtRp196
(dp197
g13
F-6.5149961660535096
sg14
I10
sg15
I01
sg16
I2
sg17
I65
sbssS'_input_nodes'
p198
I1
sS'_output_nodes'
p199
I1
sS'_node_gene_type'
p200
cneat.genome
NodeGene
p201
sS'_conn_gene_type'
p202
g10
sS'fitness'
p203
F0.99646438337026322
sS'parent2_id'
p204
I7613
sS'_id'
p205
I7630
sS'parent1_id'
p206
I7613
sS'_node_genes'
p207
(lp208
g1
(g201
g3
NtRp209
(dp210
S'_bias'
p211
I0
sS'_type'
p212
S'INPUT'
p213
sg205
I1
sS'_response'
p214
F4.9242730000000003
sS'_activation_type'
p215
Nsbag1
(g201
g3
NtRp216
(dp217
g211
F-5.7839147961283954
sg212
S'OUTPUT'
p218
sg205
I2
sg214
F3.3680833078664527
sg215
S'tanh'
p219
sbag1
(g201
g3
NtRp220
(dp221
g211
F-3.4548855386337074
sg212
S'HIDDEN'
p222
sg205
I3
sg214
F1.9789841963679389
sg215
g219
sbag1
(g201
g3
NtRp223
(dp224
g211
F-3.7174025909908757
sg212
g222
sg205
I4
sg214
F4.6506149208696854
sg215
g219
sbag1
(g201
g3
NtRp225
(dp226
g211
F1.3801748564533642
sg212
g222
sg205
I5
sg214
F14.248890141197226
sg215
g219
sbag1
(g201
g3
NtRp227
(dp228
g211
F0.42342177364246936
sg212
g222
sg205
I6
sg214
F2.0390809872388482
sg215
g219
sbag1
(g201
g3
NtRp229
(dp230
g211
F-1.5001451860568134
sg212
g222
sg205
I7
sg214
F2.1234465240759164
sg215
g219
sbag1
(g201
g3
NtRp231
(dp232
g211
F-1.8029713797058962
sg212
g222
sg205
I8
sg214
F14.033318752465355
sg215
g219
sbag1
(g201
g3
NtRp233
(dp234
g211
F-0.59345268046622079
sg212
g222
sg205
I9
sg214
F7.5576524208068117
sg215
g219
sbag1
(g201
g3
NtRp235
(dp236
g211
F0.84906782568237693
sg212
g222
sg205
I10
sg214
F6.8202322040228278
sg215
g219
sbag1
(g201
g3
NtRp237
(dp238
g211
F0.46009175027485122
sg212
g222
sg205
I11
sg214
F5.5690039584707467
sg215
g219
sbag1
(g201
g3
NtRp239
(dp240
g211
F3.2484748793529152
sg212
g222
sg205
I12
sg214
F5.3286700058742653
sg215
g219
sbag1
(g201
g3
NtRp241
(dp242
g211
F-1.3630174659927319
sg212
g222
sg205
I13
sg214
F2.4335837227933812
sg215
g219
sbag1
(g201
g3
NtRp243
(dp244
g211
F2.2402366596636352
sg212
g222
sg205
I14
sg214
F3.9746771123333238
sg215
g219
sbag1
(g201
g3
NtRp245
(dp246
g211
F-3.9924016397429978
sg212
g222
sg205
I15
sg214
F5.5384542724141808
sg215
g219
sbag1
(g201
g3
NtRp247
(dp248
g211
F-1.5719844517702088
sg212
g222
sg205
I16
sg214
F5.719790141719554
sg215
g219
sbag1
(g201
g3
NtRp249
(dp250
g211
F-1.5549078780735597
sg212
g222
sg205
I17
sg214
F4.593392749694778
sg215
g219
sbag1
(g201
g3
NtRp251
(dp252
g211
F1.115912462674292
sg212
g222
sg205
I18
sg214
F4.1297767044676421
sg215
g219
sbag1
(g201
g3
NtRp253
(dp254
g211
F0.19294698302442329
sg212
g222
sg205
I19
sg214
F2.1234757915092262
sg215
g219
sbag1
(g201
g3
NtRp255
(dp256
g211
F2.2012237073793344
sg212
g222
sg205
I20
sg214
F5.2457347458817294
sg215
g219
sbag1
(g201
g3
NtRp257
(dp258
g211
F0.0025401927078752551
sg212
g222
sg205
I21
sg214
F6.5642316052226528
sg215
g219
sbag1
(g201
g3
NtRp259
(dp260
g211
F3.6002243921974353
sg212
g222
sg205
I22
sg214
F5.1161600674337002
sg215
g219
sbasb.