ccopy_reg
_reconstructor
p1
(cneat.chromosome
Chromosome
p2
c__builtin__
object
p3
NtRp4
(dp5
S'species_id'
p6
I10
sS'_connection_genes'
p7
(dp8
(I1
I2
tp9
g1
(cneat.genome
ConnectionGene
p10
g3
NtRp11
(dp12
S'_ConnectionGene__weight'
p13
F-20.970659114744169
sS'_ConnectionGene__in'
p14
I1
sS'_ConnectionGene__enabled'
p15
I01
sS'_ConnectionGene__out'
p16
I2
sS'_ConnectionGene__innov_number'
p17
I1
sbs(I3
I2
tp18
g1
(g10
g3
NtRp19
(dp20
g13
F-17.025247004841756
sg14
I3
sg15
I01
sg16
I2
sg17
I4
sbs(I2
I6
tp21
g1
(g10
g3
NtRp22
(dp23
g13
F1.1033559547982561
sg14
I2
sg15
I01
sg16
I6
sg17
I38
sbs(I4
I6
tp24
g1
(g10
g3
NtRp25
(dp26
g13
F20.743978012929372
sg14
I4
sg15
I01
sg16
I6
sg17
I22
sbs(I6
I6
tp27
g1
(g10
g3
NtRp28
(dp29
g13
F14.523183176268867
sg14
I6
sg15
I01
sg16
I6
sg17
I39
sbs(I2
I2
tp30
g1
(g10
g3
NtRp31
(dp32
g13
F5.2951478086346686
sg14
I2
sg15
I00
sg16
I2
sg17
I2
sbs(I1
I4
tp33
g1
(g10
g3
NtRp34
(dp35
g13
F-0.63029331023239954
sg14
I1
sg15
I01
sg16
I4
sg17
I6
sbs(I1
I5
tp36
g1
(g10
g3
NtRp37
(dp38
g13
F-0.77140933124290045
sg14
I1
sg15
I00
sg16
I5
sg17
I11
sbs(I7
I5
tp39
g1
(g10
g3
NtRp40
(dp41
g13
F1.0414380894592297
sg14
I7
sg15
I01
sg16
I5
sg17
I30
sbs(I2
I3
tp42
g1
(g10
g3
NtRp43
(dp44
g13
F-3.2804424183004763
sg14
I2
sg15
I01
sg16
I3
sg17
I5
sbs(I4
I3
tp45
g1
(g10
g3
NtRp46
(dp47
g13
F5.706315998146458
sg14
I4
sg15
I01
sg16
I3
sg17
I10
sbs(I1
I7
tp48
g1
(g10
g3
NtRp49
(dp50
g13
F6.2875844207529301
sg14
I1
sg15
I01
sg16
I7
sg17
I29
sbs(I6
I2
tp51
g1
(g10
g3
NtRp52
(dp53
g13
F1.3596173137083882
sg14
I6
sg15
I01
sg16
I2
sg17
I21
sbs(I4
I2
tp54
g1
(g10
g3
NtRp55
(dp56
g13
F-6.4616502437051944
sg14
I4
sg15
I00
sg16
I2
sg17
I7
sbs(I5
I2
tp57
g1
(g10
g3
NtRp58
(dp59
g13
F-21.490836843568815
sg14
I5
sg15
I00
sg16
I2
sg17
I9
sbs(I8
I2
tp60
g1
(g10
g3
NtRp61
(dp62
g13
F-11.729430899229733
sg14
I8
sg15
I01
sg16
I2
sg17
I43
sbs(I5
I8
tp63
g1
(g10
g3
NtRp64
(dp65
g13
F-6.0031229448376004
sg14
I5
sg15
I01
sg16
I8
sg17
I42
sbs(I3
I5
tp66
g1
(g10
g3
NtRp67
(dp68
g13
F-7.3924211704032317
sg14
I3
sg15
I01
sg16
I5
sg17
I14
sbssS'_input_nodes'
p69
I1
sS'_output_nodes'
p70
I1
sS'_node_gene_type'
p71
cneat.genome
NodeGene
p72
sS'_conn_gene_type'
p73
g10
sS'fitness'
p74
F0.98948112160595447
sS'parent2_id'
p75
I2175
sS'_id'
p76
I2193
sS'parent1_id'
p77
I2175
sS'_node_genes'
p78
(lp79
g1
(g72
g3
NtRp80
(dp81
S'_bias'
p82
I0
sS'_type'
p83
S'INPUT'
p84
sg76
I1
sS'_response'
p85
F4.9242730000000003
sS'_activation_type'
p86
Nsbag1
(g72
g3
NtRp87
(dp88
g82
F-3.3449498583159509
sg83
S'OUTPUT'
p89
sg76
I2
sg85
F6.0156031307889677
sg86
S'tanh'
p90
sbag1
(g72
g3
NtRp91
(dp92
g82
F-0.20904425469720822
sg83
S'HIDDEN'
p93
sg76
I3
sg85
F3.2153131935670696
sg86
g90
sbag1
(g72
g3
NtRp94
(dp95
g82
F-0.69749100642872697
sg83
g93
sg76
I4
sg85
F6.5664522733433364
sg86
g90
sbag1
(g72
g3
NtRp96
(dp97
g82
F2.1760229422763735
sg83
g93
sg76
I5
sg85
F8.573749498033802
sg86
g90
sbag1
(g72
g3
NtRp98
(dp99
g82
F0.49936635646864946
sg83
g93
sg76
I6
sg85
F7.3737101461306489
sg86
g90
sbag1
(g72
g3
NtRp100
(dp101
g82
F-1.1695972321461268
sg83
g93
sg76
I7
sg85
F5.1883476450764698
sg86
g90
sbag1
(g72
g3
NtRp102
(dp103
g82
F-0.14692761817715755
sg83
g93
sg76
I8
sg85
F4.2058791808138265
sg86
g90
sbasb.