ccopy_reg
_reconstructor
p1
(cneat.chromosome
Chromosome
p2
c__builtin__
object
p3
NtRp4
(dp5
S'species_id'
p6
I21
sS'_connection_genes'
p7
(dp8
(I1
I3
tp9
g1
(cneat.genome
ConnectionGene
p10
g3
NtRp11
(dp12
S'_ConnectionGene__weight'
p13
F-3.2924474502814443
sS'_ConnectionGene__in'
p14
I1
sS'_ConnectionGene__enabled'
p15
I00
sS'_ConnectionGene__out'
p16
I3
sS'_ConnectionGene__innov_number'
p17
I3
sbs(I6
I6
tp18
g1
(g10
g3
NtRp19
(dp20
g13
F10.697991664178819
sg14
I6
sg15
I01
sg16
I6
sg17
I39
sbs(I6
I2
tp21
g1
(g10
g3
NtRp22
(dp23
g13
F13.15159036404577
sg14
I6
sg15
I01
sg16
I2
sg17
I21
sbs(I5
I8
tp24
g1
(g10
g3
NtRp25
(dp26
g13
F5.2716442149386546
sg14
I5
sg15
I01
sg16
I8
sg17
I42
sbs(I1
I2
tp27
g1
(g10
g3
NtRp28
(dp29
g13
F-26.076733613089129
sg14
I1
sg15
I01
sg16
I2
sg17
I1
sbs(I3
I3
tp30
g1
(g10
g3
NtRp31
(dp32
g13
F2.9036840163508435
sg14
I3
sg15
I01
sg16
I3
sg17
I15
sbs(I2
I9
tp33
g1
(g10
g3
NtRp34
(dp35
g13
F-5.0527009359688204
sg14
I2
sg15
I01
sg16
I9
sg17
I53
sbs(I3
I10
tp36
g1
(g10
g3
NtRp37
(dp38
g13
F3.3271872173046395
sg14
I3
sg15
I01
sg16
I10
sg17
I64
sbs(I4
I4
tp39
g1
(g10
g3
NtRp40
(dp41
g13
F-15.669049345022712
sg14
I4
sg15
I01
sg16
I4
sg17
I16
sbs(I1
I5
tp42
g1
(g10
g3
NtRp43
(dp44
g13
F-4.0213411283343223
sg14
I1
sg15
I01
sg16
I5
sg17
I11
sbs(I2
I2
tp45
g1
(g10
g3
NtRp46
(dp47
g13
F23.298985862055467
sg14
I2
sg15
I00
sg16
I2
sg17
I2
sbs(I1
I10
tp48
g1
(g10
g3
NtRp49
(dp50
g13
F1.3023249396611689
sg14
I1
sg15
I01
sg16
I10
sg17
I71
sbs(I3
I5
tp51
g1
(g10
g3
NtRp52
(dp53
g13
F-18.155217120440241
sg14
I3
sg15
I01
sg16
I5
sg17
I14
sbs(I3
I2
tp54
g1
(g10
g3
NtRp55
(dp56
g13
F-23.641828566557095
sg14
I3
sg15
I01
sg16
I2
sg17
I4
sbs(I2
I6
tp57
g1
(g10
g3
NtRp58
(dp59
g13
F1.4636111851188378
sg14
I2
sg15
I01
sg16
I6
sg17
I38
sbs(I8
I2
tp60
g1
(g10
g3
NtRp61
(dp62
g13
F4.309554041046904
sg14
I8
sg15
I01
sg16
I2
sg17
I43
sbs(I9
I3
tp63
g1
(g10
g3
NtRp64
(dp65
g13
F21.963344229339221
sg14
I9
sg15
I01
sg16
I3
sg17
I60
sbs(I1
I4
tp66
g1
(g10
g3
NtRp67
(dp68
g13
F-5.0031065079696635
sg14
I1
sg15
I01
sg16
I4
sg17
I6
sbs(I7
I5
tp69
g1
(g10
g3
NtRp70
(dp71
g13
F18.690604415052267
sg14
I7
sg15
I01
sg16
I5
sg17
I30
sbs(I2
I3
tp72
g1
(g10
g3
NtRp73
(dp74
g13
F-24.729453781806907
sg14
I2
sg15
I01
sg16
I3
sg17
I5
sbs(I1
I9
tp75
g1
(g10
g3
NtRp76
(dp77
g13
F-7.6155475867087956
sg14
I1
sg15
I01
sg16
I9
sg17
I58
sbs(I4
I2
tp78
g1
(g10
g3
NtRp79
(dp80
g13
F-23.082388992163381
sg14
I4
sg15
I00
sg16
I2
sg17
I7
sbs(I5
I3
tp81
g1
(g10
g3
NtRp82
(dp83
g13
F-3.2512215586876705
sg14
I5
sg15
I01
sg16
I3
sg17
I19
sbs(I10
I5
tp84
g1
(g10
g3
NtRp85
(dp86
g13
F-14.821829818695088
sg14
I10
sg15
I01
sg16
I5
sg17
I76
sbs(I4
I6
tp87
g1
(g10
g3
NtRp88
(dp89
g13
F30
sg14
I4
sg15
I01
sg16
I6
sg17
I22
sbs(I4
I3
tp90
g1
(g10
g3
NtRp91
(dp92
g13
F14.593952541807219
sg14
I4
sg15
I01
sg16
I3
sg17
I10
sbs(I1
I7
tp93
g1
(g10
g3
NtRp94
(dp95
g13
F-2.2760993315548022
sg14
I1
sg15
I01
sg16
I7
sg17
I29
sbs(I5
I2
tp96
g1
(g10
g3
NtRp97
(dp98
g13
F-29.432851467324994
sg14
I5
sg15
I01
sg16
I2
sg17
I9
sbssS'_input_nodes'
p99
I1
sS'_output_nodes'
p100
I1
sS'_node_gene_type'
p101
cneat.genome
NodeGene
p102
sS'_conn_gene_type'
p103
g10
sS'fitness'
p104
F0.98995919259982335
sS'parent2_id'
p105
I3565
sS'_id'
p106
I3580
sS'parent1_id'
p107
I3565
sS'_node_genes'
p108
(lp109
g1
(g102
g3
NtRp110
(dp111
S'_bias'
p112
I0
sS'_type'
p113
S'INPUT'
p114
sg106
I1
sS'_response'
p115
F4.9242730000000003
sS'_activation_type'
p116
Nsbag1
(g102
g3
NtRp117
(dp118
g112
F-2.035520184571912
sg113
S'OUTPUT'
p119
sg106
I2
sg115
F4.3118495658146108
sg116
S'tanh'
p120
sbag1
(g102
g3
NtRp121
(dp122
g112
F2.2470784188168249
sg113
S'HIDDEN'
p123
sg106
I3
sg115
F4.1988471909315885
sg116
g120
sbag1
(g102
g3
NtRp124
(dp125
g112
F-0.68592911411765078
sg113
g123
sg106
I4
sg115
F2.9378367784744284
sg116
g120
sbag1
(g102
g3
NtRp126
(dp127
g112
F5.3027559563200484
sg113
g123
sg106
I5
sg115
F9.7975778398879374
sg116
g120
sbag1
(g102
g3
NtRp128
(dp129
g112
F2.4804055851649944
sg113
g123
sg106
I6
sg115
F10.738936301246047
sg116
g120
sbag1
(g102
g3
NtRp130
(dp131
g112
F-4.8929621682857753
sg113
g123
sg106
I7
sg115
F5.0744170174220038
sg116
g120
sbag1
(g102
g3
NtRp132
(dp133
g112
F1.9577665501675559
sg113
g123
sg106
I8
sg115
F5.1044288479791353
sg116
g120
sbag1
(g102
g3
NtRp134
(dp135
g112
F-3.0395217522888642
sg113
g123
sg106
I9
sg115
F5.6572032340337879
sg116
g120
sbag1
(g102
g3
NtRp136
(dp137
g112
F-1.2967458145542023
sg113
g123
sg106
I10
sg115
F4.6055056514388566
sg116
g120
sbasb.