ccopy_reg
_reconstructor
p1
(cneat.chromosome
Chromosome
p2
c__builtin__
object
p3
NtRp4
(dp5
S'species_id'
p6
I26
sS'_connection_genes'
p7
(dp8
(I1
I3
tp9
g1
(cneat.genome
ConnectionGene
p10
g3
NtRp11
(dp12
S'_ConnectionGene__weight'
p13
F-1.7505735601379273
sS'_ConnectionGene__in'
p14
I1
sS'_ConnectionGene__enabled'
p15
I01
sS'_ConnectionGene__out'
p16
I3
sS'_ConnectionGene__innov_number'
p17
I3
sbs(I6
I6
tp18
g1
(g10
g3
NtRp19
(dp20
g13
F13.361417922293493
sg14
I6
sg15
I01
sg16
I6
sg17
I39
sbs(I11
I2
tp21
g1
(g10
g3
NtRp22
(dp23
g13
F-17.716543260498113
sg14
I11
sg15
I01
sg16
I2
sg17
I80
sbs(I4
I6
tp24
g1
(g10
g3
NtRp25
(dp26
g13
F11.911612046536213
sg14
I4
sg15
I01
sg16
I6
sg17
I22
sbs(I6
I2
tp27
g1
(g10
g3
NtRp28
(dp29
g13
F8.5893571857987236
sg14
I6
sg15
I01
sg16
I2
sg17
I21
sbs(I3
I14
tp30
g1
(g10
g3
NtRp31
(dp32
g13
F-0.59272856646661243
sg14
I3
sg15
I01
sg16
I14
sg17
I155
sbs(I1
I2
tp33
g1
(g10
g3
NtRp34
(dp35
g13
F-20.501375099578361
sg14
I1
sg15
I01
sg16
I2
sg17
I1
sbs(I12
I2
tp36
g1
(g10
g3
NtRp37
(dp38
g13
F1.2425244270908187
sg14
I12
sg15
I01
sg16
I2
sg17
I82
sbs(I3
I3
tp39
g1
(g10
g3
NtRp40
(dp41
g13
F-4.8958126040660064
sg14
I3
sg15
I01
sg16
I3
sg17
I15
sbs(I14
I5
tp42
g1
(g10
g3
NtRp43
(dp44
g13
F7.1240096780379645
sg14
I14
sg15
I01
sg16
I5
sg17
I156
sbs(I13
I3
tp45
g1
(g10
g3
NtRp46
(dp47
g13
F-5.4664149995638818
sg14
I13
sg15
I01
sg16
I3
sg17
I92
sbs(I8
I10
tp48
g1
(g10
g3
NtRp49
(dp50
g13
F28.874336852858001
sg14
I8
sg15
I01
sg16
I10
sg17
I74
sbs(I4
I13
tp51
g1
(g10
g3
NtRp52
(dp53
g13
F-15.841012204447615
sg14
I4
sg15
I01
sg16
I13
sg17
I102
sbs(I1
I5
tp54
g1
(g10
g3
NtRp55
(dp56
g13
F-8.7641778003115292
sg14
I1
sg15
I00
sg16
I5
sg17
I11
sbs(I5
I8
tp57
g1
(g10
g3
NtRp58
(dp59
g13
F-4.3034705983335559
sg14
I5
sg15
I01
sg16
I8
sg17
I42
sbs(I2
I2
tp60
g1
(g10
g3
NtRp61
(dp62
g13
F24.258176035647814
sg14
I2
sg15
I01
sg16
I2
sg17
I2
sbs(I3
I2
tp63
g1
(g10
g3
NtRp64
(dp65
g13
F-22.792863322819422
sg14
I3
sg15
I01
sg16
I2
sg17
I4
sbs(I2
I6
tp66
g1
(g10
g3
NtRp67
(dp68
g13
F4.3160371190803772
sg14
I2
sg15
I01
sg16
I6
sg17
I38
sbs(I8
I2
tp69
g1
(g10
g3
NtRp70
(dp71
g13
F-16.032187472197904
sg14
I8
sg15
I01
sg16
I2
sg17
I43
sbs(I5
I11
tp72
g1
(g10
g3
NtRp73
(dp74
g13
F7.8711309430959249
sg14
I5
sg15
I01
sg16
I11
sg17
I79
sbs(I9
I3
tp75
g1
(g10
g3
NtRp76
(dp77
g13
F-9.183294425507551
sg14
I9
sg15
I01
sg16
I3
sg17
I60
sbs(I1
I4
tp78
g1
(g10
g3
NtRp79
(dp80
g13
F-3.3219122811467536
sg14
I1
sg15
I01
sg16
I4
sg17
I6
sbs(I9
I10
tp81
g1
(g10
g3
NtRp82
(dp83
g13
F-10.381899844356534
sg14
I9
sg15
I01
sg16
I10
sg17
I90
sbs(I7
I5
tp84
g1
(g10
g3
NtRp85
(dp86
g13
F0.3638464740357007
sg14
I7
sg15
I01
sg16
I5
sg17
I30
sbs(I2
I3
tp87
g1
(g10
g3
NtRp88
(dp89
g13
F-1.250187727535883
sg14
I2
sg15
I01
sg16
I3
sg17
I5
sbs(I1
I9
tp90
g1
(g10
g3
NtRp91
(dp92
g13
F-18.092627542313487
sg14
I1
sg15
I01
sg16
I9
sg17
I58
sbs(I4
I2
tp93
g1
(g10
g3
NtRp94
(dp95
g13
F-28.390611925765246
sg14
I4
sg15
I00
sg16
I2
sg17
I7
sbs(I3
I5
tp96
g1
(g10
g3
NtRp97
(dp98
g13
F3.9809985956086766
sg14
I3
sg15
I00
sg16
I5
sg17
I14
sbs(I2
I9
tp99
g1
(g10
g3
NtRp100
(dp101
g13
F13.503524986816572
sg14
I2
sg15
I01
sg16
I9
sg17
I53
sbs(I8
I12
tp102
g1
(g10
g3
NtRp103
(dp104
g13
F0.75047155920649167
sg14
I8
sg15
I01
sg16
I12
sg17
I88
sbs(I11
I3
tp105
g1
(g10
g3
NtRp106
(dp107
g13
F0.55372749420180378
sg14
I11
sg15
I01
sg16
I3
sg17
I78
sbs(I3
I8
tp108
g1
(g10
g3
NtRp109
(dp110
g13
F-2.9684227922533317
sg14
I3
sg15
I01
sg16
I8
sg17
I44
sbs(I4
I3
tp111
g1
(g10
g3
NtRp112
(dp113
g13
F-6.0526626913889832
sg14
I4
sg15
I00
sg16
I3
sg17
I10
sbs(I1
I7
tp114
g1
(g10
g3
NtRp115
(dp116
g13
F1.1729544674418246
sg14
I1
sg15
I01
sg16
I7
sg17
I29
sbs(I5
I2
tp117
g1
(g10
g3
NtRp118
(dp119
g13
F-18.157768882309746
sg14
I5
sg15
I00
sg16
I2
sg17
I9
sbs(I10
I2
tp120
g1
(g10
g3
NtRp121
(dp122
g13
F-1.5831929656930914
sg14
I10
sg15
I01
sg16
I2
sg17
I65
sbssS'_input_nodes'
p123
I1
sS'_output_nodes'
p124
I1
sS'_node_gene_type'
p125
cneat.genome
NodeGene
p126
sS'_conn_gene_type'
p127
g10
sS'fitness'
p128
F0.98482313454500192
sS'parent2_id'
p129
I4433
sS'_id'
p130
I4451
sS'parent1_id'
p131
I4433
sS'_node_genes'
p132
(lp133
g1
(g126
g3
NtRp134
(dp135
S'_bias'
p136
I0
sS'_type'
p137
S'INPUT'
p138
sg130
I1
sS'_response'
p139
F4.9242730000000003
sS'_activation_type'
p140
Nsbag1
(g126
g3
NtRp141
(dp142
g136
F-5.4670696071484715
sg137
S'OUTPUT'
p143
sg130
I2
sg139
F4.3629670598217727
sg140
S'tanh'
p144
sbag1
(g126
g3
NtRp145
(dp146
g136
F-0.48147175999347547
sg137
S'HIDDEN'
p147
sg130
I3
sg139
F3.0441803706593724
sg140
g144
sbag1
(g126
g3
NtRp148
(dp149
g136
F-1.237602153953316
sg137
g147
sg130
I4
sg139
F8.7062518629995225
sg140
g144
sbag1
(g126
g3
NtRp150
(dp151
g136
F3.125460869356953
sg137
g147
sg130
I5
sg139
F8.849055805557704
sg140
g144
sbag1
(g126
g3
NtRp152
(dp153
g136
F1.056097525900237
sg137
g147
sg130
I6
sg139
F6.6959795754566507
sg140
g144
sbag1
(g126
g3
NtRp154
(dp155
g136
F-2.3797989917347873
sg137
g147
sg130
I7
sg139
F2.7072499284691065
sg140
g144
sbag1
(g126
g3
NtRp156
(dp157
g136
F0.16731071643951978
sg137
g147
sg130
I8
sg139
F8.8436756557495606
sg140
g144
sbag1
(g126
g3
NtRp158
(dp159
g136
F-0.15578713054747637
sg137
g147
sg130
I9
sg139
F4.7553889958567677
sg140
g144
sbag1
(g126
g3
NtRp160
(dp161
g136
F-1.935811200584256
sg137
g147
sg130
I10
sg139
F5.7448037428152352
sg140
g144
sbag1
(g126
g3
NtRp162
(dp163
g136
F-1.5096011137521503
sg137
g147
sg130
I11
sg139
F6.9053234811636059
sg140
g144
sbag1
(g126
g3
NtRp164
(dp165
g136
F0.74952221258375973
sg137
g147
sg130
I12
sg139
F6.6532677413984187
sg140
g144
sbag1
(g126
g3
NtRp166
(dp167
g136
F-0.64728014796881383
sg137
g147
sg130
I13
sg139
F5.1407721365166532
sg140
g144
sbag1
(g126
g3
NtRp168
(dp169
g136
I0
sg137
g147
sg130
I14
sg139
F4.9242730000000003
sg140
g144
sbasb.