ccopy_reg
_reconstructor
p1
(cneat.chromosome
Chromosome
p2
c__builtin__
object
p3
NtRp4
(dp5
S'species_id'
p6
I52
sS'_connection_genes'
p7
(dp8
(I17
I12
tp9
g1
(cneat.genome
ConnectionGene
p10
g3
NtRp11
(dp12
S'_ConnectionGene__weight'
p13
F-7.4390765105899099
sS'_ConnectionGene__in'
p14
I17
sS'_ConnectionGene__enabled'
p15
I01
sS'_ConnectionGene__out'
p16
I12
sS'_ConnectionGene__innov_number'
p17
I207
sbs(I25
I16
tp18
g1
(g10
g3
NtRp19
(dp20
g13
F-3.2113170187552669
sg14
I25
sg15
I01
sg16
I16
sg17
I340
sbs(I1
I3
tp21
g1
(g10
g3
NtRp22
(dp23
g13
F-11.016747537211319
sg14
I1
sg15
I01
sg16
I3
sg17
I3
sbs(I6
I6
tp24
g1
(g10
g3
NtRp25
(dp26
g13
F21.596964853159001
sg14
I6
sg15
I01
sg16
I6
sg17
I39
sbs(I1
I26
tp27
g1
(g10
g3
NtRp28
(dp29
g13
F-10.103672350228944
sg14
I1
sg15
I01
sg16
I26
sg17
I364
sbs(I11
I2
tp30
g1
(g10
g3
NtRp31
(dp32
g13
F-11.971048931127738
sg14
I11
sg15
I01
sg16
I2
sg17
I80
sbs(I7
I11
tp33
g1
(g10
g3
NtRp34
(dp35
g13
F-5.4379240085710512
sg14
I7
sg15
I01
sg16
I11
sg17
I123
sbs(I1
I15
tp36
g1
(g10
g3
NtRp37
(dp38
g13
F-23.86954861407904
sg14
I1
sg15
I01
sg16
I15
sg17
I146
sbs(I23
I3
tp39
g1
(g10
g3
NtRp40
(dp41
g13
F-24.13092603303911
sg14
I23
sg15
I01
sg16
I3
sg17
I246
sbs(I6
I2
tp42
g1
(g10
g3
NtRp43
(dp44
g13
F19.41814490323258
sg14
I6
sg15
I01
sg16
I2
sg17
I21
sbs(I22
I6
tp45
g1
(g10
g3
NtRp46
(dp47
g13
F10.316869096080692
sg14
I22
sg15
I01
sg16
I6
sg17
I267
sbs(I16
I14
tp48
g1
(g10
g3
NtRp49
(dp50
g13
F-29.638938734007777
sg14
I16
sg15
I01
sg16
I14
sg17
I193
sbs(I5
I8
tp51
g1
(g10
g3
NtRp52
(dp53
g13
F-4.0461698068433414
sg14
I5
sg15
I00
sg16
I8
sg17
I42
sbs(I8
I2
tp54
g1
(g10
g3
NtRp55
(dp56
g13
F-13.345685702880873
sg14
I8
sg15
I01
sg16
I2
sg17
I43
sbs(I1
I2
tp57
g1
(g10
g3
NtRp58
(dp59
g13
F17.367914630036914
sg14
I1
sg15
I01
sg16
I2
sg17
I1
sbs(I12
I2
tp60
g1
(g10
g3
NtRp61
(dp62
g13
F24.456013913644174
sg14
I12
sg15
I01
sg16
I2
sg17
I82
sbs(I2
I19
tp63
g1
(g10
g3
NtRp64
(dp65
g13
F-6.326504967787935
sg14
I2
sg15
I01
sg16
I19
sg17
I210
sbs(I3
I3
tp66
g1
(g10
g3
NtRp67
(dp68
g13
F-24.702310818750856
sg14
I3
sg15
I01
sg16
I3
sg17
I15
sbs(I2
I9
tp69
g1
(g10
g3
NtRp70
(dp71
g13
F6.2145501676654966
sg14
I2
sg15
I01
sg16
I9
sg17
I53
sbs(I13
I3
tp72
g1
(g10
g3
NtRp73
(dp74
g13
F2.0804385306144648
sg14
I13
sg15
I00
sg16
I3
sg17
I92
sbs(I8
I10
tp75
g1
(g10
g3
NtRp76
(dp77
g13
F23.133394531645141
sg14
I8
sg15
I01
sg16
I10
sg17
I74
sbs(I21
I8
tp78
g1
(g10
g3
NtRp79
(dp80
g13
F1.8575012423430799
sg14
I21
sg15
I01
sg16
I8
sg17
I250
sbs(I4
I13
tp81
g1
(g10
g3
NtRp82
(dp83
g13
F-2.4694148136757805
sg14
I4
sg15
I01
sg16
I13
sg17
I102
sbs(I1
I5
tp84
g1
(g10
g3
NtRp85
(dp86
g13
F3.1168716720507312
sg14
I1
sg15
I01
sg16
I5
sg17
I11
sbs(I9
I11
tp87
g1
(g10
g3
NtRp88
(dp89
g13
F25.111162179543303
sg14
I9
sg15
I01
sg16
I11
sg17
I101
sbs(I19
I3
tp90
g1
(g10
g3
NtRp91
(dp92
g13
F29.463907694245854
sg14
I19
sg15
I01
sg16
I3
sg17
I212
sbs(I2
I2
tp93
g1
(g10
g3
NtRp94
(dp95
g13
F-3.2108478385855959
sg14
I2
sg15
I01
sg16
I2
sg17
I2
sbs(I12
I10
tp96
g1
(g10
g3
NtRp97
(dp98
g13
F25.466214221822966
sg14
I12
sg15
I01
sg16
I10
sg17
I105
sbs(I8
I16
tp99
g1
(g10
g3
NtRp100
(dp101
g13
F-11.635942919378188
sg14
I8
sg15
I00
sg16
I16
sg17
I177
sbs(I12
I3
tp102
g1
(g10
g3
NtRp103
(dp104
g13
F22.886250003668447
sg14
I12
sg15
I01
sg16
I3
sg17
I86
sbs(I8
I18
tp105
g1
(g10
g3
NtRp106
(dp107
g13
F3.9165139469141752
sg14
I8
sg15
I01
sg16
I18
sg17
I208
sbs(I8
I25
tp108
g1
(g10
g3
NtRp109
(dp110
g13
F-0.6990783144132735
sg14
I8
sg15
I01
sg16
I25
sg17
I339
sbs(I3
I2
tp111
g1
(g10
g3
NtRp112
(dp113
g13
F-26.386830659607625
sg14
I3
sg15
I01
sg16
I2
sg17
I4
sbs(I2
I6
tp114
g1
(g10
g3
NtRp115
(dp116
g13
F-14.907721165232065
sg14
I2
sg15
I00
sg16
I6
sg17
I38
sbs(I20
I22
tp117
g1
(g10
g3
NtRp118
(dp119
g13
F12.811822681649003
sg14
I20
sg15
I01
sg16
I22
sg17
I266
sbs(I5
I11
tp120
g1
(g10
g3
NtRp121
(dp122
g13
F-14.980676515099606
sg14
I5
sg15
I01
sg16
I11
sg17
I79
sbs(I15
I3
tp123
g1
(g10
g3
NtRp124
(dp125
g13
F-13.588236356768633
sg14
I15
sg15
I01
sg16
I3
sg17
I147
sbs(I9
I3
tp126
g1
(g10
g3
NtRp127
(dp128
g13
F-16.357528769590072
sg14
I9
sg15
I01
sg16
I3
sg17
I60
sbs(I2
I20
tp129
g1
(g10
g3
NtRp130
(dp131
g13
F17.832276436124722
sg14
I2
sg15
I01
sg16
I20
sg17
I220
sbs(I1
I4
tp132
g1
(g10
g3
NtRp133
(dp134
g13
F-14.407621701519634
sg14
I1
sg15
I00
sg16
I4
sg17
I6
sbs(I9
I10
tp135
g1
(g10
g3
NtRp136
(dp137
g13
F-5.8131210368583766
sg14
I9
sg15
I01
sg16
I10
sg17
I90
sbs(I7
I5
tp138
g1
(g10
g3
NtRp139
(dp140
g13
F15.026430268270285
sg14
I7
sg15
I01
sg16
I5
sg17
I30
sbs(I2
I3
tp141
g1
(g10
g3
NtRp142
(dp143
g13
F19.357200958579693
sg14
I2
sg15
I00
sg16
I3
sg17
I5
sbs(I1
I9
tp144
g1
(g10
g3
NtRp145
(dp146
g13
F27.933758751714066
sg14
I1
sg15
I01
sg16
I9
sg17
I58
sbs(I8
I17
tp147
g1
(g10
g3
NtRp148
(dp149
g13
F17.688425668028767
sg14
I8
sg15
I01
sg16
I17
sg17
I205
sbs(I4
I2
tp150
g1
(g10
g3
NtRp151
(dp152
g13
F-13.012573284157753
sg14
I4
sg15
I01
sg16
I2
sg17
I7
sbs(I14
I2
tp153
g1
(g10
g3
NtRp154
(dp155
g13
F0.62495881013424137
sg14
I14
sg15
I01
sg16
I2
sg17
I138
sbs(I3
I5
tp156
g1
(g10
g3
NtRp157
(dp158
g13
F25.620874692791308
sg14
I3
sg15
I01
sg16
I5
sg17
I14
sbs(I10
I5
tp159
g1
(g10
g3
NtRp160
(dp161
g13
F-8.3259984663000708
sg14
I10
sg15
I01
sg16
I5
sg17
I76
sbs(I13
I23
tp162
g1
(g10
g3
NtRp163
(dp164
g13
F8.0984277244385687
sg14
I13
sg15
I01
sg16
I23
sg17
I287
sbs(I4
I6
tp165
g1
(g10
g3
NtRp166
(dp167
g13
F-16.553190437108498
sg14
I4
sg15
I01
sg16
I6
sg17
I22
sbs(I15
I2
tp168
g1
(g10
g3
NtRp169
(dp170
g13
F4.0495518221999252
sg14
I15
sg15
I01
sg16
I2
sg17
I170
sbs(I8
I12
tp171
g1
(g10
g3
NtRp172
(dp173
g13
F3.9644563269284561
sg14
I8
sg15
I01
sg16
I12
sg17
I88
sbs(I18
I10
tp174
g1
(g10
g3
NtRp175
(dp176
g13
F14.345448235106216
sg14
I18
sg15
I01
sg16
I10
sg17
I209
sbs(I20
I24
tp177
g1
(g10
g3
NtRp178
(dp179
g13
F-10.443030813330363
sg14
I20
sg15
I01
sg16
I24
sg17
I330
sbs(I5
I21
tp180
g1
(g10
g3
NtRp181
(dp182
g13
F24.352372740407532
sg14
I5
sg15
I01
sg16
I21
sg17
I249
sbs(I11
I3
tp183
g1
(g10
g3
NtRp184
(dp185
g13
F-9.9964626044282454
sg14
I11
sg15
I01
sg16
I3
sg17
I78
sbs(I24
I6
tp186
g1
(g10
g3
NtRp187
(dp188
g13
F-11.132993234696613
sg14
I24
sg15
I01
sg16
I6
sg17
I328
sbs(I3
I8
tp189
g1
(g10
g3
NtRp190
(dp191
g13
F11.489625790587233
sg14
I3
sg15
I01
sg16
I8
sg17
I44
sbs(I8
I14
tp192
g1
(g10
g3
NtRp193
(dp194
g13
F13.688763781481292
sg14
I8
sg15
I01
sg16
I14
sg17
I119
sbs(I20
I6
tp195
g1
(g10
g3
NtRp196
(dp197
g13
F-16.889606185420977
sg14
I20
sg15
I01
sg16
I6
sg17
I221
sbs(I4
I3
tp198
g1
(g10
g3
NtRp199
(dp200
g13
F-8.4463789024763347
sg14
I4
sg15
I01
sg16
I3
sg17
I10
sbs(I1
I7
tp201
g1
(g10
g3
NtRp202
(dp203
g13
F-21.68070078572941
sg14
I1
sg15
I01
sg16
I7
sg17
I29
sbs(I13
I9
tp204
g1
(g10
g3
NtRp205
(dp206
g13
F-4.7574028976230984
sg14
I13
sg15
I01
sg16
I9
sg17
I112
sbs(I10
I2
tp207
g1
(g10
g3
NtRp208
(dp209
g13
F-20.102666875458372
sg14
I10
sg15
I01
sg16
I2
sg17
I65
sbs(I5
I2
tp210
g1
(g10
g3
NtRp211
(dp212
g13
F-21.962908239287376
sg14
I5
sg15
I01
sg16
I2
sg17
I9
sbs(I26
I4
tp213
g1
(g10
g3
NtRp214
(dp215
g13
F-16.822078041472611
sg14
I26
sg15
I01
sg16
I4
sg17
I365
sbssS'_input_nodes'
p216
I1
sS'_output_nodes'
p217
I1
sS'_node_gene_type'
p218
cneat.genome
NodeGene
p219
sS'_conn_gene_type'
p220
g10
sS'fitness'
p221
F0.9839955414482543
sS'parent2_id'
p222
I8692
sS'_id'
p223
I8720
sS'parent1_id'
p224
I8692
sS'_node_genes'
p225
(lp226
g1
(g219
g3
NtRp227
(dp228
S'_bias'
p229
I0
sS'_type'
p230
S'INPUT'
p231
sg223
I1
sS'_response'
p232
F4.9242730000000003
sS'_activation_type'
p233
Nsbag1
(g219
g3
NtRp234
(dp235
g229
F-6.5764535777169835
sg230
S'OUTPUT'
p236
sg223
I2
sg232
F4.1285520470668411
sg233
S'tanh'
p237
sbag1
(g219
g3
NtRp238
(dp239
g229
F2.8476432380355954
sg230
S'HIDDEN'
p240
sg223
I3
sg232
F1.8386530766993734
sg233
g237
sbag1
(g219
g3
NtRp241
(dp242
g229
F-0.72570564949695859
sg230
g240
sg223
I4
sg232
F6.9176410460823305
sg233
g237
sbag1
(g219
g3
NtRp243
(dp244
g229
F5.0215275093997951
sg230
g240
sg223
I5
sg232
F6.9225343469779848
sg233
g237
sbag1
(g219
g3
NtRp245
(dp246
g229
F-1.6890970610605411
sg230
g240
sg223
I6
sg232
F4.7229344678872449
sg233
g237
sbag1
(g219
g3
NtRp247
(dp248
g229
F2.4439516988258738
sg230
g240
sg223
I7
sg232
F-2.7844962108473523
sg233
g237
sbag1
(g219
g3
NtRp249
(dp250
g229
F-3.5459677699848138
sg230
g240
sg223
I8
sg232
F7.769548161090956
sg233
g237
sbag1
(g219
g3
NtRp251
(dp252
g229
F1.5100457576631758
sg230
g240
sg223
I9
sg232
F4.3593393826165876
sg233
g237
sbag1
(g219
g3
NtRp253
(dp254
g229
F1.9995154510885271
sg230
g240
sg223
I10
sg232
F6.5323765253441266
sg233
g237
sbag1
(g219
g3
NtRp255
(dp256
g229
F3.1531733292608237
sg230
g240
sg223
I11
sg232
F6.9168525598951689
sg233
g237
sbag1
(g219
g3
NtRp257
(dp258
g229
F1.171899076876336
sg230
g240
sg223
I12
sg232
F6.1306072865800942
sg233
g237
sbag1
(g219
g3
NtRp259
(dp260
g229
F-2.0366749526560222
sg230
g240
sg223
I13
sg232
F3.6451125771187378
sg233
g237
sbag1
(g219
g3
NtRp261
(dp262
g229
F3.6373472089251218
sg230
g240
sg223
I14
sg232
F5.2067268933326094
sg233
g237
sbag1
(g219
g3
NtRp263
(dp264
g229
F-4.5625119375161667
sg230
g240
sg223
I15
sg232
F4.7375696971657577
sg233
g237
sbag1
(g219
g3
NtRp265
(dp266
g229
F3.2743759730642807
sg230
g240
sg223
I16
sg232
F3.2957876073744616
sg233
g237
sbag1
(g219
g3
NtRp267
(dp268
g229
F2.936168720180524
sg230
g240
sg223
I17
sg232
F5.8525087059452465
sg233
g237
sbag1
(g219
g3
NtRp269
(dp270
g229
F1.0113020583534711
sg230
g240
sg223
I18
sg232
F1.5740935132134979
sg233
g237
sbag1
(g219
g3
NtRp271
(dp272
g229
F1.8670721184028096
sg230
g240
sg223
I19
sg232
F-2.3961399473816698
sg233
g237
sbag1
(g219
g3
NtRp273
(dp274
g229
F0.27588883589113355
sg230
g240
sg223
I20
sg232
F1.3335531592318191
sg233
g237
sbag1
(g219
g3
NtRp275
(dp276
g229
F-0.13665714317017263
sg230
g240
sg223
I21
sg232
F2.3980853061011458
sg233
g237
sbag1
(g219
g3
NtRp277
(dp278
g229
F0.91657656074921745
sg230
g240
sg223
I22
sg232
F6.0903676886565048
sg233
g237
sbag1
(g219
g3
NtRp279
(dp280
g229
F0.96405850577351881
sg230
g240
sg223
I23
sg232
F4.9850879364524969
sg233
g237
sbag1
(g219
g3
NtRp281
(dp282
g229
F0.50617499894436913
sg230
g240
sg223
I24
sg232
F5.7863094840873606
sg233
g237
sbag1
(g219
g3
NtRp283
(dp284
g229
F-2.2781201751981452
sg230
g240
sg223
I25
sg232
F4.6128408684694531
sg233
g237
sbag1
(g219
g3
NtRp285
(dp286
g229
F-1.083264646629736
sg230
g240
sg223
I26
sg232
F4.1255442597703968
sg233
g237
sbasb.