ccopy_reg
_reconstructor
p1
(cneat.chromosome
Chromosome
p2
c__builtin__
object
p3
NtRp4
(dp5
S'species_id'
p6
I21
sS'_connection_genes'
p7
(dp8
(I1
I3
tp9
g1
(cneat.genome
ConnectionGene
p10
g3
NtRp11
(dp12
S'_ConnectionGene__weight'
p13
F0.50693137919374953
sS'_ConnectionGene__in'
p14
I1
sS'_ConnectionGene__enabled'
p15
I01
sS'_ConnectionGene__out'
p16
I3
sS'_ConnectionGene__innov_number'
p17
I3
sbs(I6
I6
tp18
g1
(g10
g3
NtRp19
(dp20
g13
F11.741103419717392
sg14
I6
sg15
I01
sg16
I6
sg17
I39
sbs(I6
I2
tp21
g1
(g10
g3
NtRp22
(dp23
g13
F10.057577180610293
sg14
I6
sg15
I01
sg16
I2
sg17
I21
sbs(I5
I8
tp24
g1
(g10
g3
NtRp25
(dp26
g13
F12.138271964672715
sg14
I5
sg15
I01
sg16
I8
sg17
I42
sbs(I1
I2
tp27
g1
(g10
g3
NtRp28
(dp29
g13
F-23.269945710226111
sg14
I1
sg15
I01
sg16
I2
sg17
I1
sbs(I3
I3
tp30
g1
(g10
g3
NtRp31
(dp32
g13
F1.556054786741714
sg14
I3
sg15
I01
sg16
I3
sg17
I15
sbs(I2
I9
tp33
g1
(g10
g3
NtRp34
(dp35
g13
F2.2787268921040327
sg14
I2
sg15
I01
sg16
I9
sg17
I53
sbs(I3
I10
tp36
g1
(g10
g3
NtRp37
(dp38
g13
F2.3194490707748017
sg14
I3
sg15
I01
sg16
I10
sg17
I64
sbs(I4
I4
tp39
g1
(g10
g3
NtRp40
(dp41
g13
F-18.240410737495449
sg14
I4
sg15
I01
sg16
I4
sg17
I16
sbs(I1
I5
tp42
g1
(g10
g3
NtRp43
(dp44
g13
F1.4847069156636834
sg14
I1
sg15
I01
sg16
I5
sg17
I11
sbs(I2
I2
tp45
g1
(g10
g3
NtRp46
(dp47
g13
F22.46888082111802
sg14
I2
sg15
I01
sg16
I2
sg17
I2
sbs(I1
I10
tp48
g1
(g10
g3
NtRp49
(dp50
g13
F-1.1286391200944859
sg14
I1
sg15
I01
sg16
I10
sg17
I71
sbs(I3
I5
tp51
g1
(g10
g3
NtRp52
(dp53
g13
F-21.46533715330909
sg14
I3
sg15
I01
sg16
I5
sg17
I14
sbs(I3
I2
tp54
g1
(g10
g3
NtRp55
(dp56
g13
F-25.635732450901937
sg14
I3
sg15
I01
sg16
I2
sg17
I4
sbs(I2
I6
tp57
g1
(g10
g3
NtRp58
(dp59
g13
F-4.2609572696945346
sg14
I2
sg15
I01
sg16
I6
sg17
I38
sbs(I8
I2
tp60
g1
(g10
g3
NtRp61
(dp62
g13
F1.588001178754685
sg14
I8
sg15
I01
sg16
I2
sg17
I43
sbs(I9
I3
tp63
g1
(g10
g3
NtRp64
(dp65
g13
F23.963538306362651
sg14
I9
sg15
I01
sg16
I3
sg17
I60
sbs(I1
I4
tp66
g1
(g10
g3
NtRp67
(dp68
g13
F-8.4294873452519248
sg14
I1
sg15
I01
sg16
I4
sg17
I6
sbs(I7
I5
tp69
g1
(g10
g3
NtRp70
(dp71
g13
F24.785506963386069
sg14
I7
sg15
I01
sg16
I5
sg17
I30
sbs(I2
I3
tp72
g1
(g10
g3
NtRp73
(dp74
g13
F-26.173402801978302
sg14
I2
sg15
I01
sg16
I3
sg17
I5
sbs(I1
I9
tp75
g1
(g10
g3
NtRp76
(dp77
g13
F-8.3340774633167154
sg14
I1
sg15
I01
sg16
I9
sg17
I58
sbs(I4
I2
tp78
g1
(g10
g3
NtRp79
(dp80
g13
F-26.105085905194649
sg14
I4
sg15
I00
sg16
I2
sg17
I7
sbs(I5
I3
tp81
g1
(g10
g3
NtRp82
(dp83
g13
F-11.002626776927928
sg14
I5
sg15
I01
sg16
I3
sg17
I19
sbs(I10
I5
tp84
g1
(g10
g3
NtRp85
(dp86
g13
F-7.9594308881578177
sg14
I10
sg15
I01
sg16
I5
sg17
I76
sbs(I4
I6
tp87
g1
(g10
g3
NtRp88
(dp89
g13
F22.177699160841698
sg14
I4
sg15
I01
sg16
I6
sg17
I22
sbs(I9
I2
tp90
g1
(g10
g3
NtRp91
(dp92
g13
F-0.81835960429826171
sg14
I9
sg15
I01
sg16
I2
sg17
I49
sbs(I4
I3
tp93
g1
(g10
g3
NtRp94
(dp95
g13
F18.942072107040108
sg14
I4
sg15
I01
sg16
I3
sg17
I10
sbs(I1
I7
tp96
g1
(g10
g3
NtRp97
(dp98
g13
F-2.5940429812226489
sg14
I1
sg15
I01
sg16
I7
sg17
I29
sbs(I5
I2
tp99
g1
(g10
g3
NtRp100
(dp101
g13
F-29.069937065396037
sg14
I5
sg15
I01
sg16
I2
sg17
I9
sbssS'_input_nodes'
p102
I1
sS'_output_nodes'
p103
I1
sS'_node_gene_type'
p104
cneat.genome
NodeGene
p105
sS'_conn_gene_type'
p106
g10
sS'fitness'
p107
F0.94650563012448907
sS'parent2_id'
p108
I3779
sS'_id'
p109
I3797
sS'parent1_id'
p110
I3779
sS'_node_genes'
p111
(lp112
g1
(g105
g3
NtRp113
(dp114
S'_bias'
p115
I0
sS'_type'
p116
S'INPUT'
p117
sg109
I1
sS'_response'
p118
F4.9242730000000003
sS'_activation_type'
p119
Nsbag1
(g105
g3
NtRp120
(dp121
g115
F-2.3637737753048564
sg116
S'OUTPUT'
p122
sg109
I2
sg118
F4.3118495658146108
sg119
S'tanh'
p123
sbag1
(g105
g3
NtRp124
(dp125
g115
F3.3304044604541994
sg116
S'HIDDEN'
p126
sg109
I3
sg118
F4.1988471909315885
sg119
g123
sbag1
(g105
g3
NtRp127
(dp128
g115
F0.34320191099662983
sg116
g126
sg109
I4
sg118
F3.2160765943301177
sg119
g123
sbag1
(g105
g3
NtRp129
(dp130
g115
F5.0661637709417304
sg116
g126
sg109
I5
sg118
F9.7975778398879374
sg119
g123
sbag1
(g105
g3
NtRp131
(dp132
g115
F2.2669520939418706
sg116
g126
sg109
I6
sg118
F11.050083550575687
sg119
g123
sbag1
(g105
g3
NtRp133
(dp134
g115
F-4.8929621682857753
sg116
g126
sg109
I7
sg118
F4.7612004471700713
sg119
g123
sbag1
(g105
g3
NtRp135
(dp136
g115
F1.818531244166242
sg116
g126
sg109
I8
sg118
F5.1044288479791353
sg119
g123
sbag1
(g105
g3
NtRp137
(dp138
g115
F-3.8799560447038139
sg116
g126
sg109
I9
sg118
F5.8222446269308197
sg119
g123
sbag1
(g105
g3
NtRp139
(dp140
g115
F-2.3697013550950512
sg116
g126
sg109
I10
sg118
F4.2271440397382891
sg119
g123
sbasb.