ccopy_reg
_reconstructor
p1
(cneat.chromosome
Chromosome
p2
c__builtin__
object
p3
NtRp4
(dp5
S'species_id'
p6
I13
sS'_connection_genes'
p7
(dp8
(I1
I2
tp9
g1
(cneat.genome
ConnectionGene
p10
g3
NtRp11
(dp12
S'_ConnectionGene__weight'
p13
F-17.187066503226049
sS'_ConnectionGene__in'
p14
I1
sS'_ConnectionGene__enabled'
p15
I01
sS'_ConnectionGene__out'
p16
I2
sS'_ConnectionGene__innov_number'
p17
I1
sbs(I3
I2
tp18
g1
(g10
g3
NtRp19
(dp20
g13
F-23.736503645662172
sg14
I3
sg15
I01
sg16
I2
sg17
I4
sbs(I2
I6
tp21
g1
(g10
g3
NtRp22
(dp23
g13
F4.9970285496290732
sg14
I2
sg15
I01
sg16
I6
sg17
I38
sbs(I4
I6
tp24
g1
(g10
g3
NtRp25
(dp26
g13
F19.982982998491078
sg14
I4
sg15
I01
sg16
I6
sg17
I22
sbs(I6
I6
tp27
g1
(g10
g3
NtRp28
(dp29
g13
F23.431855687734107
sg14
I6
sg15
I01
sg16
I6
sg17
I39
sbs(I2
I2
tp30
g1
(g10
g3
NtRp31
(dp32
g13
F11.535499078788812
sg14
I2
sg15
I00
sg16
I2
sg17
I2
sbs(I1
I4
tp33
g1
(g10
g3
NtRp34
(dp35
g13
F-7.8302217975777051
sg14
I1
sg15
I01
sg16
I4
sg17
I6
sbs(I6
I2
tp36
g1
(g10
g3
NtRp37
(dp38
g13
F12.309535882348925
sg14
I6
sg15
I01
sg16
I2
sg17
I21
sbs(I1
I5
tp39
g1
(g10
g3
NtRp40
(dp41
g13
F-5.0041806957993282
sg14
I1
sg15
I00
sg16
I5
sg17
I11
sbs(I7
I5
tp42
g1
(g10
g3
NtRp43
(dp44
g13
F6.7683008707419878
sg14
I7
sg15
I01
sg16
I5
sg17
I30
sbs(I2
I3
tp45
g1
(g10
g3
NtRp46
(dp47
g13
F-8.8159526187319717
sg14
I2
sg15
I01
sg16
I3
sg17
I5
sbs(I4
I3
tp48
g1
(g10
g3
NtRp49
(dp50
g13
F3.1411302671552921
sg14
I4
sg15
I01
sg16
I3
sg17
I10
sbs(I1
I7
tp51
g1
(g10
g3
NtRp52
(dp53
g13
F5.1324802195504038
sg14
I1
sg15
I01
sg16
I7
sg17
I29
sbs(I1
I3
tp54
g1
(g10
g3
NtRp55
(dp56
g13
F2.4637668742129364
sg14
I1
sg15
I01
sg16
I3
sg17
I3
sbs(I4
I2
tp57
g1
(g10
g3
NtRp58
(dp59
g13
F-9.2542448015521561
sg14
I4
sg15
I00
sg16
I2
sg17
I7
sbs(I3
I5
tp60
g1
(g10
g3
NtRp61
(dp62
g13
F-11.50593121425025
sg14
I3
sg15
I01
sg16
I5
sg17
I14
sbs(I5
I2
tp63
g1
(g10
g3
NtRp64
(dp65
g13
F-17.902571322440995
sg14
I5
sg15
I00
sg16
I2
sg17
I9
sbs(I8
I2
tp66
g1
(g10
g3
NtRp67
(dp68
g13
F-12.044076301952263
sg14
I8
sg15
I01
sg16
I2
sg17
I43
sbs(I5
I8
tp69
g1
(g10
g3
NtRp70
(dp71
g13
F1.8292336840559653
sg14
I5
sg15
I01
sg16
I8
sg17
I42
sbs(I3
I3
tp72
g1
(g10
g3
NtRp73
(dp74
g13
F-11.986610115203522
sg14
I3
sg15
I01
sg16
I3
sg17
I15
sbssS'_input_nodes'
p75
I1
sS'_output_nodes'
p76
I1
sS'_node_gene_type'
p77
cneat.genome
NodeGene
p78
sS'_conn_gene_type'
p79
g10
sS'fitness'
p80
F0.99176189691584515
sS'parent2_id'
p81
I2391
sS'_id'
p82
I2407
sS'parent1_id'
p83
I2391
sS'_node_genes'
p84
(lp85
g1
(g78
g3
NtRp86
(dp87
S'_bias'
p88
I0
sS'_type'
p89
S'INPUT'
p90
sg82
I1
sS'_response'
p91
F4.9242730000000003
sS'_activation_type'
p92
Nsbag1
(g78
g3
NtRp93
(dp94
g88
F-3.9337539365601426
sg89
S'OUTPUT'
p95
sg82
I2
sg91
F5.5467003845268223
sg92
S'tanh'
p96
sbag1
(g78
g3
NtRp97
(dp98
g88
F-1.0438587953371896
sg89
S'HIDDEN'
p99
sg82
I3
sg91
F3.8666827925001712
sg92
g96
sbag1
(g78
g3
NtRp100
(dp101
g88
F-0.28194752823953961
sg89
g99
sg82
I4
sg91
F5.1803764544879183
sg92
g96
sbag1
(g78
g3
NtRp102
(dp103
g88
F2.929763807333067
sg89
g99
sg82
I5
sg91
F10.366006214477872
sg92
g96
sbag1
(g78
g3
NtRp104
(dp105
g88
F2.0652759128797427
sg89
g99
sg82
I6
sg91
F7.3737101461306489
sg92
g96
sbag1
(g78
g3
NtRp106
(dp107
g88
F-1.4797672147107062
sg89
g99
sg82
I7
sg91
F4.4034010049151382
sg92
g96
sbag1
(g78
g3
NtRp108
(dp109
g88
F1.1325191068144291
sg89
g99
sg82
I8
sg91
F4.3683398863155718
sg92
g96
sbasb.