ccopy_reg
_reconstructor
p1
(cneat.chromosome
Chromosome
p2
c__builtin__
object
p3
NtRp4
(dp5
S'species_id'
p6
I18
sS'_connection_genes'
p7
(dp8
(I1
I3
tp9
g1
(cneat.genome
ConnectionGene
p10
g3
NtRp11
(dp12
S'_ConnectionGene__weight'
p13
F-7.3470383823656267
sS'_ConnectionGene__in'
p14
I1
sS'_ConnectionGene__enabled'
p15
I00
sS'_ConnectionGene__out'
p16
I3
sS'_ConnectionGene__innov_number'
p17
I3
sbs(I6
I6
tp18
g1
(g10
g3
NtRp19
(dp20
g13
F18.142874570114518
sg14
I6
sg15
I01
sg16
I6
sg17
I39
sbs(I11
I2
tp21
g1
(g10
g3
NtRp22
(dp23
g13
F-15.732759713157044
sg14
I11
sg15
I01
sg16
I2
sg17
I80
sbs(I6
I2
tp24
g1
(g10
g3
NtRp25
(dp26
g13
F16.568564152747665
sg14
I6
sg15
I01
sg16
I2
sg17
I21
sbs(I5
I8
tp27
g1
(g10
g3
NtRp28
(dp29
g13
F6.9671945549569729
sg14
I5
sg15
I01
sg16
I8
sg17
I42
sbs(I1
I2
tp30
g1
(g10
g3
NtRp31
(dp32
g13
F-10.201145655002014
sg14
I1
sg15
I01
sg16
I2
sg17
I1
sbs(I3
I3
tp33
g1
(g10
g3
NtRp34
(dp35
g13
F-19.313793104219542
sg14
I3
sg15
I01
sg16
I3
sg17
I15
sbs(I2
I9
tp36
g1
(g10
g3
NtRp37
(dp38
g13
F7.1739212585384076
sg14
I2
sg15
I01
sg16
I9
sg17
I53
sbs(I11
I5
tp39
g1
(g10
g3
NtRp40
(dp41
g13
F-13.370119680637238
sg14
I11
sg15
I01
sg16
I5
sg17
I87
sbs(I8
I10
tp42
g1
(g10
g3
NtRp43
(dp44
g13
F-4.7508071003865426
sg14
I8
sg15
I01
sg16
I10
sg17
I74
sbs(I1
I5
tp45
g1
(g10
g3
NtRp46
(dp47
g13
F3.3258654272141253
sg14
I1
sg15
I00
sg16
I5
sg17
I11
sbs(I2
I2
tp48
g1
(g10
g3
NtRp49
(dp50
g13
F15.987841959443379
sg14
I2
sg15
I01
sg16
I2
sg17
I2
sbs(I12
I3
tp51
g1
(g10
g3
NtRp52
(dp53
g13
F3.5354657449138962
sg14
I12
sg15
I01
sg16
I3
sg17
I86
sbs(I3
I2
tp54
g1
(g10
g3
NtRp55
(dp56
g13
F-26.388176981666412
sg14
I3
sg15
I01
sg16
I2
sg17
I4
sbs(I2
I6
tp57
g1
(g10
g3
NtRp58
(dp59
g13
F2.9340889356733073
sg14
I2
sg15
I01
sg16
I6
sg17
I38
sbs(I8
I2
tp60
g1
(g10
g3
NtRp61
(dp62
g13
F-1.7485164610536001
sg14
I8
sg15
I00
sg16
I2
sg17
I43
sbs(I5
I11
tp63
g1
(g10
g3
NtRp64
(dp65
g13
F-2.4450357181849256
sg14
I5
sg15
I01
sg16
I11
sg17
I79
sbs(I9
I3
tp66
g1
(g10
g3
NtRp67
(dp68
g13
F1.8197939998880981
sg14
I9
sg15
I00
sg16
I3
sg17
I60
sbs(I1
I4
tp69
g1
(g10
g3
NtRp70
(dp71
g13
F-11.872147441121164
sg14
I1
sg15
I01
sg16
I4
sg17
I6
sbs(I7
I5
tp72
g1
(g10
g3
NtRp73
(dp74
g13
F11.276537545875561
sg14
I7
sg15
I01
sg16
I5
sg17
I30
sbs(I2
I3
tp75
g1
(g10
g3
NtRp76
(dp77
g13
F8.9209692223588544
sg14
I2
sg15
I01
sg16
I3
sg17
I5
sbs(I1
I9
tp78
g1
(g10
g3
NtRp79
(dp80
g13
F-0.88165961484035416
sg14
I1
sg15
I01
sg16
I9
sg17
I58
sbs(I4
I2
tp81
g1
(g10
g3
NtRp82
(dp83
g13
F-18.867679411543072
sg14
I4
sg15
I01
sg16
I2
sg17
I7
sbs(I4
I11
tp84
g1
(g10
g3
NtRp85
(dp86
g13
F-1.7292328570569442
sg14
I4
sg15
I01
sg16
I11
sg17
I89
sbs(I3
I5
tp87
g1
(g10
g3
NtRp88
(dp89
g13
F-18.242923205097863
sg14
I3
sg15
I01
sg16
I5
sg17
I14
sbs(I4
I6
tp90
g1
(g10
g3
NtRp91
(dp92
g13
F22.250156353689338
sg14
I4
sg15
I01
sg16
I6
sg17
I22
sbs(I3
I8
tp93
g1
(g10
g3
NtRp94
(dp95
g13
F-0.43574311316278402
sg14
I3
sg15
I01
sg16
I8
sg17
I44
sbs(I4
I3
tp96
g1
(g10
g3
NtRp97
(dp98
g13
F-3.536928939316391
sg14
I4
sg15
I01
sg16
I3
sg17
I10
sbs(I1
I7
tp99
g1
(g10
g3
NtRp100
(dp101
g13
F8.4427637829776376
sg14
I1
sg15
I01
sg16
I7
sg17
I29
sbs(I5
I2
tp102
g1
(g10
g3
NtRp103
(dp104
g13
F-20.230069942872337
sg14
I5
sg15
I01
sg16
I2
sg17
I9
sbs(I9
I12
tp105
g1
(g10
g3
NtRp106
(dp107
g13
F3.0890627441231313
sg14
I9
sg15
I01
sg16
I12
sg17
I100
sbs(I10
I2
tp108
g1
(g10
g3
NtRp109
(dp110
g13
F-5.6730009291827184
sg14
I10
sg15
I01
sg16
I2
sg17
I65
sbssS'_input_nodes'
p111
I1
sS'_output_nodes'
p112
I1
sS'_node_gene_type'
p113
cneat.genome
NodeGene
p114
sS'_conn_gene_type'
p115
g10
sS'fitness'
p116
F0.9953846226988371
sS'parent2_id'
p117
I3252
sS'_id'
p118
I3290
sS'parent1_id'
p119
I3252
sS'_node_genes'
p120
(lp121
g1
(g114
g3
NtRp122
(dp123
S'_bias'
p124
I0
sS'_type'
p125
S'INPUT'
p126
sg118
I1
sS'_response'
p127
F4.9242730000000003
sS'_activation_type'
p128
Nsbag1
(g114
g3
NtRp129
(dp130
g124
F-3.5472628408139801
sg125
S'OUTPUT'
p131
sg118
I2
sg127
F4.715395042653328
sg128
S'tanh'
p132
sbag1
(g114
g3
NtRp133
(dp134
g124
F-2.3083733082722677
sg125
S'HIDDEN'
p135
sg118
I3
sg127
F4.736276581108485
sg128
g132
sbag1
(g114
g3
NtRp136
(dp137
g124
F-0.98532149908172517
sg125
g135
sg118
I4
sg127
F4.5081464825402513
sg128
g132
sbag1
(g114
g3
NtRp138
(dp139
g124
F1.8189832667736348
sg125
g135
sg118
I5
sg127
F10.279998197335763
sg128
g132
sbag1
(g114
g3
NtRp140
(dp141
g124
F2.5806045296835012
sg125
g135
sg118
I6
sg127
F8.0069445987558403
sg128
g132
sbag1
(g114
g3
NtRp142
(dp143
g124
F-2.0273655387557294
sg125
g135
sg118
I7
sg127
F3.8293799884608366
sg128
g132
sbag1
(g114
g3
NtRp144
(dp145
g124
F-0.45643992750784779
sg125
g135
sg118
I8
sg127
F5.7883105874578007
sg128
g132
sbag1
(g114
g3
NtRp146
(dp147
g124
F-1.7442866779129578
sg125
g135
sg118
I9
sg127
F3.399837343602043
sg128
g132
sbag1
(g114
g3
NtRp148
(dp149
g124
F0.12479959449979849
sg125
g135
sg118
I10
sg127
F3.8735196941832206
sg128
g132
sbag1
(g114
g3
NtRp150
(dp151
g124
F2.4960027708190577
sg125
g135
sg118
I11
sg127
F7.2356352642390735
sg128
g132
sbag1
(g114
g3
NtRp152
(dp153
g124
F0.090640067741942998
sg125
g135
sg118
I12
sg127
F6.2783254348996316
sg128
g132
sbasb.