ccopy_reg
_reconstructor
p1
(cneat.chromosome
Chromosome
p2
c__builtin__
object
p3
NtRp4
(dp5
S'species_id'
p6
I45
sS'_connection_genes'
p7
(dp8
(I1
I3
tp9
g1
(cneat.genome
ConnectionGene
p10
g3
NtRp11
(dp12
S'_ConnectionGene__weight'
p13
F4.8174496737001435
sS'_ConnectionGene__in'
p14
I1
sS'_ConnectionGene__enabled'
p15
I01
sS'_ConnectionGene__out'
p16
I3
sS'_ConnectionGene__innov_number'
p17
I3
sbs(I6
I6
tp18
g1
(g10
g3
NtRp19
(dp20
g13
F23.46982833697076
sg14
I6
sg15
I01
sg16
I6
sg17
I39
sbs(I11
I2
tp21
g1
(g10
g3
NtRp22
(dp23
g13
F7.6348910816999753
sg14
I11
sg15
I01
sg16
I2
sg17
I80
sbs(I1
I15
tp24
g1
(g10
g3
NtRp25
(dp26
g13
F-5.4719078836115296
sg14
I1
sg15
I01
sg16
I15
sg17
I146
sbs(I23
I3
tp27
g1
(g10
g3
NtRp28
(dp29
g13
F8.6958267128391888
sg14
I23
sg15
I01
sg16
I3
sg17
I246
sbs(I6
I2
tp30
g1
(g10
g3
NtRp31
(dp32
g13
F24.910437631193091
sg14
I6
sg15
I01
sg16
I2
sg17
I21
sbs(I22
I6
tp33
g1
(g10
g3
NtRp34
(dp35
g13
F4.914854335564204
sg14
I22
sg15
I01
sg16
I6
sg17
I267
sbs(I16
I14
tp36
g1
(g10
g3
NtRp37
(dp38
g13
F-29.582317600177817
sg14
I16
sg15
I01
sg16
I14
sg17
I193
sbs(I5
I8
tp39
g1
(g10
g3
NtRp40
(dp41
g13
F1.9857762521993383
sg14
I5
sg15
I00
sg16
I8
sg17
I42
sbs(I20
I22
tp42
g1
(g10
g3
NtRp43
(dp44
g13
F1.8543099527596567
sg14
I20
sg15
I01
sg16
I22
sg17
I266
sbs(I1
I2
tp45
g1
(g10
g3
NtRp46
(dp47
g13
F-6.6165840473158042
sg14
I1
sg15
I01
sg16
I2
sg17
I1
sbs(I12
I2
tp48
g1
(g10
g3
NtRp49
(dp50
g13
F5.2475708558126684
sg14
I12
sg15
I01
sg16
I2
sg17
I82
sbs(I2
I19
tp51
g1
(g10
g3
NtRp52
(dp53
g13
F19.524804956013643
sg14
I2
sg15
I01
sg16
I19
sg17
I210
sbs(I3
I3
tp54
g1
(g10
g3
NtRp55
(dp56
g13
F-14.623616210997907
sg14
I3
sg15
I01
sg16
I3
sg17
I15
sbs(I2
I9
tp57
g1
(g10
g3
NtRp58
(dp59
g13
F30
sg14
I2
sg15
I01
sg16
I9
sg17
I53
sbs(I13
I3
tp60
g1
(g10
g3
NtRp61
(dp62
g13
F4.8818887473920665
sg14
I13
sg15
I00
sg16
I3
sg17
I92
sbs(I4
I3
tp63
g1
(g10
g3
NtRp64
(dp65
g13
F16.174099089851417
sg14
I4
sg15
I01
sg16
I3
sg17
I10
sbs(I8
I10
tp66
g1
(g10
g3
NtRp67
(dp68
g13
F25.423926594434892
sg14
I8
sg15
I01
sg16
I10
sg17
I74
sbs(I21
I8
tp69
g1
(g10
g3
NtRp70
(dp71
g13
F-2.5002458409332418
sg14
I21
sg15
I01
sg16
I8
sg17
I250
sbs(I4
I13
tp72
g1
(g10
g3
NtRp73
(dp74
g13
F-2.9669274808833439
sg14
I4
sg15
I01
sg16
I13
sg17
I102
sbs(I1
I5
tp75
g1
(g10
g3
NtRp76
(dp77
g13
F-12.438200407808889
sg14
I1
sg15
I01
sg16
I5
sg17
I11
sbs(I9
I11
tp78
g1
(g10
g3
NtRp79
(dp80
g13
F7.8612250929595637
sg14
I9
sg15
I01
sg16
I11
sg17
I101
sbs(I19
I3
tp81
g1
(g10
g3
NtRp82
(dp83
g13
F22.080564115503556
sg14
I19
sg15
I01
sg16
I3
sg17
I212
sbs(I2
I2
tp84
g1
(g10
g3
NtRp85
(dp86
g13
F-8.6427653662655306
sg14
I2
sg15
I01
sg16
I2
sg17
I2
sbs(I12
I10
tp87
g1
(g10
g3
NtRp88
(dp89
g13
F-3.7742407586010596
sg14
I12
sg15
I01
sg16
I10
sg17
I105
sbs(I8
I16
tp90
g1
(g10
g3
NtRp91
(dp92
g13
F-11.482028294496523
sg14
I8
sg15
I01
sg16
I16
sg17
I177
sbs(I12
I3
tp93
g1
(g10
g3
NtRp94
(dp95
g13
F6.3691530928315636
sg14
I12
sg15
I01
sg16
I3
sg17
I86
sbs(I20
I6
tp96
g1
(g10
g3
NtRp97
(dp98
g13
F0.90849803998789191
sg14
I20
sg15
I00
sg16
I6
sg17
I221
sbs(I3
I2
tp99
g1
(g10
g3
NtRp100
(dp101
g13
F-18.404680910086828
sg14
I3
sg15
I01
sg16
I2
sg17
I4
sbs(I2
I6
tp102
g1
(g10
g3
NtRp103
(dp104
g13
F-11.488603885498238
sg14
I2
sg15
I00
sg16
I6
sg17
I38
sbs(I8
I2
tp105
g1
(g10
g3
NtRp106
(dp107
g13
F-25.213432884225501
sg14
I8
sg15
I01
sg16
I2
sg17
I43
sbs(I5
I11
tp108
g1
(g10
g3
NtRp109
(dp110
g13
F-24.643222088293122
sg14
I5
sg15
I01
sg16
I11
sg17
I79
sbs(I15
I3
tp111
g1
(g10
g3
NtRp112
(dp113
g13
F-7.6166082125715056
sg14
I15
sg15
I01
sg16
I3
sg17
I147
sbs(I9
I3
tp114
g1
(g10
g3
NtRp115
(dp116
g13
F-5.4232348864095554
sg14
I9
sg15
I01
sg16
I3
sg17
I60
sbs(I2
I20
tp117
g1
(g10
g3
NtRp118
(dp119
g13
F5.9565475212546408
sg14
I2
sg15
I01
sg16
I20
sg17
I220
sbs(I1
I4
tp120
g1
(g10
g3
NtRp121
(dp122
g13
F-28.830026900653987
sg14
I1
sg15
I01
sg16
I4
sg17
I6
sbs(I9
I10
tp123
g1
(g10
g3
NtRp124
(dp125
g13
F-26.07759206616166
sg14
I9
sg15
I01
sg16
I10
sg17
I90
sbs(I7
I5
tp126
g1
(g10
g3
NtRp127
(dp128
g13
F-3.6353693288430904
sg14
I7
sg15
I01
sg16
I5
sg17
I30
sbs(I2
I3
tp129
g1
(g10
g3
NtRp130
(dp131
g13
F14.114359541767366
sg14
I2
sg15
I00
sg16
I3
sg17
I5
sbs(I1
I9
tp132
g1
(g10
g3
NtRp133
(dp134
g13
F26.923583496767563
sg14
I1
sg15
I01
sg16
I9
sg17
I58
sbs(I8
I17
tp135
g1
(g10
g3
NtRp136
(dp137
g13
F15.625029181519643
sg14
I8
sg15
I01
sg16
I17
sg17
I205
sbs(I4
I2
tp138
g1
(g10
g3
NtRp139
(dp140
g13
F-18.712465148263362
sg14
I4
sg15
I01
sg16
I2
sg17
I7
sbs(I14
I2
tp141
g1
(g10
g3
NtRp142
(dp143
g13
F5.444140959344284
sg14
I14
sg15
I01
sg16
I2
sg17
I138
sbs(I3
I5
tp144
g1
(g10
g3
NtRp145
(dp146
g13
F30
sg14
I3
sg15
I01
sg16
I5
sg17
I14
sbs(I10
I5
tp147
g1
(g10
g3
NtRp148
(dp149
g13
F1.5106313777109572
sg14
I10
sg15
I01
sg16
I5
sg17
I76
sbs(I13
I23
tp150
g1
(g10
g3
NtRp151
(dp152
g13
F2.5327430997032359
sg14
I13
sg15
I01
sg16
I23
sg17
I287
sbs(I4
I6
tp153
g1
(g10
g3
NtRp154
(dp155
g13
F-10.397680373932085
sg14
I4
sg15
I01
sg16
I6
sg17
I22
sbs(I15
I2
tp156
g1
(g10
g3
NtRp157
(dp158
g13
F0.41233673337001209
sg14
I15
sg15
I01
sg16
I2
sg17
I170
sbs(I8
I12
tp159
g1
(g10
g3
NtRp160
(dp161
g13
F-2.8538874188690668
sg14
I8
sg15
I01
sg16
I12
sg17
I88
sbs(I18
I10
tp162
g1
(g10
g3
NtRp163
(dp164
g13
F19.926299093856695
sg14
I18
sg15
I01
sg16
I10
sg17
I209
sbs(I11
I3
tp165
g1
(g10
g3
NtRp166
(dp167
g13
F-12.524611309190488
sg14
I11
sg15
I01
sg16
I3
sg17
I78
sbs(I3
I8
tp168
g1
(g10
g3
NtRp169
(dp170
g13
F21.481800518690012
sg14
I3
sg15
I01
sg16
I8
sg17
I44
sbs(I8
I14
tp171
g1
(g10
g3
NtRp172
(dp173
g13
F14.420910411723417
sg14
I8
sg15
I01
sg16
I14
sg17
I119
sbs(I8
I18
tp174
g1
(g10
g3
NtRp175
(dp176
g13
F0.73569650417733468
sg14
I8
sg15
I01
sg16
I18
sg17
I208
sbs(I17
I12
tp177
g1
(g10
g3
NtRp178
(dp179
g13
F-7.56030240760556
sg14
I17
sg15
I01
sg16
I12
sg17
I207
sbs(I1
I7
tp180
g1
(g10
g3
NtRp181
(dp182
g13
F2.835065846385874
sg14
I1
sg15
I01
sg16
I7
sg17
I29
sbs(I13
I9
tp183
g1
(g10
g3
NtRp184
(dp185
g13
F-3.9863432410809985
sg14
I13
sg15
I01
sg16
I9
sg17
I112
sbs(I10
I2
tp186
g1
(g10
g3
NtRp187
(dp188
g13
F-11.228504591912714
sg14
I10
sg15
I01
sg16
I2
sg17
I65
sbs(I5
I2
tp189
g1
(g10
g3
NtRp190
(dp191
g13
F-5.9813057584326037
sg14
I5
sg15
I01
sg16
I2
sg17
I9
sbs(I5
I21
tp192
g1
(g10
g3
NtRp193
(dp194
g13
F4.8159911973946734
sg14
I5
sg15
I01
sg16
I21
sg17
I249
sbssS'_input_nodes'
p195
I1
sS'_output_nodes'
p196
I1
sS'_node_gene_type'
p197
cneat.genome
NodeGene
p198
sS'_conn_gene_type'
p199
g10
sS'fitness'
p200
F0.95947971916567543
sS'parent2_id'
p201
I6958
sS'_id'
p202
I6972
sS'parent1_id'
p203
I6958
sS'_node_genes'
p204
(lp205
g1
(g198
g3
NtRp206
(dp207
S'_bias'
p208
I0
sS'_type'
p209
S'INPUT'
p210
sg202
I1
sS'_response'
p211
F4.9242730000000003
sS'_activation_type'
p212
Nsbag1
(g198
g3
NtRp213
(dp214
g208
F-6.3043649375227551
sg209
S'OUTPUT'
p215
sg202
I2
sg211
F5.1255763739525868
sg212
S'tanh'
p216
sbag1
(g198
g3
NtRp217
(dp218
g208
F1.0598792384486628
sg209
S'HIDDEN'
p219
sg202
I3
sg211
F1.4054446489500043
sg212
g216
sbag1
(g198
g3
NtRp220
(dp221
g208
F-4.7019071871834317
sg209
g219
sg202
I4
sg211
F7.0920572753112792
sg212
g216
sbag1
(g198
g3
NtRp222
(dp223
g208
F4.3561516061362964
sg209
g219
sg202
I5
sg211
F11.120329149209249
sg212
g216
sbag1
(g198
g3
NtRp224
(dp225
g208
F-1.6788830024960602
sg209
g219
sg202
I6
sg211
F5.1893201135786056
sg212
g216
sbag1
(g198
g3
NtRp226
(dp227
g208
F0.49487501142928375
sg209
g219
sg202
I7
sg211
F0.050000691158199606
sg212
g216
sbag1
(g198
g3
NtRp228
(dp229
g208
F-1.8139293920569581
sg209
g219
sg202
I8
sg211
F8.9838767217073361
sg212
g216
sbag1
(g198
g3
NtRp230
(dp231
g208
F0.046135480914836435
sg209
g219
sg202
I9
sg211
F7.0004910820533821
sg212
g216
sbag1
(g198
g3
NtRp232
(dp233
g208
F0.17154315225927097
sg209
g219
sg202
I10
sg211
F8.6337857846510673
sg212
g216
sbag1
(g198
g3
NtRp234
(dp235
g208
F-0.33600738706493888
sg209
g219
sg202
I11
sg211
F6.7523784306775285
sg212
g216
sbag1
(g198
g3
NtRp236
(dp237
g208
F0.12676033546022147
sg209
g219
sg202
I12
sg211
F3.5472011630870468
sg212
g216
sbag1
(g198
g3
NtRp238
(dp239
g208
F-2.3193439202384134
sg209
g219
sg202
I13
sg211
F3.6409910530107688
sg212
g216
sbag1
(g198
g3
NtRp240
(dp241
g208
F3.4657193328604117
sg209
g219
sg202
I14
sg211
F5.82917693478585
sg212
g216
sbag1
(g198
g3
NtRp242
(dp243
g208
F-3.9515801050089627
sg209
g219
sg202
I15
sg211
F5.6841905488129925
sg212
g216
sbag1
(g198
g3
NtRp244
(dp245
g208
F-0.52052148546668486
sg209
g219
sg202
I16
sg211
F4.8352426725808426
sg212
g216
sbag1
(g198
g3
NtRp246
(dp247
g208
F1.933420617062596
sg209
g219
sg202
I17
sg211
F7.7159584684527109
sg212
g216
sbag1
(g198
g3
NtRp248
(dp249
g208
F3.0600577486539713
sg209
g219
sg202
I18
sg211
F3.9397741221582341
sg212
g216
sbag1
(g198
g3
NtRp250
(dp251
g208
F-1.1466971520802587
sg209
g219
sg202
I19
sg211
F1.5061909305077292
sg212
g216
sbag1
(g198
g3
NtRp252
(dp253
g208
F0.65227870360182438
sg209
g219
sg202
I20
sg211
F4.7445898858859969
sg212
g216
sbag1
(g198
g3
NtRp254
(dp255
g208
F0.093913130560680347
sg209
g219
sg202
I21
sg211
F3.6034078390429602
sg212
g216
sbag1
(g198
g3
NtRp256
(dp257
g208
F0.5114391895768855
sg209
g219
sg202
I22
sg211
F5.184299763999765
sg212
g216
sbag1
(g198
g3
NtRp258
(dp259
g208
F-0.43783135899125059
sg209
g219
sg202
I23
sg211
F4.9242730000000003
sg212
g216
sbasb.