ccopy_reg
_reconstructor
p1
(cneat.chromosome
Chromosome
p2
c__builtin__
object
p3
NtRp4
(dp5
S'species_id'
p6
I14
sS'_connection_genes'
p7
(dp8
(I1
I3
tp9
g1
(cneat.genome
ConnectionGene
p10
g3
NtRp11
(dp12
S'_ConnectionGene__weight'
p13
F1.6160518801620807
sS'_ConnectionGene__in'
p14
I1
sS'_ConnectionGene__enabled'
p15
I00
sS'_ConnectionGene__out'
p16
I3
sS'_ConnectionGene__innov_number'
p17
I3
sbs(I6
I6
tp18
g1
(g10
g3
NtRp19
(dp20
g13
F22.107784373241422
sg14
I6
sg15
I01
sg16
I6
sg17
I39
sbs(I6
I2
tp21
g1
(g10
g3
NtRp22
(dp23
g13
F15.078274161851258
sg14
I6
sg15
I01
sg16
I2
sg17
I21
sbs(I5
I8
tp24
g1
(g10
g3
NtRp25
(dp26
g13
F5.1772097772402859
sg14
I5
sg15
I01
sg16
I8
sg17
I42
sbs(I1
I2
tp27
g1
(g10
g3
NtRp28
(dp29
g13
F-19.886592974610604
sg14
I1
sg15
I01
sg16
I2
sg17
I1
sbs(I3
I3
tp30
g1
(g10
g3
NtRp31
(dp32
g13
F-10.974450447288959
sg14
I3
sg15
I01
sg16
I3
sg17
I15
sbs(I2
I9
tp33
g1
(g10
g3
NtRp34
(dp35
g13
F1.9438917060691454
sg14
I2
sg15
I01
sg16
I9
sg17
I53
sbs(I1
I5
tp36
g1
(g10
g3
NtRp37
(dp38
g13
F2.4871223707261088
sg14
I1
sg15
I00
sg16
I5
sg17
I11
sbs(I2
I2
tp39
g1
(g10
g3
NtRp40
(dp41
g13
F14.277763737170797
sg14
I2
sg15
I00
sg16
I2
sg17
I2
sbs(I3
I2
tp42
g1
(g10
g3
NtRp43
(dp44
g13
F-16.706514543481081
sg14
I3
sg15
I01
sg16
I2
sg17
I4
sbs(I2
I6
tp45
g1
(g10
g3
NtRp46
(dp47
g13
F3.0356868425715247
sg14
I2
sg15
I01
sg16
I6
sg17
I38
sbs(I8
I2
tp48
g1
(g10
g3
NtRp49
(dp50
g13
F-7.8534488871559169
sg14
I8
sg15
I01
sg16
I2
sg17
I43
sbs(I9
I3
tp51
g1
(g10
g3
NtRp52
(dp53
g13
F-0.26353475799561865
sg14
I9
sg15
I01
sg16
I3
sg17
I60
sbs(I1
I4
tp54
g1
(g10
g3
NtRp55
(dp56
g13
F-13.194822471714815
sg14
I1
sg15
I01
sg16
I4
sg17
I6
sbs(I7
I5
tp57
g1
(g10
g3
NtRp58
(dp59
g13
F10.377283700523011
sg14
I7
sg15
I01
sg16
I5
sg17
I30
sbs(I2
I3
tp60
g1
(g10
g3
NtRp61
(dp62
g13
F-11.447071551791911
sg14
I2
sg15
I01
sg16
I3
sg17
I5
sbs(I1
I9
tp63
g1
(g10
g3
NtRp64
(dp65
g13
F-0.70748269887389159
sg14
I1
sg15
I01
sg16
I9
sg17
I58
sbs(I4
I2
tp66
g1
(g10
g3
NtRp67
(dp68
g13
F-18.066317625079442
sg14
I4
sg15
I00
sg16
I2
sg17
I7
sbs(I3
I5
tp69
g1
(g10
g3
NtRp70
(dp71
g13
F-11.446205972359804
sg14
I3
sg15
I01
sg16
I5
sg17
I14
sbs(I4
I6
tp72
g1
(g10
g3
NtRp73
(dp74
g13
F20.722119885394743
sg14
I4
sg15
I01
sg16
I6
sg17
I22
sbs(I4
I3
tp75
g1
(g10
g3
NtRp76
(dp77
g13
F-0.58752018877258338
sg14
I4
sg15
I01
sg16
I3
sg17
I10
sbs(I1
I7
tp78
g1
(g10
g3
NtRp79
(dp80
g13
F3.6855527171745308
sg14
I1
sg15
I01
sg16
I7
sg17
I29
sbs(I5
I2
tp81
g1
(g10
g3
NtRp82
(dp83
g13
F-17.35211090735001
sg14
I5
sg15
I01
sg16
I2
sg17
I9
sbssS'_input_nodes'
p84
I1
sS'_output_nodes'
p85
I1
sS'_node_gene_type'
p86
cneat.genome
NodeGene
p87
sS'_conn_gene_type'
p88
g10
sS'fitness'
p89
F0.95296925464768734
sS'parent2_id'
p90
I2631
sS'_id'
p91
I2659
sS'parent1_id'
p92
I2636
sS'_node_genes'
p93
(lp94
g1
(g87
g3
NtRp95
(dp96
S'_bias'
p97
I0
sS'_type'
p98
S'INPUT'
p99
sg91
I1
sS'_response'
p100
F4.9242730000000003
sS'_activation_type'
p101
Nsbag1
(g87
g3
NtRp102
(dp103
g97
F-2.8013710324045458
sg98
S'OUTPUT'
p104
sg91
I2
sg100
F5.6762664665141154
sg101
S'tanh'
p105
sbag1
(g87
g3
NtRp106
(dp107
g97
F-1.0438587953371896
sg98
S'HIDDEN'
p108
sg91
I3
sg100
F4.0250956286023047
sg101
g105
sbag1
(g87
g3
NtRp109
(dp110
g97
F-0.49795046083638583
sg98
g108
sg91
I4
sg100
F5.0736599784230183
sg101
g105
sbag1
(g87
g3
NtRp111
(dp112
g97
F3.112407808707351
sg98
g108
sg91
I5
sg100
F10.366006214477872
sg101
g105
sbag1
(g87
g3
NtRp113
(dp114
g97
F2.4340382238366707
sg98
g108
sg91
I6
sg100
F7.0906851338185604
sg101
g105
sbag1
(g87
g3
NtRp115
(dp116
g97
F-2.0231660641007005
sg98
g108
sg91
I7
sg100
F4.5629895612453737
sg101
g105
sbag1
(g87
g3
NtRp117
(dp118
g97
F0.69858167433506069
sg98
g108
sg91
I8
sg100
F5.3093559056289701
sg101
g105
sbag1
(g87
g3
NtRp119
(dp120
g97
F-0.42999190004413013
sg98
g108
sg91
I9
sg100
F5.1133984916477226
sg101
g105
sbasb.