ccopy_reg
_reconstructor
p1
(cneat.chromosome
Chromosome
p2
c__builtin__
object
p3
NtRp4
(dp5
S'species_id'
p6
I31
sS'_connection_genes'
p7
(dp8
(I1
I3
tp9
g1
(cneat.genome
ConnectionGene
p10
g3
NtRp11
(dp12
S'_ConnectionGene__weight'
p13
F-9.7047170034860439
sS'_ConnectionGene__in'
p14
I1
sS'_ConnectionGene__enabled'
p15
I01
sS'_ConnectionGene__out'
p16
I3
sS'_ConnectionGene__innov_number'
p17
I3
sbs(I6
I6
tp18
g1
(g10
g3
NtRp19
(dp20
g13
F21.892611566090054
sg14
I6
sg15
I01
sg16
I6
sg17
I39
sbs(I11
I2
tp21
g1
(g10
g3
NtRp22
(dp23
g13
F-2.4003562508569178
sg14
I11
sg15
I01
sg16
I2
sg17
I80
sbs(I1
I15
tp24
g1
(g10
g3
NtRp25
(dp26
g13
F-1.5115055485491999
sg14
I1
sg15
I01
sg16
I15
sg17
I146
sbs(I6
I2
tp27
g1
(g10
g3
NtRp28
(dp29
g13
F29.169342142110363
sg14
I6
sg15
I01
sg16
I2
sg17
I21
sbs(I5
I8
tp30
g1
(g10
g3
NtRp31
(dp32
g13
F10.236430791243151
sg14
I5
sg15
I01
sg16
I8
sg17
I42
sbs(I1
I2
tp33
g1
(g10
g3
NtRp34
(dp35
g13
F-14.81849189474206
sg14
I1
sg15
I01
sg16
I2
sg17
I1
sbs(I12
I2
tp36
g1
(g10
g3
NtRp37
(dp38
g13
F9.0783362990909584
sg14
I12
sg15
I01
sg16
I2
sg17
I82
sbs(I3
I3
tp39
g1
(g10
g3
NtRp40
(dp41
g13
F-6.8007108022487088
sg14
I3
sg15
I01
sg16
I3
sg17
I15
sbs(I2
I9
tp42
g1
(g10
g3
NtRp43
(dp44
g13
F18.333954542219907
sg14
I2
sg15
I01
sg16
I9
sg17
I53
sbs(I13
I3
tp45
g1
(g10
g3
NtRp46
(dp47
g13
F7.149007043221741
sg14
I13
sg15
I01
sg16
I3
sg17
I92
sbs(I8
I10
tp48
g1
(g10
g3
NtRp49
(dp50
g13
F25.058303145206335
sg14
I8
sg15
I01
sg16
I10
sg17
I74
sbs(I4
I13
tp51
g1
(g10
g3
NtRp52
(dp53
g13
F-9.1337296593309993
sg14
I4
sg15
I01
sg16
I13
sg17
I102
sbs(I1
I5
tp54
g1
(g10
g3
NtRp55
(dp56
g13
F-11.272576752993235
sg14
I1
sg15
I00
sg16
I5
sg17
I11
sbs(I2
I2
tp57
g1
(g10
g3
NtRp58
(dp59
g13
F11.861952942896695
sg14
I2
sg15
I01
sg16
I2
sg17
I2
sbs(I3
I2
tp60
g1
(g10
g3
NtRp61
(dp62
g13
F-29.835384880381625
sg14
I3
sg15
I01
sg16
I2
sg17
I4
sbs(I2
I6
tp63
g1
(g10
g3
NtRp64
(dp65
g13
F7.8863179269203654
sg14
I2
sg15
I01
sg16
I6
sg17
I38
sbs(I8
I2
tp66
g1
(g10
g3
NtRp67
(dp68
g13
F-12.165230816585357
sg14
I8
sg15
I01
sg16
I2
sg17
I43
sbs(I5
I11
tp69
g1
(g10
g3
NtRp70
(dp71
g13
F-7.5667082126880345
sg14
I5
sg15
I01
sg16
I11
sg17
I79
sbs(I15
I3
tp72
g1
(g10
g3
NtRp73
(dp74
g13
F-6.2868852390120233
sg14
I15
sg15
I01
sg16
I3
sg17
I147
sbs(I9
I3
tp75
g1
(g10
g3
NtRp76
(dp77
g13
F-16.926353940822835
sg14
I9
sg15
I01
sg16
I3
sg17
I60
sbs(I1
I4
tp78
g1
(g10
g3
NtRp79
(dp80
g13
F-30
sg14
I1
sg15
I01
sg16
I4
sg17
I6
sbs(I9
I10
tp81
g1
(g10
g3
NtRp82
(dp83
g13
F-19.335354471678407
sg14
I9
sg15
I01
sg16
I10
sg17
I90
sbs(I7
I5
tp84
g1
(g10
g3
NtRp85
(dp86
g13
F-9.4252583951618583
sg14
I7
sg15
I01
sg16
I5
sg17
I30
sbs(I2
I3
tp87
g1
(g10
g3
NtRp88
(dp89
g13
F3.3612368007494466
sg14
I2
sg15
I01
sg16
I3
sg17
I5
sbs(I1
I9
tp90
g1
(g10
g3
NtRp91
(dp92
g13
F10.989663350680054
sg14
I1
sg15
I01
sg16
I9
sg17
I58
sbs(I4
I2
tp93
g1
(g10
g3
NtRp94
(dp95
g13
F-15.164065019821411
sg14
I4
sg15
I01
sg16
I2
sg17
I7
sbs(I14
I2
tp96
g1
(g10
g3
NtRp97
(dp98
g13
F-12.894510519531037
sg14
I14
sg15
I01
sg16
I2
sg17
I138
sbs(I3
I5
tp99
g1
(g10
g3
NtRp100
(dp101
g13
F-3.231316175192168
sg14
I3
sg15
I01
sg16
I5
sg17
I14
sbs(I10
I5
tp102
g1
(g10
g3
NtRp103
(dp104
g13
F-0.02877707924798556
sg14
I10
sg15
I01
sg16
I5
sg17
I76
sbs(I4
I6
tp105
g1
(g10
g3
NtRp106
(dp107
g13
F-7.1655640867683879
sg14
I4
sg15
I01
sg16
I6
sg17
I22
sbs(I15
I2
tp108
g1
(g10
g3
NtRp109
(dp110
g13
F3.4767954352660779
sg14
I15
sg15
I01
sg16
I2
sg17
I170
sbs(I8
I12
tp111
g1
(g10
g3
NtRp112
(dp113
g13
F9.4375451785682394
sg14
I8
sg15
I01
sg16
I12
sg17
I88
sbs(I11
I3
tp114
g1
(g10
g3
NtRp115
(dp116
g13
F-12.441735816529061
sg14
I11
sg15
I01
sg16
I3
sg17
I78
sbs(I3
I8
tp117
g1
(g10
g3
NtRp118
(dp119
g13
F10.874930213573368
sg14
I3
sg15
I01
sg16
I8
sg17
I44
sbs(I8
I14
tp120
g1
(g10
g3
NtRp121
(dp122
g13
F-4.7267214461377742
sg14
I8
sg15
I01
sg16
I14
sg17
I119
sbs(I4
I3
tp123
g1
(g10
g3
NtRp124
(dp125
g13
F7.3722788818910372
sg14
I4
sg15
I00
sg16
I3
sg17
I10
sbs(I1
I7
tp126
g1
(g10
g3
NtRp127
(dp128
g13
F5.9411588674607723
sg14
I1
sg15
I01
sg16
I7
sg17
I29
sbs(I5
I2
tp129
g1
(g10
g3
NtRp130
(dp131
g13
F1.5488377832522033
sg14
I5
sg15
I01
sg16
I2
sg17
I9
sbs(I10
I2
tp132
g1
(g10
g3
NtRp133
(dp134
g13
F-13.820963012877046
sg14
I10
sg15
I01
sg16
I2
sg17
I65
sbssS'_input_nodes'
p135
I1
sS'_output_nodes'
p136
I1
sS'_node_gene_type'
p137
cneat.genome
NodeGene
p138
sS'_conn_gene_type'
p139
g10
sS'fitness'
p140
F0.9994570656865045
sS'parent2_id'
p141
I5239
sS'_id'
p142
I5251
sS'parent1_id'
p143
I5239
sS'_node_genes'
p144
(lp145
g1
(g138
g3
NtRp146
(dp147
S'_bias'
p148
I0
sS'_type'
p149
S'INPUT'
p150
sg142
I1
sS'_response'
p151
F4.9242730000000003
sS'_activation_type'
p152
Nsbag1
(g138
g3
NtRp153
(dp154
g148
F-6.4381845632175523
sg149
S'OUTPUT'
p155
sg142
I2
sg151
F3.5821849425770282
sg152
S'tanh'
p156
sbag1
(g138
g3
NtRp157
(dp158
g148
F1.617933407610634
sg149
S'HIDDEN'
p159
sg142
I3
sg151
F5.5433989205326268
sg152
g156
sbag1
(g138
g3
NtRp160
(dp161
g148
F-3.4776143832440192
sg149
g159
sg142
I4
sg151
F8.5241891219960912
sg152
g156
sbag1
(g138
g3
NtRp162
(dp163
g148
F4.0037293655906501
sg149
g159
sg142
I5
sg151
F12.035013873548282
sg152
g156
sbag1
(g138
g3
NtRp164
(dp165
g148
F1.0341691202322094
sg149
g159
sg142
I6
sg151
F5.9506067789792949
sg152
g156
sbag1
(g138
g3
NtRp166
(dp167
g148
F-2.4883861151122102
sg149
g159
sg142
I7
sg151
F1.3644126252068927
sg152
g156
sbag1
(g138
g3
NtRp168
(dp169
g148
F-0.84512062575838565
sg149
g159
sg142
I8
sg151
F11.265591006448966
sg152
g156
sbag1
(g138
g3
NtRp170
(dp171
g148
F-1.2012765529744771
sg149
g159
sg142
I9
sg151
F8.1389757328192331
sg152
g156
sbag1
(g138
g3
NtRp172
(dp173
g148
F-0.7716155171179262
sg149
g159
sg142
I10
sg151
F7.3771250845717731
sg152
g156
sbag1
(g138
g3
NtRp174
(dp175
g148
F0.83944490455488463
sg149
g159
sg142
I11
sg151
F9.6744965723867455
sg152
g156
sbag1
(g138
g3
NtRp176
(dp177
g148
F1.2807251289003165
sg149
g159
sg142
I12
sg151
F4.7758507636354848
sg152
g156
sbag1
(g138
g3
NtRp178
(dp179
g148
F-1.7024154096263375
sg149
g159
sg142
I13
sg151
F4.3597373606583885
sg152
g156
sbag1
(g138
g3
NtRp180
(dp181
g148
F2.842938910599659
sg149
g159
sg142
I14
sg151
F4.1457116322047627
sg152
g156
sbag1
(g138
g3
NtRp182
(dp183
g148
F-1.7179829084861356
sg149
g159
sg142
I15
sg151
F5.8224223339763972
sg152
g156
sbasb.