ccopy_reg
_reconstructor
p1
(cneat.chromosome
Chromosome
p2
c__builtin__
object
p3
NtRp4
(dp5
S'species_id'
p6
I37
sS'_connection_genes'
p7
(dp8
(I17
I12
tp9
g1
(cneat.genome
ConnectionGene
p10
g3
NtRp11
(dp12
S'_ConnectionGene__weight'
p13
F-1.8998644737105015
sS'_ConnectionGene__in'
p14
I17
sS'_ConnectionGene__enabled'
p15
I01
sS'_ConnectionGene__out'
p16
I12
sS'_ConnectionGene__innov_number'
p17
I207
sbs(I1
I3
tp18
g1
(g10
g3
NtRp19
(dp20
g13
F-10.295937619822899
sg14
I1
sg15
I00
sg16
I3
sg17
I3
sbs(I6
I6
tp21
g1
(g10
g3
NtRp22
(dp23
g13
F28.567320557078929
sg14
I6
sg15
I01
sg16
I6
sg17
I39
sbs(I11
I2
tp24
g1
(g10
g3
NtRp25
(dp26
g13
F2.204892142323593
sg14
I11
sg15
I01
sg16
I2
sg17
I80
sbs(I1
I15
tp27
g1
(g10
g3
NtRp28
(dp29
g13
F-10.404994829712546
sg14
I1
sg15
I01
sg16
I15
sg17
I146
sbs(I6
I2
tp30
g1
(g10
g3
NtRp31
(dp32
g13
F30
sg14
I6
sg15
I01
sg16
I2
sg17
I21
sbs(I16
I14
tp33
g1
(g10
g3
NtRp34
(dp35
g13
F-14.213121885316491
sg14
I16
sg15
I01
sg16
I14
sg17
I193
sbs(I5
I8
tp36
g1
(g10
g3
NtRp37
(dp38
g13
F9.833976290403589
sg14
I5
sg15
I01
sg16
I8
sg17
I42
sbs(I1
I2
tp39
g1
(g10
g3
NtRp40
(dp41
g13
F-27.76498942827779
sg14
I1
sg15
I01
sg16
I2
sg17
I1
sbs(I12
I2
tp42
g1
(g10
g3
NtRp43
(dp44
g13
F4.5329856840769418
sg14
I12
sg15
I01
sg16
I2
sg17
I82
sbs(I2
I19
tp45
g1
(g10
g3
NtRp46
(dp47
g13
F9.6569473986051371
sg14
I2
sg15
I01
sg16
I19
sg17
I210
sbs(I3
I3
tp48
g1
(g10
g3
NtRp49
(dp50
g13
F-2.6426360916790159
sg14
I3
sg15
I01
sg16
I3
sg17
I15
sbs(I2
I9
tp51
g1
(g10
g3
NtRp52
(dp53
g13
F13.758973243968095
sg14
I2
sg15
I01
sg16
I9
sg17
I53
sbs(I13
I3
tp54
g1
(g10
g3
NtRp55
(dp56
g13
F2.6298472502043508
sg14
I13
sg15
I01
sg16
I3
sg17
I92
sbs(I1
I21
tp57
g1
(g10
g3
NtRp58
(dp59
g13
F1
sg14
I1
sg15
I01
sg16
I21
sg17
I222
sbs(I8
I10
tp60
g1
(g10
g3
NtRp61
(dp62
g13
F28.975858363012868
sg14
I8
sg15
I00
sg16
I10
sg17
I74
sbs(I4
I13
tp63
g1
(g10
g3
NtRp64
(dp65
g13
F-11.130163315113265
sg14
I4
sg15
I01
sg16
I13
sg17
I102
sbs(I1
I5
tp66
g1
(g10
g3
NtRp67
(dp68
g13
F-14.084462005173364
sg14
I1
sg15
I00
sg16
I5
sg17
I11
sbs(I9
I11
tp69
g1
(g10
g3
NtRp70
(dp71
g13
F-8.3704825407988288
sg14
I9
sg15
I01
sg16
I11
sg17
I101
sbs(I19
I3
tp72
g1
(g10
g3
NtRp73
(dp74
g13
F4.7627143695478376
sg14
I19
sg15
I01
sg16
I3
sg17
I212
sbs(I2
I2
tp75
g1
(g10
g3
NtRp76
(dp77
g13
F11.893867562309421
sg14
I2
sg15
I01
sg16
I2
sg17
I2
sbs(I8
I16
tp78
g1
(g10
g3
NtRp79
(dp80
g13
F-1.50576533246995
sg14
I8
sg15
I01
sg16
I16
sg17
I177
sbs(I20
I6
tp81
g1
(g10
g3
NtRp82
(dp83
g13
F0.50067205944593951
sg14
I20
sg15
I01
sg16
I6
sg17
I221
sbs(I3
I2
tp84
g1
(g10
g3
NtRp85
(dp86
g13
F-22.464826783121818
sg14
I3
sg15
I01
sg16
I2
sg17
I4
sbs(I2
I6
tp87
g1
(g10
g3
NtRp88
(dp89
g13
F-7.4637298408765123
sg14
I2
sg15
I00
sg16
I6
sg17
I38
sbs(I8
I2
tp90
g1
(g10
g3
NtRp91
(dp92
g13
F-17.841570396066555
sg14
I8
sg15
I01
sg16
I2
sg17
I43
sbs(I5
I11
tp93
g1
(g10
g3
NtRp94
(dp95
g13
F-8.9984661754433137
sg14
I5
sg15
I01
sg16
I11
sg17
I79
sbs(I15
I3
tp96
g1
(g10
g3
NtRp97
(dp98
g13
F-1.3558097261499151
sg14
I15
sg15
I00
sg16
I3
sg17
I147
sbs(I9
I3
tp99
g1
(g10
g3
NtRp100
(dp101
g13
F-9.5587526109099983
sg14
I9
sg15
I01
sg16
I3
sg17
I60
sbs(I2
I20
tp102
g1
(g10
g3
NtRp103
(dp104
g13
F1
sg14
I2
sg15
I01
sg16
I20
sg17
I220
sbs(I1
I4
tp105
g1
(g10
g3
NtRp106
(dp107
g13
F-28.337906023085317
sg14
I1
sg15
I01
sg16
I4
sg17
I6
sbs(I9
I10
tp108
g1
(g10
g3
NtRp109
(dp110
g13
F-26.03076378891706
sg14
I9
sg15
I01
sg16
I10
sg17
I90
sbs(I7
I5
tp111
g1
(g10
g3
NtRp112
(dp113
g13
F-14.413776627449614
sg14
I7
sg15
I01
sg16
I5
sg17
I30
sbs(I2
I3
tp114
g1
(g10
g3
NtRp115
(dp116
g13
F2.7544805499038443
sg14
I2
sg15
I00
sg16
I3
sg17
I5
sbs(I1
I9
tp117
g1
(g10
g3
NtRp118
(dp119
g13
F8.9812137799446052
sg14
I1
sg15
I01
sg16
I9
sg17
I58
sbs(I8
I17
tp120
g1
(g10
g3
NtRp121
(dp122
g13
F2.0842757353513561
sg14
I8
sg15
I01
sg16
I17
sg17
I205
sbs(I4
I2
tp123
g1
(g10
g3
NtRp124
(dp125
g13
F-3.5253195094573528
sg14
I4
sg15
I01
sg16
I2
sg17
I7
sbs(I14
I2
tp126
g1
(g10
g3
NtRp127
(dp128
g13
F-12.247236320371524
sg14
I14
sg15
I01
sg16
I2
sg17
I138
sbs(I3
I5
tp129
g1
(g10
g3
NtRp130
(dp131
g13
F10.608149056390776
sg14
I3
sg15
I01
sg16
I5
sg17
I14
sbs(I10
I5
tp132
g1
(g10
g3
NtRp133
(dp134
g13
F-9.6077017257556729
sg14
I10
sg15
I01
sg16
I5
sg17
I76
sbs(I4
I6
tp135
g1
(g10
g3
NtRp136
(dp137
g13
F-5.8402700581265599
sg14
I4
sg15
I01
sg16
I6
sg17
I22
sbs(I15
I2
tp138
g1
(g10
g3
NtRp139
(dp140
g13
F3.9822991419959264
sg14
I15
sg15
I01
sg16
I2
sg17
I170
sbs(I8
I12
tp141
g1
(g10
g3
NtRp142
(dp143
g13
F-4.4286319005585009
sg14
I8
sg15
I01
sg16
I12
sg17
I88
sbs(I18
I10
tp144
g1
(g10
g3
NtRp145
(dp146
g13
F22.746700177246801
sg14
I18
sg15
I01
sg16
I10
sg17
I209
sbs(I11
I3
tp147
g1
(g10
g3
NtRp148
(dp149
g13
F-13.126662732604224
sg14
I11
sg15
I01
sg16
I3
sg17
I78
sbs(I21
I3
tp150
g1
(g10
g3
NtRp151
(dp152
g13
F-10.295937619822899
sg14
I21
sg15
I01
sg16
I3
sg17
I224
sbs(I3
I8
tp153
g1
(g10
g3
NtRp154
(dp155
g13
F10.591881501798449
sg14
I3
sg15
I01
sg16
I8
sg17
I44
sbs(I8
I14
tp156
g1
(g10
g3
NtRp157
(dp158
g13
F4.8219495585455983
sg14
I8
sg15
I00
sg16
I14
sg17
I119
sbs(I8
I18
tp159
g1
(g10
g3
NtRp160
(dp161
g13
F-0.32664564770091042
sg14
I8
sg15
I01
sg16
I18
sg17
I208
sbs(I4
I3
tp162
g1
(g10
g3
NtRp163
(dp164
g13
F12.90565167307633
sg14
I4
sg15
I01
sg16
I3
sg17
I10
sbs(I1
I7
tp165
g1
(g10
g3
NtRp166
(dp167
g13
F13.275794025620089
sg14
I1
sg15
I01
sg16
I7
sg17
I29
sbs(I13
I9
tp168
g1
(g10
g3
NtRp169
(dp170
g13
F-5.0048441193436366
sg14
I13
sg15
I01
sg16
I9
sg17
I112
sbs(I5
I2
tp171
g1
(g10
g3
NtRp172
(dp173
g13
F2.6555431911769372
sg14
I5
sg15
I01
sg16
I2
sg17
I9
sbs(I10
I2
tp174
g1
(g10
g3
NtRp175
(dp176
g13
F-1.2096757891041214
sg14
I10
sg15
I01
sg16
I2
sg17
I65
sbssS'_input_nodes'
p177
I1
sS'_output_nodes'
p178
I1
sS'_node_gene_type'
p179
cneat.genome
NodeGene
p180
sS'_conn_gene_type'
p181
g10
sS'fitness'
p182
F0.99991684285371996
sS'parent2_id'
p183
I5858
sS'_id'
p184
I5892
sS'parent1_id'
p185
I5871
sS'_node_genes'
p186
(lp187
g1
(g180
g3
NtRp188
(dp189
S'_bias'
p190
I0
sS'_type'
p191
S'INPUT'
p192
sg184
I1
sS'_response'
p193
F4.9242730000000003
sS'_activation_type'
p194
Nsbag1
(g180
g3
NtRp195
(dp196
g190
F-6.8552742350580527
sg191
S'OUTPUT'
p197
sg184
I2
sg193
F4.6227498587651921
sg194
S'tanh'
p198
sbag1
(g180
g3
NtRp199
(dp200
g190
F1.5970496171019493
sg191
S'HIDDEN'
p201
sg184
I3
sg193
F3.2335306548161902
sg194
g198
sbag1
(g180
g3
NtRp202
(dp203
g190
F-5.2399019761226588
sg191
g201
sg184
I4
sg193
F6.6378266034638811
sg194
g198
sbag1
(g180
g3
NtRp204
(dp205
g190
F4.0011622520573296
sg191
g201
sg184
I5
sg193
F12.215419961644869
sg194
g198
sbag1
(g180
g3
NtRp206
(dp207
g190
F0.41827536951369004
sg191
g201
sg184
I6
sg193
F6.1482148028904389
sg194
g198
sbag1
(g180
g3
NtRp208
(dp209
g190
F-1.6870217850113352
sg191
g201
sg184
I7
sg193
F0.62867313061837127
sg194
g198
sbag1
(g180
g3
NtRp210
(dp211
g190
F-1.417090409543726
sg191
g201
sg184
I8
sg193
F11.948124866515027
sg194
g198
sbag1
(g180
g3
NtRp212
(dp213
g190
F-1.5569295413664979
sg191
g201
sg184
I9
sg193
F8.8189907614531116
sg194
g198
sbag1
(g180
g3
NtRp214
(dp215
g190
F-0.31090260837826023
sg191
g201
sg184
I10
sg193
F7.8228711365929362
sg194
g198
sbag1
(g180
g3
NtRp216
(dp217
g190
F-0.019430747792405612
sg191
g201
sg184
I11
sg193
F7.8274573935777472
sg194
g198
sbag1
(g180
g3
NtRp218
(dp219
g190
F0.52889120840592119
sg191
g201
sg184
I12
sg193
F4.0728155195306996
sg194
g198
sbag1
(g180
g3
NtRp220
(dp221
g190
F-1.7508336688026247
sg191
g201
sg184
I13
sg193
F3.5605219663972676
sg194
g198
sbag1
(g180
g3
NtRp222
(dp223
g190
F4.0545637701104509
sg191
g201
sg184
I14
sg193
F4.5814605486007212
sg194
g198
sbag1
(g180
g3
NtRp224
(dp225
g190
F-1.3229827753828967
sg191
g201
sg184
I15
sg193
F5.2070116478645208
sg194
g198
sbag1
(g180
g3
NtRp226
(dp227
g190
F-0.31142784964839237
sg191
g201
sg184
I16
sg193
F3.9802763345448104
sg194
g198
sbag1
(g180
g3
NtRp228
(dp229
g190
I0
sg191
g201
sg184
I17
sg193
F4.6858875219210745
sg194
g198
sbag1
(g180
g3
NtRp230
(dp231
g190
F1.0029888403410419
sg191
g201
sg184
I18
sg193
F4.9242730000000003
sg194
g198
sbag1
(g180
g3
NtRp232
(dp233
g190
F-0.13637198589012614
sg191
g201
sg184
I19
sg193
F4.790634345171175
sg194
g198
sbag1
(g180
g3
NtRp234
(dp235
g190
I0
sg191
g201
sg184
I20
sg193
F4.9242730000000003
sg194
g198
sbag1
(g180
g3
NtRp236
(dp237
g190
I0
sg191
g201
sg184
I21
sg193
F4.9242730000000003
sg194
g198
sbasb.