ccopy_reg
_reconstructor
p1
(cneat.chromosome
Chromosome
p2
c__builtin__
object
p3
NtRp4
(dp5
S'species_id'
p6
I24
sS'_connection_genes'
p7
(dp8
(I1
I3
tp9
g1
(cneat.genome
ConnectionGene
p10
g3
NtRp11
(dp12
S'_ConnectionGene__weight'
p13
F-1.3264641114405749
sS'_ConnectionGene__in'
p14
I1
sS'_ConnectionGene__enabled'
p15
I01
sS'_ConnectionGene__out'
p16
I3
sS'_ConnectionGene__innov_number'
p17
I3
sbs(I6
I6
tp18
g1
(g10
g3
NtRp19
(dp20
g13
F-0.43250091723628992
sg14
I6
sg15
I01
sg16
I6
sg17
I39
sbs(I6
I2
tp21
g1
(g10
g3
NtRp22
(dp23
g13
F7.3933325848782268
sg14
I6
sg15
I01
sg16
I2
sg17
I21
sbs(I5
I8
tp24
g1
(g10
g3
NtRp25
(dp26
g13
F18.104207012767301
sg14
I5
sg15
I01
sg16
I8
sg17
I42
sbs(I1
I2
tp27
g1
(g10
g3
NtRp28
(dp29
g13
F-25.805116239414946
sg14
I1
sg15
I01
sg16
I2
sg17
I1
sbs(I3
I3
tp30
g1
(g10
g3
NtRp31
(dp32
g13
F1.1801284656780693
sg14
I3
sg15
I01
sg16
I3
sg17
I15
sbs(I2
I9
tp33
g1
(g10
g3
NtRp34
(dp35
g13
F-2.176925011427314
sg14
I2
sg15
I01
sg16
I9
sg17
I53
sbs(I3
I10
tp36
g1
(g10
g3
NtRp37
(dp38
g13
F17.31749195939598
sg14
I3
sg15
I01
sg16
I10
sg17
I64
sbs(I6
I10
tp39
g1
(g10
g3
NtRp40
(dp41
g13
F3.2350949151080068
sg14
I6
sg15
I01
sg16
I10
sg17
I134
sbs(I4
I4
tp42
g1
(g10
g3
NtRp43
(dp44
g13
F-16.571711144146605
sg14
I4
sg15
I00
sg16
I4
sg17
I16
sbs(I1
I5
tp45
g1
(g10
g3
NtRp46
(dp47
g13
F0.15378904800042581
sg14
I1
sg15
I01
sg16
I5
sg17
I11
sbs(I2
I2
tp48
g1
(g10
g3
NtRp49
(dp50
g13
F16.840973797627782
sg14
I2
sg15
I01
sg16
I2
sg17
I2
sbs(I1
I10
tp51
g1
(g10
g3
NtRp52
(dp53
g13
F-0.94673500056625071
sg14
I1
sg15
I01
sg16
I10
sg17
I71
sbs(I5
I3
tp54
g1
(g10
g3
NtRp55
(dp56
g13
F-4.3200806237646834
sg14
I5
sg15
I01
sg16
I3
sg17
I19
sbs(I3
I2
tp57
g1
(g10
g3
NtRp58
(dp59
g13
F-24.710470947116278
sg14
I3
sg15
I01
sg16
I2
sg17
I4
sbs(I2
I6
tp60
g1
(g10
g3
NtRp61
(dp62
g13
F-3.5409886963873212
sg14
I2
sg15
I01
sg16
I6
sg17
I38
sbs(I11
I4
tp63
g1
(g10
g3
NtRp64
(dp65
g13
F-13.974931131970198
sg14
I11
sg15
I01
sg16
I4
sg17
I99
sbs(I8
I2
tp66
g1
(g10
g3
NtRp67
(dp68
g13
F-4.4525661894021171
sg14
I8
sg15
I01
sg16
I2
sg17
I43
sbs(I9
I3
tp69
g1
(g10
g3
NtRp70
(dp71
g13
F26.99036329786794
sg14
I9
sg15
I01
sg16
I3
sg17
I60
sbs(I1
I4
tp72
g1
(g10
g3
NtRp73
(dp74
g13
F-10.649244471251221
sg14
I1
sg15
I01
sg16
I4
sg17
I6
sbs(I7
I5
tp75
g1
(g10
g3
NtRp76
(dp77
g13
F23.859175328014711
sg14
I7
sg15
I01
sg16
I5
sg17
I30
sbs(I2
I3
tp78
g1
(g10
g3
NtRp79
(dp80
g13
F-27.922025978447433
sg14
I2
sg15
I01
sg16
I3
sg17
I5
sbs(I1
I9
tp81
g1
(g10
g3
NtRp82
(dp83
g13
F-10.501956243716783
sg14
I1
sg15
I01
sg16
I9
sg17
I58
sbs(I4
I2
tp84
g1
(g10
g3
NtRp85
(dp86
g13
F-18.391738279445295
sg14
I4
sg15
I00
sg16
I2
sg17
I7
sbs(I4
I11
tp87
g1
(g10
g3
NtRp88
(dp89
g13
F3.2358709689112781
sg14
I4
sg15
I01
sg16
I11
sg17
I89
sbs(I3
I5
tp90
g1
(g10
g3
NtRp91
(dp92
g13
F-27.23136503111224
sg14
I3
sg15
I01
sg16
I5
sg17
I14
sbs(I10
I5
tp93
g1
(g10
g3
NtRp94
(dp95
g13
F-8.2362614361842486
sg14
I10
sg15
I01
sg16
I5
sg17
I76
sbs(I4
I6
tp96
g1
(g10
g3
NtRp97
(dp98
g13
F15.440966040497333
sg14
I4
sg15
I01
sg16
I6
sg17
I22
sbs(I9
I2
tp99
g1
(g10
g3
NtRp100
(dp101
g13
F-7.3391766074980893
sg14
I9
sg15
I01
sg16
I2
sg17
I49
sbs(I4
I3
tp102
g1
(g10
g3
NtRp103
(dp104
g13
F13.77067529328728
sg14
I4
sg15
I01
sg16
I3
sg17
I10
sbs(I1
I7
tp105
g1
(g10
g3
NtRp106
(dp107
g13
F-1.6575096131086302
sg14
I1
sg15
I01
sg16
I7
sg17
I29
sbs(I5
I2
tp108
g1
(g10
g3
NtRp109
(dp110
g13
F-30
sg14
I5
sg15
I01
sg16
I2
sg17
I9
sbssS'_input_nodes'
p111
I1
sS'_output_nodes'
p112
I1
sS'_node_gene_type'
p113
cneat.genome
NodeGene
p114
sS'_conn_gene_type'
p115
g10
sS'fitness'
p116
F0.96308036565695831
sS'parent2_id'
p117
I4087
sS'_id'
p118
I4107
sS'parent1_id'
p119
I4087
sS'_node_genes'
p120
(lp121
g1
(g114
g3
NtRp122
(dp123
S'_bias'
p124
I0
sS'_type'
p125
S'INPUT'
p126
sg118
I1
sS'_response'
p127
F4.9242730000000003
sS'_activation_type'
p128
Nsbag1
(g114
g3
NtRp129
(dp130
g124
F-2.4759483676292153
sg125
S'OUTPUT'
p131
sg118
I2
sg127
F4.1290088492877688
sg128
S'tanh'
p132
sbag1
(g114
g3
NtRp133
(dp134
g124
F3.2680794800086419
sg125
S'HIDDEN'
p135
sg118
I3
sg127
F3.2448333135231389
sg128
g132
sbag1
(g114
g3
NtRp136
(dp137
g124
F1.9806376369386813
sg125
g135
sg118
I4
sg127
F3.497379207029705
sg128
g132
sbag1
(g114
g3
NtRp138
(dp139
g124
F4.8949924983670536
sg125
g135
sg118
I5
sg127
F10.011591092521259
sg128
g132
sbag1
(g114
g3
NtRp140
(dp141
g124
F4.1385791321830556
sg125
g135
sg118
I6
sg127
F11.956016176912264
sg128
g132
sbag1
(g114
g3
NtRp142
(dp143
g124
F-5.0074699123607189
sg125
g135
sg118
I7
sg127
F4.1479804051365603
sg128
g132
sbag1
(g114
g3
NtRp144
(dp145
g124
F2.9652104464168332
sg125
g135
sg118
I8
sg127
F4.187431528414403
sg128
g132
sbag1
(g114
g3
NtRp146
(dp147
g124
F-2.4323801587437215
sg125
g135
sg118
I9
sg127
F5.4319310496672202
sg128
g132
sbag1
(g114
g3
NtRp148
(dp149
g124
F-3.6007014916450175
sg125
g135
sg118
I10
sg127
F4.0280943606955626
sg128
g132
sbag1
(g114
g3
NtRp150
(dp151
g124
F-0.13676569669794308
sg125
g135
sg118
I11
sg127
F4.2597275524817091
sg128
g132
sbasb.