ccopy_reg
_reconstructor
p1
(cneat.chromosome
Chromosome
p2
c__builtin__
object
p3
NtRp4
(dp5
S'species_id'
p6
I14
sS'_connection_genes'
p7
(dp8
(I1
I3
tp9
g1
(cneat.genome
ConnectionGene
p10
g3
NtRp11
(dp12
S'_ConnectionGene__weight'
p13
F-1.9720004492529293
sS'_ConnectionGene__in'
p14
I1
sS'_ConnectionGene__enabled'
p15
I00
sS'_ConnectionGene__out'
p16
I3
sS'_ConnectionGene__innov_number'
p17
I3
sbs(I6
I6
tp18
g1
(g10
g3
NtRp19
(dp20
g13
F21.39613515461193
sg14
I6
sg15
I01
sg16
I6
sg17
I39
sbs(I11
I2
tp21
g1
(g10
g3
NtRp22
(dp23
g13
F-19.418482871630289
sg14
I11
sg15
I01
sg16
I2
sg17
I80
sbs(I6
I2
tp24
g1
(g10
g3
NtRp25
(dp26
g13
F15.599239319017821
sg14
I6
sg15
I01
sg16
I2
sg17
I21
sbs(I5
I8
tp27
g1
(g10
g3
NtRp28
(dp29
g13
F4.5506593905712593
sg14
I5
sg15
I01
sg16
I8
sg17
I42
sbs(I1
I2
tp30
g1
(g10
g3
NtRp31
(dp32
g13
F-11.406896917171474
sg14
I1
sg15
I01
sg16
I2
sg17
I1
sbs(I3
I3
tp33
g1
(g10
g3
NtRp34
(dp35
g13
F-13.179546282257085
sg14
I3
sg15
I01
sg16
I3
sg17
I15
sbs(I2
I9
tp36
g1
(g10
g3
NtRp37
(dp38
g13
F1.7541914852290206
sg14
I2
sg15
I01
sg16
I9
sg17
I53
sbs(I11
I5
tp39
g1
(g10
g3
NtRp40
(dp41
g13
F-0.92603260804927345
sg14
I11
sg15
I01
sg16
I5
sg17
I87
sbs(I8
I10
tp42
g1
(g10
g3
NtRp43
(dp44
g13
F4.6905528039154758
sg14
I8
sg15
I01
sg16
I10
sg17
I74
sbs(I1
I5
tp45
g1
(g10
g3
NtRp46
(dp47
g13
F3.2635025548415819
sg14
I1
sg15
I00
sg16
I5
sg17
I11
sbs(I2
I2
tp48
g1
(g10
g3
NtRp49
(dp50
g13
F18.72403852016604
sg14
I2
sg15
I00
sg16
I2
sg17
I2
sbs(I3
I2
tp51
g1
(g10
g3
NtRp52
(dp53
g13
F-25.478916797211451
sg14
I3
sg15
I01
sg16
I2
sg17
I4
sbs(I2
I6
tp54
g1
(g10
g3
NtRp55
(dp56
g13
F5.3341002702901603
sg14
I2
sg15
I01
sg16
I6
sg17
I38
sbs(I8
I2
tp57
g1
(g10
g3
NtRp58
(dp59
g13
F-5.5539378037832545
sg14
I8
sg15
I00
sg16
I2
sg17
I43
sbs(I5
I11
tp60
g1
(g10
g3
NtRp61
(dp62
g13
F1.6586629816263967
sg14
I5
sg15
I01
sg16
I11
sg17
I79
sbs(I9
I3
tp63
g1
(g10
g3
NtRp64
(dp65
g13
F-4.6824657052623868
sg14
I9
sg15
I01
sg16
I3
sg17
I60
sbs(I1
I4
tp66
g1
(g10
g3
NtRp67
(dp68
g13
F-10.262634268283094
sg14
I1
sg15
I01
sg16
I4
sg17
I6
sbs(I7
I5
tp69
g1
(g10
g3
NtRp70
(dp71
g13
F7.261613126081806
sg14
I7
sg15
I01
sg16
I5
sg17
I30
sbs(I2
I3
tp72
g1
(g10
g3
NtRp73
(dp74
g13
F0.22102727256469112
sg14
I2
sg15
I01
sg16
I3
sg17
I5
sbs(I1
I9
tp75
g1
(g10
g3
NtRp76
(dp77
g13
F-7.8746879990362997
sg14
I1
sg15
I01
sg16
I9
sg17
I58
sbs(I4
I2
tp78
g1
(g10
g3
NtRp79
(dp80
g13
F-20.982253783254123
sg14
I4
sg15
I00
sg16
I2
sg17
I7
sbs(I3
I5
tp81
g1
(g10
g3
NtRp82
(dp83
g13
F-9.9674471079558735
sg14
I3
sg15
I01
sg16
I5
sg17
I14
sbs(I4
I6
tp84
g1
(g10
g3
NtRp85
(dp86
g13
F26.093770089562007
sg14
I4
sg15
I01
sg16
I6
sg17
I22
sbs(I3
I8
tp87
g1
(g10
g3
NtRp88
(dp89
g13
F0.94836500575944516
sg14
I3
sg15
I01
sg16
I8
sg17
I44
sbs(I4
I3
tp90
g1
(g10
g3
NtRp91
(dp92
g13
F1.6851167153100681
sg14
I4
sg15
I01
sg16
I3
sg17
I10
sbs(I1
I7
tp93
g1
(g10
g3
NtRp94
(dp95
g13
F-2.0121513138262794
sg14
I1
sg15
I01
sg16
I7
sg17
I29
sbs(I5
I2
tp96
g1
(g10
g3
NtRp97
(dp98
g13
F-27.314078357495422
sg14
I5
sg15
I00
sg16
I2
sg17
I9
sbs(I10
I2
tp99
g1
(g10
g3
NtRp100
(dp101
g13
F-3.3489379469350125
sg14
I10
sg15
I01
sg16
I2
sg17
I65
sbssS'_input_nodes'
p102
I1
sS'_output_nodes'
p103
I1
sS'_node_gene_type'
p104
cneat.genome
NodeGene
p105
sS'_conn_gene_type'
p106
g10
sS'fitness'
p107
F0.95679578026554035
sS'parent2_id'
p108
I2865
sS'_id'
p109
I2881
sS'parent1_id'
p110
I2865
sS'_node_genes'
p111
(lp112
g1
(g105
g3
NtRp113
(dp114
S'_bias'
p115
I0
sS'_type'
p116
S'INPUT'
p117
sg109
I1
sS'_response'
p118
F4.9242730000000003
sS'_activation_type'
p119
Nsbag1
(g105
g3
NtRp120
(dp121
g115
F-3.1274044062825346
sg116
S'OUTPUT'
p122
sg109
I2
sg118
F4.7274551410853505
sg119
S'tanh'
p123
sbag1
(g105
g3
NtRp124
(dp125
g115
F-1.0438587953371896
sg116
S'HIDDEN'
p126
sg109
I3
sg118
F4.2311664658299897
sg119
g123
sbag1
(g105
g3
NtRp127
(dp128
g115
F-0.79649818493731706
sg116
g126
sg109
I4
sg118
F4.9724590992728199
sg119
g123
sbag1
(g105
g3
NtRp129
(dp130
g115
F3.2457195017928804
sg116
g126
sg109
I5
sg118
F10.94459013694591
sg119
g123
sbag1
(g105
g3
NtRp131
(dp132
g115
F2.5156777959558183
sg116
g126
sg109
I6
sg118
F8.7114797427752713
sg119
g123
sbag1
(g105
g3
NtRp133
(dp134
g115
F-1.9389298948012907
sg116
g126
sg109
I7
sg118
F5.0323894984199766
sg119
g123
sbag1
(g105
g3
NtRp135
(dp136
g115
F0.29612405209271003
sg116
g126
sg109
I8
sg118
F5.3093559056289701
sg119
g123
sbag1
(g105
g3
NtRp137
(dp138
g115
F-0.42999190004413013
sg116
g126
sg109
I9
sg118
F4.8657908541091919
sg119
g123
sbag1
(g105
g3
NtRp139
(dp140
g115
F0.12479959449979849
sg116
g126
sg109
I10
sg118
F4.9242730000000003
sg119
g123
sbag1
(g105
g3
NtRp141
(dp142
g115
I0
sg116
g126
sg109
I11
sg118
F4.9242730000000003
sg119
g123
sbasb.