ccopy_reg
_reconstructor
p1
(cneat.chromosome
Chromosome
p2
c__builtin__
object
p3
NtRp4
(dp5
S'species_id'
p6
I41
sS'_connection_genes'
p7
(dp8
(I1
I21
tp9
g1
(cneat.genome
ConnectionGene
p10
g3
NtRp11
(dp12
S'_ConnectionGene__weight'
p13
F1.4891116930982189
sS'_ConnectionGene__in'
p14
I1
sS'_ConnectionGene__enabled'
p15
I01
sS'_ConnectionGene__out'
p16
I21
sS'_ConnectionGene__innov_number'
p17
I222
sbs(I1
I3
tp18
g1
(g10
g3
NtRp19
(dp20
g13
F-16.747632073655648
sg14
I1
sg15
I00
sg16
I3
sg17
I3
sbs(I6
I6
tp21
g1
(g10
g3
NtRp22
(dp23
g13
F20.980689616657838
sg14
I6
sg15
I01
sg16
I6
sg17
I39
sbs(I11
I2
tp24
g1
(g10
g3
NtRp25
(dp26
g13
F2.1173606514755763
sg14
I11
sg15
I01
sg16
I2
sg17
I80
sbs(I1
I15
tp27
g1
(g10
g3
NtRp28
(dp29
g13
F-15.80913985430688
sg14
I1
sg15
I01
sg16
I15
sg17
I146
sbs(I6
I2
tp30
g1
(g10
g3
NtRp31
(dp32
g13
F27.624329909706123
sg14
I6
sg15
I01
sg16
I2
sg17
I21
sbs(I16
I14
tp33
g1
(g10
g3
NtRp34
(dp35
g13
F-24.817803901926233
sg14
I16
sg15
I01
sg16
I14
sg17
I193
sbs(I5
I8
tp36
g1
(g10
g3
NtRp37
(dp38
g13
F0.65494937387604613
sg14
I5
sg15
I01
sg16
I8
sg17
I42
sbs(I1
I2
tp39
g1
(g10
g3
NtRp40
(dp41
g13
F-30
sg14
I1
sg15
I01
sg16
I2
sg17
I1
sbs(I12
I2
tp42
g1
(g10
g3
NtRp43
(dp44
g13
F6.7029287434720635
sg14
I12
sg15
I01
sg16
I2
sg17
I82
sbs(I2
I19
tp45
g1
(g10
g3
NtRp46
(dp47
g13
F6.5363195487915213
sg14
I2
sg15
I01
sg16
I19
sg17
I210
sbs(I3
I3
tp48
g1
(g10
g3
NtRp49
(dp50
g13
F-7.543838577658982
sg14
I3
sg15
I01
sg16
I3
sg17
I15
sbs(I2
I9
tp51
g1
(g10
g3
NtRp52
(dp53
g13
F19.793983176180557
sg14
I2
sg15
I01
sg16
I9
sg17
I53
sbs(I13
I3
tp54
g1
(g10
g3
NtRp55
(dp56
g13
F-0.91360501846592945
sg14
I13
sg15
I01
sg16
I3
sg17
I92
sbs(I8
I10
tp57
g1
(g10
g3
NtRp58
(dp59
g13
F29.473866271493634
sg14
I8
sg15
I00
sg16
I10
sg17
I74
sbs(I4
I13
tp60
g1
(g10
g3
NtRp61
(dp62
g13
F-19.283669138609859
sg14
I4
sg15
I01
sg16
I13
sg17
I102
sbs(I1
I5
tp63
g1
(g10
g3
NtRp64
(dp65
g13
F-16.408011360259248
sg14
I1
sg15
I00
sg16
I5
sg17
I11
sbs(I9
I11
tp66
g1
(g10
g3
NtRp67
(dp68
g13
F2.322067425144327
sg14
I9
sg15
I01
sg16
I11
sg17
I101
sbs(I19
I3
tp69
g1
(g10
g3
NtRp70
(dp71
g13
F-1.7681328298004411
sg14
I19
sg15
I01
sg16
I3
sg17
I212
sbs(I2
I2
tp72
g1
(g10
g3
NtRp73
(dp74
g13
F14.308529021045802
sg14
I2
sg15
I01
sg16
I2
sg17
I2
sbs(I8
I16
tp75
g1
(g10
g3
NtRp76
(dp77
g13
F3.8280459036569834
sg14
I8
sg15
I01
sg16
I16
sg17
I177
sbs(I8
I18
tp78
g1
(g10
g3
NtRp79
(dp80
g13
F2.2988073240250619
sg14
I8
sg15
I01
sg16
I18
sg17
I208
sbs(I3
I2
tp81
g1
(g10
g3
NtRp82
(dp83
g13
F-22.864877075561385
sg14
I3
sg15
I01
sg16
I2
sg17
I4
sbs(I2
I6
tp84
g1
(g10
g3
NtRp85
(dp86
g13
F-3.1792599310484153
sg14
I2
sg15
I01
sg16
I6
sg17
I38
sbs(I8
I2
tp87
g1
(g10
g3
NtRp88
(dp89
g13
F-10.397829286237956
sg14
I8
sg15
I01
sg16
I2
sg17
I43
sbs(I5
I11
tp90
g1
(g10
g3
NtRp91
(dp92
g13
F-15.529743416437237
sg14
I5
sg15
I01
sg16
I11
sg17
I79
sbs(I15
I3
tp93
g1
(g10
g3
NtRp94
(dp95
g13
F-0.04894909185714047
sg14
I15
sg15
I01
sg16
I3
sg17
I147
sbs(I9
I3
tp96
g1
(g10
g3
NtRp97
(dp98
g13
F-6.8142349720364086
sg14
I9
sg15
I01
sg16
I3
sg17
I60
sbs(I2
I20
tp99
g1
(g10
g3
NtRp100
(dp101
g13
F1.7166537548769312
sg14
I2
sg15
I01
sg16
I20
sg17
I220
sbs(I1
I4
tp102
g1
(g10
g3
NtRp103
(dp104
g13
F-28.603422195286349
sg14
I1
sg15
I01
sg16
I4
sg17
I6
sbs(I9
I10
tp105
g1
(g10
g3
NtRp106
(dp107
g13
F-20.66954206348197
sg14
I9
sg15
I01
sg16
I10
sg17
I90
sbs(I7
I5
tp108
g1
(g10
g3
NtRp109
(dp110
g13
F-7.5121126752845138
sg14
I7
sg15
I01
sg16
I5
sg17
I30
sbs(I2
I3
tp111
g1
(g10
g3
NtRp112
(dp113
g13
F2.286030927627106
sg14
I2
sg15
I00
sg16
I3
sg17
I5
sbs(I1
I9
tp114
g1
(g10
g3
NtRp115
(dp116
g13
F14.5257400166727
sg14
I1
sg15
I01
sg16
I9
sg17
I58
sbs(I13
I9
tp117
g1
(g10
g3
NtRp118
(dp119
g13
F-3.429823892310814
sg14
I13
sg15
I01
sg16
I9
sg17
I112
sbs(I8
I17
tp120
g1
(g10
g3
NtRp121
(dp122
g13
F1.6590954821900823
sg14
I8
sg15
I01
sg16
I17
sg17
I205
sbs(I4
I2
tp123
g1
(g10
g3
NtRp124
(dp125
g13
F-6.4327184981792591
sg14
I4
sg15
I01
sg16
I2
sg17
I7
sbs(I14
I2
tp126
g1
(g10
g3
NtRp127
(dp128
g13
F-15.66473168573493
sg14
I14
sg15
I01
sg16
I2
sg17
I138
sbs(I3
I5
tp129
g1
(g10
g3
NtRp130
(dp131
g13
F14.326594935889888
sg14
I3
sg15
I01
sg16
I5
sg17
I14
sbs(I11
I7
tp132
g1
(g10
g3
NtRp133
(dp134
g13
F7.8580813512262973
sg14
I11
sg15
I01
sg16
I7
sg17
I168
sbs(I10
I5
tp135
g1
(g10
g3
NtRp136
(dp137
g13
F3.8551544878022748
sg14
I10
sg15
I01
sg16
I5
sg17
I76
sbs(I1
I7
tp138
g1
(g10
g3
NtRp139
(dp140
g13
F14.225449834239214
sg14
I1
sg15
I01
sg16
I7
sg17
I29
sbs(I4
I6
tp141
g1
(g10
g3
NtRp142
(dp143
g13
F-8.3150246939806038
sg14
I4
sg15
I01
sg16
I6
sg17
I22
sbs(I15
I2
tp144
g1
(g10
g3
NtRp145
(dp146
g13
F11.706989548069762
sg14
I15
sg15
I01
sg16
I2
sg17
I170
sbs(I8
I12
tp147
g1
(g10
g3
NtRp148
(dp149
g13
F-0.93375268913748588
sg14
I8
sg15
I01
sg16
I12
sg17
I88
sbs(I19
I16
tp150
g1
(g10
g3
NtRp151
(dp152
g13
F-3.5231166886341736
sg14
I19
sg15
I01
sg16
I16
sg17
I231
sbs(I22
I12
tp153
g1
(g10
g3
NtRp154
(dp155
g13
F-3.3642180473852124
sg14
I22
sg15
I01
sg16
I12
sg17
I226
sbs(I18
I10
tp156
g1
(g10
g3
NtRp157
(dp158
g13
F30
sg14
I18
sg15
I01
sg16
I10
sg17
I209
sbs(I11
I3
tp159
g1
(g10
g3
NtRp160
(dp161
g13
F-16.930746787077361
sg14
I11
sg15
I01
sg16
I3
sg17
I78
sbs(I21
I3
tp162
g1
(g10
g3
NtRp163
(dp164
g13
F-8.2153270122797046
sg14
I21
sg15
I01
sg16
I3
sg17
I224
sbs(I3
I8
tp165
g1
(g10
g3
NtRp166
(dp167
g13
F10.058875881407976
sg14
I3
sg15
I01
sg16
I8
sg17
I44
sbs(I8
I14
tp168
g1
(g10
g3
NtRp169
(dp170
g13
F4.4602273943039616
sg14
I8
sg15
I00
sg16
I14
sg17
I119
sbs(I20
I6
tp171
g1
(g10
g3
NtRp172
(dp173
g13
F-4.7180089267514616
sg14
I20
sg15
I01
sg16
I6
sg17
I221
sbs(I17
I12
tp174
g1
(g10
g3
NtRp175
(dp176
g13
F-14.110854373285003
sg14
I17
sg15
I01
sg16
I12
sg17
I207
sbs(I8
I22
tp177
g1
(g10
g3
NtRp178
(dp179
g13
F-1.0847251408019618
sg14
I8
sg15
I01
sg16
I22
sg17
I225
sbs(I4
I3
tp180
g1
(g10
g3
NtRp181
(dp182
g13
F14.789867542619453
sg14
I4
sg15
I01
sg16
I3
sg17
I10
sbs(I5
I2
tp183
g1
(g10
g3
NtRp184
(dp185
g13
F-0.59622958394693759
sg14
I5
sg15
I01
sg16
I2
sg17
I9
sbs(I10
I2
tp186
g1
(g10
g3
NtRp187
(dp188
g13
F-6.8452649435816024
sg14
I10
sg15
I01
sg16
I2
sg17
I65
sbssS'_input_nodes'
p189
I1
sS'_output_nodes'
p190
I1
sS'_node_gene_type'
p191
cneat.genome
NodeGene
p192
sS'_conn_gene_type'
p193
g10
sS'fitness'
p194
F0.99561675526983873
sS'parent2_id'
p195
I6397
sS'_id'
p196
I6415
sS'parent1_id'
p197
I6397
sS'_node_genes'
p198
(lp199
g1
(g192
g3
NtRp200
(dp201
S'_bias'
p202
I0
sS'_type'
p203
S'INPUT'
p204
sg196
I1
sS'_response'
p205
F4.9242730000000003
sS'_activation_type'
p206
Nsbag1
(g192
g3
NtRp207
(dp208
g202
F-6.4782807261099187
sg203
S'OUTPUT'
p209
sg196
I2
sg205
F4.9968428380331513
sg206
S'tanh'
p210
sbag1
(g192
g3
NtRp211
(dp212
g202
F-1.1661019468277281
sg203
S'HIDDEN'
p213
sg196
I3
sg205
F3.3999413945731147
sg206
g210
sbag1
(g192
g3
NtRp214
(dp215
g202
F-4.5683736161554256
sg203
g213
sg196
I4
sg205
F5.9036632111408016
sg206
g210
sbag1
(g192
g3
NtRp216
(dp217
g202
F2.5087839272989689
sg203
g213
sg196
I5
sg205
F11.110316740035985
sg206
g210
sbag1
(g192
g3
NtRp218
(dp219
g202
F0.82559400414361572
sg203
g213
sg196
I6
sg205
F5.0684984924783612
sg206
g210
sbag1
(g192
g3
NtRp220
(dp221
g202
F-1.6091434070939976
sg203
g213
sg196
I7
sg205
F1.0111849963552597
sg206
g210
sbag1
(g192
g3
NtRp222
(dp223
g202
F-1.5337655627203346
sg203
g213
sg196
I8
sg205
F10.771981849865927
sg206
g210
sbag1
(g192
g3
NtRp224
(dp225
g202
F-1.1180946889954286
sg203
g213
sg196
I9
sg205
F7.3603857385256868
sg206
g210
sbag1
(g192
g3
NtRp226
(dp227
g202
F-1.2273388024001033
sg203
g213
sg196
I10
sg205
F6.7773895242238975
sg206
g210
sbag1
(g192
g3
NtRp228
(dp229
g202
F1.7265494992591432
sg203
g213
sg196
I11
sg205
F8.7925585864964262
sg206
g210
sbag1
(g192
g3
NtRp230
(dp231
g202
F2.154075607519383
sg203
g213
sg196
I12
sg205
F4.3809124793474794
sg206
g210
sbag1
(g192
g3
NtRp232
(dp233
g202
F-2.1672702058610644
sg203
g213
sg196
I13
sg205
F4.4801446072147293
sg206
g210
sbag1
(g192
g3
NtRp234
(dp235
g202
F2.7079527101952197
sg203
g213
sg196
I14
sg205
F4.8618623741455247
sg206
g210
sbag1
(g192
g3
NtRp236
(dp237
g202
F-2.6224856000297008
sg203
g213
sg196
I15
sg205
F4.8695247923898712
sg206
g210
sbag1
(g192
g3
NtRp238
(dp239
g202
F-1.3958475026462565
sg203
g213
sg196
I16
sg205
F5.0416541709190943
sg206
g210
sbag1
(g192
g3
NtRp240
(dp241
g202
F0.22249057846751674
sg203
g213
sg196
I17
sg205
F4.1999167028620068
sg206
g210
sbag1
(g192
g3
NtRp242
(dp243
g202
F1.9864810303127802
sg203
g213
sg196
I18
sg205
F4.4171058407414687
sg206
g210
sbag1
(g192
g3
NtRp244
(dp245
g202
F0.023565639824781381
sg203
g213
sg196
I19
sg205
F3.1192626123569354
sg206
g210
sbag1
(g192
g3
NtRp246
(dp247
g202
F0.78967590287074318
sg203
g213
sg196
I20
sg205
F7.2926988753428263
sg206
g210
sbag1
(g192
g3
NtRp248
(dp249
g202
F1.3033576650140613
sg203
g213
sg196
I21
sg205
F4.4834584701776778
sg206
g210
sbag1
(g192
g3
NtRp250
(dp251
g202
F1.4962792319349265
sg203
g213
sg196
I22
sg205
F5.5124435820124589
sg206
g210
sbasb.