ccopy_reg
_reconstructor
p1
(cneat.chromosome
Chromosome
p2
c__builtin__
object
p3
NtRp4
(dp5
S'species_id'
p6
I18
sS'_connection_genes'
p7
(dp8
(I1
I3
tp9
g1
(cneat.genome
ConnectionGene
p10
g3
NtRp11
(dp12
S'_ConnectionGene__weight'
p13
F-10.026634390940984
sS'_ConnectionGene__in'
p14
I1
sS'_ConnectionGene__enabled'
p15
I00
sS'_ConnectionGene__out'
p16
I3
sS'_ConnectionGene__innov_number'
p17
I3
sbs(I6
I6
tp18
g1
(g10
g3
NtRp19
(dp20
g13
F17.338446208651419
sg14
I6
sg15
I01
sg16
I6
sg17
I39
sbs(I2
I8
tp21
g1
(g10
g3
NtRp22
(dp23
g13
F1.4068228099722844
sg14
I2
sg15
I01
sg16
I8
sg17
I107
sbs(I11
I2
tp24
g1
(g10
g3
NtRp25
(dp26
g13
F-15.114966564055555
sg14
I11
sg15
I01
sg16
I2
sg17
I80
sbs(I6
I2
tp27
g1
(g10
g3
NtRp28
(dp29
g13
F14.817901205705905
sg14
I6
sg15
I01
sg16
I2
sg17
I21
sbs(I5
I8
tp30
g1
(g10
g3
NtRp31
(dp32
g13
F5.5434206789197447
sg14
I5
sg15
I01
sg16
I8
sg17
I42
sbs(I1
I2
tp33
g1
(g10
g3
NtRp34
(dp35
g13
F-7.7871323383837003
sg14
I1
sg15
I01
sg16
I2
sg17
I1
sbs(I3
I3
tp36
g1
(g10
g3
NtRp37
(dp38
g13
F-18.082309706203169
sg14
I3
sg15
I01
sg16
I3
sg17
I15
sbs(I2
I9
tp39
g1
(g10
g3
NtRp40
(dp41
g13
F12.662533247885452
sg14
I2
sg15
I01
sg16
I9
sg17
I53
sbs(I11
I5
tp42
g1
(g10
g3
NtRp43
(dp44
g13
F-16.088574132282425
sg14
I11
sg15
I01
sg16
I5
sg17
I87
sbs(I8
I10
tp45
g1
(g10
g3
NtRp46
(dp47
g13
F-2.1181034787534445
sg14
I8
sg15
I01
sg16
I10
sg17
I74
sbs(I1
I5
tp48
g1
(g10
g3
NtRp49
(dp50
g13
F0.066796741441200957
sg14
I1
sg15
I00
sg16
I5
sg17
I11
sbs(I2
I2
tp51
g1
(g10
g3
NtRp52
(dp53
g13
F15.337471346578466
sg14
I2
sg15
I01
sg16
I2
sg17
I2
sbs(I12
I3
tp54
g1
(g10
g3
NtRp55
(dp56
g13
F4.3045149991975284
sg14
I12
sg15
I01
sg16
I3
sg17
I86
sbs(I3
I2
tp57
g1
(g10
g3
NtRp58
(dp59
g13
F-22.510915038049944
sg14
I3
sg15
I01
sg16
I2
sg17
I4
sbs(I2
I6
tp60
g1
(g10
g3
NtRp61
(dp62
g13
F-0.90809214434980889
sg14
I2
sg15
I01
sg16
I6
sg17
I38
sbs(I8
I2
tp63
g1
(g10
g3
NtRp64
(dp65
g13
F-2.2147065102736425
sg14
I8
sg15
I00
sg16
I2
sg17
I43
sbs(I5
I11
tp66
g1
(g10
g3
NtRp67
(dp68
g13
F-3.9269674030503241
sg14
I5
sg15
I01
sg16
I11
sg17
I79
sbs(I9
I3
tp69
g1
(g10
g3
NtRp70
(dp71
g13
F2.6987409113949052
sg14
I9
sg15
I00
sg16
I3
sg17
I60
sbs(I1
I4
tp72
g1
(g10
g3
NtRp73
(dp74
g13
F-10.474807036190022
sg14
I1
sg15
I01
sg16
I4
sg17
I6
sbs(I7
I5
tp75
g1
(g10
g3
NtRp76
(dp77
g13
F18.883946906983191
sg14
I7
sg15
I01
sg16
I5
sg17
I30
sbs(I2
I3
tp78
g1
(g10
g3
NtRp79
(dp80
g13
F5.0685284936984303
sg14
I2
sg15
I01
sg16
I3
sg17
I5
sbs(I1
I9
tp81
g1
(g10
g3
NtRp82
(dp83
g13
F1.4692698941894922
sg14
I1
sg15
I01
sg16
I9
sg17
I58
sbs(I4
I2
tp84
g1
(g10
g3
NtRp85
(dp86
g13
F-15.440068936604382
sg14
I4
sg15
I01
sg16
I2
sg17
I7
sbs(I4
I11
tp87
g1
(g10
g3
NtRp88
(dp89
g13
F-3.217580613682375
sg14
I4
sg15
I01
sg16
I11
sg17
I89
sbs(I3
I5
tp90
g1
(g10
g3
NtRp91
(dp92
g13
F-13.318247509526202
sg14
I3
sg15
I01
sg16
I5
sg17
I14
sbs(I4
I6
tp93
g1
(g10
g3
NtRp94
(dp95
g13
F20.219900836497978
sg14
I4
sg15
I01
sg16
I6
sg17
I22
sbs(I3
I8
tp96
g1
(g10
g3
NtRp97
(dp98
g13
F-3.2757259102841569
sg14
I3
sg15
I01
sg16
I8
sg17
I44
sbs(I4
I3
tp99
g1
(g10
g3
NtRp100
(dp101
g13
F-3.5617997248562099
sg14
I4
sg15
I01
sg16
I3
sg17
I10
sbs(I1
I7
tp102
g1
(g10
g3
NtRp103
(dp104
g13
F3.4255271433958239
sg14
I1
sg15
I01
sg16
I7
sg17
I29
sbs(I5
I2
tp105
g1
(g10
g3
NtRp106
(dp107
g13
F-20.181818185856006
sg14
I5
sg15
I01
sg16
I2
sg17
I9
sbs(I9
I12
tp108
g1
(g10
g3
NtRp109
(dp110
g13
F-3.6264920315258165
sg14
I9
sg15
I01
sg16
I12
sg17
I100
sbs(I10
I2
tp111
g1
(g10
g3
NtRp112
(dp113
g13
F-7.3876542584065241
sg14
I10
sg15
I01
sg16
I2
sg17
I65
sbssS'_input_nodes'
p114
I1
sS'_output_nodes'
p115
I1
sS'_node_gene_type'
p116
cneat.genome
NodeGene
p117
sS'_conn_gene_type'
p118
g10
sS'fitness'
p119
F0.96031731816246058
sS'parent2_id'
p120
I3392
sS'_id'
p121
I3424
sS'parent1_id'
p122
I3392
sS'_node_genes'
p123
(lp124
g1
(g117
g3
NtRp125
(dp126
S'_bias'
p127
I0
sS'_type'
p128
S'INPUT'
p129
sg121
I1
sS'_response'
p130
F4.9242730000000003
sS'_activation_type'
p131
Nsbag1
(g117
g3
NtRp132
(dp133
g127
F-3.5913225224481349
sg128
S'OUTPUT'
p134
sg121
I2
sg130
F3.988244921033651
sg131
S'tanh'
p135
sbag1
(g117
g3
NtRp136
(dp137
g127
F-1.338576258239359
sg128
S'HIDDEN'
p138
sg121
I3
sg130
F5.059037127263764
sg131
g135
sbag1
(g117
g3
NtRp139
(dp140
g127
F-0.98532149908172517
sg128
g138
sg121
I4
sg130
F3.1830178789889789
sg131
g135
sbag1
(g117
g3
NtRp141
(dp142
g127
F1.8189832667736348
sg128
g138
sg121
I5
sg130
F9.7139634075292989
sg131
g135
sbag1
(g117
g3
NtRp143
(dp144
g127
F2.5806045296835012
sg128
g138
sg121
I6
sg130
F7.8564624078501648
sg131
g135
sbag1
(g117
g3
NtRp145
(dp146
g127
F-2.0273655387557294
sg128
g138
sg121
I7
sg130
F4.0697624444883846
sg131
g135
sbag1
(g117
g3
NtRp147
(dp148
g127
F-0.018459442795116798
sg128
g138
sg121
I8
sg130
F5.9618660082127395
sg131
g135
sbag1
(g117
g3
NtRp149
(dp150
g127
F-1.237255151158638
sg128
g138
sg121
I9
sg130
F4.2336768448695352
sg131
g135
sbag1
(g117
g3
NtRp151
(dp152
g127
F0.099123498531787702
sg128
g138
sg121
I10
sg130
F3.8735196941832206
sg131
g135
sbag1
(g117
g3
NtRp153
(dp154
g127
F3.0571438067696235
sg128
g138
sg121
I11
sg130
F8.6606418161289227
sg131
g135
sbag1
(g117
g3
NtRp155
(dp156
g127
F0.34279777613440476
sg128
g138
sg121
I12
sg130
F6.2783254348996316
sg131
g135
sbasb.