ccopy_reg
_reconstructor
p1
(cneat.chromosome
Chromosome
p2
c__builtin__
object
p3
NtRp4
(dp5
S'species_id'
p6
I29
sS'_connection_genes'
p7
(dp8
(I1
I3
tp9
g1
(cneat.genome
ConnectionGene
p10
g3
NtRp11
(dp12
S'_ConnectionGene__weight'
p13
F-5.7150239242946927
sS'_ConnectionGene__in'
p14
I1
sS'_ConnectionGene__enabled'
p15
I01
sS'_ConnectionGene__out'
p16
I3
sS'_ConnectionGene__innov_number'
p17
I3
sbs(I6
I6
tp18
g1
(g10
g3
NtRp19
(dp20
g13
F8.8116817566652124
sg14
I6
sg15
I01
sg16
I6
sg17
I39
sbs(I11
I2
tp21
g1
(g10
g3
NtRp22
(dp23
g13
F-18.419825311656059
sg14
I11
sg15
I01
sg16
I2
sg17
I80
sbs(I4
I6
tp24
g1
(g10
g3
NtRp25
(dp26
g13
F10.321455480803479
sg14
I4
sg15
I01
sg16
I6
sg17
I22
sbs(I6
I2
tp27
g1
(g10
g3
NtRp28
(dp29
g13
F10.119802689569795
sg14
I6
sg15
I01
sg16
I2
sg17
I21
sbs(I3
I14
tp30
g1
(g10
g3
NtRp31
(dp32
g13
F-3.5532426362346374
sg14
I3
sg15
I01
sg16
I14
sg17
I155
sbs(I1
I2
tp33
g1
(g10
g3
NtRp34
(dp35
g13
F-28.260140476023871
sg14
I1
sg15
I01
sg16
I2
sg17
I1
sbs(I12
I2
tp36
g1
(g10
g3
NtRp37
(dp38
g13
F-0.12997710827986175
sg14
I12
sg15
I01
sg16
I2
sg17
I82
sbs(I3
I3
tp39
g1
(g10
g3
NtRp40
(dp41
g13
F-2.9226957542739926
sg14
I3
sg15
I01
sg16
I3
sg17
I15
sbs(I14
I5
tp42
g1
(g10
g3
NtRp43
(dp44
g13
F14.933621634990947
sg14
I14
sg15
I01
sg16
I5
sg17
I156
sbs(I13
I3
tp45
g1
(g10
g3
NtRp46
(dp47
g13
F-6.828946180344083
sg14
I13
sg15
I01
sg16
I3
sg17
I92
sbs(I8
I10
tp48
g1
(g10
g3
NtRp49
(dp50
g13
F30
sg14
I8
sg15
I01
sg16
I10
sg17
I74
sbs(I4
I13
tp51
g1
(g10
g3
NtRp52
(dp53
g13
F-20.193432563698163
sg14
I4
sg15
I01
sg16
I13
sg17
I102
sbs(I1
I5
tp54
g1
(g10
g3
NtRp55
(dp56
g13
F-13.724179299776527
sg14
I1
sg15
I00
sg16
I5
sg17
I11
sbs(I5
I8
tp57
g1
(g10
g3
NtRp58
(dp59
g13
F-9.4271470577991359
sg14
I5
sg15
I01
sg16
I8
sg17
I42
sbs(I2
I2
tp60
g1
(g10
g3
NtRp61
(dp62
g13
F26.072570219699923
sg14
I2
sg15
I01
sg16
I2
sg17
I2
sbs(I3
I2
tp63
g1
(g10
g3
NtRp64
(dp65
g13
F-25.095335237914576
sg14
I3
sg15
I01
sg16
I2
sg17
I4
sbs(I2
I6
tp66
g1
(g10
g3
NtRp67
(dp68
g13
F9.9691997988240466
sg14
I2
sg15
I01
sg16
I6
sg17
I38
sbs(I8
I2
tp69
g1
(g10
g3
NtRp70
(dp71
g13
F-15.028721626154358
sg14
I8
sg15
I01
sg16
I2
sg17
I43
sbs(I5
I11
tp72
g1
(g10
g3
NtRp73
(dp74
g13
F7.8897063329256927
sg14
I5
sg15
I01
sg16
I11
sg17
I79
sbs(I9
I3
tp75
g1
(g10
g3
NtRp76
(dp77
g13
F-12.21428662104737
sg14
I9
sg15
I01
sg16
I3
sg17
I60
sbs(I1
I4
tp78
g1
(g10
g3
NtRp79
(dp80
g13
F-0.40055076188799221
sg14
I1
sg15
I01
sg16
I4
sg17
I6
sbs(I9
I10
tp81
g1
(g10
g3
NtRp82
(dp83
g13
F-5.0080396071483699
sg14
I9
sg15
I01
sg16
I10
sg17
I90
sbs(I7
I5
tp84
g1
(g10
g3
NtRp85
(dp86
g13
F-5.5141411713077222
sg14
I7
sg15
I01
sg16
I5
sg17
I30
sbs(I2
I3
tp87
g1
(g10
g3
NtRp88
(dp89
g13
F-8.6490082590671342
sg14
I2
sg15
I01
sg16
I3
sg17
I5
sbs(I1
I9
tp90
g1
(g10
g3
NtRp91
(dp92
g13
F-20.989596126263361
sg14
I1
sg15
I01
sg16
I9
sg17
I58
sbs(I4
I2
tp93
g1
(g10
g3
NtRp94
(dp95
g13
F-22.771348986520763
sg14
I4
sg15
I00
sg16
I2
sg17
I7
sbs(I3
I5
tp96
g1
(g10
g3
NtRp97
(dp98
g13
F5.2825013755102583
sg14
I3
sg15
I00
sg16
I5
sg17
I14
sbs(I2
I9
tp99
g1
(g10
g3
NtRp100
(dp101
g13
F15.431111633756272
sg14
I2
sg15
I01
sg16
I9
sg17
I53
sbs(I8
I12
tp102
g1
(g10
g3
NtRp103
(dp104
g13
F-4.6285179455357071
sg14
I8
sg15
I01
sg16
I12
sg17
I88
sbs(I11
I3
tp105
g1
(g10
g3
NtRp106
(dp107
g13
F0.33220264647591885
sg14
I11
sg15
I01
sg16
I3
sg17
I78
sbs(I3
I8
tp108
g1
(g10
g3
NtRp109
(dp110
g13
F-18.853396308042797
sg14
I3
sg15
I01
sg16
I8
sg17
I44
sbs(I4
I3
tp111
g1
(g10
g3
NtRp112
(dp113
g13
F-5.8328486860259376
sg14
I4
sg15
I00
sg16
I3
sg17
I10
sbs(I1
I7
tp114
g1
(g10
g3
NtRp115
(dp116
g13
F-5.2376391805055116
sg14
I1
sg15
I01
sg16
I7
sg17
I29
sbs(I5
I2
tp117
g1
(g10
g3
NtRp118
(dp119
g13
F-16.338821293019866
sg14
I5
sg15
I00
sg16
I2
sg17
I9
sbs(I10
I2
tp120
g1
(g10
g3
NtRp121
(dp122
g13
F-1.2514435342100627
sg14
I10
sg15
I01
sg16
I2
sg17
I65
sbssS'_input_nodes'
p123
I1
sS'_output_nodes'
p124
I1
sS'_node_gene_type'
p125
cneat.genome
NodeGene
p126
sS'_conn_gene_type'
p127
g10
sS'fitness'
p128
F0.93270817392054706
sS'parent2_id'
p129
I4609
sS'_id'
p130
I4623
sS'parent1_id'
p131
I4609
sS'_node_genes'
p132
(lp133
g1
(g126
g3
NtRp134
(dp135
S'_bias'
p136
I0
sS'_type'
p137
S'INPUT'
p138
sg130
I1
sS'_response'
p139
F4.9242730000000003
sS'_activation_type'
p140
Nsbag1
(g126
g3
NtRp141
(dp142
g136
F-5.8521336863084494
sg137
S'OUTPUT'
p143
sg130
I2
sg139
F4.3629670598217727
sg140
S'tanh'
p144
sbag1
(g126
g3
NtRp145
(dp146
g136
F-0.25475604850812678
sg137
S'HIDDEN'
p147
sg130
I3
sg139
F2.6059546066232957
sg140
g144
sbag1
(g126
g3
NtRp148
(dp149
g136
F-0.86179227368402156
sg137
g147
sg130
I4
sg139
F8.7062518629995225
sg140
g144
sbag1
(g126
g3
NtRp150
(dp151
g136
F3.09571458013066
sg137
g147
sg130
I5
sg139
F9.203714729002872
sg140
g144
sbag1
(g126
g3
NtRp152
(dp153
g136
F2.4826006449194953
sg137
g147
sg130
I6
sg139
F6.4936736242483279
sg140
g144
sbag1
(g126
g3
NtRp154
(dp155
g136
F-2.5067212728934272
sg137
g147
sg130
I7
sg139
F2.7072499284691065
sg140
g144
sbag1
(g126
g3
NtRp156
(dp157
g136
F0.27695823317046953
sg137
g147
sg130
I8
sg139
F7.6202589146873381
sg140
g144
sbag1
(g126
g3
NtRp158
(dp159
g136
F-0.80841894712184292
sg137
g147
sg130
I9
sg139
F4.6396600987124046
sg140
g144
sbag1
(g126
g3
NtRp160
(dp161
g136
F-1.4625311239588421
sg137
g147
sg130
I10
sg139
F5.0471639170186444
sg140
g144
sbag1
(g126
g3
NtRp162
(dp163
g136
F-2.4525089754668778
sg137
g147
sg130
I11
sg139
F8.0411782379353554
sg140
g144
sbag1
(g126
g3
NtRp164
(dp165
g136
F2.321334008442931
sg137
g147
sg130
I12
sg139
F6.6532677413984187
sg140
g144
sbag1
(g126
g3
NtRp166
(dp167
g136
F-0.48127692217168727
sg137
g147
sg130
I13
sg139
F5.7977771591623899
sg140
g144
sbag1
(g126
g3
NtRp168
(dp169
g136
F1.0688467863589983
sg137
g147
sg130
I14
sg139
F5.1294210509682312
sg140
g144
sbasb.