ccopy_reg
_reconstructor
p1
(cneat.chromosome
Chromosome
p2
c__builtin__
object
p3
NtRp4
(dp5
S'species_id'
p6
I29
sS'_connection_genes'
p7
(dp8
(I1
I3
tp9
g1
(cneat.genome
ConnectionGene
p10
g3
NtRp11
(dp12
S'_ConnectionGene__weight'
p13
F-4.2723794861453968
sS'_ConnectionGene__in'
p14
I1
sS'_ConnectionGene__enabled'
p15
I01
sS'_ConnectionGene__out'
p16
I3
sS'_ConnectionGene__innov_number'
p17
I3
sbs(I6
I6
tp18
g1
(g10
g3
NtRp19
(dp20
g13
F13.805178352934158
sg14
I6
sg15
I01
sg16
I6
sg17
I39
sbs(I11
I2
tp21
g1
(g10
g3
NtRp22
(dp23
g13
F-17.364438676476745
sg14
I11
sg15
I01
sg16
I2
sg17
I80
sbs(I4
I6
tp24
g1
(g10
g3
NtRp25
(dp26
g13
F10.741403102855463
sg14
I4
sg15
I01
sg16
I6
sg17
I22
sbs(I6
I2
tp27
g1
(g10
g3
NtRp28
(dp29
g13
F10.607418196284229
sg14
I6
sg15
I01
sg16
I2
sg17
I21
sbs(I3
I14
tp30
g1
(g10
g3
NtRp31
(dp32
g13
F-2.4584094478149212
sg14
I3
sg15
I01
sg16
I14
sg17
I155
sbs(I1
I2
tp33
g1
(g10
g3
NtRp34
(dp35
g13
F-26.094529122720001
sg14
I1
sg15
I01
sg16
I2
sg17
I1
sbs(I12
I2
tp36
g1
(g10
g3
NtRp37
(dp38
g13
F0.50672457190719988
sg14
I12
sg15
I01
sg16
I2
sg17
I82
sbs(I3
I3
tp39
g1
(g10
g3
NtRp40
(dp41
g13
F-2.359098937583501
sg14
I3
sg15
I01
sg16
I3
sg17
I15
sbs(I2
I9
tp42
g1
(g10
g3
NtRp43
(dp44
g13
F16.121816845622845
sg14
I2
sg15
I01
sg16
I9
sg17
I53
sbs(I13
I3
tp45
g1
(g10
g3
NtRp46
(dp47
g13
F-8.0393695601516271
sg14
I13
sg15
I01
sg16
I3
sg17
I92
sbs(I8
I10
tp48
g1
(g10
g3
NtRp49
(dp50
g13
F30
sg14
I8
sg15
I01
sg16
I10
sg17
I74
sbs(I4
I13
tp51
g1
(g10
g3
NtRp52
(dp53
g13
F-21.104635839516746
sg14
I4
sg15
I01
sg16
I13
sg17
I102
sbs(I1
I5
tp54
g1
(g10
g3
NtRp55
(dp56
g13
F-10.45158232148126
sg14
I1
sg15
I00
sg16
I5
sg17
I11
sbs(I5
I8
tp57
g1
(g10
g3
NtRp58
(dp59
g13
F-1.4593311182437168
sg14
I5
sg15
I01
sg16
I8
sg17
I42
sbs(I2
I2
tp60
g1
(g10
g3
NtRp61
(dp62
g13
F26.498925907653714
sg14
I2
sg15
I01
sg16
I2
sg17
I2
sbs(I3
I2
tp63
g1
(g10
g3
NtRp64
(dp65
g13
F-24.283026401663424
sg14
I3
sg15
I01
sg16
I2
sg17
I4
sbs(I2
I6
tp66
g1
(g10
g3
NtRp67
(dp68
g13
F7.3411512591846142
sg14
I2
sg15
I01
sg16
I6
sg17
I38
sbs(I8
I2
tp69
g1
(g10
g3
NtRp70
(dp71
g13
F-13.553004776112067
sg14
I8
sg15
I01
sg16
I2
sg17
I43
sbs(I5
I11
tp72
g1
(g10
g3
NtRp73
(dp74
g13
F9.2906546370021879
sg14
I5
sg15
I01
sg16
I11
sg17
I79
sbs(I9
I3
tp75
g1
(g10
g3
NtRp76
(dp77
g13
F-11.594193033181369
sg14
I9
sg15
I01
sg16
I3
sg17
I60
sbs(I1
I4
tp78
g1
(g10
g3
NtRp79
(dp80
g13
F-2.0631776263456998
sg14
I1
sg15
I01
sg16
I4
sg17
I6
sbs(I9
I10
tp81
g1
(g10
g3
NtRp82
(dp83
g13
F-3.3090471715293122
sg14
I9
sg15
I01
sg16
I10
sg17
I90
sbs(I7
I5
tp84
g1
(g10
g3
NtRp85
(dp86
g13
F-4.1841477429836296
sg14
I7
sg15
I01
sg16
I5
sg17
I30
sbs(I2
I3
tp87
g1
(g10
g3
NtRp88
(dp89
g13
F-7.5811319900879504
sg14
I2
sg15
I01
sg16
I3
sg17
I5
sbs(I1
I9
tp90
g1
(g10
g3
NtRp91
(dp92
g13
F-17.860035153811896
sg14
I1
sg15
I01
sg16
I9
sg17
I58
sbs(I4
I2
tp93
g1
(g10
g3
NtRp94
(dp95
g13
F-25.003601186443429
sg14
I4
sg15
I00
sg16
I2
sg17
I7
sbs(I3
I5
tp96
g1
(g10
g3
NtRp97
(dp98
g13
F2.8028025268156043
sg14
I3
sg15
I00
sg16
I5
sg17
I14
sbs(I14
I5
tp99
g1
(g10
g3
NtRp100
(dp101
g13
F12.533737260155878
sg14
I14
sg15
I01
sg16
I5
sg17
I156
sbs(I8
I12
tp102
g1
(g10
g3
NtRp103
(dp104
g13
F-1.6558590441308008
sg14
I8
sg15
I01
sg16
I12
sg17
I88
sbs(I11
I3
tp105
g1
(g10
g3
NtRp106
(dp107
g13
F-0.45056915677799003
sg14
I11
sg15
I01
sg16
I3
sg17
I78
sbs(I3
I8
tp108
g1
(g10
g3
NtRp109
(dp110
g13
F-7.2679528863519689
sg14
I3
sg15
I01
sg16
I8
sg17
I44
sbs(I4
I3
tp111
g1
(g10
g3
NtRp112
(dp113
g13
F-5.0896480909012682
sg14
I4
sg15
I00
sg16
I3
sg17
I10
sbs(I1
I7
tp114
g1
(g10
g3
NtRp115
(dp116
g13
F-3.0414950942212187
sg14
I1
sg15
I01
sg16
I7
sg17
I29
sbs(I5
I2
tp117
g1
(g10
g3
NtRp118
(dp119
g13
F-21.773922107983182
sg14
I5
sg15
I00
sg16
I2
sg17
I9
sbs(I10
I2
tp120
g1
(g10
g3
NtRp121
(dp122
g13
F-0.11619081407138943
sg14
I10
sg15
I01
sg16
I2
sg17
I65
sbssS'_input_nodes'
p123
I1
sS'_output_nodes'
p124
I1
sS'_node_gene_type'
p125
cneat.genome
NodeGene
p126
sS'_conn_gene_type'
p127
g10
sS'fitness'
p128
F0.9886498402807582
sS'parent2_id'
p129
I4574
sS'_id'
p130
I4586
sS'parent1_id'
p131
I4574
sS'_node_genes'
p132
(lp133
g1
(g126
g3
NtRp134
(dp135
S'_bias'
p136
I0
sS'_type'
p137
S'INPUT'
p138
sg130
I1
sS'_response'
p139
F4.9242730000000003
sS'_activation_type'
p140
Nsbag1
(g126
g3
NtRp141
(dp142
g136
F-5.4206535571827503
sg137
S'OUTPUT'
p143
sg130
I2
sg139
F4.3629670598217727
sg140
S'tanh'
p144
sbag1
(g126
g3
NtRp145
(dp146
g136
F-0.25475604850812678
sg137
S'HIDDEN'
p147
sg130
I3
sg139
F2.6059546066232957
sg140
g144
sbag1
(g126
g3
NtRp148
(dp149
g136
F-1.237602153953316
sg137
g147
sg130
I4
sg139
F8.7062518629995225
sg140
g144
sbag1
(g126
g3
NtRp150
(dp151
g136
F3.09571458013066
sg137
g147
sg130
I5
sg139
F8.849055805557704
sg140
g144
sbag1
(g126
g3
NtRp152
(dp153
g136
F2.4826006449194953
sg137
g147
sg130
I6
sg139
F6.6959795754566507
sg140
g144
sbag1
(g126
g3
NtRp154
(dp155
g136
F-2.5067212728934272
sg137
g147
sg130
I7
sg139
F2.7072499284691065
sg140
g144
sbag1
(g126
g3
NtRp156
(dp157
g136
F0.27695823317046953
sg137
g147
sg130
I8
sg139
F8.7274953315994743
sg140
g144
sbag1
(g126
g3
NtRp158
(dp159
g136
F-0.15578713054747637
sg137
g147
sg130
I9
sg139
F4.6396600987124046
sg140
g144
sbag1
(g126
g3
NtRp160
(dp161
g136
F-1.0900059397601272
sg137
g147
sg130
I10
sg139
F5.0471639170186444
sg140
g144
sbag1
(g126
g3
NtRp162
(dp163
g136
F-2.4525089754668778
sg137
g147
sg130
I11
sg139
F7.951345692020392
sg140
g144
sbag1
(g126
g3
NtRp164
(dp165
g136
F2.1296462699320289
sg137
g147
sg130
I12
sg139
F6.6532677413984187
sg140
g144
sbag1
(g126
g3
NtRp166
(dp167
g136
F-0.64728014796881383
sg137
g147
sg130
I13
sg139
F5.6578688306808775
sg140
g144
sbag1
(g126
g3
NtRp168
(dp169
g136
F0.252537747236939
sg137
g147
sg130
I14
sg139
F5.1294210509682312
sg140
g144
sbasb.