ccopy_reg
_reconstructor
p1
(cneat.chromosome
Chromosome
p2
c__builtin__
object
p3
NtRp4
(dp5
S'species_id'
p6
I29
sS'_connection_genes'
p7
(dp8
(I1
I3
tp9
g1
(cneat.genome
ConnectionGene
p10
g3
NtRp11
(dp12
S'_ConnectionGene__weight'
p13
F-6.8169366742825259
sS'_ConnectionGene__in'
p14
I1
sS'_ConnectionGene__enabled'
p15
I01
sS'_ConnectionGene__out'
p16
I3
sS'_ConnectionGene__innov_number'
p17
I3
sbs(I6
I6
tp18
g1
(g10
g3
NtRp19
(dp20
g13
F5.0282045387914183
sg14
I6
sg15
I01
sg16
I6
sg17
I39
sbs(I11
I2
tp21
g1
(g10
g3
NtRp22
(dp23
g13
F-17.553842623603952
sg14
I11
sg15
I01
sg16
I2
sg17
I80
sbs(I6
I2
tp24
g1
(g10
g3
NtRp25
(dp26
g13
F20.906072067790056
sg14
I6
sg15
I01
sg16
I2
sg17
I21
sbs(I2
I9
tp27
g1
(g10
g3
NtRp28
(dp29
g13
F8.795127211255954
sg14
I2
sg15
I01
sg16
I9
sg17
I53
sbs(I1
I11
tp30
g1
(g10
g3
NtRp31
(dp32
g13
F-0.92717396967627475
sg14
I1
sg15
I01
sg16
I11
sg17
I77
sbs(I5
I8
tp33
g1
(g10
g3
NtRp34
(dp35
g13
F-10.354608027924597
sg14
I5
sg15
I01
sg16
I8
sg17
I42
sbs(I1
I2
tp36
g1
(g10
g3
NtRp37
(dp38
g13
F-19.115296000271311
sg14
I1
sg15
I01
sg16
I2
sg17
I1
sbs(I12
I2
tp39
g1
(g10
g3
NtRp40
(dp41
g13
F-4.3793618224407123
sg14
I12
sg15
I01
sg16
I2
sg17
I82
sbs(I6
I7
tp42
g1
(g10
g3
NtRp43
(dp44
g13
F-2.5605062971682111
sg14
I6
sg15
I01
sg16
I7
sg17
I36
sbs(I3
I3
tp45
g1
(g10
g3
NtRp46
(dp47
g13
F-9.9707573314762783
sg14
I3
sg15
I01
sg16
I3
sg17
I15
sbs(I14
I5
tp48
g1
(g10
g3
NtRp49
(dp50
g13
F13.394396121487027
sg14
I14
sg15
I01
sg16
I5
sg17
I156
sbs(I13
I3
tp51
g1
(g10
g3
NtRp52
(dp53
g13
F-13.385881739245121
sg14
I13
sg15
I01
sg16
I3
sg17
I92
sbs(I8
I10
tp54
g1
(g10
g3
NtRp55
(dp56
g13
F26.15215015964791
sg14
I8
sg15
I01
sg16
I10
sg17
I74
sbs(I4
I13
tp57
g1
(g10
g3
NtRp58
(dp59
g13
F-19.045816283289074
sg14
I4
sg15
I01
sg16
I13
sg17
I102
sbs(I1
I5
tp60
g1
(g10
g3
NtRp61
(dp62
g13
F-9.3857735787977639
sg14
I1
sg15
I00
sg16
I5
sg17
I11
sbs(I3
I14
tp63
g1
(g10
g3
NtRp64
(dp65
g13
F0.48439736163824498
sg14
I3
sg15
I01
sg16
I14
sg17
I155
sbs(I2
I2
tp66
g1
(g10
g3
NtRp67
(dp68
g13
F24.334910659657691
sg14
I2
sg15
I01
sg16
I2
sg17
I2
sbs(I3
I2
tp69
g1
(g10
g3
NtRp70
(dp71
g13
F-19.116480019557223
sg14
I3
sg15
I01
sg16
I2
sg17
I4
sbs(I2
I6
tp72
g1
(g10
g3
NtRp73
(dp74
g13
F17.084142477592682
sg14
I2
sg15
I01
sg16
I6
sg17
I38
sbs(I8
I2
tp75
g1
(g10
g3
NtRp76
(dp77
g13
F-19.638483297031641
sg14
I8
sg15
I01
sg16
I2
sg17
I43
sbs(I5
I11
tp78
g1
(g10
g3
NtRp79
(dp80
g13
F8.065791737881149
sg14
I5
sg15
I01
sg16
I11
sg17
I79
sbs(I9
I3
tp81
g1
(g10
g3
NtRp82
(dp83
g13
F-6.3306320534413896
sg14
I9
sg15
I01
sg16
I3
sg17
I60
sbs(I1
I4
tp84
g1
(g10
g3
NtRp85
(dp86
g13
F-8.8867767178668888
sg14
I1
sg15
I01
sg16
I4
sg17
I6
sbs(I9
I10
tp87
g1
(g10
g3
NtRp88
(dp89
g13
F-4.1876733564066813
sg14
I9
sg15
I01
sg16
I10
sg17
I90
sbs(I7
I5
tp90
g1
(g10
g3
NtRp91
(dp92
g13
F-13.668768826016354
sg14
I7
sg15
I01
sg16
I5
sg17
I30
sbs(I2
I3
tp93
g1
(g10
g3
NtRp94
(dp95
g13
F-10.808896786587674
sg14
I2
sg15
I01
sg16
I3
sg17
I5
sbs(I1
I9
tp96
g1
(g10
g3
NtRp97
(dp98
g13
F-16.098317574205861
sg14
I1
sg15
I01
sg16
I9
sg17
I58
sbs(I4
I2
tp99
g1
(g10
g3
NtRp100
(dp101
g13
F-19.861825738709118
sg14
I4
sg15
I00
sg16
I2
sg17
I7
sbs(I3
I5
tp102
g1
(g10
g3
NtRp103
(dp104
g13
F17.245517671811783
sg14
I3
sg15
I01
sg16
I5
sg17
I14
sbs(I4
I6
tp105
g1
(g10
g3
NtRp106
(dp107
g13
F13.651901985436027
sg14
I4
sg15
I01
sg16
I6
sg17
I22
sbs(I8
I12
tp108
g1
(g10
g3
NtRp109
(dp110
g13
F-5.4749293972446766
sg14
I8
sg15
I01
sg16
I12
sg17
I88
sbs(I11
I3
tp111
g1
(g10
g3
NtRp112
(dp113
g13
F-3.8310489536672727
sg14
I11
sg15
I01
sg16
I3
sg17
I78
sbs(I3
I8
tp114
g1
(g10
g3
NtRp115
(dp116
g13
F-21.720822888693821
sg14
I3
sg15
I01
sg16
I8
sg17
I44
sbs(I4
I3
tp117
g1
(g10
g3
NtRp118
(dp119
g13
F-1.126536110289216
sg14
I4
sg15
I00
sg16
I3
sg17
I10
sbs(I1
I7
tp120
g1
(g10
g3
NtRp121
(dp122
g13
F-13.953644287745432
sg14
I1
sg15
I01
sg16
I7
sg17
I29
sbs(I5
I2
tp123
g1
(g10
g3
NtRp124
(dp125
g13
F-19.225133983637964
sg14
I5
sg15
I00
sg16
I2
sg17
I9
sbs(I10
I2
tp126
g1
(g10
g3
NtRp127
(dp128
g13
F-3.7295589160097244
sg14
I10
sg15
I01
sg16
I2
sg17
I65
sbssS'_input_nodes'
p129
I1
sS'_output_nodes'
p130
I1
sS'_node_gene_type'
p131
cneat.genome
NodeGene
p132
sS'_conn_gene_type'
p133
g10
sS'fitness'
p134
F0.98560119363262011
sS'parent2_id'
p135
I5189
sS'_id'
p136
I5207
sS'parent1_id'
p137
I5189
sS'_node_genes'
p138
(lp139
g1
(g132
g3
NtRp140
(dp141
S'_bias'
p142
I0
sS'_type'
p143
S'INPUT'
p144
sg136
I1
sS'_response'
p145
F4.9242730000000003
sS'_activation_type'
p146
Nsbag1
(g132
g3
NtRp147
(dp148
g142
F-5.209034431998484
sg143
S'OUTPUT'
p149
sg136
I2
sg145
F4.7486475836601363
sg146
S'tanh'
p150
sbag1
(g132
g3
NtRp151
(dp152
g142
F-2.3401795393588181
sg143
S'HIDDEN'
p153
sg136
I3
sg145
F2.1054500518611574
sg146
g150
sbag1
(g132
g3
NtRp154
(dp155
g142
F0.26108796743529183
sg143
g153
sg136
I4
sg145
F9.4795240990962952
sg146
g150
sbag1
(g132
g3
NtRp156
(dp157
g142
F1.2027169333414607
sg143
g153
sg136
I5
sg145
F9.783070176758514
sg146
g150
sbag1
(g132
g3
NtRp158
(dp159
g142
F3.304843496722262
sg143
g153
sg136
I6
sg145
F5.9370543929856447
sg146
g150
sbag1
(g132
g3
NtRp160
(dp161
g142
F-2.1735095904466211
sg143
g153
sg136
I7
sg145
F3.0557979182617947
sg146
g150
sbag1
(g132
g3
NtRp162
(dp163
g142
F0.20425005240224103
sg143
g153
sg136
I8
sg145
F8.8222909386341541
sg146
g150
sbag1
(g132
g3
NtRp164
(dp165
g142
F-2.3798881724046224
sg143
g153
sg136
I9
sg145
F4.5030123273970606
sg146
g150
sbag1
(g132
g3
NtRp166
(dp167
g142
F-1.1526517178577582
sg143
g153
sg136
I10
sg145
F5.0471639170186444
sg146
g150
sbag1
(g132
g3
NtRp168
(dp169
g142
F-2.653468953713586
sg143
g153
sg136
I11
sg145
F10.509621870074415
sg146
g150
sbag1
(g132
g3
NtRp170
(dp171
g142
F3.8100591235806687
sg143
g153
sg136
I12
sg145
F4.623498877507398
sg146
g150
sbag1
(g132
g3
NtRp172
(dp173
g142
F0.95568175231621499
sg143
g153
sg136
I13
sg145
F7.1748297824187226
sg146
g150
sbag1
(g132
g3
NtRp174
(dp175
g142
F0.77179298595516399
sg143
g153
sg136
I14
sg145
F5.0542791271916041
sg146
g150
sbasb.