ccopy_reg
_reconstructor
p1
(cneat.chromosome
Chromosome
p2
c__builtin__
object
p3
NtRp4
(dp5
S'species_id'
p6
I43
sS'_connection_genes'
p7
(dp8
(I1
I21
tp9
g1
(cneat.genome
ConnectionGene
p10
g3
NtRp11
(dp12
S'_ConnectionGene__weight'
p13
F3.560476340190704
sS'_ConnectionGene__in'
p14
I1
sS'_ConnectionGene__enabled'
p15
I01
sS'_ConnectionGene__out'
p16
I21
sS'_ConnectionGene__innov_number'
p17
I222
sbs(I1
I3
tp18
g1
(g10
g3
NtRp19
(dp20
g13
F-16.497450837600098
sg14
I1
sg15
I00
sg16
I3
sg17
I3
sbs(I6
I6
tp21
g1
(g10
g3
NtRp22
(dp23
g13
F15.63162042414425
sg14
I6
sg15
I01
sg16
I6
sg17
I39
sbs(I11
I2
tp24
g1
(g10
g3
NtRp25
(dp26
g13
F4.7516788456336609
sg14
I11
sg15
I01
sg16
I2
sg17
I80
sbs(I1
I15
tp27
g1
(g10
g3
NtRp28
(dp29
g13
F-14.272316247826177
sg14
I1
sg15
I01
sg16
I15
sg17
I146
sbs(I6
I2
tp30
g1
(g10
g3
NtRp31
(dp32
g13
F30
sg14
I6
sg15
I01
sg16
I2
sg17
I21
sbs(I16
I14
tp33
g1
(g10
g3
NtRp34
(dp35
g13
F-17.99891320145651
sg14
I16
sg15
I01
sg16
I14
sg17
I193
sbs(I5
I8
tp36
g1
(g10
g3
NtRp37
(dp38
g13
F-3.140504403121672
sg14
I5
sg15
I01
sg16
I8
sg17
I42
sbs(I1
I2
tp39
g1
(g10
g3
NtRp40
(dp41
g13
F-30
sg14
I1
sg15
I01
sg16
I2
sg17
I1
sbs(I12
I2
tp42
g1
(g10
g3
NtRp43
(dp44
g13
F5.8814067384099626
sg14
I12
sg15
I01
sg16
I2
sg17
I82
sbs(I2
I19
tp45
g1
(g10
g3
NtRp46
(dp47
g13
F4.1062080292488732
sg14
I2
sg15
I01
sg16
I19
sg17
I210
sbs(I3
I3
tp48
g1
(g10
g3
NtRp49
(dp50
g13
F-6.3201081167056916
sg14
I3
sg15
I01
sg16
I3
sg17
I15
sbs(I2
I9
tp51
g1
(g10
g3
NtRp52
(dp53
g13
F18.092762549665128
sg14
I2
sg15
I01
sg16
I9
sg17
I53
sbs(I13
I3
tp54
g1
(g10
g3
NtRp55
(dp56
g13
F-2.0665879780622429
sg14
I13
sg15
I01
sg16
I3
sg17
I92
sbs(I4
I3
tp57
g1
(g10
g3
NtRp58
(dp59
g13
F13.489955400069015
sg14
I4
sg15
I01
sg16
I3
sg17
I10
sbs(I8
I10
tp60
g1
(g10
g3
NtRp61
(dp62
g13
F28.355796602479739
sg14
I8
sg15
I00
sg16
I10
sg17
I74
sbs(I4
I13
tp63
g1
(g10
g3
NtRp64
(dp65
g13
F-18.638044200462186
sg14
I4
sg15
I01
sg16
I13
sg17
I102
sbs(I1
I5
tp66
g1
(g10
g3
NtRp67
(dp68
g13
F-12.990793357765222
sg14
I1
sg15
I00
sg16
I5
sg17
I11
sbs(I9
I11
tp69
g1
(g10
g3
NtRp70
(dp71
g13
F-2.7958806028139613
sg14
I9
sg15
I01
sg16
I11
sg17
I101
sbs(I19
I3
tp72
g1
(g10
g3
NtRp73
(dp74
g13
F-4.6954045527359938
sg14
I19
sg15
I01
sg16
I3
sg17
I212
sbs(I2
I2
tp75
g1
(g10
g3
NtRp76
(dp77
g13
F14.114437018834613
sg14
I2
sg15
I01
sg16
I2
sg17
I2
sbs(I8
I16
tp78
g1
(g10
g3
NtRp79
(dp80
g13
F10.410703868604523
sg14
I8
sg15
I01
sg16
I16
sg17
I177
sbs(I8
I18
tp81
g1
(g10
g3
NtRp82
(dp83
g13
F2.0440701465241173
sg14
I8
sg15
I01
sg16
I18
sg17
I208
sbs(I3
I2
tp84
g1
(g10
g3
NtRp85
(dp86
g13
F-16.830362279437537
sg14
I3
sg15
I01
sg16
I2
sg17
I4
sbs(I2
I6
tp87
g1
(g10
g3
NtRp88
(dp89
g13
F-3.9064514585352925
sg14
I2
sg15
I01
sg16
I6
sg17
I38
sbs(I8
I2
tp90
g1
(g10
g3
NtRp91
(dp92
g13
F-10.159808570933512
sg14
I8
sg15
I01
sg16
I2
sg17
I43
sbs(I5
I11
tp93
g1
(g10
g3
NtRp94
(dp95
g13
F-15.996730629168601
sg14
I5
sg15
I01
sg16
I11
sg17
I79
sbs(I15
I3
tp96
g1
(g10
g3
NtRp97
(dp98
g13
F0.54490176264141366
sg14
I15
sg15
I01
sg16
I3
sg17
I147
sbs(I9
I3
tp99
g1
(g10
g3
NtRp100
(dp101
g13
F-0.12232247015837561
sg14
I9
sg15
I01
sg16
I3
sg17
I60
sbs(I2
I20
tp102
g1
(g10
g3
NtRp103
(dp104
g13
F2.045482066691612
sg14
I2
sg15
I01
sg16
I20
sg17
I220
sbs(I1
I4
tp105
g1
(g10
g3
NtRp106
(dp107
g13
F-27.685445980875912
sg14
I1
sg15
I01
sg16
I4
sg17
I6
sbs(I9
I10
tp108
g1
(g10
g3
NtRp109
(dp110
g13
F-17.470247507462332
sg14
I9
sg15
I01
sg16
I10
sg17
I90
sbs(I7
I5
tp111
g1
(g10
g3
NtRp112
(dp113
g13
F-5.1997834258901143
sg14
I7
sg15
I01
sg16
I5
sg17
I30
sbs(I2
I3
tp114
g1
(g10
g3
NtRp115
(dp116
g13
F2.3196851053861058
sg14
I2
sg15
I00
sg16
I3
sg17
I5
sbs(I1
I9
tp117
g1
(g10
g3
NtRp118
(dp119
g13
F11.638535743050102
sg14
I1
sg15
I01
sg16
I9
sg17
I58
sbs(I8
I17
tp120
g1
(g10
g3
NtRp121
(dp122
g13
F6.3718053367758536
sg14
I8
sg15
I01
sg16
I17
sg17
I205
sbs(I4
I2
tp123
g1
(g10
g3
NtRp124
(dp125
g13
F-10.782168762605606
sg14
I4
sg15
I01
sg16
I2
sg17
I7
sbs(I14
I2
tp126
g1
(g10
g3
NtRp127
(dp128
g13
F-16.401643094248598
sg14
I14
sg15
I01
sg16
I2
sg17
I138
sbs(I3
I5
tp129
g1
(g10
g3
NtRp130
(dp131
g13
F19.012396344991075
sg14
I3
sg15
I01
sg16
I5
sg17
I14
sbs(I11
I7
tp132
g1
(g10
g3
NtRp133
(dp134
g13
F7.1092538173479927
sg14
I11
sg15
I01
sg16
I7
sg17
I168
sbs(I10
I5
tp135
g1
(g10
g3
NtRp136
(dp137
g13
F1.3680335536288202
sg14
I10
sg15
I01
sg16
I5
sg17
I76
sbs(I1
I7
tp138
g1
(g10
g3
NtRp139
(dp140
g13
F13.258170295035063
sg14
I1
sg15
I01
sg16
I7
sg17
I29
sbs(I4
I6
tp141
g1
(g10
g3
NtRp142
(dp143
g13
F-11.094022905105383
sg14
I4
sg15
I01
sg16
I6
sg17
I22
sbs(I15
I2
tp144
g1
(g10
g3
NtRp145
(dp146
g13
F11.415642920220977
sg14
I15
sg15
I01
sg16
I2
sg17
I170
sbs(I8
I12
tp147
g1
(g10
g3
NtRp148
(dp149
g13
F3.1408136559909465
sg14
I8
sg15
I01
sg16
I12
sg17
I88
sbs(I19
I16
tp150
g1
(g10
g3
NtRp151
(dp152
g13
F-8.2393334044872741
sg14
I19
sg15
I01
sg16
I16
sg17
I231
sbs(I22
I12
tp153
g1
(g10
g3
NtRp154
(dp155
g13
F-0.26243538418368972
sg14
I22
sg15
I01
sg16
I12
sg17
I226
sbs(I18
I10
tp156
g1
(g10
g3
NtRp157
(dp158
g13
F30
sg14
I18
sg15
I01
sg16
I10
sg17
I209
sbs(I11
I3
tp159
g1
(g10
g3
NtRp160
(dp161
g13
F-15.287449884232045
sg14
I11
sg15
I01
sg16
I3
sg17
I78
sbs(I21
I3
tp162
g1
(g10
g3
NtRp163
(dp164
g13
F-7.4964611122197269
sg14
I21
sg15
I01
sg16
I3
sg17
I224
sbs(I3
I8
tp165
g1
(g10
g3
NtRp166
(dp167
g13
F9.6483741322556718
sg14
I3
sg15
I01
sg16
I8
sg17
I44
sbs(I8
I14
tp168
g1
(g10
g3
NtRp169
(dp170
g13
F4.2831843467467809
sg14
I8
sg15
I00
sg16
I14
sg17
I119
sbs(I20
I6
tp171
g1
(g10
g3
NtRp172
(dp173
g13
F-9.3864763987946063
sg14
I20
sg15
I01
sg16
I6
sg17
I221
sbs(I17
I12
tp174
g1
(g10
g3
NtRp175
(dp176
g13
F-12.237874539566535
sg14
I17
sg15
I01
sg16
I12
sg17
I207
sbs(I8
I22
tp177
g1
(g10
g3
NtRp178
(dp179
g13
F-4.5477526886067166
sg14
I8
sg15
I01
sg16
I22
sg17
I225
sbs(I13
I9
tp180
g1
(g10
g3
NtRp181
(dp182
g13
F-2.5123019329042093
sg14
I13
sg15
I01
sg16
I9
sg17
I112
sbs(I5
I2
tp183
g1
(g10
g3
NtRp184
(dp185
g13
F-0.44477773823090638
sg14
I5
sg15
I01
sg16
I2
sg17
I9
sbs(I10
I2
tp186
g1
(g10
g3
NtRp187
(dp188
g13
F-6.765424805434666
sg14
I10
sg15
I01
sg16
I2
sg17
I65
sbssS'_input_nodes'
p189
I1
sS'_output_nodes'
p190
I1
sS'_node_gene_type'
p191
cneat.genome
NodeGene
p192
sS'_conn_gene_type'
p193
g10
sS'fitness'
p194
F0.89624037911433441
sS'parent2_id'
p195
I6501
sS'_id'
p196
I6516
sS'parent1_id'
p197
I6501
sS'_node_genes'
p198
(lp199
g1
(g192
g3
NtRp200
(dp201
S'_bias'
p202
I0
sS'_type'
p203
S'INPUT'
p204
sg196
I1
sS'_response'
p205
F4.9242730000000003
sS'_activation_type'
p206
Nsbag1
(g192
g3
NtRp207
(dp208
g202
F-6.8247832913277673
sg203
S'OUTPUT'
p209
sg196
I2
sg205
F4.9968428380331513
sg206
S'tanh'
p210
sbag1
(g192
g3
NtRp211
(dp212
g202
F-2.2434627786963306
sg203
S'HIDDEN'
p213
sg196
I3
sg205
F3.2651849796320729
sg206
g210
sbag1
(g192
g3
NtRp214
(dp215
g202
F-4.5683736161554256
sg203
g213
sg196
I4
sg205
F5.9036632111408016
sg206
g210
sbag1
(g192
g3
NtRp216
(dp217
g202
F2.7227583819286307
sg203
g213
sg196
I5
sg205
F10.785906170592224
sg206
g210
sbag1
(g192
g3
NtRp218
(dp219
g202
F1.0319279260361109
sg203
g213
sg196
I6
sg205
F5.0684984924783612
sg206
g210
sbag1
(g192
g3
NtRp220
(dp221
g202
F-1.5341090561948221
sg203
g213
sg196
I7
sg205
F1.4597511413824193
sg206
g210
sbag1
(g192
g3
NtRp222
(dp223
g202
F-2.2488399954198055
sg203
g213
sg196
I8
sg205
F10.98109977643127
sg206
g210
sbag1
(g192
g3
NtRp224
(dp225
g202
F-1.2125368475504457
sg203
g213
sg196
I9
sg205
F7.3603857385256868
sg206
g210
sbag1
(g192
g3
NtRp226
(dp227
g202
F-0.78691167316688293
sg203
g213
sg196
I10
sg205
F7.0015979761104123
sg206
g210
sbag1
(g192
g3
NtRp228
(dp229
g202
F1.3350796239514122
sg203
g213
sg196
I11
sg205
F8.4856279294461814
sg206
g210
sbag1
(g192
g3
NtRp230
(dp231
g202
F2.154075607519383
sg203
g213
sg196
I12
sg205
F4.3809124793474794
sg206
g210
sbag1
(g192
g3
NtRp232
(dp233
g202
F-2.5947049476179354
sg203
g213
sg196
I13
sg205
F3.8937831106930054
sg206
g210
sbag1
(g192
g3
NtRp234
(dp235
g202
F1.8795729944416242
sg203
g213
sg196
I14
sg205
F4.8618623741455247
sg206
g210
sbag1
(g192
g3
NtRp236
(dp237
g202
F-2.6224856000297008
sg203
g213
sg196
I15
sg205
F4.8695247923898712
sg206
g210
sbag1
(g192
g3
NtRp238
(dp239
g202
F-1.3958475026462565
sg203
g213
sg196
I16
sg205
F5.4598313068147686
sg206
g210
sbag1
(g192
g3
NtRp240
(dp241
g202
F-0.26770310075658288
sg203
g213
sg196
I17
sg205
F4.1999167028620068
sg206
g210
sbag1
(g192
g3
NtRp242
(dp243
g202
F1.4736694399505827
sg203
g213
sg196
I18
sg205
F4.7162632845036176
sg206
g210
sbag1
(g192
g3
NtRp244
(dp245
g202
F0.023565639824781381
sg203
g213
sg196
I19
sg205
F2.6857659028683702
sg206
g210
sbag1
(g192
g3
NtRp246
(dp247
g202
F0.78967590287074318
sg203
g213
sg196
I20
sg205
F7.2926988753428263
sg206
g210
sbag1
(g192
g3
NtRp248
(dp249
g202
F1.4124309222837905
sg203
g213
sg196
I21
sg205
F4.4834584701776778
sg206
g210
sbag1
(g192
g3
NtRp250
(dp251
g202
F1.5554413481940976
sg203
g213
sg196
I22
sg205
F5.0053428826658211
sg206
g210
sbasb.