ccopy_reg
_reconstructor
p1
(cneat.chromosome
Chromosome
p2
c__builtin__
object
p3
NtRp4
(dp5
S'species_id'
p6
I40
sS'_connection_genes'
p7
(dp8
(I17
I12
tp9
g1
(cneat.genome
ConnectionGene
p10
g3
NtRp11
(dp12
S'_ConnectionGene__weight'
p13
F-3.3883231928043829
sS'_ConnectionGene__in'
p14
I17
sS'_ConnectionGene__enabled'
p15
I01
sS'_ConnectionGene__out'
p16
I12
sS'_ConnectionGene__innov_number'
p17
I207
sbs(I1
I3
tp18
g1
(g10
g3
NtRp19
(dp20
g13
F-5.4292630444886925
sg14
I1
sg15
I01
sg16
I3
sg17
I3
sbs(I6
I6
tp21
g1
(g10
g3
NtRp22
(dp23
g13
F23.069380383389134
sg14
I6
sg15
I01
sg16
I6
sg17
I39
sbs(I11
I2
tp24
g1
(g10
g3
NtRp25
(dp26
g13
F1.6279306381276031
sg14
I11
sg15
I01
sg16
I2
sg17
I80
sbs(I1
I15
tp27
g1
(g10
g3
NtRp28
(dp29
g13
F-9.8286517733271594
sg14
I1
sg15
I01
sg16
I15
sg17
I146
sbs(I6
I2
tp30
g1
(g10
g3
NtRp31
(dp32
g13
F29.704619858892631
sg14
I6
sg15
I01
sg16
I2
sg17
I21
sbs(I16
I14
tp33
g1
(g10
g3
NtRp34
(dp35
g13
F-22.497904994402383
sg14
I16
sg15
I01
sg16
I14
sg17
I193
sbs(I5
I8
tp36
g1
(g10
g3
NtRp37
(dp38
g13
F6.0989010300283883
sg14
I5
sg15
I00
sg16
I8
sg17
I42
sbs(I1
I2
tp39
g1
(g10
g3
NtRp40
(dp41
g13
F-20.760128816330027
sg14
I1
sg15
I01
sg16
I2
sg17
I1
sbs(I12
I2
tp42
g1
(g10
g3
NtRp43
(dp44
g13
F8.6572448839705274
sg14
I12
sg15
I01
sg16
I2
sg17
I82
sbs(I2
I19
tp45
g1
(g10
g3
NtRp46
(dp47
g13
F17.770850495242669
sg14
I2
sg15
I01
sg16
I19
sg17
I210
sbs(I3
I3
tp48
g1
(g10
g3
NtRp49
(dp50
g13
F-5.8681745630634632
sg14
I3
sg15
I01
sg16
I3
sg17
I15
sbs(I2
I9
tp51
g1
(g10
g3
NtRp52
(dp53
g13
F18.524464648474538
sg14
I2
sg15
I01
sg16
I9
sg17
I53
sbs(I13
I3
tp54
g1
(g10
g3
NtRp55
(dp56
g13
F1.7614263889124275
sg14
I13
sg15
I01
sg16
I3
sg17
I92
sbs(I8
I10
tp57
g1
(g10
g3
NtRp58
(dp59
g13
F24.165461957828725
sg14
I8
sg15
I00
sg16
I10
sg17
I74
sbs(I21
I8
tp60
g1
(g10
g3
NtRp61
(dp62
g13
F7.1650656866455904
sg14
I21
sg15
I01
sg16
I8
sg17
I250
sbs(I4
I13
tp63
g1
(g10
g3
NtRp64
(dp65
g13
F-3.501913388199434
sg14
I4
sg15
I01
sg16
I13
sg17
I102
sbs(I1
I5
tp66
g1
(g10
g3
NtRp67
(dp68
g13
F-12.267652084011948
sg14
I1
sg15
I00
sg16
I5
sg17
I11
sbs(I9
I11
tp69
g1
(g10
g3
NtRp70
(dp71
g13
F-9.8923963585212764
sg14
I9
sg15
I01
sg16
I11
sg17
I101
sbs(I19
I3
tp72
g1
(g10
g3
NtRp73
(dp74
g13
F11.883042720545589
sg14
I19
sg15
I01
sg16
I3
sg17
I212
sbs(I2
I2
tp75
g1
(g10
g3
NtRp76
(dp77
g13
F2.7336292457964615
sg14
I2
sg15
I01
sg16
I2
sg17
I2
sbs(I12
I10
tp78
g1
(g10
g3
NtRp79
(dp80
g13
F-1.8239419793916043
sg14
I12
sg15
I01
sg16
I10
sg17
I105
sbs(I8
I16
tp81
g1
(g10
g3
NtRp82
(dp83
g13
F-8.5032949162831866
sg14
I8
sg15
I01
sg16
I16
sg17
I177
sbs(I20
I6
tp84
g1
(g10
g3
NtRp85
(dp86
g13
F1.8749029616047519
sg14
I20
sg15
I01
sg16
I6
sg17
I221
sbs(I3
I2
tp87
g1
(g10
g3
NtRp88
(dp89
g13
F-28.296120705782272
sg14
I3
sg15
I01
sg16
I2
sg17
I4
sbs(I2
I6
tp90
g1
(g10
g3
NtRp91
(dp92
g13
F3.6593607343584891
sg14
I2
sg15
I00
sg16
I6
sg17
I38
sbs(I8
I2
tp93
g1
(g10
g3
NtRp94
(dp95
g13
F-27.520691597595736
sg14
I8
sg15
I01
sg16
I2
sg17
I43
sbs(I5
I11
tp96
g1
(g10
g3
NtRp97
(dp98
g13
F-11.70538129162869
sg14
I5
sg15
I01
sg16
I11
sg17
I79
sbs(I15
I3
tp99
g1
(g10
g3
NtRp100
(dp101
g13
F-9.3098187551375577
sg14
I15
sg15
I01
sg16
I3
sg17
I147
sbs(I9
I3
tp102
g1
(g10
g3
NtRp103
(dp104
g13
F-9.3757237227164616
sg14
I9
sg15
I01
sg16
I3
sg17
I60
sbs(I2
I20
tp105
g1
(g10
g3
NtRp106
(dp107
g13
F1.4376254632609522
sg14
I2
sg15
I01
sg16
I20
sg17
I220
sbs(I1
I4
tp108
g1
(g10
g3
NtRp109
(dp110
g13
F-28.721559160661236
sg14
I1
sg15
I01
sg16
I4
sg17
I6
sbs(I9
I10
tp111
g1
(g10
g3
NtRp112
(dp113
g13
F-22.312775661010399
sg14
I9
sg15
I01
sg16
I10
sg17
I90
sbs(I7
I5
tp114
g1
(g10
g3
NtRp115
(dp116
g13
F-3.9334429875702419
sg14
I7
sg15
I01
sg16
I5
sg17
I30
sbs(I2
I3
tp117
g1
(g10
g3
NtRp118
(dp119
g13
F9.7441718264409882
sg14
I2
sg15
I00
sg16
I3
sg17
I5
sbs(I1
I9
tp120
g1
(g10
g3
NtRp121
(dp122
g13
F21.079453855480207
sg14
I1
sg15
I01
sg16
I9
sg17
I58
sbs(I8
I17
tp123
g1
(g10
g3
NtRp124
(dp125
g13
F9.492967816326999
sg14
I8
sg15
I01
sg16
I17
sg17
I205
sbs(I4
I2
tp126
g1
(g10
g3
NtRp127
(dp128
g13
F-7.4826400712075998
sg14
I4
sg15
I01
sg16
I2
sg17
I7
sbs(I14
I2
tp129
g1
(g10
g3
NtRp130
(dp131
g13
F0.87205221272345224
sg14
I14
sg15
I01
sg16
I2
sg17
I138
sbs(I3
I5
tp132
g1
(g10
g3
NtRp133
(dp134
g13
F14.794684147958122
sg14
I3
sg15
I01
sg16
I5
sg17
I14
sbs(I10
I5
tp135
g1
(g10
g3
NtRp136
(dp137
g13
F4.4009167730262853
sg14
I10
sg15
I01
sg16
I5
sg17
I76
sbs(I4
I6
tp138
g1
(g10
g3
NtRp139
(dp140
g13
F-10.153272688639236
sg14
I4
sg15
I01
sg16
I6
sg17
I22
sbs(I15
I2
tp141
g1
(g10
g3
NtRp142
(dp143
g13
F4.2194733326439344
sg14
I15
sg15
I01
sg16
I2
sg17
I170
sbs(I8
I12
tp144
g1
(g10
g3
NtRp145
(dp146
g13
F-0.37939525209622071
sg14
I8
sg15
I01
sg16
I12
sg17
I88
sbs(I18
I10
tp147
g1
(g10
g3
NtRp148
(dp149
g13
F20.866995784445059
sg14
I18
sg15
I01
sg16
I10
sg17
I209
sbs(I11
I3
tp150
g1
(g10
g3
NtRp151
(dp152
g13
F-12.818777093668245
sg14
I11
sg15
I01
sg16
I3
sg17
I78
sbs(I3
I8
tp153
g1
(g10
g3
NtRp154
(dp155
g13
F15.726251078797658
sg14
I3
sg15
I01
sg16
I8
sg17
I44
sbs(I8
I14
tp156
g1
(g10
g3
NtRp157
(dp158
g13
F-0.66459473078121112
sg14
I8
sg15
I01
sg16
I14
sg17
I119
sbs(I8
I18
tp159
g1
(g10
g3
NtRp160
(dp161
g13
F7.8382638807226179
sg14
I8
sg15
I01
sg16
I18
sg17
I208
sbs(I4
I3
tp162
g1
(g10
g3
NtRp163
(dp164
g13
F10.433146315995163
sg14
I4
sg15
I01
sg16
I3
sg17
I10
sbs(I1
I7
tp165
g1
(g10
g3
NtRp166
(dp167
g13
F15.487748634099674
sg14
I1
sg15
I01
sg16
I7
sg17
I29
sbs(I13
I9
tp168
g1
(g10
g3
NtRp169
(dp170
g13
F-5.7131574641805409
sg14
I13
sg15
I01
sg16
I9
sg17
I112
sbs(I10
I2
tp171
g1
(g10
g3
NtRp172
(dp173
g13
F-16.835844759289657
sg14
I10
sg15
I01
sg16
I2
sg17
I65
sbs(I5
I2
tp174
g1
(g10
g3
NtRp175
(dp176
g13
F-5.803651223336054
sg14
I5
sg15
I01
sg16
I2
sg17
I9
sbs(I5
I21
tp177
g1
(g10
g3
NtRp178
(dp179
g13
F2.2824858149594833
sg14
I5
sg15
I01
sg16
I21
sg17
I249
sbssS'_input_nodes'
p180
I1
sS'_output_nodes'
p181
I1
sS'_node_gene_type'
p182
cneat.genome
NodeGene
p183
sS'_conn_gene_type'
p184
g10
sS'fitness'
p185
F0.98101105732515659
sS'parent2_id'
p186
I6233
sS'_id'
p187
I6274
sS'parent1_id'
p188
I6233
sS'_node_genes'
p189
(lp190
g1
(g183
g3
NtRp191
(dp192
S'_bias'
p193
I0
sS'_type'
p194
S'INPUT'
p195
sg187
I1
sS'_response'
p196
F4.9242730000000003
sS'_activation_type'
p197
Nsbag1
(g183
g3
NtRp198
(dp199
g193
F-6.5277196675707589
sg194
S'OUTPUT'
p200
sg187
I2
sg196
F5.3286689800340525
sg197
S'tanh'
p201
sbag1
(g183
g3
NtRp202
(dp203
g193
F1.1632977758100573
sg194
S'HIDDEN'
p204
sg187
I3
sg196
F3.1932373727434071
sg197
g201
sbag1
(g183
g3
NtRp205
(dp206
g193
F-5.3586771792848218
sg194
g204
sg187
I4
sg196
F5.7811008688702303
sg197
g201
sbag1
(g183
g3
NtRp207
(dp208
g193
F4.1932157128619334
sg194
g204
sg187
I5
sg196
F12.324234940939704
sg197
g201
sbag1
(g183
g3
NtRp209
(dp210
g193
F-0.087069590989736989
sg194
g204
sg187
I6
sg196
F5.2510070835108662
sg197
g201
sbag1
(g183
g3
NtRp211
(dp212
g193
F-1.6656197239503496
sg194
g204
sg187
I7
sg196
F-0.12864115427761041
sg197
g201
sbag1
(g183
g3
NtRp213
(dp214
g193
F-2.7853926024395337
sg194
g204
sg187
I8
sg196
F10.217229274988663
sg197
g201
sbag1
(g183
g3
NtRp215
(dp216
g193
F-1.5649001373381175
sg194
g204
sg187
I9
sg196
F7.7852264445587389
sg197
g201
sbag1
(g183
g3
NtRp217
(dp218
g193
F-0.37778228146688997
sg194
g204
sg187
I10
sg196
F7.8558149645441224
sg197
g201
sbag1
(g183
g3
NtRp219
(dp220
g193
F-0.44771898174502872
sg194
g204
sg187
I11
sg196
F6.4090220649457423
sg197
g201
sbag1
(g183
g3
NtRp221
(dp222
g193
F0.0013730100499866893
sg194
g204
sg187
I12
sg196
F4.180206156742055
sg197
g201
sbag1
(g183
g3
NtRp223
(dp224
g193
F-1.789607355736476
sg194
g204
sg187
I13
sg196
F5.2759470070145991
sg197
g201
sbag1
(g183
g3
NtRp225
(dp226
g193
F3.9773897859151655
sg194
g204
sg187
I14
sg196
F5.4635551922287542
sg197
g201
sbag1
(g183
g3
NtRp227
(dp228
g193
F-2.9467994145109162
sg194
g204
sg187
I15
sg196
F6.7384751536150285
sg197
g201
sbag1
(g183
g3
NtRp229
(dp230
g193
F0.34091387081385244
sg194
g204
sg187
I16
sg196
F3.8652722947732352
sg197
g201
sbag1
(g183
g3
NtRp231
(dp232
g193
F1.0665449380166896
sg194
g204
sg187
I17
sg196
F5.7001232059116758
sg197
g201
sbag1
(g183
g3
NtRp233
(dp234
g193
F0.46138587506449341
sg194
g204
sg187
I18
sg196
F4.8088060038001714
sg197
g201
sbag1
(g183
g3
NtRp235
(dp236
g193
F-0.61313372010189271
sg194
g204
sg187
I19
sg196
F4.3913809199264984
sg197
g201
sbag1
(g183
g3
NtRp237
(dp238
g193
F0.68134848210786947
sg194
g204
sg187
I20
sg196
F6.6766523582944188
sg197
g201
sbag1
(g183
g3
NtRp239
(dp240
g193
I0
sg194
g204
sg187
I21
sg196
F4.9242730000000003
sg197
g201
sbasb.