ccopy_reg
_reconstructor
p1
(cneat.chromosome
Chromosome
p2
c__builtin__
object
p3
NtRp4
(dp5
S'species_id'
p6
I26
sS'_connection_genes'
p7
(dp8
(I1
I3
tp9
g1
(cneat.genome
ConnectionGene
p10
g3
NtRp11
(dp12
S'_ConnectionGene__weight'
p13
F-2.3486289861690945
sS'_ConnectionGene__in'
p14
I1
sS'_ConnectionGene__enabled'
p15
I01
sS'_ConnectionGene__out'
p16
I3
sS'_ConnectionGene__innov_number'
p17
I3
sbs(I6
I6
tp18
g1
(g10
g3
NtRp19
(dp20
g13
F14.058665994813108
sg14
I6
sg15
I01
sg16
I6
sg17
I39
sbs(I11
I2
tp21
g1
(g10
g3
NtRp22
(dp23
g13
F-15.149168857150311
sg14
I11
sg15
I01
sg16
I2
sg17
I80
sbs(I6
I2
tp24
g1
(g10
g3
NtRp25
(dp26
g13
F13.1436743096634
sg14
I6
sg15
I01
sg16
I2
sg17
I21
sbs(I5
I8
tp27
g1
(g10
g3
NtRp28
(dp29
g13
F-6.7542991231235323
sg14
I5
sg15
I01
sg16
I8
sg17
I42
sbs(I1
I2
tp30
g1
(g10
g3
NtRp31
(dp32
g13
F-25.53297016924714
sg14
I1
sg15
I01
sg16
I2
sg17
I1
sbs(I12
I2
tp33
g1
(g10
g3
NtRp34
(dp35
g13
F4.7284061489325371
sg14
I12
sg15
I01
sg16
I2
sg17
I82
sbs(I3
I3
tp36
g1
(g10
g3
NtRp37
(dp38
g13
F-5.2130104888422544
sg14
I3
sg15
I01
sg16
I3
sg17
I15
sbs(I2
I9
tp39
g1
(g10
g3
NtRp40
(dp41
g13
F10.917759084492982
sg14
I2
sg15
I01
sg16
I9
sg17
I53
sbs(I13
I3
tp42
g1
(g10
g3
NtRp43
(dp44
g13
F-4.7863571860358203
sg14
I13
sg15
I01
sg16
I3
sg17
I92
sbs(I8
I10
tp45
g1
(g10
g3
NtRp46
(dp47
g13
F30
sg14
I8
sg15
I01
sg16
I10
sg17
I74
sbs(I4
I13
tp48
g1
(g10
g3
NtRp49
(dp50
g13
F-11.930975496257117
sg14
I4
sg15
I01
sg16
I13
sg17
I102
sbs(I1
I5
tp51
g1
(g10
g3
NtRp52
(dp53
g13
F-9.9110333800358248
sg14
I1
sg15
I00
sg16
I5
sg17
I11
sbs(I2
I2
tp54
g1
(g10
g3
NtRp55
(dp56
g13
F28.584917193509497
sg14
I2
sg15
I01
sg16
I2
sg17
I2
sbs(I3
I2
tp57
g1
(g10
g3
NtRp58
(dp59
g13
F-20.583036026271131
sg14
I3
sg15
I01
sg16
I2
sg17
I4
sbs(I2
I6
tp60
g1
(g10
g3
NtRp61
(dp62
g13
F2.8684559010476849
sg14
I2
sg15
I01
sg16
I6
sg17
I38
sbs(I8
I2
tp63
g1
(g10
g3
NtRp64
(dp65
g13
F-16.975781196601776
sg14
I8
sg15
I01
sg16
I2
sg17
I43
sbs(I5
I11
tp66
g1
(g10
g3
NtRp67
(dp68
g13
F9.4658900355195126
sg14
I5
sg15
I01
sg16
I11
sg17
I79
sbs(I9
I3
tp69
g1
(g10
g3
NtRp70
(dp71
g13
F-12.05750214398609
sg14
I9
sg15
I01
sg16
I3
sg17
I60
sbs(I1
I4
tp72
g1
(g10
g3
NtRp73
(dp74
g13
F-9.1702817474878096
sg14
I1
sg15
I01
sg16
I4
sg17
I6
sbs(I9
I10
tp75
g1
(g10
g3
NtRp76
(dp77
g13
F-10.402126267408441
sg14
I9
sg15
I01
sg16
I10
sg17
I90
sbs(I7
I5
tp78
g1
(g10
g3
NtRp79
(dp80
g13
F-0.3011122780803086
sg14
I7
sg15
I01
sg16
I5
sg17
I30
sbs(I2
I3
tp81
g1
(g10
g3
NtRp82
(dp83
g13
F1.0224132989755454
sg14
I2
sg15
I01
sg16
I3
sg17
I5
sbs(I1
I9
tp84
g1
(g10
g3
NtRp85
(dp86
g13
F-18.528588937812362
sg14
I1
sg15
I01
sg16
I9
sg17
I58
sbs(I4
I2
tp87
g1
(g10
g3
NtRp88
(dp89
g13
F-26.822566057763613
sg14
I4
sg15
I00
sg16
I2
sg17
I7
sbs(I3
I5
tp90
g1
(g10
g3
NtRp91
(dp92
g13
F4.4589338542281602
sg14
I3
sg15
I01
sg16
I5
sg17
I14
sbs(I4
I6
tp93
g1
(g10
g3
NtRp94
(dp95
g13
F8.7614054306627018
sg14
I4
sg15
I01
sg16
I6
sg17
I22
sbs(I8
I12
tp96
g1
(g10
g3
NtRp97
(dp98
g13
F-0.11998189115408225
sg14
I8
sg15
I01
sg16
I12
sg17
I88
sbs(I11
I3
tp99
g1
(g10
g3
NtRp100
(dp101
g13
F1.3736953511543604
sg14
I11
sg15
I01
sg16
I3
sg17
I78
sbs(I3
I8
tp102
g1
(g10
g3
NtRp103
(dp104
g13
F0.34450129580244182
sg14
I3
sg15
I01
sg16
I8
sg17
I44
sbs(I4
I3
tp105
g1
(g10
g3
NtRp106
(dp107
g13
F-4.6581752193404826
sg14
I4
sg15
I00
sg16
I3
sg17
I10
sbs(I1
I7
tp108
g1
(g10
g3
NtRp109
(dp110
g13
F-1.3144367045569347
sg14
I1
sg15
I01
sg16
I7
sg17
I29
sbs(I5
I2
tp111
g1
(g10
g3
NtRp112
(dp113
g13
F-17.612460735188492
sg14
I5
sg15
I00
sg16
I2
sg17
I9
sbs(I10
I2
tp114
g1
(g10
g3
NtRp115
(dp116
g13
F1.2101580270297774
sg14
I10
sg15
I01
sg16
I2
sg17
I65
sbssS'_input_nodes'
p117
I1
sS'_output_nodes'
p118
I1
sS'_node_gene_type'
p119
cneat.genome
NodeGene
p120
sS'_conn_gene_type'
p121
g10
sS'fitness'
p122
F0.98607107801627392
sS'parent2_id'
p123
I4345
sS'_id'
p124
I4389
sS'parent1_id'
p125
I4364
sS'_node_genes'
p126
(lp127
g1
(g120
g3
NtRp128
(dp129
S'_bias'
p130
I0
sS'_type'
p131
S'INPUT'
p132
sg124
I1
sS'_response'
p133
F4.9242730000000003
sS'_activation_type'
p134
Nsbag1
(g120
g3
NtRp135
(dp136
g130
F-5.9557926067674289
sg131
S'OUTPUT'
p137
sg124
I2
sg133
F4.3629670598217727
sg134
S'tanh'
p138
sbag1
(g120
g3
NtRp139
(dp140
g130
F-0.10196216896096932
sg131
S'HIDDEN'
p141
sg124
I3
sg133
F3.0441803706593724
sg134
g138
sbag1
(g120
g3
NtRp142
(dp143
g130
F-0.96978282578282693
sg131
g141
sg124
I4
sg133
F9.5034466783117253
sg134
g138
sbag1
(g120
g3
NtRp144
(dp145
g130
F3.2535115673404484
sg131
g141
sg124
I5
sg133
F8.849055805557704
sg134
g138
sbag1
(g120
g3
NtRp146
(dp147
g130
F1.056097525900237
sg131
g141
sg124
I6
sg133
F6.6959795754566507
sg134
g138
sbag1
(g120
g3
NtRp148
(dp149
g130
F-1.8667211660959917
sg131
g141
sg124
I7
sg133
F2.7072499284691065
sg134
g138
sbag1
(g120
g3
NtRp150
(dp151
g130
F0.16731071643951978
sg131
g141
sg124
I8
sg133
F9.2350344429734363
sg134
g138
sbag1
(g120
g3
NtRp152
(dp153
g130
F-0.10507137663036381
sg131
g141
sg124
I9
sg133
F4.7553889958567677
sg134
g138
sbag1
(g120
g3
NtRp154
(dp155
g130
F-1.935811200584256
sg131
g141
sg124
I10
sg133
F5.4688402145629702
sg134
g138
sbag1
(g120
g3
NtRp156
(dp157
g130
F-1.5096011137521503
sg131
g141
sg124
I11
sg133
F6.9053234811636059
sg134
g138
sbag1
(g120
g3
NtRp158
(dp159
g130
F0.28290737057605991
sg131
g141
sg124
I12
sg133
F6.2835988859141567
sg134
g138
sbag1
(g120
g3
NtRp160
(dp161
g130
F-0.64728014796881383
sg131
g141
sg124
I13
sg133
F5.1407721365166532
sg134
g138
sbasb.