ccopy_reg
_reconstructor
p1
(cneat.chromosome
Chromosome
p2
c__builtin__
object
p3
NtRp4
(dp5
S'species_id'
p6
I6
sS'_connection_genes'
p7
(dp8
(I1
I2
tp9
g1
(cneat.genome
ConnectionGene
p10
g3
NtRp11
(dp12
S'_ConnectionGene__weight'
p13
F-8.8021115311701781
sS'_ConnectionGene__in'
p14
I1
sS'_ConnectionGene__enabled'
p15
I01
sS'_ConnectionGene__out'
p16
I2
sS'_ConnectionGene__innov_number'
p17
I1
sbs(I3
I2
tp18
g1
(g10
g3
NtRp19
(dp20
g13
F-0.42552180884883217
sg14
I3
sg15
I01
sg16
I2
sg17
I4
sbs(I1
I4
tp21
g1
(g10
g3
NtRp22
(dp23
g13
F-2.7426130526641002
sg14
I1
sg15
I01
sg16
I4
sg17
I6
sbs(I1
I5
tp24
g1
(g10
g3
NtRp25
(dp26
g13
F-3.7701017897780669
sg14
I1
sg15
I01
sg16
I5
sg17
I11
sbs(I2
I3
tp27
g1
(g10
g3
NtRp28
(dp29
g13
F6.2530771040652455
sg14
I2
sg15
I01
sg16
I3
sg17
I5
sbs(I4
I3
tp30
g1
(g10
g3
NtRp31
(dp32
g13
F4.8819467200205757
sg14
I4
sg15
I01
sg16
I3
sg17
I10
sbs(I2
I2
tp33
g1
(g10
g3
NtRp34
(dp35
g13
F8.7432660728499378
sg14
I2
sg15
I00
sg16
I2
sg17
I2
sbs(I4
I2
tp36
g1
(g10
g3
NtRp37
(dp38
g13
F-11.098873793951102
sg14
I4
sg15
I01
sg16
I2
sg17
I7
sbs(I5
I2
tp39
g1
(g10
g3
NtRp40
(dp41
g13
F-13.739106348330559
sg14
I5
sg15
I01
sg16
I2
sg17
I9
sbs(I3
I5
tp42
g1
(g10
g3
NtRp43
(dp44
g13
F4.3874519092400472
sg14
I3
sg15
I01
sg16
I5
sg17
I14
sbssS'_input_nodes'
p45
I1
sS'_output_nodes'
p46
I1
sS'_node_gene_type'
p47
cneat.genome
NodeGene
p48
sS'_conn_gene_type'
p49
g10
sS'fitness'
p50
F0.94525940382699725
sS'parent2_id'
p51
I1177
sS'_id'
p52
I1191
sS'parent1_id'
p53
I1177
sS'_node_genes'
p54
(lp55
g1
(g48
g3
NtRp56
(dp57
S'_bias'
p58
I0
sS'_type'
p59
S'INPUT'
p60
sg52
I1
sS'_response'
p61
F4.9242730000000003
sS'_activation_type'
p62
Nsbag1
(g48
g3
NtRp63
(dp64
g58
F0.39584873659377767
sg59
S'OUTPUT'
p65
sg52
I2
sg61
F5.3255340591595699
sg62
S'tanh'
p66
sbag1
(g48
g3
NtRp67
(dp68
g58
F-1.5860801634544206
sg59
S'HIDDEN'
p69
sg52
I3
sg61
F4.62159504058015
sg62
g66
sbag1
(g48
g3
NtRp70
(dp71
g58
F0.88819011750065879
sg59
g69
sg52
I4
sg61
F4.5216550677867842
sg62
g66
sbag1
(g48
g3
NtRp72
(dp73
g58
F-0.0028135599970814384
sg59
g69
sg52
I5
sg61
F5.0677237887379487
sg62
g66
sbasb.