ccopy_reg
_reconstructor
p1
(cneat.chromosome
Chromosome
p2
c__builtin__
object
p3
NtRp4
(dp5
S'species_id'
p6
I44
sS'_connection_genes'
p7
(dp8
(I17
I12
tp9
g1
(cneat.genome
ConnectionGene
p10
g3
NtRp11
(dp12
S'_ConnectionGene__weight'
p13
F-7.1469074557598367
sS'_ConnectionGene__in'
p14
I17
sS'_ConnectionGene__enabled'
p15
I01
sS'_ConnectionGene__out'
p16
I12
sS'_ConnectionGene__innov_number'
p17
I207
sbs(I1
I3
tp18
g1
(g10
g3
NtRp19
(dp20
g13
F-8.4939726850967485
sg14
I1
sg15
I01
sg16
I3
sg17
I3
sbs(I6
I6
tp21
g1
(g10
g3
NtRp22
(dp23
g13
F19.806847898201998
sg14
I6
sg15
I01
sg16
I6
sg17
I39
sbs(I11
I2
tp24
g1
(g10
g3
NtRp25
(dp26
g13
F0.57514811053615233
sg14
I11
sg15
I01
sg16
I2
sg17
I80
sbs(I1
I15
tp27
g1
(g10
g3
NtRp28
(dp29
g13
F-18.605720135763129
sg14
I1
sg15
I01
sg16
I15
sg17
I146
sbs(I6
I2
tp30
g1
(g10
g3
NtRp31
(dp32
g13
F29.395484361533988
sg14
I6
sg15
I01
sg16
I2
sg17
I21
sbs(I16
I14
tp33
g1
(g10
g3
NtRp34
(dp35
g13
F-24.011082647911707
sg14
I16
sg15
I01
sg16
I14
sg17
I193
sbs(I5
I8
tp36
g1
(g10
g3
NtRp37
(dp38
g13
F9.5940896105013032
sg14
I5
sg15
I00
sg16
I8
sg17
I42
sbs(I1
I2
tp39
g1
(g10
g3
NtRp40
(dp41
g13
F-11.418749089114048
sg14
I1
sg15
I01
sg16
I2
sg17
I1
sbs(I12
I2
tp42
g1
(g10
g3
NtRp43
(dp44
g13
F7.3588607641367236
sg14
I12
sg15
I01
sg16
I2
sg17
I82
sbs(I2
I19
tp45
g1
(g10
g3
NtRp46
(dp47
g13
F26.933835169968543
sg14
I2
sg15
I01
sg16
I19
sg17
I210
sbs(I3
I3
tp48
g1
(g10
g3
NtRp49
(dp50
g13
F-5.4635338449835507
sg14
I3
sg15
I01
sg16
I3
sg17
I15
sbs(I2
I9
tp51
g1
(g10
g3
NtRp52
(dp53
g13
F16.055962570554101
sg14
I2
sg15
I01
sg16
I9
sg17
I53
sbs(I13
I3
tp54
g1
(g10
g3
NtRp55
(dp56
g13
F-0.9718013106206046
sg14
I13
sg15
I01
sg16
I3
sg17
I92
sbs(I8
I10
tp57
g1
(g10
g3
NtRp58
(dp59
g13
F22.391548862628909
sg14
I8
sg15
I01
sg16
I10
sg17
I74
sbs(I21
I8
tp60
g1
(g10
g3
NtRp61
(dp62
g13
F6.7850657791094964
sg14
I21
sg15
I01
sg16
I8
sg17
I250
sbs(I4
I13
tp63
g1
(g10
g3
NtRp64
(dp65
g13
F-2.2236289049354721
sg14
I4
sg15
I01
sg16
I13
sg17
I102
sbs(I1
I5
tp66
g1
(g10
g3
NtRp67
(dp68
g13
F0.74740366852068385
sg14
I1
sg15
I00
sg16
I5
sg17
I11
sbs(I9
I11
tp69
g1
(g10
g3
NtRp70
(dp71
g13
F-4.2492431144111151
sg14
I9
sg15
I01
sg16
I11
sg17
I101
sbs(I19
I3
tp72
g1
(g10
g3
NtRp73
(dp74
g13
F12.017486763071762
sg14
I19
sg15
I01
sg16
I3
sg17
I212
sbs(I2
I2
tp75
g1
(g10
g3
NtRp76
(dp77
g13
F-4.8620597808074351
sg14
I2
sg15
I01
sg16
I2
sg17
I2
sbs(I12
I10
tp78
g1
(g10
g3
NtRp79
(dp80
g13
F-9.2979872824656429
sg14
I12
sg15
I01
sg16
I10
sg17
I105
sbs(I8
I16
tp81
g1
(g10
g3
NtRp82
(dp83
g13
F-9.8896781097581279
sg14
I8
sg15
I01
sg16
I16
sg17
I177
sbs(I12
I3
tp84
g1
(g10
g3
NtRp85
(dp86
g13
F-0.52994414908054877
sg14
I12
sg15
I01
sg16
I3
sg17
I86
sbs(I8
I18
tp87
g1
(g10
g3
NtRp88
(dp89
g13
F8.1704340553239412
sg14
I8
sg15
I01
sg16
I18
sg17
I208
sbs(I3
I2
tp90
g1
(g10
g3
NtRp91
(dp92
g13
F-21.999777270669572
sg14
I3
sg15
I01
sg16
I2
sg17
I4
sbs(I14
I10
tp93
g1
(g10
g3
NtRp94
(dp95
g13
F1.430006349375945
sg14
I14
sg15
I01
sg16
I10
sg17
I165
sbs(I8
I2
tp96
g1
(g10
g3
NtRp97
(dp98
g13
F-26.97612069066826
sg14
I8
sg15
I01
sg16
I2
sg17
I43
sbs(I5
I11
tp99
g1
(g10
g3
NtRp100
(dp101
g13
F-18.254877855001503
sg14
I5
sg15
I01
sg16
I11
sg17
I79
sbs(I15
I3
tp102
g1
(g10
g3
NtRp103
(dp104
g13
F-10.381835203553923
sg14
I15
sg15
I01
sg16
I3
sg17
I147
sbs(I9
I3
tp105
g1
(g10
g3
NtRp106
(dp107
g13
F-12.143225850606864
sg14
I9
sg15
I01
sg16
I3
sg17
I60
sbs(I2
I20
tp108
g1
(g10
g3
NtRp109
(dp110
g13
F8.6053553369194606
sg14
I2
sg15
I01
sg16
I20
sg17
I220
sbs(I1
I4
tp111
g1
(g10
g3
NtRp112
(dp113
g13
F-25.751451024017843
sg14
I1
sg15
I01
sg16
I4
sg17
I6
sbs(I9
I10
tp114
g1
(g10
g3
NtRp115
(dp116
g13
F-19.687977525148995
sg14
I9
sg15
I01
sg16
I10
sg17
I90
sbs(I7
I5
tp117
g1
(g10
g3
NtRp118
(dp119
g13
F-4.5983787104861209
sg14
I7
sg15
I01
sg16
I5
sg17
I30
sbs(I2
I3
tp120
g1
(g10
g3
NtRp121
(dp122
g13
F14.737113158287114
sg14
I2
sg15
I00
sg16
I3
sg17
I5
sbs(I1
I9
tp123
g1
(g10
g3
NtRp124
(dp125
g13
F25.280425795537802
sg14
I1
sg15
I01
sg16
I9
sg17
I58
sbs(I8
I17
tp126
g1
(g10
g3
NtRp127
(dp128
g13
F13.937781754958165
sg14
I8
sg15
I01
sg16
I17
sg17
I205
sbs(I4
I2
tp129
g1
(g10
g3
NtRp130
(dp131
g13
F-2.9784730836030326
sg14
I4
sg15
I01
sg16
I2
sg17
I7
sbs(I14
I2
tp132
g1
(g10
g3
NtRp133
(dp134
g13
F-2.4201678787169296
sg14
I14
sg15
I01
sg16
I2
sg17
I138
sbs(I3
I5
tp135
g1
(g10
g3
NtRp136
(dp137
g13
F11.448312448638724
sg14
I3
sg15
I01
sg16
I5
sg17
I14
sbs(I10
I5
tp138
g1
(g10
g3
NtRp139
(dp140
g13
F-0.35928708965329248
sg14
I10
sg15
I01
sg16
I5
sg17
I76
sbs(I4
I6
tp141
g1
(g10
g3
NtRp142
(dp143
g13
F-18.884361472916115
sg14
I4
sg15
I01
sg16
I6
sg17
I22
sbs(I15
I2
tp144
g1
(g10
g3
NtRp145
(dp146
g13
F-4.1103836968038863
sg14
I15
sg15
I01
sg16
I2
sg17
I170
sbs(I8
I12
tp147
g1
(g10
g3
NtRp148
(dp149
g13
F1.3996294257668618
sg14
I8
sg15
I01
sg16
I12
sg17
I88
sbs(I18
I10
tp150
g1
(g10
g3
NtRp151
(dp152
g13
F22.495402623186042
sg14
I18
sg15
I01
sg16
I10
sg17
I209
sbs(I5
I21
tp153
g1
(g10
g3
NtRp154
(dp155
g13
F2.3475177260307576
sg14
I5
sg15
I01
sg16
I21
sg17
I249
sbs(I11
I3
tp156
g1
(g10
g3
NtRp157
(dp158
g13
F-10.753370481916352
sg14
I11
sg15
I01
sg16
I3
sg17
I78
sbs(I2
I6
tp159
g1
(g10
g3
NtRp160
(dp161
g13
F0.38344510891379469
sg14
I2
sg15
I00
sg16
I6
sg17
I38
sbs(I3
I8
tp162
g1
(g10
g3
NtRp163
(dp164
g13
F17.5232562750695
sg14
I3
sg15
I01
sg16
I8
sg17
I44
sbs(I8
I14
tp165
g1
(g10
g3
NtRp166
(dp167
g13
F3.4855979917697111
sg14
I8
sg15
I01
sg16
I14
sg17
I119
sbs(I20
I6
tp168
g1
(g10
g3
NtRp169
(dp170
g13
F0.26985149281707277
sg14
I20
sg15
I01
sg16
I6
sg17
I221
sbs(I4
I3
tp171
g1
(g10
g3
NtRp172
(dp173
g13
F9.5426851532330339
sg14
I4
sg15
I01
sg16
I3
sg17
I10
sbs(I1
I7
tp174
g1
(g10
g3
NtRp175
(dp176
g13
F12.1730173227681
sg14
I1
sg15
I01
sg16
I7
sg17
I29
sbs(I13
I9
tp177
g1
(g10
g3
NtRp178
(dp179
g13
F-2.8097799681227347
sg14
I13
sg15
I01
sg16
I9
sg17
I112
sbs(I5
I2
tp180
g1
(g10
g3
NtRp181
(dp182
g13
F0.21675101122104073
sg14
I5
sg15
I01
sg16
I2
sg17
I9
sbs(I10
I2
tp183
g1
(g10
g3
NtRp184
(dp185
g13
F-13.487756180252379
sg14
I10
sg15
I01
sg16
I2
sg17
I65
sbssS'_input_nodes'
p186
I1
sS'_output_nodes'
p187
I1
sS'_node_gene_type'
p188
cneat.genome
NodeGene
p189
sS'_conn_gene_type'
p190
g10
sS'fitness'
p191
F0.97047070031989546
sS'parent2_id'
p192
I6595
sS'_id'
p193
I6609
sS'parent1_id'
p194
I6595
sS'_node_genes'
p195
(lp196
g1
(g189
g3
NtRp197
(dp198
S'_bias'
p199
I0
sS'_type'
p200
S'INPUT'
p201
sg193
I1
sS'_response'
p202
F4.9242730000000003
sS'_activation_type'
p203
Nsbag1
(g189
g3
NtRp204
(dp205
g199
F-5.910842275919582
sg200
S'OUTPUT'
p206
sg193
I2
sg202
F3.7298209460267389
sg203
S'tanh'
p207
sbag1
(g189
g3
NtRp208
(dp209
g199
F0.8346466134857975
sg200
S'HIDDEN'
p210
sg193
I3
sg202
F1.4033313690570586
sg203
g207
sbag1
(g189
g3
NtRp211
(dp212
g199
F-5.3586771792848218
sg200
g210
sg193
I4
sg202
F6.1114255865318778
sg203
g207
sbag1
(g189
g3
NtRp213
(dp214
g199
F4.3561516061362964
sg200
g210
sg193
I5
sg202
F11.564571092948306
sg203
g207
sbag1
(g189
g3
NtRp215
(dp216
g199
F-2.6072681269300002
sg200
g210
sg193
I6
sg202
F5.3024198550046666
sg203
g207
sbag1
(g189
g3
NtRp217
(dp218
g199
F-1.6007806631255583
sg200
g210
sg193
I7
sg202
F0.2823508071237808
sg203
g207
sbag1
(g189
g3
NtRp219
(dp220
g199
F-4.0794120594985168
sg200
g210
sg193
I8
sg202
F9.8001033837771221
sg203
g207
sbag1
(g189
g3
NtRp221
(dp222
g199
F-1.3314686974605099
sg200
g210
sg193
I9
sg202
F7.8285644972225672
sg203
g207
sbag1
(g189
g3
NtRp223
(dp224
g199
F-0.26524035178328365
sg200
g210
sg193
I10
sg202
F7.5813831139380516
sg203
g207
sbag1
(g189
g3
NtRp225
(dp226
g199
F-1.4152768575234083
sg200
g210
sg193
I11
sg202
F6.4090220649457423
sg203
g207
sbag1
(g189
g3
NtRp227
(dp228
g199
F0.9237849090548349
sg200
g210
sg193
I12
sg202
F4.2833179093455698
sg203
g207
sbag1
(g189
g3
NtRp229
(dp230
g199
F-1.7973794228196598
sg200
g210
sg193
I13
sg202
F5.4079046002352094
sg203
g207
sbag1
(g189
g3
NtRp231
(dp232
g199
F4.8358957530830331
sg200
g210
sg193
I14
sg202
F5.1492852054274856
sg203
g207
sbag1
(g189
g3
NtRp233
(dp234
g199
F-2.6691801223802294
sg200
g210
sg193
I15
sg202
F7.2355199990717241
sg203
g207
sbag1
(g189
g3
NtRp235
(dp236
g199
F1.6258243653395943
sg200
g210
sg193
I16
sg202
F2.6381795586667725
sg203
g207
sbag1
(g189
g3
NtRp237
(dp238
g199
F1.6239454210516757
sg200
g210
sg193
I17
sg202
F5.322183923966592
sg203
g207
sbag1
(g189
g3
NtRp239
(dp240
g199
F-0.49871313464054623
sg200
g210
sg193
I18
sg202
F5.2852777651986766
sg203
g207
sbag1
(g189
g3
NtRp241
(dp242
g199
F-0.36720759104303757
sg200
g210
sg193
I19
sg202
F4.6228972090833684
sg203
g207
sbag1
(g189
g3
NtRp243
(dp244
g199
F0.13769754910318666
sg200
g210
sg193
I20
sg202
F6.6211028468016657
sg203
g207
sbag1
(g189
g3
NtRp245
(dp246
g199
F0.47801237304460559
sg200
g210
sg193
I21
sg202
F5.2062662756622498
sg203
g207
sbasb.