ccopy_reg
_reconstructor
p1
(cneat.chromosome
Chromosome
p2
c__builtin__
object
p3
NtRp4
(dp5
S'species_id'
p6
I44
sS'_connection_genes'
p7
(dp8
(I1
I3
tp9
g1
(cneat.genome
ConnectionGene
p10
g3
NtRp11
(dp12
S'_ConnectionGene__weight'
p13
F-7.8635103803817561
sS'_ConnectionGene__in'
p14
I1
sS'_ConnectionGene__enabled'
p15
I01
sS'_ConnectionGene__out'
p16
I3
sS'_ConnectionGene__innov_number'
p17
I3
sbs(I6
I6
tp18
g1
(g10
g3
NtRp19
(dp20
g13
F20.041844378064418
sg14
I6
sg15
I01
sg16
I6
sg17
I39
sbs(I11
I2
tp21
g1
(g10
g3
NtRp22
(dp23
g13
F-2.8539324590994655
sg14
I11
sg15
I01
sg16
I2
sg17
I80
sbs(I1
I15
tp24
g1
(g10
g3
NtRp25
(dp26
g13
F-15.419826744676595
sg14
I1
sg15
I01
sg16
I15
sg17
I146
sbs(I6
I2
tp27
g1
(g10
g3
NtRp28
(dp29
g13
F28.482636118658522
sg14
I6
sg15
I01
sg16
I2
sg17
I21
sbs(I13
I8
tp30
g1
(g10
g3
NtRp31
(dp32
g13
F0.20539032211122618
sg14
I13
sg15
I01
sg16
I8
sg17
I109
sbs(I16
I14
tp33
g1
(g10
g3
NtRp34
(dp35
g13
F-21.469390686659253
sg14
I16
sg15
I01
sg16
I14
sg17
I193
sbs(I5
I8
tp36
g1
(g10
g3
NtRp37
(dp38
g13
F11.794004129282417
sg14
I5
sg15
I00
sg16
I8
sg17
I42
sbs(I1
I2
tp39
g1
(g10
g3
NtRp40
(dp41
g13
F-14.006592188228772
sg14
I1
sg15
I01
sg16
I2
sg17
I1
sbs(I12
I2
tp42
g1
(g10
g3
NtRp43
(dp44
g13
F9.1478061436500333
sg14
I12
sg15
I01
sg16
I2
sg17
I82
sbs(I2
I19
tp45
g1
(g10
g3
NtRp46
(dp47
g13
F26.659753640504849
sg14
I2
sg15
I01
sg16
I19
sg17
I210
sbs(I3
I3
tp48
g1
(g10
g3
NtRp49
(dp50
g13
F-6.0638289070457008
sg14
I3
sg15
I01
sg16
I3
sg17
I15
sbs(I2
I9
tp51
g1
(g10
g3
NtRp52
(dp53
g13
F17.028271959706149
sg14
I2
sg15
I01
sg16
I9
sg17
I53
sbs(I13
I3
tp54
g1
(g10
g3
NtRp55
(dp56
g13
F-3.5129989492122058
sg14
I13
sg15
I01
sg16
I3
sg17
I92
sbs(I4
I3
tp57
g1
(g10
g3
NtRp58
(dp59
g13
F8.0123584898827627
sg14
I4
sg15
I01
sg16
I3
sg17
I10
sbs(I8
I10
tp60
g1
(g10
g3
NtRp61
(dp62
g13
F25.205697849874856
sg14
I8
sg15
I01
sg16
I10
sg17
I74
sbs(I21
I8
tp63
g1
(g10
g3
NtRp64
(dp65
g13
F6.0014465107202346
sg14
I21
sg15
I01
sg16
I8
sg17
I250
sbs(I4
I13
tp66
g1
(g10
g3
NtRp67
(dp68
g13
F2.6357219062048687
sg14
I4
sg15
I01
sg16
I13
sg17
I102
sbs(I1
I5
tp69
g1
(g10
g3
NtRp70
(dp71
g13
F-2.0620701154871268
sg14
I1
sg15
I00
sg16
I5
sg17
I11
sbs(I9
I11
tp72
g1
(g10
g3
NtRp73
(dp74
g13
F-7.3070148404190736
sg14
I9
sg15
I01
sg16
I11
sg17
I101
sbs(I19
I3
tp75
g1
(g10
g3
NtRp76
(dp77
g13
F15.632006358284237
sg14
I19
sg15
I01
sg16
I3
sg17
I212
sbs(I2
I2
tp78
g1
(g10
g3
NtRp79
(dp80
g13
F-2.5919254763273778
sg14
I2
sg15
I01
sg16
I2
sg17
I2
sbs(I12
I10
tp81
g1
(g10
g3
NtRp82
(dp83
g13
F-12.208742919865479
sg14
I12
sg15
I01
sg16
I10
sg17
I105
sbs(I8
I16
tp84
g1
(g10
g3
NtRp85
(dp86
g13
F-10.289186575811694
sg14
I8
sg15
I01
sg16
I16
sg17
I177
sbs(I12
I3
tp87
g1
(g10
g3
NtRp88
(dp89
g13
F-1.5864897148611918
sg14
I12
sg15
I01
sg16
I3
sg17
I86
sbs(I20
I6
tp90
g1
(g10
g3
NtRp91
(dp92
g13
F1.3276908173458137
sg14
I20
sg15
I01
sg16
I6
sg17
I221
sbs(I3
I2
tp93
g1
(g10
g3
NtRp94
(dp95
g13
F-25.633625187103068
sg14
I3
sg15
I01
sg16
I2
sg17
I4
sbs(I14
I10
tp96
g1
(g10
g3
NtRp97
(dp98
g13
F2.8395020827783939
sg14
I14
sg15
I01
sg16
I10
sg17
I165
sbs(I8
I2
tp99
g1
(g10
g3
NtRp100
(dp101
g13
F-24.115449839277122
sg14
I8
sg15
I01
sg16
I2
sg17
I43
sbs(I5
I11
tp102
g1
(g10
g3
NtRp103
(dp104
g13
F-18.129144874171974
sg14
I5
sg15
I01
sg16
I11
sg17
I79
sbs(I15
I3
tp105
g1
(g10
g3
NtRp106
(dp107
g13
F-10.023998295028202
sg14
I15
sg15
I01
sg16
I3
sg17
I147
sbs(I9
I3
tp108
g1
(g10
g3
NtRp109
(dp110
g13
F-7.7826193703801811
sg14
I9
sg15
I01
sg16
I3
sg17
I60
sbs(I2
I20
tp111
g1
(g10
g3
NtRp112
(dp113
g13
F9.4433748586604889
sg14
I2
sg15
I01
sg16
I20
sg17
I220
sbs(I1
I4
tp114
g1
(g10
g3
NtRp115
(dp116
g13
F-22.258013508160968
sg14
I1
sg15
I01
sg16
I4
sg17
I6
sbs(I9
I10
tp117
g1
(g10
g3
NtRp118
(dp119
g13
F-22.954094342478662
sg14
I9
sg15
I01
sg16
I10
sg17
I90
sbs(I7
I5
tp120
g1
(g10
g3
NtRp121
(dp122
g13
F-1.79290713539709
sg14
I7
sg15
I01
sg16
I5
sg17
I30
sbs(I2
I3
tp123
g1
(g10
g3
NtRp124
(dp125
g13
F12.410573172459818
sg14
I2
sg15
I00
sg16
I3
sg17
I5
sbs(I1
I9
tp126
g1
(g10
g3
NtRp127
(dp128
g13
F24.151122421586464
sg14
I1
sg15
I01
sg16
I9
sg17
I58
sbs(I8
I17
tp129
g1
(g10
g3
NtRp130
(dp131
g13
F19.253455306316308
sg14
I8
sg15
I01
sg16
I17
sg17
I205
sbs(I4
I2
tp132
g1
(g10
g3
NtRp133
(dp134
g13
F-5.3142260500247867
sg14
I4
sg15
I01
sg16
I2
sg17
I7
sbs(I14
I2
tp135
g1
(g10
g3
NtRp136
(dp137
g13
F1.8473743041540689
sg14
I14
sg15
I01
sg16
I2
sg17
I138
sbs(I3
I5
tp138
g1
(g10
g3
NtRp139
(dp140
g13
F12.008975976936899
sg14
I3
sg15
I01
sg16
I5
sg17
I14
sbs(I10
I5
tp141
g1
(g10
g3
NtRp142
(dp143
g13
F0.43112233406891809
sg14
I10
sg15
I01
sg16
I5
sg17
I76
sbs(I4
I6
tp144
g1
(g10
g3
NtRp145
(dp146
g13
F-17.849208905140003
sg14
I4
sg15
I01
sg16
I6
sg17
I22
sbs(I15
I2
tp147
g1
(g10
g3
NtRp148
(dp149
g13
F-4.7552901455053656
sg14
I15
sg15
I01
sg16
I2
sg17
I170
sbs(I8
I12
tp150
g1
(g10
g3
NtRp151
(dp152
g13
F-3.8152484940919407
sg14
I8
sg15
I01
sg16
I12
sg17
I88
sbs(I18
I10
tp153
g1
(g10
g3
NtRp154
(dp155
g13
F25.764571409408287
sg14
I18
sg15
I01
sg16
I10
sg17
I209
sbs(I11
I3
tp156
g1
(g10
g3
NtRp157
(dp158
g13
F-12.370671986700877
sg14
I11
sg15
I01
sg16
I3
sg17
I78
sbs(I2
I6
tp159
g1
(g10
g3
NtRp160
(dp161
g13
F3.0525991759003417
sg14
I2
sg15
I00
sg16
I6
sg17
I38
sbs(I3
I8
tp162
g1
(g10
g3
NtRp163
(dp164
g13
F16.222769365715649
sg14
I3
sg15
I01
sg16
I8
sg17
I44
sbs(I8
I14
tp165
g1
(g10
g3
NtRp166
(dp167
g13
F6.3949918975011659
sg14
I8
sg15
I01
sg16
I14
sg17
I119
sbs(I8
I18
tp168
g1
(g10
g3
NtRp169
(dp170
g13
F1.9676645697230395
sg14
I8
sg15
I01
sg16
I18
sg17
I208
sbs(I17
I12
tp171
g1
(g10
g3
NtRp172
(dp173
g13
F-6.4856271806577706
sg14
I17
sg15
I01
sg16
I12
sg17
I207
sbs(I1
I7
tp174
g1
(g10
g3
NtRp175
(dp176
g13
F6.2431059370530289
sg14
I1
sg15
I01
sg16
I7
sg17
I29
sbs(I13
I9
tp177
g1
(g10
g3
NtRp178
(dp179
g13
F-0.71167347905847167
sg14
I13
sg15
I01
sg16
I9
sg17
I112
sbs(I10
I2
tp180
g1
(g10
g3
NtRp181
(dp182
g13
F-16.58338432785764
sg14
I10
sg15
I01
sg16
I2
sg17
I65
sbs(I5
I2
tp183
g1
(g10
g3
NtRp184
(dp185
g13
F-1.2037650048927839
sg14
I5
sg15
I01
sg16
I2
sg17
I9
sbs(I5
I21
tp186
g1
(g10
g3
NtRp187
(dp188
g13
F3.3713152786057972
sg14
I5
sg15
I01
sg16
I21
sg17
I249
sbssS'_input_nodes'
p189
I1
sS'_output_nodes'
p190
I1
sS'_node_gene_type'
p191
cneat.genome
NodeGene
p192
sS'_conn_gene_type'
p193
g10
sS'fitness'
p194
F0.96753166234156884
sS'parent2_id'
p195
I6675
sS'_id'
p196
I6706
sS'parent1_id'
p197
I6675
sS'_node_genes'
p198
(lp199
g1
(g192
g3
NtRp200
(dp201
S'_bias'
p202
I0
sS'_type'
p203
S'INPUT'
p204
sg196
I1
sS'_response'
p205
F4.9242730000000003
sS'_activation_type'
p206
Nsbag1
(g192
g3
NtRp207
(dp208
g202
F-5.7323508061396371
sg203
S'OUTPUT'
p209
sg196
I2
sg205
F4.3920083215609056
sg206
S'tanh'
p210
sbag1
(g192
g3
NtRp211
(dp212
g202
F0.5437390159298946
sg203
S'HIDDEN'
p213
sg196
I3
sg205
F1.0798154751852569
sg206
g210
sbag1
(g192
g3
NtRp214
(dp215
g202
F-5.3586771792848218
sg203
g213
sg196
I4
sg205
F6.2348916967082388
sg206
g210
sbag1
(g192
g3
NtRp216
(dp217
g202
F4.8275799492032503
sg203
g213
sg196
I5
sg205
F12.013875229562696
sg206
g210
sbag1
(g192
g3
NtRp218
(dp219
g202
F-1.7436504690594488
sg203
g213
sg196
I6
sg205
F5.3024198550046666
sg206
g210
sbag1
(g192
g3
NtRp220
(dp221
g202
F-1.6007806631255583
sg203
g213
sg196
I7
sg205
F0.23620466030168241
sg206
g210
sbag1
(g192
g3
NtRp222
(dp223
g202
F-4.5277031005673134
sg203
g213
sg196
I8
sg205
F8.5719400820380987
sg206
g210
sbag1
(g192
g3
NtRp224
(dp225
g202
F-1.6781257286231275
sg203
g213
sg196
I9
sg205
F7.8285644972225672
sg206
g210
sbag1
(g192
g3
NtRp226
(dp227
g202
F-0.25804267463315295
sg203
g213
sg196
I10
sg205
F7.5234860890282409
sg206
g210
sbag1
(g192
g3
NtRp228
(dp229
g202
F-1.4152768575234083
sg203
g213
sg196
I11
sg205
F6.2954322955243232
sg206
g210
sbag1
(g192
g3
NtRp230
(dp231
g202
F1.5228777012231318
sg203
g213
sg196
I12
sg205
F4.2833179093455698
sg206
g210
sbag1
(g192
g3
NtRp232
(dp233
g202
F-2.3977810483908044
sg203
g213
sg196
I13
sg205
F5.4079046002352094
sg206
g210
sbag1
(g192
g3
NtRp234
(dp235
g202
F4.8358957530830331
sg203
g213
sg196
I14
sg205
F5.1492852054274856
sg206
g210
sbag1
(g192
g3
NtRp236
(dp237
g202
F-2.6691801223802294
sg203
g213
sg196
I15
sg205
F6.3276590498175613
sg206
g210
sbag1
(g192
g3
NtRp238
(dp239
g202
F0.6675866452742244
sg203
g213
sg196
I16
sg205
F2.200630222026426
sg206
g210
sbag1
(g192
g3
NtRp240
(dp241
g202
F1.6945032998335285
sg203
g213
sg196
I17
sg205
F5.322183923966592
sg206
g210
sbag1
(g192
g3
NtRp242
(dp243
g202
F-0.68419421959916327
sg203
g213
sg196
I18
sg205
F5.2852777651986766
sg206
g210
sbag1
(g192
g3
NtRp244
(dp245
g202
F-0.67216654254640607
sg203
g213
sg196
I19
sg205
F4.6228972090833684
sg206
g210
sbag1
(g192
g3
NtRp246
(dp247
g202
F0.80114726763785804
sg203
g213
sg196
I20
sg205
F6.0768005547159625
sg206
g210
sbag1
(g192
g3
NtRp248
(dp249
g202
F0.47801237304460559
sg203
g213
sg196
I21
sg205
F5.9741230079711043
sg206
g210
sbasb.