ccopy_reg
_reconstructor
p1
(cneat.chromosome
Chromosome
p2
c__builtin__
object
p3
NtRp4
(dp5
S'species_id'
p6
I38
sS'_connection_genes'
p7
(dp8
(I1
I3
tp9
g1
(cneat.genome
ConnectionGene
p10
g3
NtRp11
(dp12
S'_ConnectionGene__weight'
p13
F2.6063974679091535
sS'_ConnectionGene__in'
p14
I1
sS'_ConnectionGene__enabled'
p15
I01
sS'_ConnectionGene__out'
p16
I3
sS'_ConnectionGene__innov_number'
p17
I3
sbs(I6
I6
tp18
g1
(g10
g3
NtRp19
(dp20
g13
F19.792392138031417
sg14
I6
sg15
I01
sg16
I6
sg17
I39
sbs(I11
I2
tp21
g1
(g10
g3
NtRp22
(dp23
g13
F-0.58934098730111262
sg14
I11
sg15
I01
sg16
I2
sg17
I80
sbs(I1
I15
tp24
g1
(g10
g3
NtRp25
(dp26
g13
F-11.556523014468684
sg14
I1
sg15
I01
sg16
I15
sg17
I146
sbs(I6
I2
tp27
g1
(g10
g3
NtRp28
(dp29
g13
F29.079509197468532
sg14
I6
sg15
I01
sg16
I2
sg17
I21
sbs(I16
I14
tp30
g1
(g10
g3
NtRp31
(dp32
g13
F-24.851461952630768
sg14
I16
sg15
I01
sg16
I14
sg17
I193
sbs(I5
I8
tp33
g1
(g10
g3
NtRp34
(dp35
g13
F12.634180272003578
sg14
I5
sg15
I01
sg16
I8
sg17
I42
sbs(I1
I2
tp36
g1
(g10
g3
NtRp37
(dp38
g13
F-17.597458196407231
sg14
I1
sg15
I01
sg16
I2
sg17
I1
sbs(I12
I2
tp39
g1
(g10
g3
NtRp40
(dp41
g13
F10.27906131750874
sg14
I12
sg15
I01
sg16
I2
sg17
I82
sbs(I2
I19
tp42
g1
(g10
g3
NtRp43
(dp44
g13
F15.93990880341941
sg14
I2
sg15
I01
sg16
I19
sg17
I210
sbs(I3
I3
tp45
g1
(g10
g3
NtRp46
(dp47
g13
F-2.2846954529078864
sg14
I3
sg15
I01
sg16
I3
sg17
I15
sbs(I2
I9
tp48
g1
(g10
g3
NtRp49
(dp50
g13
F22.687204724502603
sg14
I2
sg15
I01
sg16
I9
sg17
I53
sbs(I13
I3
tp51
g1
(g10
g3
NtRp52
(dp53
g13
F0.32705794143067191
sg14
I13
sg15
I01
sg16
I3
sg17
I92
sbs(I4
I3
tp54
g1
(g10
g3
NtRp55
(dp56
g13
F8.1758950675880335
sg14
I4
sg15
I01
sg16
I3
sg17
I10
sbs(I8
I10
tp57
g1
(g10
g3
NtRp58
(dp59
g13
F20.895301551239648
sg14
I8
sg15
I00
sg16
I10
sg17
I74
sbs(I4
I13
tp60
g1
(g10
g3
NtRp61
(dp62
g13
F-8.2555289912595651
sg14
I4
sg15
I01
sg16
I13
sg17
I102
sbs(I1
I5
tp63
g1
(g10
g3
NtRp64
(dp65
g13
F-13.822381296191413
sg14
I1
sg15
I00
sg16
I5
sg17
I11
sbs(I9
I11
tp66
g1
(g10
g3
NtRp67
(dp68
g13
F-8.2269799610899206
sg14
I9
sg15
I01
sg16
I11
sg17
I101
sbs(I19
I3
tp69
g1
(g10
g3
NtRp70
(dp71
g13
F10.09268215324275
sg14
I19
sg15
I01
sg16
I3
sg17
I212
sbs(I2
I2
tp72
g1
(g10
g3
NtRp73
(dp74
g13
F7.0280327345889573
sg14
I2
sg15
I01
sg16
I2
sg17
I2
sbs(I8
I16
tp75
g1
(g10
g3
NtRp76
(dp77
g13
F-5.1068555173476993
sg14
I8
sg15
I01
sg16
I16
sg17
I177
sbs(I8
I18
tp78
g1
(g10
g3
NtRp79
(dp80
g13
F14.980851138587241
sg14
I8
sg15
I01
sg16
I18
sg17
I208
sbs(I3
I2
tp81
g1
(g10
g3
NtRp82
(dp83
g13
F-29.333395432001328
sg14
I3
sg15
I01
sg16
I2
sg17
I4
sbs(I2
I6
tp84
g1
(g10
g3
NtRp85
(dp86
g13
F-2.3596950043463214
sg14
I2
sg15
I00
sg16
I6
sg17
I38
sbs(I8
I2
tp87
g1
(g10
g3
NtRp88
(dp89
g13
F-27.701697173180492
sg14
I8
sg15
I01
sg16
I2
sg17
I43
sbs(I5
I11
tp90
g1
(g10
g3
NtRp91
(dp92
g13
F-8.9940427995723766
sg14
I5
sg15
I01
sg16
I11
sg17
I79
sbs(I15
I3
tp93
g1
(g10
g3
NtRp94
(dp95
g13
F-7.7273005090549773
sg14
I15
sg15
I01
sg16
I3
sg17
I147
sbs(I9
I3
tp96
g1
(g10
g3
NtRp97
(dp98
g13
F-7.6654268562489163
sg14
I9
sg15
I01
sg16
I3
sg17
I60
sbs(I2
I20
tp99
g1
(g10
g3
NtRp100
(dp101
g13
F1.5471571803194386
sg14
I2
sg15
I01
sg16
I20
sg17
I220
sbs(I1
I4
tp102
g1
(g10
g3
NtRp103
(dp104
g13
F-30
sg14
I1
sg15
I01
sg16
I4
sg17
I6
sbs(I9
I10
tp105
g1
(g10
g3
NtRp106
(dp107
g13
F-19.506284914149589
sg14
I9
sg15
I01
sg16
I10
sg17
I90
sbs(I7
I5
tp108
g1
(g10
g3
NtRp109
(dp110
g13
F-6.6725051363554293
sg14
I7
sg15
I01
sg16
I5
sg17
I30
sbs(I2
I3
tp111
g1
(g10
g3
NtRp112
(dp113
g13
F8.0146620584074775
sg14
I2
sg15
I00
sg16
I3
sg17
I5
sbs(I1
I9
tp114
g1
(g10
g3
NtRp115
(dp116
g13
F21.866544716347562
sg14
I1
sg15
I01
sg16
I9
sg17
I58
sbs(I8
I17
tp117
g1
(g10
g3
NtRp118
(dp119
g13
F1.7007535144325345
sg14
I8
sg15
I01
sg16
I17
sg17
I205
sbs(I4
I2
tp120
g1
(g10
g3
NtRp121
(dp122
g13
F-10.715429169123819
sg14
I4
sg15
I01
sg16
I2
sg17
I7
sbs(I14
I2
tp123
g1
(g10
g3
NtRp124
(dp125
g13
F-0.5289155439362716
sg14
I14
sg15
I01
sg16
I2
sg17
I138
sbs(I3
I5
tp126
g1
(g10
g3
NtRp127
(dp128
g13
F10.669997548222362
sg14
I3
sg15
I01
sg16
I5
sg17
I14
sbs(I10
I5
tp129
g1
(g10
g3
NtRp130
(dp131
g13
F1.6871834097895524
sg14
I10
sg15
I01
sg16
I5
sg17
I76
sbs(I4
I6
tp132
g1
(g10
g3
NtRp133
(dp134
g13
F-19.511873990897538
sg14
I4
sg15
I01
sg16
I6
sg17
I22
sbs(I15
I2
tp135
g1
(g10
g3
NtRp136
(dp137
g13
F4.0471254375311565
sg14
I15
sg15
I01
sg16
I2
sg17
I170
sbs(I8
I12
tp138
g1
(g10
g3
NtRp139
(dp140
g13
F-1.003854991968137
sg14
I8
sg15
I01
sg16
I12
sg17
I88
sbs(I18
I10
tp141
g1
(g10
g3
NtRp142
(dp143
g13
F20.956045807474247
sg14
I18
sg15
I01
sg16
I10
sg17
I209
sbs(I11
I3
tp144
g1
(g10
g3
NtRp145
(dp146
g13
F-15.722908373604369
sg14
I11
sg15
I01
sg16
I3
sg17
I78
sbs(I3
I8
tp147
g1
(g10
g3
NtRp148
(dp149
g13
F17.367065137672235
sg14
I3
sg15
I01
sg16
I8
sg17
I44
sbs(I8
I14
tp150
g1
(g10
g3
NtRp151
(dp152
g13
F1.5227595908002387
sg14
I8
sg15
I01
sg16
I14
sg17
I119
sbs(I20
I6
tp153
g1
(g10
g3
NtRp154
(dp155
g13
F-0.98717534282814068
sg14
I20
sg15
I01
sg16
I6
sg17
I221
sbs(I17
I12
tp156
g1
(g10
g3
NtRp157
(dp158
g13
F-2.7528425017032285
sg14
I17
sg15
I01
sg16
I12
sg17
I207
sbs(I1
I7
tp159
g1
(g10
g3
NtRp160
(dp161
g13
F18.385359979269928
sg14
I1
sg15
I01
sg16
I7
sg17
I29
sbs(I13
I9
tp162
g1
(g10
g3
NtRp163
(dp164
g13
F-2.4116396125243491
sg14
I13
sg15
I01
sg16
I9
sg17
I112
sbs(I5
I2
tp165
g1
(g10
g3
NtRp166
(dp167
g13
F-4.2883787886702516
sg14
I5
sg15
I01
sg16
I2
sg17
I9
sbs(I10
I2
tp168
g1
(g10
g3
NtRp169
(dp170
g13
F-16.268103951680025
sg14
I10
sg15
I01
sg16
I2
sg17
I65
sbssS'_input_nodes'
p171
I1
sS'_output_nodes'
p172
I1
sS'_node_gene_type'
p173
cneat.genome
NodeGene
p174
sS'_conn_gene_type'
p175
g10
sS'fitness'
p176
F0.95765726141185759
sS'parent2_id'
p177
I6212
sS'_id'
p178
I6249
sS'parent1_id'
p179
I6212
sS'_node_genes'
p180
(lp181
g1
(g174
g3
NtRp182
(dp183
S'_bias'
p184
I0
sS'_type'
p185
S'INPUT'
p186
sg178
I1
sS'_response'
p187
F4.9242730000000003
sS'_activation_type'
p188
Nsbag1
(g174
g3
NtRp189
(dp190
g184
F-6.5277196675707589
sg185
S'OUTPUT'
p191
sg178
I2
sg187
F5.3286689800340525
sg188
S'tanh'
p192
sbag1
(g174
g3
NtRp193
(dp194
g184
F1.2278928274724221
sg185
S'HIDDEN'
p195
sg178
I3
sg187
F3.7522482219351612
sg188
g192
sbag1
(g174
g3
NtRp196
(dp197
g184
F-5.3586771792848218
sg185
g195
sg178
I4
sg187
F5.6441993848349501
sg188
g192
sbag1
(g174
g3
NtRp198
(dp199
g184
F4.7901668704993483
sg185
g195
sg178
I5
sg187
F12.364733961702445
sg188
g192
sbag1
(g174
g3
NtRp200
(dp201
g184
F-0.26621384718954083
sg185
g195
sg178
I6
sg187
F4.2060169573066748
sg188
g192
sbag1
(g174
g3
NtRp202
(dp203
g184
F-1.6656197239503496
sg185
g195
sg178
I7
sg187
F-0.12864115427761041
sg188
g192
sbag1
(g174
g3
NtRp204
(dp205
g184
F-2.7853926024395337
sg185
g195
sg178
I8
sg187
F10.829245249327533
sg188
g192
sbag1
(g174
g3
NtRp206
(dp207
g184
F-1.5649001373381175
sg185
g195
sg178
I9
sg187
F7.307564589299349
sg188
g192
sbag1
(g174
g3
NtRp208
(dp209
g184
F-0.51262995962546698
sg185
g195
sg178
I10
sg187
F7.4398742045783894
sg188
g192
sbag1
(g174
g3
NtRp210
(dp211
g184
F-0.21997422053546853
sg185
g195
sg178
I11
sg187
F7.4474685949782611
sg188
g192
sbag1
(g174
g3
NtRp212
(dp213
g184
F0.69369449474817169
sg185
g195
sg178
I12
sg187
F4.6511923194694074
sg188
g192
sbag1
(g174
g3
NtRp214
(dp215
g184
F-1.789607355736476
sg185
g195
sg178
I13
sg187
F5.761198901800558
sg188
g192
sbag1
(g174
g3
NtRp216
(dp217
g184
F4.2751544013755369
sg185
g195
sg178
I14
sg187
F4.7146654486759685
sg188
g192
sbag1
(g174
g3
NtRp218
(dp219
g184
F-2.8871281077722588
sg185
g195
sg178
I15
sg187
F6.5239033282118877
sg188
g192
sbag1
(g174
g3
NtRp220
(dp221
g184
F-1.0700257057431219
sg185
g195
sg178
I16
sg187
F3.7634903097536658
sg188
g192
sbag1
(g174
g3
NtRp222
(dp223
g184
F0.3533688305370889
sg185
g195
sg178
I17
sg187
F5.0880636325761444
sg188
g192
sbag1
(g174
g3
NtRp224
(dp225
g184
F0.46138587506449341
sg185
g195
sg178
I18
sg187
F4.8088060038001714
sg188
g192
sbag1
(g174
g3
NtRp226
(dp227
g184
F-0.61313372010189271
sg185
g195
sg178
I19
sg187
F5.1409960168303703
sg188
g192
sbag1
(g174
g3
NtRp228
(dp229
g184
F0.47032591583638328
sg185
g195
sg178
I20
sg187
F5.572348746805889
sg188
g192
sbasb.