ccopy_reg
_reconstructor
p1
(cneat.chromosome
Chromosome
p2
c__builtin__
object
p3
NtRp4
(dp5
S'species_id'
p6
I14
sS'_connection_genes'
p7
(dp8
(I1
I3
tp9
g1
(cneat.genome
ConnectionGene
p10
g3
NtRp11
(dp12
S'_ConnectionGene__weight'
p13
F-3.4206337364810748
sS'_ConnectionGene__in'
p14
I1
sS'_ConnectionGene__enabled'
p15
I00
sS'_ConnectionGene__out'
p16
I3
sS'_ConnectionGene__innov_number'
p17
I3
sbs(I6
I6
tp18
g1
(g10
g3
NtRp19
(dp20
g13
F22.715673294415907
sg14
I6
sg15
I01
sg16
I6
sg17
I39
sbs(I11
I2
tp21
g1
(g10
g3
NtRp22
(dp23
g13
F-22.510113196698164
sg14
I11
sg15
I01
sg16
I2
sg17
I80
sbs(I6
I2
tp24
g1
(g10
g3
NtRp25
(dp26
g13
F13.589380363159897
sg14
I6
sg15
I01
sg16
I2
sg17
I21
sbs(I5
I8
tp27
g1
(g10
g3
NtRp28
(dp29
g13
F8.6691325980602159
sg14
I5
sg15
I01
sg16
I8
sg17
I42
sbs(I1
I2
tp30
g1
(g10
g3
NtRp31
(dp32
g13
F-21.039485946028886
sg14
I1
sg15
I01
sg16
I2
sg17
I1
sbs(I3
I3
tp33
g1
(g10
g3
NtRp34
(dp35
g13
F-5.8584946570957195
sg14
I3
sg15
I01
sg16
I3
sg17
I15
sbs(I2
I9
tp36
g1
(g10
g3
NtRp37
(dp38
g13
F-0.025163924233552848
sg14
I2
sg15
I01
sg16
I9
sg17
I53
sbs(I8
I10
tp39
g1
(g10
g3
NtRp40
(dp41
g13
F3.5325247728055662
sg14
I8
sg15
I01
sg16
I10
sg17
I74
sbs(I1
I5
tp42
g1
(g10
g3
NtRp43
(dp44
g13
F2.0954809961607639
sg14
I1
sg15
I00
sg16
I5
sg17
I11
sbs(I2
I2
tp45
g1
(g10
g3
NtRp46
(dp47
g13
F14.404860722852861
sg14
I2
sg15
I00
sg16
I2
sg17
I2
sbs(I3
I2
tp48
g1
(g10
g3
NtRp49
(dp50
g13
F-24.890727736855659
sg14
I3
sg15
I01
sg16
I2
sg17
I4
sbs(I2
I6
tp51
g1
(g10
g3
NtRp52
(dp53
g13
F3.7702525482710456
sg14
I2
sg15
I01
sg16
I6
sg17
I38
sbs(I8
I2
tp54
g1
(g10
g3
NtRp55
(dp56
g13
F-5.7614935774549458
sg14
I8
sg15
I00
sg16
I2
sg17
I43
sbs(I5
I11
tp57
g1
(g10
g3
NtRp58
(dp59
g13
F1
sg14
I5
sg15
I01
sg16
I11
sg17
I79
sbs(I9
I3
tp60
g1
(g10
g3
NtRp61
(dp62
g13
F-3.0945871742693258
sg14
I9
sg15
I01
sg16
I3
sg17
I60
sbs(I1
I4
tp63
g1
(g10
g3
NtRp64
(dp65
g13
F-10.12395420758798
sg14
I1
sg15
I01
sg16
I4
sg17
I6
sbs(I7
I5
tp66
g1
(g10
g3
NtRp67
(dp68
g13
F11.17678845235198
sg14
I7
sg15
I01
sg16
I5
sg17
I30
sbs(I2
I3
tp69
g1
(g10
g3
NtRp70
(dp71
g13
F0.53242236829495182
sg14
I2
sg15
I01
sg16
I3
sg17
I5
sbs(I1
I9
tp72
g1
(g10
g3
NtRp73
(dp74
g13
F-6.5410337984982698
sg14
I1
sg15
I01
sg16
I9
sg17
I58
sbs(I4
I2
tp75
g1
(g10
g3
NtRp76
(dp77
g13
F-20.456923762556396
sg14
I4
sg15
I00
sg16
I2
sg17
I7
sbs(I3
I5
tp78
g1
(g10
g3
NtRp79
(dp80
g13
F-11.402246691062565
sg14
I3
sg15
I01
sg16
I5
sg17
I14
sbs(I4
I6
tp81
g1
(g10
g3
NtRp82
(dp83
g13
F27.115846672949239
sg14
I4
sg15
I01
sg16
I6
sg17
I22
sbs(I4
I3
tp84
g1
(g10
g3
NtRp85
(dp86
g13
F2.0322507863675705
sg14
I4
sg15
I01
sg16
I3
sg17
I10
sbs(I1
I7
tp87
g1
(g10
g3
NtRp88
(dp89
g13
F0.25099693901998682
sg14
I1
sg15
I01
sg16
I7
sg17
I29
sbs(I5
I2
tp90
g1
(g10
g3
NtRp91
(dp92
g13
F-22.510113196698164
sg14
I5
sg15
I00
sg16
I2
sg17
I9
sbs(I10
I2
tp93
g1
(g10
g3
NtRp94
(dp95
g13
F-3.0465156680126726
sg14
I10
sg15
I01
sg16
I2
sg17
I65
sbssS'_input_nodes'
p96
I1
sS'_output_nodes'
p97
I1
sS'_node_gene_type'
p98
cneat.genome
NodeGene
p99
sS'_conn_gene_type'
p100
g10
sS'fitness'
p101
F0.87400100448712381
sS'parent2_id'
p102
I2730
sS'_id'
p103
I2737
sS'parent1_id'
p104
I2731
sS'_node_genes'
p105
(lp106
g1
(g99
g3
NtRp107
(dp108
S'_bias'
p109
I0
sS'_type'
p110
S'INPUT'
p111
sg103
I1
sS'_response'
p112
F4.9242730000000003
sS'_activation_type'
p113
Nsbag1
(g99
g3
NtRp114
(dp115
g109
F-2.9004911055772742
sg110
S'OUTPUT'
p116
sg103
I2
sg112
F5.6604761075415411
sg113
S'tanh'
p117
sbag1
(g99
g3
NtRp118
(dp119
g109
F-1.0438587953371896
sg110
S'HIDDEN'
p120
sg103
I3
sg112
F4.2311664658299897
sg113
g117
sbag1
(g99
g3
NtRp121
(dp122
g109
F-0.61730718009149377
sg110
g120
sg103
I4
sg112
F5.0736599784230183
sg113
g117
sbag1
(g99
g3
NtRp123
(dp124
g109
F3.2457195017928804
sg110
g120
sg103
I5
sg112
F10.366006214477872
sg113
g117
sbag1
(g99
g3
NtRp125
(dp126
g109
F2.6043296673396101
sg110
g120
sg103
I6
sg112
F9.0211873728617249
sg113
g117
sbag1
(g99
g3
NtRp127
(dp128
g109
F-1.7346757325721012
sg110
g120
sg103
I7
sg112
F4.3428884024477163
sg113
g117
sbag1
(g99
g3
NtRp129
(dp130
g109
F0.52659146815651048
sg110
g120
sg103
I8
sg112
F5.3093559056289701
sg113
g117
sbag1
(g99
g3
NtRp131
(dp132
g109
F-0.42999190004413013
sg110
g120
sg103
I9
sg112
F4.8099348533128179
sg113
g117
sbag1
(g99
g3
NtRp133
(dp134
g109
F0.64638211586011163
sg110
g120
sg103
I10
sg112
F4.9242730000000003
sg113
g117
sbag1
(g99
g3
NtRp135
(dp136
g109
I0
sg110
g120
sg103
I11
sg112
F4.9242730000000003
sg113
g117
sbasb.