ccopy_reg
_reconstructor
p1
(cneat.chromosome
Chromosome
p2
c__builtin__
object
p3
NtRp4
(dp5
S'species_id'
p6
I52
sS'_connection_genes'
p7
(dp8
(I25
I16
tp9
g1
(cneat.genome
ConnectionGene
p10
g3
NtRp11
(dp12
S'_ConnectionGene__weight'
p13
F-7.7773751295886431
sS'_ConnectionGene__in'
p14
I25
sS'_ConnectionGene__enabled'
p15
I01
sS'_ConnectionGene__out'
p16
I16
sS'_ConnectionGene__innov_number'
p17
I340
sbs(I1
I3
tp18
g1
(g10
g3
NtRp19
(dp20
g13
F-6.968554231109465
sg14
I1
sg15
I01
sg16
I3
sg17
I3
sbs(I6
I6
tp21
g1
(g10
g3
NtRp22
(dp23
g13
F26.699188183348337
sg14
I6
sg15
I01
sg16
I6
sg17
I39
sbs(I1
I26
tp24
g1
(g10
g3
NtRp25
(dp26
g13
F-11.099725141256933
sg14
I1
sg15
I01
sg16
I26
sg17
I364
sbs(I11
I2
tp27
g1
(g10
g3
NtRp28
(dp29
g13
F-7.7881403135443072
sg14
I11
sg15
I01
sg16
I2
sg17
I80
sbs(I7
I11
tp30
g1
(g10
g3
NtRp31
(dp32
g13
F-6.4755657305839884
sg14
I7
sg15
I01
sg16
I11
sg17
I123
sbs(I1
I15
tp33
g1
(g10
g3
NtRp34
(dp35
g13
F-23.542196662153202
sg14
I1
sg15
I01
sg16
I15
sg17
I146
sbs(I23
I3
tp36
g1
(g10
g3
NtRp37
(dp38
g13
F-13.451873468156391
sg14
I23
sg15
I01
sg16
I3
sg17
I246
sbs(I6
I2
tp39
g1
(g10
g3
NtRp40
(dp41
g13
F22.089136730692911
sg14
I6
sg15
I01
sg16
I2
sg17
I21
sbs(I22
I6
tp42
g1
(g10
g3
NtRp43
(dp44
g13
F4.9410493731727696
sg14
I22
sg15
I01
sg16
I6
sg17
I267
sbs(I16
I14
tp45
g1
(g10
g3
NtRp46
(dp47
g13
F-28.02659239744392
sg14
I16
sg15
I01
sg16
I14
sg17
I193
sbs(I5
I8
tp48
g1
(g10
g3
NtRp49
(dp50
g13
F-0.82316202651838188
sg14
I5
sg15
I00
sg16
I8
sg17
I42
sbs(I20
I22
tp51
g1
(g10
g3
NtRp52
(dp53
g13
F12.597010175449068
sg14
I20
sg15
I01
sg16
I22
sg17
I266
sbs(I1
I2
tp54
g1
(g10
g3
NtRp55
(dp56
g13
F21.813461962206262
sg14
I1
sg15
I01
sg16
I2
sg17
I1
sbs(I12
I2
tp57
g1
(g10
g3
NtRp58
(dp59
g13
F27.257053684947078
sg14
I12
sg15
I01
sg16
I2
sg17
I82
sbs(I2
I19
tp60
g1
(g10
g3
NtRp61
(dp62
g13
F2.1275264140178969
sg14
I2
sg15
I01
sg16
I19
sg17
I210
sbs(I3
I3
tp63
g1
(g10
g3
NtRp64
(dp65
g13
F-23.416614757865371
sg14
I3
sg15
I01
sg16
I3
sg17
I15
sbs(I2
I9
tp66
g1
(g10
g3
NtRp67
(dp68
g13
F21.207286912290119
sg14
I2
sg15
I01
sg16
I9
sg17
I53
sbs(I13
I3
tp69
g1
(g10
g3
NtRp70
(dp71
g13
F8.3807095781501548
sg14
I13
sg15
I00
sg16
I3
sg17
I92
sbs(I8
I10
tp72
g1
(g10
g3
NtRp73
(dp74
g13
F22.76036463776936
sg14
I8
sg15
I01
sg16
I10
sg17
I74
sbs(I21
I8
tp75
g1
(g10
g3
NtRp76
(dp77
g13
F-0.47755822495140343
sg14
I21
sg15
I01
sg16
I8
sg17
I250
sbs(I4
I13
tp78
g1
(g10
g3
NtRp79
(dp80
g13
F-4.1471995393821066
sg14
I4
sg15
I01
sg16
I13
sg17
I102
sbs(I1
I5
tp81
g1
(g10
g3
NtRp82
(dp83
g13
F0.15769570631550978
sg14
I1
sg15
I01
sg16
I5
sg17
I11
sbs(I9
I11
tp84
g1
(g10
g3
NtRp85
(dp86
g13
F19.197754036375596
sg14
I9
sg15
I01
sg16
I11
sg17
I101
sbs(I19
I3
tp87
g1
(g10
g3
NtRp88
(dp89
g13
F19.334042983164888
sg14
I19
sg15
I01
sg16
I3
sg17
I212
sbs(I2
I2
tp90
g1
(g10
g3
NtRp91
(dp92
g13
F-3.5935721671464202
sg14
I2
sg15
I01
sg16
I2
sg17
I2
sbs(I12
I10
tp93
g1
(g10
g3
NtRp94
(dp95
g13
F16.170646174792029
sg14
I12
sg15
I01
sg16
I10
sg17
I105
sbs(I8
I16
tp96
g1
(g10
g3
NtRp97
(dp98
g13
F-14.385391565700873
sg14
I8
sg15
I00
sg16
I16
sg17
I177
sbs(I12
I3
tp99
g1
(g10
g3
NtRp100
(dp101
g13
F15.811694257066865
sg14
I12
sg15
I01
sg16
I3
sg17
I86
sbs(I20
I6
tp102
g1
(g10
g3
NtRp103
(dp104
g13
F-14.351413752220104
sg14
I20
sg15
I00
sg16
I6
sg17
I221
sbs(I8
I25
tp105
g1
(g10
g3
NtRp106
(dp107
g13
F5.2983818753285012
sg14
I8
sg15
I01
sg16
I25
sg17
I339
sbs(I3
I2
tp108
g1
(g10
g3
NtRp109
(dp110
g13
F-30
sg14
I3
sg15
I01
sg16
I2
sg17
I4
sbs(I2
I6
tp111
g1
(g10
g3
NtRp112
(dp113
g13
F-15.383680356125021
sg14
I2
sg15
I00
sg16
I6
sg17
I38
sbs(I8
I2
tp114
g1
(g10
g3
NtRp115
(dp116
g13
F-20.392312094084417
sg14
I8
sg15
I01
sg16
I2
sg17
I43
sbs(I5
I11
tp117
g1
(g10
g3
NtRp118
(dp119
g13
F-12.521121137061893
sg14
I5
sg15
I01
sg16
I11
sg17
I79
sbs(I15
I3
tp120
g1
(g10
g3
NtRp121
(dp122
g13
F-1.0429404052651607
sg14
I15
sg15
I01
sg16
I3
sg17
I147
sbs(I9
I3
tp123
g1
(g10
g3
NtRp124
(dp125
g13
F-19.119374668745291
sg14
I9
sg15
I01
sg16
I3
sg17
I60
sbs(I2
I20
tp126
g1
(g10
g3
NtRp127
(dp128
g13
F9.280578963465798
sg14
I2
sg15
I01
sg16
I20
sg17
I220
sbs(I1
I4
tp129
g1
(g10
g3
NtRp130
(dp131
g13
F-19.338597707395984
sg14
I1
sg15
I00
sg16
I4
sg17
I6
sbs(I9
I10
tp132
g1
(g10
g3
NtRp133
(dp134
g13
F-9.8627057577120532
sg14
I9
sg15
I01
sg16
I10
sg17
I90
sbs(I7
I5
tp135
g1
(g10
g3
NtRp136
(dp137
g13
F17.813686849391118
sg14
I7
sg15
I01
sg16
I5
sg17
I30
sbs(I2
I3
tp138
g1
(g10
g3
NtRp139
(dp140
g13
F23.903514992186363
sg14
I2
sg15
I00
sg16
I3
sg17
I5
sbs(I1
I9
tp141
g1
(g10
g3
NtRp142
(dp143
g13
F30
sg14
I1
sg15
I01
sg16
I9
sg17
I58
sbs(I26
I4
tp144
g1
(g10
g3
NtRp145
(dp146
g13
F-20.38335197697608
sg14
I26
sg15
I01
sg16
I4
sg17
I365
sbs(I13
I9
tp147
g1
(g10
g3
NtRp148
(dp149
g13
F0.096407238245713955
sg14
I13
sg15
I01
sg16
I9
sg17
I112
sbs(I8
I17
tp150
g1
(g10
g3
NtRp151
(dp152
g13
F17.133154014287047
sg14
I8
sg15
I01
sg16
I17
sg17
I205
sbs(I4
I2
tp153
g1
(g10
g3
NtRp154
(dp155
g13
F-12.320686522744047
sg14
I4
sg15
I01
sg16
I2
sg17
I7
sbs(I14
I2
tp156
g1
(g10
g3
NtRp157
(dp158
g13
F4.3231922929862536
sg14
I14
sg15
I01
sg16
I2
sg17
I138
sbs(I3
I5
tp159
g1
(g10
g3
NtRp160
(dp161
g13
F30
sg14
I3
sg15
I01
sg16
I5
sg17
I14
sbs(I10
I5
tp162
g1
(g10
g3
NtRp163
(dp164
g13
F-2.6506055442368921
sg14
I10
sg15
I01
sg16
I5
sg17
I76
sbs(I13
I23
tp165
g1
(g10
g3
NtRp166
(dp167
g13
F12.13454648956017
sg14
I13
sg15
I01
sg16
I23
sg17
I287
sbs(I4
I6
tp168
g1
(g10
g3
NtRp169
(dp170
g13
F-11.412496669131178
sg14
I4
sg15
I01
sg16
I6
sg17
I22
sbs(I15
I2
tp171
g1
(g10
g3
NtRp172
(dp173
g13
F-1.8655602895210011
sg14
I15
sg15
I01
sg16
I2
sg17
I170
sbs(I8
I12
tp174
g1
(g10
g3
NtRp175
(dp176
g13
F5.1259518026199107
sg14
I8
sg15
I01
sg16
I12
sg17
I88
sbs(I18
I10
tp177
g1
(g10
g3
NtRp178
(dp179
g13
F18.871569075053937
sg14
I18
sg15
I01
sg16
I10
sg17
I209
sbs(I20
I24
tp180
g1
(g10
g3
NtRp181
(dp182
g13
F0.2208637413513026
sg14
I20
sg15
I01
sg16
I24
sg17
I330
sbs(I11
I3
tp183
g1
(g10
g3
NtRp184
(dp185
g13
F-6.6168525450325291
sg14
I11
sg15
I01
sg16
I3
sg17
I78
sbs(I24
I6
tp186
g1
(g10
g3
NtRp187
(dp188
g13
F-14.074535513255299
sg14
I24
sg15
I01
sg16
I6
sg17
I328
sbs(I3
I8
tp189
g1
(g10
g3
NtRp190
(dp191
g13
F13.094784808470653
sg14
I3
sg15
I01
sg16
I8
sg17
I44
sbs(I8
I14
tp192
g1
(g10
g3
NtRp193
(dp194
g13
F5.2745208471244007
sg14
I8
sg15
I01
sg16
I14
sg17
I119
sbs(I8
I18
tp195
g1
(g10
g3
NtRp196
(dp197
g13
F-6.3148292807153679
sg14
I8
sg15
I01
sg16
I18
sg17
I208
sbs(I17
I12
tp198
g1
(g10
g3
NtRp199
(dp200
g13
F-10.174087198517913
sg14
I17
sg15
I01
sg16
I12
sg17
I207
sbs(I1
I7
tp201
g1
(g10
g3
NtRp202
(dp203
g13
F-13.008558587173619
sg14
I1
sg15
I01
sg16
I7
sg17
I29
sbs(I4
I3
tp204
g1
(g10
g3
NtRp205
(dp206
g13
F0.80152566612169807
sg14
I4
sg15
I01
sg16
I3
sg17
I10
sbs(I10
I2
tp207
g1
(g10
g3
NtRp208
(dp209
g13
F-18.498414110279018
sg14
I10
sg15
I01
sg16
I2
sg17
I65
sbs(I5
I2
tp210
g1
(g10
g3
NtRp211
(dp212
g13
F-14.542090019029219
sg14
I5
sg15
I01
sg16
I2
sg17
I9
sbs(I5
I21
tp213
g1
(g10
g3
NtRp214
(dp215
g13
F13.676042785272704
sg14
I5
sg15
I01
sg16
I21
sg17
I249
sbssS'_input_nodes'
p216
I1
sS'_output_nodes'
p217
I1
sS'_node_gene_type'
p218
cneat.genome
NodeGene
p219
sS'_conn_gene_type'
p220
g10
sS'fitness'
p221
F0.98731267246428911
sS'parent2_id'
p222
I8305
sS'_id'
p223
I8326
sS'parent1_id'
p224
I8305
sS'_node_genes'
p225
(lp226
g1
(g219
g3
NtRp227
(dp228
S'_bias'
p229
I0
sS'_type'
p230
S'INPUT'
p231
sg223
I1
sS'_response'
p232
F4.9242730000000003
sS'_activation_type'
p233
Nsbag1
(g219
g3
NtRp234
(dp235
g229
F-6.8847272056336672
sg230
S'OUTPUT'
p236
sg223
I2
sg232
F4.6878372910395045
sg233
S'tanh'
p237
sbag1
(g219
g3
NtRp238
(dp239
g229
F2.0919838864276437
sg230
S'HIDDEN'
p240
sg223
I3
sg232
F2.282537555128779
sg233
g237
sbag1
(g219
g3
NtRp241
(dp242
g229
F-1.906110015326218
sg230
g240
sg223
I4
sg232
F7.4691247032938755
sg233
g237
sbag1
(g219
g3
NtRp243
(dp244
g229
F6.5973887483890383
sg230
g240
sg223
I5
sg232
F8.1677967871342236
sg233
g237
sbag1
(g219
g3
NtRp245
(dp246
g229
F-2.1993572129204773
sg230
g240
sg223
I6
sg232
F5.7838959525656977
sg233
g237
sbag1
(g219
g3
NtRp247
(dp248
g229
F2.6408890430057457
sg230
g240
sg223
I7
sg232
F-1.2506337691799962
sg233
g237
sbag1
(g219
g3
NtRp249
(dp250
g229
F-3.6978764498876764
sg230
g240
sg223
I8
sg232
F9.3992953510725119
sg233
g237
sbag1
(g219
g3
NtRp251
(dp252
g229
F2.4857177365430925
sg230
g240
sg223
I9
sg232
F5.4274894466680195
sg233
g237
sbag1
(g219
g3
NtRp253
(dp254
g229
F2.1371223762413223
sg230
g240
sg223
I10
sg232
F8.2569323812253508
sg233
g237
sbag1
(g219
g3
NtRp255
(dp256
g229
F1.5919359335665924
sg230
g240
sg223
I11
sg232
F8.6082701075586456
sg233
g237
sbag1
(g219
g3
NtRp257
(dp258
g229
F1.428072981476699
sg230
g240
sg223
I12
sg232
F4.5079549271806529
sg233
g237
sbag1
(g219
g3
NtRp259
(dp260
g229
F-1.6270789373034928
sg230
g240
sg223
I13
sg232
F4.6196778316166336
sg233
g237
sbag1
(g219
g3
NtRp261
(dp262
g229
F3.4298391707647884
sg230
g240
sg223
I14
sg232
F4.9817778899878471
sg233
g237
sbag1
(g219
g3
NtRp263
(dp264
g229
F-3.1975152870899883
sg230
g240
sg223
I15
sg232
F4.4632868542713098
sg233
g237
sbag1
(g219
g3
NtRp265
(dp266
g229
F2.9708651571590767
sg230
g240
sg223
I16
sg232
F3.3064793175296385
sg233
g237
sbag1
(g219
g3
NtRp267
(dp268
g229
F3.3163681101594413
sg230
g240
sg223
I17
sg232
F7.6017219220175578
sg233
g237
sbag1
(g219
g3
NtRp269
(dp270
g229
F1.1182507420305487
sg230
g240
sg223
I18
sg232
F2.5275198062220143
sg233
g237
sbag1
(g219
g3
NtRp271
(dp272
g229
F2.3745268026973534
sg230
g240
sg223
I19
sg232
F0.25259317605705833
sg233
g237
sbag1
(g219
g3
NtRp273
(dp274
g229
F1.2112120556428683
sg230
g240
sg223
I20
sg232
F3.4883493851776062
sg233
g237
sbag1
(g219
g3
NtRp275
(dp276
g229
F-0.98770842416048676
sg230
g240
sg223
I21
sg232
F2.3644560307884563
sg233
g237
sbag1
(g219
g3
NtRp277
(dp278
g229
F1.9487852704655655
sg230
g240
sg223
I22
sg232
F4.5977408220026383
sg233
g237
sbag1
(g219
g3
NtRp279
(dp280
g229
F0.64005079392037545
sg230
g240
sg223
I23
sg232
F4.3398418237027281
sg233
g237
sbag1
(g219
g3
NtRp281
(dp282
g229
F1.6041535916918304
sg230
g240
sg223
I24
sg232
F4.5532104357978245
sg233
g237
sbag1
(g219
g3
NtRp283
(dp284
g229
F0.43225282820250455
sg230
g240
sg223
I25
sg232
F4.6128408684694531
sg233
g237
sbag1
(g219
g3
NtRp285
(dp286
g229
F-1.6200104888684614
sg230
g240
sg223
I26
sg232
F4.9242730000000003
sg233
g237
sbasb.