ccopy_reg
_reconstructor
p1
(cneat.chromosome
Chromosome
p2
c__builtin__
object
p3
NtRp4
(dp5
S'species_id'
p6
I31
sS'_connection_genes'
p7
(dp8
(I1
I3
tp9
g1
(cneat.genome
ConnectionGene
p10
g3
NtRp11
(dp12
S'_ConnectionGene__weight'
p13
F-5.0295727786489017
sS'_ConnectionGene__in'
p14
I1
sS'_ConnectionGene__enabled'
p15
I01
sS'_ConnectionGene__out'
p16
I3
sS'_ConnectionGene__innov_number'
p17
I3
sbs(I6
I6
tp18
g1
(g10
g3
NtRp19
(dp20
g13
F19.780354777567013
sg14
I6
sg15
I01
sg16
I6
sg17
I39
sbs(I11
I2
tp21
g1
(g10
g3
NtRp22
(dp23
g13
F-0.26846000599960496
sg14
I11
sg15
I01
sg16
I2
sg17
I80
sbs(I1
I15
tp24
g1
(g10
g3
NtRp25
(dp26
g13
F-9.7257315442456544
sg14
I1
sg15
I01
sg16
I15
sg17
I146
sbs(I6
I2
tp27
g1
(g10
g3
NtRp28
(dp29
g13
F30
sg14
I6
sg15
I01
sg16
I2
sg17
I21
sbs(I16
I14
tp30
g1
(g10
g3
NtRp31
(dp32
g13
F-14.91140267025353
sg14
I16
sg15
I01
sg16
I14
sg17
I193
sbs(I5
I8
tp33
g1
(g10
g3
NtRp34
(dp35
g13
F6.1346458650038942
sg14
I5
sg15
I01
sg16
I8
sg17
I42
sbs(I1
I2
tp36
g1
(g10
g3
NtRp37
(dp38
g13
F-20.523391892986382
sg14
I1
sg15
I01
sg16
I2
sg17
I1
sbs(I12
I2
tp39
g1
(g10
g3
NtRp40
(dp41
g13
F3.2563476349058313
sg14
I12
sg15
I01
sg16
I2
sg17
I82
sbs(I3
I3
tp42
g1
(g10
g3
NtRp43
(dp44
g13
F-7.9858706681622831
sg14
I3
sg15
I01
sg16
I3
sg17
I15
sbs(I2
I9
tp45
g1
(g10
g3
NtRp46
(dp47
g13
F19.034047393855559
sg14
I2
sg15
I01
sg16
I9
sg17
I53
sbs(I13
I3
tp48
g1
(g10
g3
NtRp49
(dp50
g13
F9.6415312156567516
sg14
I13
sg15
I01
sg16
I3
sg17
I92
sbs(I8
I10
tp51
g1
(g10
g3
NtRp52
(dp53
g13
F26.19879879268353
sg14
I8
sg15
I01
sg16
I10
sg17
I74
sbs(I4
I13
tp54
g1
(g10
g3
NtRp55
(dp56
g13
F-4.6282328886929314
sg14
I4
sg15
I01
sg16
I13
sg17
I102
sbs(I1
I5
tp57
g1
(g10
g3
NtRp58
(dp59
g13
F-12.575389046599119
sg14
I1
sg15
I00
sg16
I5
sg17
I11
sbs(I9
I11
tp60
g1
(g10
g3
NtRp61
(dp62
g13
F-1.0370462333172221
sg14
I9
sg15
I01
sg16
I11
sg17
I101
sbs(I2
I2
tp63
g1
(g10
g3
NtRp64
(dp65
g13
F9.1274550180317071
sg14
I2
sg15
I01
sg16
I2
sg17
I2
sbs(I8
I16
tp66
g1
(g10
g3
NtRp67
(dp68
g13
F0.6646311589219327
sg14
I8
sg15
I01
sg16
I16
sg17
I177
sbs(I3
I2
tp69
g1
(g10
g3
NtRp70
(dp71
g13
F-22.864931083660196
sg14
I3
sg15
I01
sg16
I2
sg17
I4
sbs(I2
I6
tp72
g1
(g10
g3
NtRp73
(dp74
g13
F0.03413774783028134
sg14
I2
sg15
I01
sg16
I6
sg17
I38
sbs(I8
I2
tp75
g1
(g10
g3
NtRp76
(dp77
g13
F-18.278124502874466
sg14
I8
sg15
I01
sg16
I2
sg17
I43
sbs(I5
I11
tp78
g1
(g10
g3
NtRp79
(dp80
g13
F0.055671277701814681
sg14
I5
sg15
I01
sg16
I11
sg17
I79
sbs(I15
I3
tp81
g1
(g10
g3
NtRp82
(dp83
g13
F2.2809152422613321
sg14
I15
sg15
I00
sg16
I3
sg17
I147
sbs(I9
I3
tp84
g1
(g10
g3
NtRp85
(dp86
g13
F-11.644078986943331
sg14
I9
sg15
I01
sg16
I3
sg17
I60
sbs(I1
I4
tp87
g1
(g10
g3
NtRp88
(dp89
g13
F-24.223005724433502
sg14
I1
sg15
I01
sg16
I4
sg17
I6
sbs(I9
I10
tp90
g1
(g10
g3
NtRp91
(dp92
g13
F-21.693635452137901
sg14
I9
sg15
I01
sg16
I10
sg17
I90
sbs(I7
I5
tp93
g1
(g10
g3
NtRp94
(dp95
g13
F-9.4809861496309686
sg14
I7
sg15
I01
sg16
I5
sg17
I30
sbs(I2
I3
tp96
g1
(g10
g3
NtRp97
(dp98
g13
F2.1404475233003417
sg14
I2
sg15
I01
sg16
I3
sg17
I5
sbs(I1
I9
tp99
g1
(g10
g3
NtRp100
(dp101
g13
F3.066614495209194
sg14
I1
sg15
I01
sg16
I9
sg17
I58
sbs(I4
I2
tp102
g1
(g10
g3
NtRp103
(dp104
g13
F-11.581613725706527
sg14
I4
sg15
I01
sg16
I2
sg17
I7
sbs(I14
I2
tp105
g1
(g10
g3
NtRp106
(dp107
g13
F-3.5218329882570982
sg14
I14
sg15
I01
sg16
I2
sg17
I138
sbs(I3
I5
tp108
g1
(g10
g3
NtRp109
(dp110
g13
F4.600221886984218
sg14
I3
sg15
I01
sg16
I5
sg17
I14
sbs(I10
I5
tp111
g1
(g10
g3
NtRp112
(dp113
g13
F-5.0172015458309138
sg14
I10
sg15
I01
sg16
I5
sg17
I76
sbs(I4
I6
tp114
g1
(g10
g3
NtRp115
(dp116
g13
F-11.805615458883615
sg14
I4
sg15
I01
sg16
I6
sg17
I22
sbs(I15
I2
tp117
g1
(g10
g3
NtRp118
(dp119
g13
F1.0457812300765339
sg14
I15
sg15
I01
sg16
I2
sg17
I170
sbs(I8
I12
tp120
g1
(g10
g3
NtRp121
(dp122
g13
F-4.2914881505119569
sg14
I8
sg15
I01
sg16
I12
sg17
I88
sbs(I11
I3
tp123
g1
(g10
g3
NtRp124
(dp125
g13
F-14.152372942703103
sg14
I11
sg15
I01
sg16
I3
sg17
I78
sbs(I3
I8
tp126
g1
(g10
g3
NtRp127
(dp128
g13
F18.504418331197524
sg14
I3
sg15
I01
sg16
I8
sg17
I44
sbs(I8
I14
tp129
g1
(g10
g3
NtRp130
(dp131
g13
F0.23193971706653482
sg14
I8
sg15
I00
sg16
I14
sg17
I119
sbs(I4
I3
tp132
g1
(g10
g3
NtRp133
(dp134
g13
F16.444459729563107
sg14
I4
sg15
I00
sg16
I3
sg17
I10
sbs(I1
I7
tp135
g1
(g10
g3
NtRp136
(dp137
g13
F12.130283158749448
sg14
I1
sg15
I01
sg16
I7
sg17
I29
sbs(I5
I2
tp138
g1
(g10
g3
NtRp139
(dp140
g13
F6.6973605112469867
sg14
I5
sg15
I01
sg16
I2
sg17
I9
sbs(I10
I2
tp141
g1
(g10
g3
NtRp142
(dp143
g13
F-11.579750495009257
sg14
I10
sg15
I01
sg16
I2
sg17
I65
sbssS'_input_nodes'
p144
I1
sS'_output_nodes'
p145
I1
sS'_node_gene_type'
p146
cneat.genome
NodeGene
p147
sS'_conn_gene_type'
p148
g10
sS'fitness'
p149
F0.96759636301633456
sS'parent2_id'
p150
I5537
sS'_id'
p151
I5551
sS'parent1_id'
p152
I5527
sS'_node_genes'
p153
(lp154
g1
(g147
g3
NtRp155
(dp156
S'_bias'
p157
I0
sS'_type'
p158
S'INPUT'
p159
sg151
I1
sS'_response'
p160
F4.9242730000000003
sS'_activation_type'
p161
Nsbag1
(g147
g3
NtRp162
(dp163
g157
F-6.4171819358478057
sg158
S'OUTPUT'
p164
sg151
I2
sg160
F3.994317525988369
sg161
S'tanh'
p165
sbag1
(g147
g3
NtRp166
(dp167
g157
F2.5563923212430426
sg158
S'HIDDEN'
p168
sg151
I3
sg160
F5.4323226961703046
sg161
g165
sbag1
(g147
g3
NtRp169
(dp170
g157
F-4.5968978796189433
sg158
g168
sg151
I4
sg160
F7.0660040825989272
sg161
g165
sbag1
(g147
g3
NtRp171
(dp172
g157
F3.5178191865744832
sg158
g168
sg151
I5
sg160
F12.311223744900753
sg161
g165
sbag1
(g147
g3
NtRp173
(dp174
g157
F1.168515813535113
sg158
g168
sg151
I6
sg160
F6.1315922711982696
sg161
g165
sbag1
(g147
g3
NtRp175
(dp176
g157
F-2.5542894413310577
sg158
g168
sg151
I7
sg160
F0.62111290189918478
sg161
g165
sbag1
(g147
g3
NtRp177
(dp178
g157
F-1.5142164414213899
sg158
g168
sg151
I8
sg160
F11.673837411175823
sg161
g165
sbag1
(g147
g3
NtRp179
(dp180
g157
F-1.2012765529744771
sg158
g168
sg151
I9
sg160
F7.8772490732935223
sg161
g165
sbag1
(g147
g3
NtRp181
(dp182
g157
F0.0072673235991820295
sg158
g168
sg151
I10
sg160
F7.4174091491952501
sg161
g165
sbag1
(g147
g3
NtRp183
(dp184
g157
F0.60470492348819715
sg158
g168
sg151
I11
sg160
F8.7956577176504389
sg161
g165
sbag1
(g147
g3
NtRp185
(dp186
g157
F1.0553520117445274
sg158
g168
sg151
I12
sg160
F4.3334816766289137
sg161
g165
sbag1
(g147
g3
NtRp187
(dp188
g157
F-1.192813816305212
sg158
g168
sg151
I13
sg160
F4.4261278682643601
sg161
g165
sbag1
(g147
g3
NtRp189
(dp190
g157
F3.830713501029174
sg158
g168
sg151
I14
sg160
F4.7775467265746618
sg161
g165
sbag1
(g147
g3
NtRp191
(dp192
g157
F-1.1506558326932677
sg158
g168
sg151
I15
sg160
F5.8275234264837383
sg161
g165
sbag1
(g147
g3
NtRp193
(dp194
g157
F0.43258298128314798
sg158
g168
sg151
I16
sg160
F4.0322192765916629
sg161
g165
sbasb.