ccopy_reg
_reconstructor
p1
(cneat.chromosome
Chromosome
p2
c__builtin__
object
p3
NtRp4
(dp5
S'species_id'
p6
I9
sS'_connection_genes'
p7
(dp8
(I1
I2
tp9
g1
(cneat.genome
ConnectionGene
p10
g3
NtRp11
(dp12
S'_ConnectionGene__weight'
p13
F-18.896571452773465
sS'_ConnectionGene__in'
p14
I1
sS'_ConnectionGene__enabled'
p15
I01
sS'_ConnectionGene__out'
p16
I2
sS'_ConnectionGene__innov_number'
p17
I1
sbs(I3
I2
tp18
g1
(g10
g3
NtRp19
(dp20
g13
F-7.136396229728474
sg14
I3
sg15
I01
sg16
I2
sg17
I4
sbs(I4
I6
tp21
g1
(g10
g3
NtRp22
(dp23
g13
F-0.3683724987766312
sg14
I4
sg15
I01
sg16
I6
sg17
I22
sbs(I5
I6
tp24
g1
(g10
g3
NtRp25
(dp26
g13
F-1.0718083909549727
sg14
I5
sg15
I01
sg16
I6
sg17
I20
sbs(I4
I7
tp27
g1
(g10
g3
NtRp28
(dp29
g13
F-1.7093305151036693
sg14
I4
sg15
I01
sg16
I7
sg17
I33
sbs(I1
I4
tp30
g1
(g10
g3
NtRp31
(dp32
g13
F4.5438769634870004
sg14
I1
sg15
I01
sg16
I4
sg17
I6
sbs(I6
I3
tp33
g1
(g10
g3
NtRp34
(dp35
g13
F-8.3677551483347923
sg14
I6
sg15
I01
sg16
I3
sg17
I23
sbs(I1
I5
tp36
g1
(g10
g3
NtRp37
(dp38
g13
F10.231542367154111
sg14
I1
sg15
I01
sg16
I5
sg17
I11
sbs(I6
I2
tp39
g1
(g10
g3
NtRp40
(dp41
g13
F11.990708768685254
sg14
I6
sg15
I01
sg16
I2
sg17
I21
sbs(I2
I3
tp42
g1
(g10
g3
NtRp43
(dp44
g13
F-0.65202248596579926
sg14
I2
sg15
I01
sg16
I3
sg17
I5
sbs(I4
I3
tp45
g1
(g10
g3
NtRp46
(dp47
g13
F4.0622569240094863
sg14
I4
sg15
I01
sg16
I3
sg17
I10
sbs(I2
I2
tp48
g1
(g10
g3
NtRp49
(dp50
g13
F14.403169354923833
sg14
I2
sg15
I00
sg16
I2
sg17
I2
sbs(I4
I2
tp51
g1
(g10
g3
NtRp52
(dp53
g13
F7.8799894183455459
sg14
I4
sg15
I00
sg16
I2
sg17
I7
sbs(I2
I5
tp54
g1
(g10
g3
NtRp55
(dp56
g13
F-1.5028477659531565
sg14
I2
sg15
I01
sg16
I5
sg17
I18
sbs(I5
I2
tp57
g1
(g10
g3
NtRp58
(dp59
g13
F-7.1888800246697606
sg14
I5
sg15
I01
sg16
I2
sg17
I9
sbs(I7
I2
tp60
g1
(g10
g3
NtRp61
(dp62
g13
F10.549984401043586
sg14
I7
sg15
I01
sg16
I2
sg17
I35
sbssS'_input_nodes'
p63
I1
sS'_output_nodes'
p64
I1
sS'_node_gene_type'
p65
cneat.genome
NodeGene
p66
sS'_conn_gene_type'
p67
g10
sS'fitness'
p68
F0.97775925385133189
sS'parent2_id'
p69
I2221
sS'_id'
p70
I2242
sS'parent1_id'
p71
I2221
sS'_node_genes'
p72
(lp73
g1
(g66
g3
NtRp74
(dp75
S'_bias'
p76
I0
sS'_type'
p77
S'INPUT'
p78
sg70
I1
sS'_response'
p79
F4.9242730000000003
sS'_activation_type'
p80
Nsbag1
(g66
g3
NtRp81
(dp82
g76
F-3.6331151763377609
sg77
S'OUTPUT'
p83
sg70
I2
sg79
F4.7678116457273525
sg80
S'tanh'
p84
sbag1
(g66
g3
NtRp85
(dp86
g76
F-0.38673147112418249
sg77
S'HIDDEN'
p87
sg70
I3
sg79
F5.2126124234317563
sg80
g84
sbag1
(g66
g3
NtRp88
(dp89
g76
F-1.7970799269502478
sg77
g87
sg70
I4
sg79
F4.5117780934691316
sg80
g84
sbag1
(g66
g3
NtRp90
(dp91
g76
F2.0586763256654033
sg77
g87
sg70
I5
sg79
F8.7423223237566727
sg80
g84
sbag1
(g66
g3
NtRp92
(dp93
g76
F-1.4372692915921039
sg77
g87
sg70
I6
sg79
F6.3203976184286379
sg80
g84
sbag1
(g66
g3
NtRp94
(dp95
g76
F-0.77024133377373538
sg77
g87
sg70
I7
sg79
F4.2545624308075514
sg80
g84
sbasb.