ccopy_reg
_reconstructor
p1
(cneat.chromosome
Chromosome
p2
c__builtin__
object
p3
NtRp4
(dp5
S'species_id'
p6
I31
sS'_connection_genes'
p7
(dp8
(I1
I3
tp9
g1
(cneat.genome
ConnectionGene
p10
g3
NtRp11
(dp12
S'_ConnectionGene__weight'
p13
F-10.367998811183121
sS'_ConnectionGene__in'
p14
I1
sS'_ConnectionGene__enabled'
p15
I01
sS'_ConnectionGene__out'
p16
I3
sS'_ConnectionGene__innov_number'
p17
I3
sbs(I6
I6
tp18
g1
(g10
g3
NtRp19
(dp20
g13
F21.461349396137472
sg14
I6
sg15
I01
sg16
I6
sg17
I39
sbs(I11
I2
tp21
g1
(g10
g3
NtRp22
(dp23
g13
F-1.875299719723829
sg14
I11
sg15
I01
sg16
I2
sg17
I80
sbs(I1
I15
tp24
g1
(g10
g3
NtRp25
(dp26
g13
F-0.90901107897918321
sg14
I1
sg15
I01
sg16
I15
sg17
I146
sbs(I6
I2
tp27
g1
(g10
g3
NtRp28
(dp29
g13
F28.497788569852624
sg14
I6
sg15
I01
sg16
I2
sg17
I21
sbs(I5
I8
tp30
g1
(g10
g3
NtRp31
(dp32
g13
F10.170816662146082
sg14
I5
sg15
I01
sg16
I8
sg17
I42
sbs(I1
I2
tp33
g1
(g10
g3
NtRp34
(dp35
g13
F-17.152522819836587
sg14
I1
sg15
I01
sg16
I2
sg17
I1
sbs(I12
I2
tp36
g1
(g10
g3
NtRp37
(dp38
g13
F9.5874584785582204
sg14
I12
sg15
I01
sg16
I2
sg17
I82
sbs(I3
I3
tp39
g1
(g10
g3
NtRp40
(dp41
g13
F-6.7538997734917086
sg14
I3
sg15
I01
sg16
I3
sg17
I15
sbs(I2
I9
tp42
g1
(g10
g3
NtRp43
(dp44
g13
F17.723782575628331
sg14
I2
sg15
I01
sg16
I9
sg17
I53
sbs(I13
I3
tp45
g1
(g10
g3
NtRp46
(dp47
g13
F5.3801900030252243
sg14
I13
sg15
I01
sg16
I3
sg17
I92
sbs(I8
I10
tp48
g1
(g10
g3
NtRp49
(dp50
g13
F27.848595981173695
sg14
I8
sg15
I01
sg16
I10
sg17
I74
sbs(I4
I13
tp51
g1
(g10
g3
NtRp52
(dp53
g13
F-8.4682301584444755
sg14
I4
sg15
I01
sg16
I13
sg17
I102
sbs(I1
I5
tp54
g1
(g10
g3
NtRp55
(dp56
g13
F-10.700376152996693
sg14
I1
sg15
I00
sg16
I5
sg17
I11
sbs(I2
I2
tp57
g1
(g10
g3
NtRp58
(dp59
g13
F10.518140352239101
sg14
I2
sg15
I01
sg16
I2
sg17
I2
sbs(I3
I2
tp60
g1
(g10
g3
NtRp61
(dp62
g13
F-30
sg14
I3
sg15
I01
sg16
I2
sg17
I4
sbs(I2
I6
tp63
g1
(g10
g3
NtRp64
(dp65
g13
F7.8727764652039784
sg14
I2
sg15
I01
sg16
I6
sg17
I38
sbs(I8
I2
tp66
g1
(g10
g3
NtRp67
(dp68
g13
F-12.735652996154876
sg14
I8
sg15
I01
sg16
I2
sg17
I43
sbs(I5
I11
tp69
g1
(g10
g3
NtRp70
(dp71
g13
F-5.66103970763288
sg14
I5
sg15
I01
sg16
I11
sg17
I79
sbs(I15
I3
tp72
g1
(g10
g3
NtRp73
(dp74
g13
F-2.1523404676536257
sg14
I15
sg15
I01
sg16
I3
sg17
I147
sbs(I9
I3
tp75
g1
(g10
g3
NtRp76
(dp77
g13
F-14.85409903963787
sg14
I9
sg15
I01
sg16
I3
sg17
I60
sbs(I1
I4
tp78
g1
(g10
g3
NtRp79
(dp80
g13
F-30
sg14
I1
sg15
I01
sg16
I4
sg17
I6
sbs(I9
I10
tp81
g1
(g10
g3
NtRp82
(dp83
g13
F-19.855474061043633
sg14
I9
sg15
I01
sg16
I10
sg17
I90
sbs(I7
I5
tp84
g1
(g10
g3
NtRp85
(dp86
g13
F-6.099677880231047
sg14
I7
sg15
I01
sg16
I5
sg17
I30
sbs(I2
I3
tp87
g1
(g10
g3
NtRp88
(dp89
g13
F3.209977208312349
sg14
I2
sg15
I01
sg16
I3
sg17
I5
sbs(I1
I9
tp90
g1
(g10
g3
NtRp91
(dp92
g13
F9.3341386016972585
sg14
I1
sg15
I01
sg16
I9
sg17
I58
sbs(I4
I2
tp93
g1
(g10
g3
NtRp94
(dp95
g13
F-16.230489586611323
sg14
I4
sg15
I01
sg16
I2
sg17
I7
sbs(I14
I2
tp96
g1
(g10
g3
NtRp97
(dp98
g13
F-10.995977718111938
sg14
I14
sg15
I01
sg16
I2
sg17
I138
sbs(I3
I5
tp99
g1
(g10
g3
NtRp100
(dp101
g13
F-2.3527173178474388
sg14
I3
sg15
I01
sg16
I5
sg17
I14
sbs(I10
I5
tp102
g1
(g10
g3
NtRp103
(dp104
g13
F-3.0498104473450565
sg14
I10
sg15
I01
sg16
I5
sg17
I76
sbs(I4
I6
tp105
g1
(g10
g3
NtRp106
(dp107
g13
F-8.7614348112576508
sg14
I4
sg15
I01
sg16
I6
sg17
I22
sbs(I15
I2
tp108
g1
(g10
g3
NtRp109
(dp110
g13
F4.7379995961737293
sg14
I15
sg15
I01
sg16
I2
sg17
I170
sbs(I8
I12
tp111
g1
(g10
g3
NtRp112
(dp113
g13
F10.579612025282598
sg14
I8
sg15
I01
sg16
I12
sg17
I88
sbs(I11
I3
tp114
g1
(g10
g3
NtRp115
(dp116
g13
F-10.185096823207612
sg14
I11
sg15
I01
sg16
I3
sg17
I78
sbs(I3
I8
tp117
g1
(g10
g3
NtRp118
(dp119
g13
F13.603573352821412
sg14
I3
sg15
I01
sg16
I8
sg17
I44
sbs(I8
I14
tp120
g1
(g10
g3
NtRp121
(dp122
g13
F-5.2793259799021435
sg14
I8
sg15
I01
sg16
I14
sg17
I119
sbs(I4
I3
tp123
g1
(g10
g3
NtRp124
(dp125
g13
F14.187822011706583
sg14
I4
sg15
I00
sg16
I3
sg17
I10
sbs(I1
I7
tp126
g1
(g10
g3
NtRp127
(dp128
g13
F9.5065395136182769
sg14
I1
sg15
I01
sg16
I7
sg17
I29
sbs(I5
I2
tp129
g1
(g10
g3
NtRp130
(dp131
g13
F1.6067546196038771
sg14
I5
sg15
I01
sg16
I2
sg17
I9
sbs(I10
I2
tp132
g1
(g10
g3
NtRp133
(dp134
g13
F-13.838567845829861
sg14
I10
sg15
I01
sg16
I2
sg17
I65
sbssS'_input_nodes'
p135
I1
sS'_output_nodes'
p136
I1
sS'_node_gene_type'
p137
cneat.genome
NodeGene
p138
sS'_conn_gene_type'
p139
g10
sS'fitness'
p140
F0.96593028089937827
sS'parent2_id'
p141
I5239
sS'_id'
p142
I5271
sS'parent1_id'
p143
I5239
sS'_node_genes'
p144
(lp145
g1
(g138
g3
NtRp146
(dp147
S'_bias'
p148
I0
sS'_type'
p149
S'INPUT'
p150
sg142
I1
sS'_response'
p151
F4.9242730000000003
sS'_activation_type'
p152
Nsbag1
(g138
g3
NtRp153
(dp154
g148
F-6.4381845632175523
sg149
S'OUTPUT'
p155
sg142
I2
sg151
F3.5821849425770282
sg152
S'tanh'
p156
sbag1
(g138
g3
NtRp157
(dp158
g148
F1.2347156812496953
sg149
S'HIDDEN'
p159
sg142
I3
sg151
F5.5433989205326268
sg152
g156
sbag1
(g138
g3
NtRp160
(dp161
g148
F-3.4776143832440192
sg149
g159
sg142
I4
sg151
F8.5241891219960912
sg152
g156
sbag1
(g138
g3
NtRp162
(dp163
g148
F4.0037293655906501
sg149
g159
sg142
I5
sg151
F12.035013873548282
sg152
g156
sbag1
(g138
g3
NtRp164
(dp165
g148
F0.078943945310519639
sg149
g159
sg142
I6
sg151
F5.6265931860574376
sg152
g156
sbag1
(g138
g3
NtRp166
(dp167
g148
F-2.4883861151122102
sg149
g159
sg142
I7
sg151
F1.0412261481906642
sg152
g156
sbag1
(g138
g3
NtRp168
(dp169
g148
F-0.84512062575838565
sg149
g159
sg142
I8
sg151
F11.265591006448966
sg152
g156
sbag1
(g138
g3
NtRp170
(dp171
g148
F-1.2012765529744771
sg149
g159
sg142
I9
sg151
F7.6108775826528099
sg152
g156
sbag1
(g138
g3
NtRp172
(dp173
g148
F-0.85281683371110839
sg149
g159
sg142
I10
sg151
F6.8129819674659746
sg152
g156
sbag1
(g138
g3
NtRp174
(dp175
g148
F0.3132882943371631
sg149
g159
sg142
I11
sg151
F9.6744965723867455
sg152
g156
sbag1
(g138
g3
NtRp176
(dp177
g148
F1.2807251289003165
sg149
g159
sg142
I12
sg151
F4.7758507636354848
sg152
g156
sbag1
(g138
g3
NtRp178
(dp179
g148
F-2.3030386620176202
sg149
g159
sg142
I13
sg151
F4.3597373606583885
sg152
g156
sbag1
(g138
g3
NtRp180
(dp181
g148
F2.842938910599659
sg149
g159
sg142
I14
sg151
F3.7699499365767166
sg152
g156
sbag1
(g138
g3
NtRp182
(dp183
g148
F-2.1445120748144335
sg149
g159
sg142
I15
sg151
F5.556958807835974
sg152
g156
sbasb.