ccopy_reg
_reconstructor
p1
(cneat.chromosome
Chromosome
p2
c__builtin__
object
p3
NtRp4
(dp5
S'species_id'
p6
I10
sS'_connection_genes'
p7
(dp8
(I1
I2
tp9
g1
(cneat.genome
ConnectionGene
p10
g3
NtRp11
(dp12
S'_ConnectionGene__weight'
p13
F-20.532145159038706
sS'_ConnectionGene__in'
p14
I1
sS'_ConnectionGene__enabled'
p15
I01
sS'_ConnectionGene__out'
p16
I2
sS'_ConnectionGene__innov_number'
p17
I1
sbs(I3
I2
tp18
g1
(g10
g3
NtRp19
(dp20
g13
F-18.688081046823338
sg14
I3
sg15
I01
sg16
I2
sg17
I4
sbs(I2
I6
tp21
g1
(g10
g3
NtRp22
(dp23
g13
F0.7048031743795371
sg14
I2
sg15
I01
sg16
I6
sg17
I38
sbs(I4
I6
tp24
g1
(g10
g3
NtRp25
(dp26
g13
F20.249680741300274
sg14
I4
sg15
I01
sg16
I6
sg17
I22
sbs(I6
I6
tp27
g1
(g10
g3
NtRp28
(dp29
g13
F19.256605895664961
sg14
I6
sg15
I01
sg16
I6
sg17
I39
sbs(I1
I7
tp30
g1
(g10
g3
NtRp31
(dp32
g13
F9.1533462366865646
sg14
I1
sg15
I01
sg16
I7
sg17
I29
sbs(I1
I4
tp33
g1
(g10
g3
NtRp34
(dp35
g13
F-1.8102113655381418
sg14
I1
sg15
I01
sg16
I4
sg17
I6
sbs(I1
I5
tp36
g1
(g10
g3
NtRp37
(dp38
g13
F-3.0026759247959722
sg14
I1
sg15
I00
sg16
I5
sg17
I11
sbs(I7
I5
tp39
g1
(g10
g3
NtRp40
(dp41
g13
F2.3820172327306945
sg14
I7
sg15
I01
sg16
I5
sg17
I30
sbs(I2
I3
tp42
g1
(g10
g3
NtRp43
(dp44
g13
F-6.5169936544664298
sg14
I2
sg15
I01
sg16
I3
sg17
I5
sbs(I3
I3
tp45
g1
(g10
g3
NtRp46
(dp47
g13
F-6.0897563219650372
sg14
I3
sg15
I01
sg16
I3
sg17
I15
sbs(I4
I3
tp48
g1
(g10
g3
NtRp49
(dp50
g13
F5.4864699085415856
sg14
I4
sg15
I01
sg16
I3
sg17
I10
sbs(I2
I2
tp51
g1
(g10
g3
NtRp52
(dp53
g13
F6.8669344150296112
sg14
I2
sg15
I00
sg16
I2
sg17
I2
sbs(I6
I2
tp54
g1
(g10
g3
NtRp55
(dp56
g13
F5.076201849297421
sg14
I6
sg15
I01
sg16
I2
sg17
I21
sbs(I4
I2
tp57
g1
(g10
g3
NtRp58
(dp59
g13
F-8.6507167789616215
sg14
I4
sg15
I00
sg16
I2
sg17
I7
sbs(I5
I2
tp60
g1
(g10
g3
NtRp61
(dp62
g13
F-18.227959005467387
sg14
I5
sg15
I00
sg16
I2
sg17
I9
sbs(I8
I2
tp63
g1
(g10
g3
NtRp64
(dp65
g13
F-14.865191443597727
sg14
I8
sg15
I01
sg16
I2
sg17
I43
sbs(I5
I8
tp66
g1
(g10
g3
NtRp67
(dp68
g13
F-9.0414680685673385
sg14
I5
sg15
I01
sg16
I8
sg17
I42
sbs(I3
I5
tp69
g1
(g10
g3
NtRp70
(dp71
g13
F-5.1280055808898766
sg14
I3
sg15
I01
sg16
I5
sg17
I14
sbssS'_input_nodes'
p72
I1
sS'_output_nodes'
p73
I1
sS'_node_gene_type'
p74
cneat.genome
NodeGene
p75
sS'_conn_gene_type'
p76
g10
sS'fitness'
p77
F0.99134799306712218
sS'parent2_id'
p78
I2261
sS'_id'
p79
I2283
sS'parent1_id'
p80
I2264
sS'_node_genes'
p81
(lp82
g1
(g75
g3
NtRp83
(dp84
S'_bias'
p85
I0
sS'_type'
p86
S'INPUT'
p87
sg79
I1
sS'_response'
p88
F4.9242730000000003
sS'_activation_type'
p89
Nsbag1
(g75
g3
NtRp90
(dp91
g85
F-3.9337539365601426
sg86
S'OUTPUT'
p92
sg79
I2
sg88
F5.5467003845268223
sg89
S'tanh'
p93
sbag1
(g75
g3
NtRp94
(dp95
g85
F-1.0438587953371896
sg86
S'HIDDEN'
p96
sg79
I3
sg88
F3.8666827925001712
sg89
g93
sbag1
(g75
g3
NtRp97
(dp98
g85
F-0.28194752823953961
sg86
g96
sg79
I4
sg88
F5.5835314431748966
sg89
g93
sbag1
(g75
g3
NtRp99
(dp100
g85
F2.1760229422763735
sg86
g96
sg79
I5
sg88
F9.2866238067615541
sg89
g93
sbag1
(g75
g3
NtRp101
(dp102
g85
F1.1028361003788736
sg86
g96
sg79
I6
sg88
F7.3737101461306489
sg89
g93
sbag1
(g75
g3
NtRp103
(dp104
g85
F-1.4797672147107062
sg86
g96
sg79
I7
sg88
F4.6158998996657914
sg89
g93
sbag1
(g75
g3
NtRp105
(dp106
g85
F0.23196836556331019
sg86
g96
sg79
I8
sg88
F4.2058791808138265
sg89
g93
sbasb.