ccopy_reg
_reconstructor
p1
(cneat.chromosome
Chromosome
p2
c__builtin__
object
p3
NtRp4
(dp5
S'species_id'
p6
I46
sS'_connection_genes'
p7
(dp8
(I1
I21
tp9
g1
(cneat.genome
ConnectionGene
p10
g3
NtRp11
(dp12
S'_ConnectionGene__weight'
p13
F4.210314784283911
sS'_ConnectionGene__in'
p14
I1
sS'_ConnectionGene__enabled'
p15
I01
sS'_ConnectionGene__out'
p16
I21
sS'_ConnectionGene__innov_number'
p17
I222
sbs(I1
I3
tp18
g1
(g10
g3
NtRp19
(dp20
g13
F-16.242474361166199
sg14
I1
sg15
I00
sg16
I3
sg17
I3
sbs(I6
I6
tp21
g1
(g10
g3
NtRp22
(dp23
g13
F17.27618332627625
sg14
I6
sg15
I01
sg16
I6
sg17
I39
sbs(I11
I2
tp24
g1
(g10
g3
NtRp25
(dp26
g13
F8.6299507490341032
sg14
I11
sg15
I01
sg16
I2
sg17
I80
sbs(I1
I15
tp27
g1
(g10
g3
NtRp28
(dp29
g13
F-12.644957203322553
sg14
I1
sg15
I01
sg16
I15
sg17
I146
sbs(I6
I2
tp30
g1
(g10
g3
NtRp31
(dp32
g13
F22.856584185460363
sg14
I6
sg15
I01
sg16
I2
sg17
I21
sbs(I16
I14
tp33
g1
(g10
g3
NtRp34
(dp35
g13
F-10.474871074288204
sg14
I16
sg15
I01
sg16
I14
sg17
I193
sbs(I5
I8
tp36
g1
(g10
g3
NtRp37
(dp38
g13
F2.0918938370259066
sg14
I5
sg15
I01
sg16
I8
sg17
I42
sbs(I1
I2
tp39
g1
(g10
g3
NtRp40
(dp41
g13
F-25.046147107209929
sg14
I1
sg15
I01
sg16
I2
sg17
I1
sbs(I12
I2
tp42
g1
(g10
g3
NtRp43
(dp44
g13
F11.008117719875433
sg14
I12
sg15
I01
sg16
I2
sg17
I82
sbs(I2
I19
tp45
g1
(g10
g3
NtRp46
(dp47
g13
F11.927463189287717
sg14
I2
sg15
I01
sg16
I19
sg17
I210
sbs(I3
I3
tp48
g1
(g10
g3
NtRp49
(dp50
g13
F-3.3076634112782299
sg14
I3
sg15
I01
sg16
I3
sg17
I15
sbs(I2
I9
tp51
g1
(g10
g3
NtRp52
(dp53
g13
F17.215914007387468
sg14
I2
sg15
I01
sg16
I9
sg17
I53
sbs(I13
I3
tp54
g1
(g10
g3
NtRp55
(dp56
g13
F0.63050676169335318
sg14
I13
sg15
I01
sg16
I3
sg17
I92
sbs(I4
I3
tp57
g1
(g10
g3
NtRp58
(dp59
g13
F14.57601089160128
sg14
I4
sg15
I01
sg16
I3
sg17
I10
sbs(I8
I10
tp60
g1
(g10
g3
NtRp61
(dp62
g13
F25.071445357220483
sg14
I8
sg15
I00
sg16
I10
sg17
I74
sbs(I4
I13
tp63
g1
(g10
g3
NtRp64
(dp65
g13
F-30
sg14
I4
sg15
I01
sg16
I13
sg17
I102
sbs(I1
I5
tp66
g1
(g10
g3
NtRp67
(dp68
g13
F-17.430123636206289
sg14
I1
sg15
I01
sg16
I5
sg17
I11
sbs(I9
I11
tp69
g1
(g10
g3
NtRp70
(dp71
g13
F-4.3633335196719933
sg14
I9
sg15
I01
sg16
I11
sg17
I101
sbs(I19
I3
tp72
g1
(g10
g3
NtRp73
(dp74
g13
F-4.3392355797347815
sg14
I19
sg15
I01
sg16
I3
sg17
I212
sbs(I2
I2
tp75
g1
(g10
g3
NtRp76
(dp77
g13
F3.3631603401403898
sg14
I2
sg15
I01
sg16
I2
sg17
I2
sbs(I8
I16
tp78
g1
(g10
g3
NtRp79
(dp80
g13
F19.582035077378613
sg14
I8
sg15
I01
sg16
I16
sg17
I177
sbs(I20
I6
tp81
g1
(g10
g3
NtRp82
(dp83
g13
F-11.562546354848756
sg14
I20
sg15
I01
sg16
I6
sg17
I221
sbs(I3
I2
tp84
g1
(g10
g3
NtRp85
(dp86
g13
F-7.605530409765322
sg14
I3
sg15
I01
sg16
I2
sg17
I4
sbs(I2
I6
tp87
g1
(g10
g3
NtRp88
(dp89
g13
F-11.146099453260211
sg14
I2
sg15
I01
sg16
I6
sg17
I38
sbs(I8
I2
tp90
g1
(g10
g3
NtRp91
(dp92
g13
F-16.980293574966357
sg14
I8
sg15
I01
sg16
I2
sg17
I43
sbs(I5
I11
tp93
g1
(g10
g3
NtRp94
(dp95
g13
F-5.1437768239897323
sg14
I5
sg15
I01
sg16
I11
sg17
I79
sbs(I15
I3
tp96
g1
(g10
g3
NtRp97
(dp98
g13
F0.81088425986953006
sg14
I15
sg15
I01
sg16
I3
sg17
I147
sbs(I9
I3
tp99
g1
(g10
g3
NtRp100
(dp101
g13
F6.1083394754810083
sg14
I9
sg15
I01
sg16
I3
sg17
I60
sbs(I2
I20
tp102
g1
(g10
g3
NtRp103
(dp104
g13
F10.404576191883779
sg14
I2
sg15
I01
sg16
I20
sg17
I220
sbs(I1
I4
tp105
g1
(g10
g3
NtRp106
(dp107
g13
F-20.693674380185488
sg14
I1
sg15
I01
sg16
I4
sg17
I6
sbs(I9
I10
tp108
g1
(g10
g3
NtRp109
(dp110
g13
F-15.94275476567713
sg14
I9
sg15
I01
sg16
I10
sg17
I90
sbs(I7
I5
tp111
g1
(g10
g3
NtRp112
(dp113
g13
F-17.540469379648847
sg14
I7
sg15
I01
sg16
I5
sg17
I30
sbs(I2
I3
tp114
g1
(g10
g3
NtRp115
(dp116
g13
F12.355682252254109
sg14
I2
sg15
I00
sg16
I3
sg17
I5
sbs(I1
I9
tp117
g1
(g10
g3
NtRp118
(dp119
g13
F16.248988348255072
sg14
I1
sg15
I01
sg16
I9
sg17
I58
sbs(I8
I17
tp120
g1
(g10
g3
NtRp121
(dp122
g13
F6.9852063698661944
sg14
I8
sg15
I01
sg16
I17
sg17
I205
sbs(I4
I2
tp123
g1
(g10
g3
NtRp124
(dp125
g13
F-3.8096949785609886
sg14
I4
sg15
I01
sg16
I2
sg17
I7
sbs(I14
I2
tp126
g1
(g10
g3
NtRp127
(dp128
g13
F-22.544628402454613
sg14
I14
sg15
I01
sg16
I2
sg17
I138
sbs(I5
I3
tp129
g1
(g10
g3
NtRp130
(dp131
g13
F-2.1133611531646244
sg14
I5
sg15
I01
sg16
I3
sg17
I19
sbs(I3
I5
tp132
g1
(g10
g3
NtRp133
(dp134
g13
F26.670082022366056
sg14
I3
sg15
I01
sg16
I5
sg17
I14
sbs(I11
I7
tp135
g1
(g10
g3
NtRp136
(dp137
g13
F4.9329907750447788
sg14
I11
sg15
I01
sg16
I7
sg17
I168
sbs(I10
I5
tp138
g1
(g10
g3
NtRp139
(dp140
g13
F-1.4958817133488544
sg14
I10
sg15
I01
sg16
I5
sg17
I76
sbs(I4
I6
tp141
g1
(g10
g3
NtRp142
(dp143
g13
F-19.780811652788465
sg14
I4
sg15
I01
sg16
I6
sg17
I22
sbs(I15
I2
tp144
g1
(g10
g3
NtRp145
(dp146
g13
F12.284409638292576
sg14
I15
sg15
I01
sg16
I2
sg17
I170
sbs(I8
I12
tp147
g1
(g10
g3
NtRp148
(dp149
g13
F-2.9600472271569389
sg14
I8
sg15
I01
sg16
I12
sg17
I88
sbs(I19
I16
tp150
g1
(g10
g3
NtRp151
(dp152
g13
F-6.060005363110248
sg14
I19
sg15
I01
sg16
I16
sg17
I231
sbs(I22
I12
tp153
g1
(g10
g3
NtRp154
(dp155
g13
F3.7675959410946707
sg14
I22
sg15
I01
sg16
I12
sg17
I226
sbs(I18
I10
tp156
g1
(g10
g3
NtRp157
(dp158
g13
F26.899030436495917
sg14
I18
sg15
I01
sg16
I10
sg17
I209
sbs(I8
I22
tp159
g1
(g10
g3
NtRp160
(dp161
g13
F-2.3724887846360776
sg14
I8
sg15
I01
sg16
I22
sg17
I225
sbs(I11
I3
tp162
g1
(g10
g3
NtRp163
(dp164
g13
F-8.7877350490489476
sg14
I11
sg15
I01
sg16
I3
sg17
I78
sbs(I21
I3
tp165
g1
(g10
g3
NtRp166
(dp167
g13
F-16.4814229202068
sg14
I21
sg15
I01
sg16
I3
sg17
I224
sbs(I3
I8
tp168
g1
(g10
g3
NtRp169
(dp170
g13
F10.626149586256606
sg14
I3
sg15
I01
sg16
I8
sg17
I44
sbs(I8
I14
tp171
g1
(g10
g3
NtRp172
(dp173
g13
F1.9374213761729329
sg14
I8
sg15
I00
sg16
I14
sg17
I119
sbs(I8
I18
tp174
g1
(g10
g3
NtRp175
(dp176
g13
F5.9174833596979788
sg14
I8
sg15
I01
sg16
I18
sg17
I208
sbs(I17
I12
tp177
g1
(g10
g3
NtRp178
(dp179
g13
F-2.6171425098732346
sg14
I17
sg15
I01
sg16
I12
sg17
I207
sbs(I1
I7
tp180
g1
(g10
g3
NtRp181
(dp182
g13
F14.264737698937608
sg14
I1
sg15
I01
sg16
I7
sg17
I29
sbs(I13
I9
tp183
g1
(g10
g3
NtRp184
(dp185
g13
F-6.8755370600605712
sg14
I13
sg15
I01
sg16
I9
sg17
I112
sbs(I5
I2
tp186
g1
(g10
g3
NtRp187
(dp188
g13
F0.80590637018222744
sg14
I5
sg15
I01
sg16
I2
sg17
I9
sbs(I10
I2
tp189
g1
(g10
g3
NtRp190
(dp191
g13
F-13.621087270315487
sg14
I10
sg15
I01
sg16
I2
sg17
I65
sbssS'_input_nodes'
p192
I1
sS'_output_nodes'
p193
I1
sS'_node_gene_type'
p194
cneat.genome
NodeGene
p195
sS'_conn_gene_type'
p196
g10
sS'fitness'
p197
F0.91693608359816181
sS'parent2_id'
p198
I7047
sS'_id'
p199
I7078
sS'parent1_id'
p200
I7047
sS'_node_genes'
p201
(lp202
g1
(g195
g3
NtRp203
(dp204
S'_bias'
p205
I0
sS'_type'
p206
S'INPUT'
p207
sg199
I1
sS'_response'
p208
F4.9242730000000003
sS'_activation_type'
p209
Nsbag1
(g195
g3
NtRp210
(dp211
g205
F-6.6521202648521207
sg206
S'OUTPUT'
p212
sg199
I2
sg208
F4.5006259814329539
sg209
S'tanh'
p213
sbag1
(g195
g3
NtRp214
(dp215
g205
F-1.810203077715316
sg206
S'HIDDEN'
p216
sg199
I3
sg208
F3.0104057268051165
sg209
g213
sbag1
(g195
g3
NtRp217
(dp218
g205
F-4.508464135805391
sg206
g216
sg199
I4
sg208
F4.9811663059428195
sg209
g213
sbag1
(g195
g3
NtRp219
(dp220
g205
F1.3825876743612437
sg206
g216
sg199
I5
sg208
F12.807884880023122
sg209
g213
sbag1
(g195
g3
NtRp221
(dp222
g205
F1.769158755819543
sg206
g216
sg199
I6
sg208
F3.5714678341931947
sg209
g213
sbag1
(g195
g3
NtRp223
(dp224
g205
F-2.3907173027668076
sg206
g216
sg199
I7
sg208
F2.123907736149945
sg209
g213
sbag1
(g195
g3
NtRp225
(dp226
g205
F-1.0283688792136059
sg206
g216
sg199
I8
sg208
F12.717225607566904
sg209
g213
sbag1
(g195
g3
NtRp227
(dp228
g205
F-0.37550583597023768
sg206
g216
sg199
I9
sg208
F6.9798752354340472
sg209
g213
sbag1
(g195
g3
NtRp229
(dp230
g205
F-0.36510465143865217
sg206
g216
sg199
I10
sg208
F5.69454678160443
sg209
g213
sbag1
(g195
g3
NtRp231
(dp232
g205
F0.40272456775927035
sg206
g216
sg199
I11
sg208
F7.2156048039100389
sg209
g213
sbag1
(g195
g3
NtRp233
(dp234
g205
F3.3172776825950456
sg206
g216
sg199
I12
sg208
F6.2149485883017475
sg209
g213
sbag1
(g195
g3
NtRp235
(dp236
g205
F-0.76834257740623368
sg206
g216
sg199
I13
sg208
F1.6915102641976487
sg209
g213
sbag1
(g195
g3
NtRp237
(dp238
g205
F1.9391263498211124
sg206
g216
sg199
I14
sg208
F3.9288121310439799
sg209
g213
sbag1
(g195
g3
NtRp239
(dp240
g205
F-3.2752188455944755
sg206
g216
sg199
I15
sg208
F5.7179256761056694
sg209
g213
sbag1
(g195
g3
NtRp241
(dp242
g205
F-1.6001337669688076
sg206
g216
sg199
I16
sg208
F6.5890291737837865
sg209
g213
sbag1
(g195
g3
NtRp243
(dp244
g205
F-0.85474905017945957
sg206
g216
sg199
I17
sg208
F4.5582749133449285
sg209
g213
sbag1
(g195
g3
NtRp245
(dp246
g205
F1.585426497866733
sg206
g216
sg199
I18
sg208
F4.2575252221796278
sg209
g213
sbag1
(g195
g3
NtRp247
(dp248
g205
F1.1261981170845015
sg206
g216
sg199
I19
sg208
F2.565163594880147
sg209
g213
sbag1
(g195
g3
NtRp249
(dp250
g205
F0.43595774413388427
sg206
g216
sg199
I20
sg208
F6.2710867877348253
sg209
g213
sbag1
(g195
g3
NtRp251
(dp252
g205
F-0.2071440242156361
sg206
g216
sg199
I21
sg208
F5.6300504919096692
sg209
g213
sbag1
(g195
g3
NtRp253
(dp254
g205
F1.9752120494034762
sg206
g216
sg199
I22
sg208
F5.2538254602944869
sg209
g213
sbasb.