ccopy_reg
_reconstructor
p1
(cneat.chromosome
Chromosome
p2
c__builtin__
object
p3
NtRp4
(dp5
S'species_id'
p6
I30
sS'_connection_genes'
p7
(dp8
(I1
I3
tp9
g1
(cneat.genome
ConnectionGene
p10
g3
NtRp11
(dp12
S'_ConnectionGene__weight'
p13
F-8.3355263058494984
sS'_ConnectionGene__in'
p14
I1
sS'_ConnectionGene__enabled'
p15
I01
sS'_ConnectionGene__out'
p16
I3
sS'_ConnectionGene__innov_number'
p17
I3
sbs(I6
I6
tp18
g1
(g10
g3
NtRp19
(dp20
g13
F13.467800204632841
sg14
I6
sg15
I01
sg16
I6
sg17
I39
sbs(I11
I2
tp21
g1
(g10
g3
NtRp22
(dp23
g13
F-7.5544624585225373
sg14
I11
sg15
I01
sg16
I2
sg17
I80
sbs(I1
I15
tp24
g1
(g10
g3
NtRp25
(dp26
g13
F-0.1903739681554496
sg14
I1
sg15
I01
sg16
I15
sg17
I146
sbs(I6
I2
tp27
g1
(g10
g3
NtRp28
(dp29
g13
F22.743400045527675
sg14
I6
sg15
I01
sg16
I2
sg17
I21
sbs(I5
I8
tp30
g1
(g10
g3
NtRp31
(dp32
g13
F2.1586428779365985
sg14
I5
sg15
I01
sg16
I8
sg17
I42
sbs(I1
I2
tp33
g1
(g10
g3
NtRp34
(dp35
g13
F-22.71915174311275
sg14
I1
sg15
I01
sg16
I2
sg17
I1
sbs(I12
I2
tp36
g1
(g10
g3
NtRp37
(dp38
g13
F-0.95183347025066656
sg14
I12
sg15
I01
sg16
I2
sg17
I82
sbs(I3
I3
tp39
g1
(g10
g3
NtRp40
(dp41
g13
F-18.009546854611429
sg14
I3
sg15
I01
sg16
I3
sg17
I15
sbs(I2
I9
tp42
g1
(g10
g3
NtRp43
(dp44
g13
F11.360887317543252
sg14
I2
sg15
I01
sg16
I9
sg17
I53
sbs(I13
I3
tp45
g1
(g10
g3
NtRp46
(dp47
g13
F-1.9067063065564835
sg14
I13
sg15
I01
sg16
I3
sg17
I92
sbs(I8
I10
tp48
g1
(g10
g3
NtRp49
(dp50
g13
F26.457023769285165
sg14
I8
sg15
I01
sg16
I10
sg17
I74
sbs(I4
I13
tp51
g1
(g10
g3
NtRp52
(dp53
g13
F-5.544853383682474
sg14
I4
sg15
I01
sg16
I13
sg17
I102
sbs(I1
I5
tp54
g1
(g10
g3
NtRp55
(dp56
g13
F-2.5572114735834246
sg14
I1
sg15
I00
sg16
I5
sg17
I11
sbs(I2
I2
tp57
g1
(g10
g3
NtRp58
(dp59
g13
F20.53125233873935
sg14
I2
sg15
I01
sg16
I2
sg17
I2
sbs(I3
I2
tp60
g1
(g10
g3
NtRp61
(dp62
g13
F-30
sg14
I3
sg15
I01
sg16
I2
sg17
I4
sbs(I2
I6
tp63
g1
(g10
g3
NtRp64
(dp65
g13
F0.48920991135290681
sg14
I2
sg15
I01
sg16
I6
sg17
I38
sbs(I8
I2
tp66
g1
(g10
g3
NtRp67
(dp68
g13
F-21.613563462813854
sg14
I8
sg15
I01
sg16
I2
sg17
I43
sbs(I5
I11
tp69
g1
(g10
g3
NtRp70
(dp71
g13
F1.7228893822539582
sg14
I5
sg15
I01
sg16
I11
sg17
I79
sbs(I15
I3
tp72
g1
(g10
g3
NtRp73
(dp74
g13
F-6.9789823846879733
sg14
I15
sg15
I01
sg16
I3
sg17
I147
sbs(I9
I3
tp75
g1
(g10
g3
NtRp76
(dp77
g13
F-21.057518685205689
sg14
I9
sg15
I01
sg16
I3
sg17
I60
sbs(I1
I4
tp78
g1
(g10
g3
NtRp79
(dp80
g13
F-22.375436454510133
sg14
I1
sg15
I01
sg16
I4
sg17
I6
sbs(I9
I10
tp81
g1
(g10
g3
NtRp82
(dp83
g13
F-18.303844260944349
sg14
I9
sg15
I01
sg16
I10
sg17
I90
sbs(I7
I5
tp84
g1
(g10
g3
NtRp85
(dp86
g13
F-0.10792651689317168
sg14
I7
sg15
I01
sg16
I5
sg17
I30
sbs(I2
I3
tp87
g1
(g10
g3
NtRp88
(dp89
g13
F-0.26728905745990983
sg14
I2
sg15
I01
sg16
I3
sg17
I5
sbs(I1
I9
tp90
g1
(g10
g3
NtRp91
(dp92
g13
F-4.7337924002913692
sg14
I1
sg15
I01
sg16
I9
sg17
I58
sbs(I4
I2
tp93
g1
(g10
g3
NtRp94
(dp95
g13
F-16.041106942722923
sg14
I4
sg15
I00
sg16
I2
sg17
I7
sbs(I14
I2
tp96
g1
(g10
g3
NtRp97
(dp98
g13
F-6.2162892449620148
sg14
I14
sg15
I01
sg16
I2
sg17
I138
sbs(I3
I5
tp99
g1
(g10
g3
NtRp100
(dp101
g13
F7.2423865166588586
sg14
I3
sg15
I01
sg16
I5
sg17
I14
sbs(I4
I6
tp102
g1
(g10
g3
NtRp103
(dp104
g13
F-3.3089774068068483
sg14
I4
sg15
I01
sg16
I6
sg17
I22
sbs(I8
I12
tp105
g1
(g10
g3
NtRp106
(dp107
g13
F-5.5692726805217845
sg14
I8
sg15
I01
sg16
I12
sg17
I88
sbs(I11
I3
tp108
g1
(g10
g3
NtRp109
(dp110
g13
F-6.7683493881101615
sg14
I11
sg15
I01
sg16
I3
sg17
I78
sbs(I3
I8
tp111
g1
(g10
g3
NtRp112
(dp113
g13
F1.30932855592456
sg14
I3
sg15
I01
sg16
I8
sg17
I44
sbs(I8
I14
tp114
g1
(g10
g3
NtRp115
(dp116
g13
F-6.3342115641543391
sg14
I8
sg15
I01
sg16
I14
sg17
I119
sbs(I4
I3
tp117
g1
(g10
g3
NtRp118
(dp119
g13
F10.736372628271056
sg14
I4
sg15
I00
sg16
I3
sg17
I10
sbs(I1
I7
tp120
g1
(g10
g3
NtRp121
(dp122
g13
F0.82112709503185666
sg14
I1
sg15
I01
sg16
I7
sg17
I29
sbs(I5
I2
tp123
g1
(g10
g3
NtRp124
(dp125
g13
F-11.575131240400868
sg14
I5
sg15
I01
sg16
I2
sg17
I9
sbs(I10
I2
tp126
g1
(g10
g3
NtRp127
(dp128
g13
F-12.438261363405571
sg14
I10
sg15
I01
sg16
I2
sg17
I65
sbssS'_input_nodes'
p129
I1
sS'_output_nodes'
p130
I1
sS'_node_gene_type'
p131
cneat.genome
NodeGene
p132
sS'_conn_gene_type'
p133
g10
sS'fitness'
p134
F0.9483162250310776
sS'parent2_id'
p135
I4746
sS'_id'
p136
I4760
sS'parent1_id'
p137
I4746
sS'_node_genes'
p138
(lp139
g1
(g132
g3
NtRp140
(dp141
S'_bias'
p142
I0
sS'_type'
p143
S'INPUT'
p144
sg136
I1
sS'_response'
p145
F4.9242730000000003
sS'_activation_type'
p146
Nsbag1
(g132
g3
NtRp147
(dp148
g142
F-6.7103286063776117
sg143
S'OUTPUT'
p149
sg136
I2
sg145
F4.3241487817458504
sg146
S'tanh'
p150
sbag1
(g132
g3
NtRp151
(dp152
g142
F0.90140559876004556
sg143
S'HIDDEN'
p153
sg136
I3
sg145
F5.132232657500003
sg146
g150
sbag1
(g132
g3
NtRp154
(dp155
g142
F-2.7170430427230756
sg143
g153
sg136
I4
sg145
F7.7679497145802854
sg146
g150
sbag1
(g132
g3
NtRp156
(dp157
g142
F3.92426585692768
sg143
g153
sg136
I5
sg145
F8.8291975850454705
sg146
g150
sbag1
(g132
g3
NtRp158
(dp159
g142
F0.1210583546985104
sg143
g153
sg136
I6
sg145
F6.9515522768683153
sg146
g150
sbag1
(g132
g3
NtRp160
(dp161
g142
F-0.8262817154153872
sg143
g153
sg136
I7
sg145
F3.3585090550519525
sg146
g150
sbag1
(g132
g3
NtRp162
(dp163
g142
F-1.6606770289387458
sg143
g153
sg136
I8
sg145
F10.087747388728815
sg146
g150
sbag1
(g132
g3
NtRp164
(dp165
g142
F0.10385730337335727
sg143
g153
sg136
I9
sg145
F5.9633694431424029
sg146
g150
sbag1
(g132
g3
NtRp166
(dp167
g142
F-1.2913626072777875
sg143
g153
sg136
I10
sg145
F5.1875359953113751
sg146
g150
sbag1
(g132
g3
NtRp168
(dp169
g142
F-0.55227135691739182
sg143
g153
sg136
I11
sg145
F7.6523558184801201
sg146
g150
sbag1
(g132
g3
NtRp170
(dp171
g142
F0.44280495242352691
sg143
g153
sg136
I12
sg145
F6.8539677303359596
sg146
g150
sbag1
(g132
g3
NtRp172
(dp173
g142
F-0.61630801585111106
sg143
g153
sg136
I13
sg145
F4.977854726563443
sg146
g150
sbag1
(g132
g3
NtRp174
(dp175
g142
F0.84489465763446459
sg143
g153
sg136
I14
sg145
F4.319404022040418
sg146
g150
sbag1
(g132
g3
NtRp176
(dp177
g142
F-0.60791846969410757
sg143
g153
sg136
I15
sg145
F4.9477967114462214
sg146
g150
sbasb.