ccopy_reg
_reconstructor
p1
(cneat.chromosome
Chromosome
p2
c__builtin__
object
p3
NtRp4
(dp5
S'species_id'
p6
I31
sS'_connection_genes'
p7
(dp8
(I1
I3
tp9
g1
(cneat.genome
ConnectionGene
p10
g3
NtRp11
(dp12
S'_ConnectionGene__weight'
p13
F0.90529072643102526
sS'_ConnectionGene__in'
p14
I1
sS'_ConnectionGene__enabled'
p15
I01
sS'_ConnectionGene__out'
p16
I3
sS'_ConnectionGene__innov_number'
p17
I3
sbs(I6
I6
tp18
g1
(g10
g3
NtRp19
(dp20
g13
F25.452121390238482
sg14
I6
sg15
I01
sg16
I6
sg17
I39
sbs(I11
I2
tp21
g1
(g10
g3
NtRp22
(dp23
g13
F-0.17425536274124037
sg14
I11
sg15
I01
sg16
I2
sg17
I80
sbs(I1
I15
tp24
g1
(g10
g3
NtRp25
(dp26
g13
F-9.4167196742665933
sg14
I1
sg15
I01
sg16
I15
sg17
I146
sbs(I6
I2
tp27
g1
(g10
g3
NtRp28
(dp29
g13
F28.841125750508485
sg14
I6
sg15
I01
sg16
I2
sg17
I21
sbs(I16
I14
tp30
g1
(g10
g3
NtRp31
(dp32
g13
F-14.946603218909621
sg14
I16
sg15
I01
sg16
I14
sg17
I193
sbs(I5
I8
tp33
g1
(g10
g3
NtRp34
(dp35
g13
F9.6976037118452574
sg14
I5
sg15
I01
sg16
I8
sg17
I42
sbs(I1
I2
tp36
g1
(g10
g3
NtRp37
(dp38
g13
F-22.92605550055362
sg14
I1
sg15
I01
sg16
I2
sg17
I1
sbs(I12
I2
tp39
g1
(g10
g3
NtRp40
(dp41
g13
F3.6596375323537766
sg14
I12
sg15
I01
sg16
I2
sg17
I82
sbs(I2
I19
tp42
g1
(g10
g3
NtRp43
(dp44
g13
F4.3328966685902248
sg14
I2
sg15
I01
sg16
I19
sg17
I210
sbs(I3
I3
tp45
g1
(g10
g3
NtRp46
(dp47
g13
F-2.9170987033068645
sg14
I3
sg15
I01
sg16
I3
sg17
I15
sbs(I2
I9
tp48
g1
(g10
g3
NtRp49
(dp50
g13
F11.972495417009874
sg14
I2
sg15
I01
sg16
I9
sg17
I53
sbs(I13
I3
tp51
g1
(g10
g3
NtRp52
(dp53
g13
F2.5499219131352873
sg14
I13
sg15
I01
sg16
I3
sg17
I92
sbs(I8
I10
tp54
g1
(g10
g3
NtRp55
(dp56
g13
F30
sg14
I8
sg15
I00
sg16
I10
sg17
I74
sbs(I4
I13
tp57
g1
(g10
g3
NtRp58
(dp59
g13
F-10.048856099469937
sg14
I4
sg15
I01
sg16
I13
sg17
I102
sbs(I1
I5
tp60
g1
(g10
g3
NtRp61
(dp62
g13
F-12.194194669638593
sg14
I1
sg15
I00
sg16
I5
sg17
I11
sbs(I9
I11
tp63
g1
(g10
g3
NtRp64
(dp65
g13
F-9.5875745719645078
sg14
I9
sg15
I01
sg16
I11
sg17
I101
sbs(I19
I3
tp66
g1
(g10
g3
NtRp67
(dp68
g13
F10.602587770844249
sg14
I19
sg15
I01
sg16
I3
sg17
I212
sbs(I2
I2
tp69
g1
(g10
g3
NtRp70
(dp71
g13
F10.066826382715449
sg14
I2
sg15
I01
sg16
I2
sg17
I2
sbs(I8
I16
tp72
g1
(g10
g3
NtRp73
(dp74
g13
F2.9276378948843109
sg14
I8
sg15
I01
sg16
I16
sg17
I177
sbs(I3
I2
tp75
g1
(g10
g3
NtRp76
(dp77
g13
F-24.087020439055788
sg14
I3
sg15
I01
sg16
I2
sg17
I4
sbs(I2
I6
tp78
g1
(g10
g3
NtRp79
(dp80
g13
F-3.1491057285310617
sg14
I2
sg15
I01
sg16
I6
sg17
I38
sbs(I8
I2
tp81
g1
(g10
g3
NtRp82
(dp83
g13
F-19.845976960158186
sg14
I8
sg15
I01
sg16
I2
sg17
I43
sbs(I5
I11
tp84
g1
(g10
g3
NtRp85
(dp86
g13
F-5.896588395294307
sg14
I5
sg15
I01
sg16
I11
sg17
I79
sbs(I15
I3
tp87
g1
(g10
g3
NtRp88
(dp89
g13
F-2.6115099390239402
sg14
I15
sg15
I00
sg16
I3
sg17
I147
sbs(I9
I3
tp90
g1
(g10
g3
NtRp91
(dp92
g13
F-11.177113993518848
sg14
I9
sg15
I01
sg16
I3
sg17
I60
sbs(I1
I4
tp93
g1
(g10
g3
NtRp94
(dp95
g13
F-27.095333353350981
sg14
I1
sg15
I01
sg16
I4
sg17
I6
sbs(I9
I10
tp96
g1
(g10
g3
NtRp97
(dp98
g13
F-24.499435606156872
sg14
I9
sg15
I01
sg16
I10
sg17
I90
sbs(I7
I5
tp99
g1
(g10
g3
NtRp100
(dp101
g13
F-10.423958573914668
sg14
I7
sg15
I01
sg16
I5
sg17
I30
sbs(I2
I3
tp102
g1
(g10
g3
NtRp103
(dp104
g13
F3.5086781497356068
sg14
I2
sg15
I00
sg16
I3
sg17
I5
sbs(I1
I9
tp105
g1
(g10
g3
NtRp106
(dp107
g13
F1.8418668542978036
sg14
I1
sg15
I01
sg16
I9
sg17
I58
sbs(I13
I9
tp108
g1
(g10
g3
NtRp109
(dp110
g13
F2.6817467090759783
sg14
I13
sg15
I01
sg16
I9
sg17
I112
sbs(I8
I17
tp111
g1
(g10
g3
NtRp112
(dp113
g13
F1.7883656330670337
sg14
I8
sg15
I01
sg16
I17
sg17
I205
sbs(I4
I2
tp114
g1
(g10
g3
NtRp115
(dp116
g13
F-5.9198111837257965
sg14
I4
sg15
I01
sg16
I2
sg17
I7
sbs(I14
I2
tp117
g1
(g10
g3
NtRp118
(dp119
g13
F-10.253137624776107
sg14
I14
sg15
I01
sg16
I2
sg17
I138
sbs(I3
I5
tp120
g1
(g10
g3
NtRp121
(dp122
g13
F5.3336230643779299
sg14
I3
sg15
I01
sg16
I5
sg17
I14
sbs(I10
I5
tp123
g1
(g10
g3
NtRp124
(dp125
g13
F-0.077739008091497919
sg14
I10
sg15
I01
sg16
I5
sg17
I76
sbs(I4
I6
tp126
g1
(g10
g3
NtRp127
(dp128
g13
F-8.2860764960260482
sg14
I4
sg15
I01
sg16
I6
sg17
I22
sbs(I15
I2
tp129
g1
(g10
g3
NtRp130
(dp131
g13
F10.493119565867305
sg14
I15
sg15
I01
sg16
I2
sg17
I170
sbs(I8
I12
tp132
g1
(g10
g3
NtRp133
(dp134
g13
F-4.4109403899374691
sg14
I8
sg15
I01
sg16
I12
sg17
I88
sbs(I18
I10
tp135
g1
(g10
g3
NtRp136
(dp137
g13
F22.617646178754676
sg14
I18
sg15
I01
sg16
I10
sg17
I209
sbs(I11
I3
tp138
g1
(g10
g3
NtRp139
(dp140
g13
F-9.9840299667216303
sg14
I11
sg15
I01
sg16
I3
sg17
I78
sbs(I3
I8
tp141
g1
(g10
g3
NtRp142
(dp143
g13
F20.188175596956551
sg14
I3
sg15
I01
sg16
I8
sg17
I44
sbs(I8
I14
tp144
g1
(g10
g3
NtRp145
(dp146
g13
F3.5628484309290385
sg14
I8
sg15
I00
sg16
I14
sg17
I119
sbs(I8
I18
tp147
g1
(g10
g3
NtRp148
(dp149
g13
F1.4665461779193389
sg14
I8
sg15
I01
sg16
I18
sg17
I208
sbs(I17
I12
tp150
g1
(g10
g3
NtRp151
(dp152
g13
F-0.57216756150678427
sg14
I17
sg15
I01
sg16
I12
sg17
I207
sbs(I1
I7
tp153
g1
(g10
g3
NtRp154
(dp155
g13
F15.211268812036247
sg14
I1
sg15
I01
sg16
I7
sg17
I29
sbs(I4
I3
tp156
g1
(g10
g3
NtRp157
(dp158
g13
F17.308412883593515
sg14
I4
sg15
I00
sg16
I3
sg17
I10
sbs(I5
I2
tp159
g1
(g10
g3
NtRp160
(dp161
g13
F3.9645401164489993
sg14
I5
sg15
I01
sg16
I2
sg17
I9
sbs(I10
I2
tp162
g1
(g10
g3
NtRp163
(dp164
g13
F-12.139122728919128
sg14
I10
sg15
I01
sg16
I2
sg17
I65
sbssS'_input_nodes'
p165
I1
sS'_output_nodes'
p166
I1
sS'_node_gene_type'
p167
cneat.genome
NodeGene
p168
sS'_conn_gene_type'
p169
g10
sS'fitness'
p170
F0.99513560756228137
sS'parent2_id'
p171
I5769
sS'_id'
p172
I5786
sS'parent1_id'
p173
I5768
sS'_node_genes'
p174
(lp175
g1
(g168
g3
NtRp176
(dp177
S'_bias'
p178
I0
sS'_type'
p179
S'INPUT'
p180
sg172
I1
sS'_response'
p181
F4.9242730000000003
sS'_activation_type'
p182
Nsbag1
(g168
g3
NtRp183
(dp184
g178
F-5.4402600367528304
sg179
S'OUTPUT'
p185
sg172
I2
sg181
F4.6227498587651921
sg182
S'tanh'
p186
sbag1
(g168
g3
NtRp187
(dp188
g178
F1.5970496171019493
sg179
S'HIDDEN'
p189
sg172
I3
sg181
F3.9802621311878164
sg182
g186
sbag1
(g168
g3
NtRp190
(dp191
g178
F-5.2399019761226588
sg179
g189
sg172
I4
sg181
F6.6378266034638811
sg182
g186
sbag1
(g168
g3
NtRp192
(dp193
g178
F3.866198504323394
sg179
g189
sg172
I5
sg181
F12.676352455444016
sg182
g186
sbag1
(g168
g3
NtRp194
(dp195
g178
F0.41827536951369004
sg179
g189
sg172
I6
sg181
F6.1482148028904389
sg182
g186
sbag1
(g168
g3
NtRp196
(dp197
g178
F-1.6870217850113352
sg179
g189
sg172
I7
sg181
F0.32812016290737012
sg182
g186
sbag1
(g168
g3
NtRp198
(dp199
g178
F-1.417090409543726
sg179
g189
sg172
I8
sg181
F11.684173723211732
sg182
g186
sbag1
(g168
g3
NtRp200
(dp201
g178
F-1.5569295413664979
sg179
g189
sg172
I9
sg181
F9.1664224515818766
sg182
g186
sbag1
(g168
g3
NtRp202
(dp203
g178
F-0.25209439080666252
sg179
g189
sg172
I10
sg181
F6.7113337760180318
sg182
g186
sbag1
(g168
g3
NtRp204
(dp205
g178
F0.50157094287685466
sg179
g189
sg172
I11
sg181
F8.6781895832263309
sg182
g186
sbag1
(g168
g3
NtRp206
(dp207
g178
F0.55712251071912633
sg179
g189
sg172
I12
sg181
F4.0728155195306996
sg182
g186
sbag1
(g168
g3
NtRp208
(dp209
g178
F-1.7508336688026247
sg179
g189
sg172
I13
sg181
F4.41955869229482
sg182
g186
sbag1
(g168
g3
NtRp210
(dp211
g178
F3.3708320799287961
sg179
g189
sg172
I14
sg181
F5.3272514293388964
sg182
g186
sbag1
(g168
g3
NtRp212
(dp213
g178
F-1.3229827753828967
sg179
g189
sg172
I15
sg181
F5.7576097945102394
sg182
g186
sbag1
(g168
g3
NtRp214
(dp215
g178
F1.0056170115142322
sg179
g189
sg172
I16
sg181
F3.9802763345448104
sg182
g186
sbag1
(g168
g3
NtRp216
(dp217
g178
I0
sg179
g189
sg172
I17
sg181
F4.6858875219210745
sg182
g186
sbag1
(g168
g3
NtRp218
(dp219
g178
F1.0029888403410419
sg179
g189
sg172
I18
sg181
F4.9242730000000003
sg182
g186
sbag1
(g168
g3
NtRp220
(dp221
g178
I0
sg179
g189
sg172
I19
sg181
F4.790634345171175
sg182
g186
sbasb.