ccopy_reg
_reconstructor
p1
(cneat.chromosome
Chromosome
p2
c__builtin__
object
p3
NtRp4
(dp5
S'species_id'
p6
I36
sS'_connection_genes'
p7
(dp8
(I17
I12
tp9
g1
(cneat.genome
ConnectionGene
p10
g3
NtRp11
(dp12
S'_ConnectionGene__weight'
p13
F0.84937038193906211
sS'_ConnectionGene__in'
p14
I17
sS'_ConnectionGene__enabled'
p15
I01
sS'_ConnectionGene__out'
p16
I12
sS'_ConnectionGene__innov_number'
p17
I207
sbs(I1
I3
tp18
g1
(g10
g3
NtRp19
(dp20
g13
F-6.3200173619209803
sg14
I1
sg15
I01
sg16
I3
sg17
I3
sbs(I6
I6
tp21
g1
(g10
g3
NtRp22
(dp23
g13
F23.154986182228363
sg14
I6
sg15
I01
sg16
I6
sg17
I39
sbs(I11
I2
tp24
g1
(g10
g3
NtRp25
(dp26
g13
F-1.472474837691585
sg14
I11
sg15
I01
sg16
I2
sg17
I80
sbs(I1
I15
tp27
g1
(g10
g3
NtRp28
(dp29
g13
F-7.3036691842860249
sg14
I1
sg15
I01
sg16
I15
sg17
I146
sbs(I6
I2
tp30
g1
(g10
g3
NtRp31
(dp32
g13
F26.868545447278908
sg14
I6
sg15
I01
sg16
I2
sg17
I21
sbs(I16
I14
tp33
g1
(g10
g3
NtRp34
(dp35
g13
F-16.011736373248482
sg14
I16
sg15
I01
sg16
I14
sg17
I193
sbs(I5
I8
tp36
g1
(g10
g3
NtRp37
(dp38
g13
F8.8991432173603116
sg14
I5
sg15
I01
sg16
I8
sg17
I42
sbs(I1
I2
tp39
g1
(g10
g3
NtRp40
(dp41
g13
F-21.444343854058079
sg14
I1
sg15
I01
sg16
I2
sg17
I1
sbs(I12
I2
tp42
g1
(g10
g3
NtRp43
(dp44
g13
F3.7746911166538544
sg14
I12
sg15
I01
sg16
I2
sg17
I82
sbs(I2
I19
tp45
g1
(g10
g3
NtRp46
(dp47
g13
F5.4789142166220675
sg14
I2
sg15
I01
sg16
I19
sg17
I210
sbs(I3
I3
tp48
g1
(g10
g3
NtRp49
(dp50
g13
F-1.2778265270573241
sg14
I3
sg15
I01
sg16
I3
sg17
I15
sbs(I2
I9
tp51
g1
(g10
g3
NtRp52
(dp53
g13
F14.186781856611823
sg14
I2
sg15
I01
sg16
I9
sg17
I53
sbs(I13
I3
tp54
g1
(g10
g3
NtRp55
(dp56
g13
F1.7359565054125483
sg14
I13
sg15
I01
sg16
I3
sg17
I92
sbs(I8
I10
tp57
g1
(g10
g3
NtRp58
(dp59
g13
F29.081846059386731
sg14
I8
sg15
I00
sg16
I10
sg17
I74
sbs(I4
I13
tp60
g1
(g10
g3
NtRp61
(dp62
g13
F-11.771619340692695
sg14
I4
sg15
I01
sg16
I13
sg17
I102
sbs(I1
I5
tp63
g1
(g10
g3
NtRp64
(dp65
g13
F-12.194194669638593
sg14
I1
sg15
I00
sg16
I5
sg17
I11
sbs(I9
I11
tp66
g1
(g10
g3
NtRp67
(dp68
g13
F-8.4036536359997065
sg14
I9
sg15
I01
sg16
I11
sg17
I101
sbs(I19
I3
tp69
g1
(g10
g3
NtRp70
(dp71
g13
F5.53903031863483
sg14
I19
sg15
I01
sg16
I3
sg17
I212
sbs(I2
I2
tp72
g1
(g10
g3
NtRp73
(dp74
g13
F11.775289330713655
sg14
I2
sg15
I01
sg16
I2
sg17
I2
sbs(I8
I16
tp75
g1
(g10
g3
NtRp76
(dp77
g13
F-0.7925889880206024
sg14
I8
sg15
I01
sg16
I16
sg17
I177
sbs(I8
I18
tp78
g1
(g10
g3
NtRp79
(dp80
g13
F1.3985250607430706
sg14
I8
sg15
I01
sg16
I18
sg17
I208
sbs(I3
I2
tp81
g1
(g10
g3
NtRp82
(dp83
g13
F-25.352794987299497
sg14
I3
sg15
I01
sg16
I2
sg17
I4
sbs(I2
I6
tp84
g1
(g10
g3
NtRp85
(dp86
g13
F-3.5453104957618242
sg14
I2
sg15
I00
sg16
I6
sg17
I38
sbs(I8
I2
tp87
g1
(g10
g3
NtRp88
(dp89
g13
F-18.354662811234654
sg14
I8
sg15
I01
sg16
I2
sg17
I43
sbs(I5
I11
tp90
g1
(g10
g3
NtRp91
(dp92
g13
F-6.0464001699313439
sg14
I5
sg15
I01
sg16
I11
sg17
I79
sbs(I15
I3
tp93
g1
(g10
g3
NtRp94
(dp95
g13
F-1.8556225244884124
sg14
I15
sg15
I00
sg16
I3
sg17
I147
sbs(I9
I3
tp96
g1
(g10
g3
NtRp97
(dp98
g13
F-14.086223577796323
sg14
I9
sg15
I01
sg16
I3
sg17
I60
sbs(I2
I20
tp99
g1
(g10
g3
NtRp100
(dp101
g13
F1.6905216244824963
sg14
I2
sg15
I01
sg16
I20
sg17
I220
sbs(I1
I4
tp102
g1
(g10
g3
NtRp103
(dp104
g13
F-27.831073251158582
sg14
I1
sg15
I01
sg16
I4
sg17
I6
sbs(I9
I10
tp105
g1
(g10
g3
NtRp106
(dp107
g13
F-25.357119430385968
sg14
I9
sg15
I01
sg16
I10
sg17
I90
sbs(I7
I5
tp108
g1
(g10
g3
NtRp109
(dp110
g13
F-12.23327697446884
sg14
I7
sg15
I01
sg16
I5
sg17
I30
sbs(I2
I3
tp111
g1
(g10
g3
NtRp112
(dp113
g13
F3.5086781497356068
sg14
I2
sg15
I00
sg16
I3
sg17
I5
sbs(I1
I9
tp114
g1
(g10
g3
NtRp115
(dp116
g13
F3.5544467241180895
sg14
I1
sg15
I01
sg16
I9
sg17
I58
sbs(I8
I17
tp117
g1
(g10
g3
NtRp118
(dp119
g13
F2.3823132712275998
sg14
I8
sg15
I01
sg16
I17
sg17
I205
sbs(I4
I2
tp120
g1
(g10
g3
NtRp121
(dp122
g13
F-4.6982483690648529
sg14
I4
sg15
I01
sg16
I2
sg17
I7
sbs(I14
I2
tp123
g1
(g10
g3
NtRp124
(dp125
g13
F-8.7803839716730749
sg14
I14
sg15
I01
sg16
I2
sg17
I138
sbs(I3
I5
tp126
g1
(g10
g3
NtRp127
(dp128
g13
F3.336676675464338
sg14
I3
sg15
I01
sg16
I5
sg17
I14
sbs(I10
I5
tp129
g1
(g10
g3
NtRp130
(dp131
g13
F-9.6310738372400202
sg14
I10
sg15
I01
sg16
I5
sg17
I76
sbs(I4
I6
tp132
g1
(g10
g3
NtRp133
(dp134
g13
F-9.3563152431725598
sg14
I4
sg15
I01
sg16
I6
sg17
I22
sbs(I15
I2
tp135
g1
(g10
g3
NtRp136
(dp137
g13
F2.7797517888053966
sg14
I15
sg15
I01
sg16
I2
sg17
I170
sbs(I8
I12
tp138
g1
(g10
g3
NtRp139
(dp140
g13
F-4.3447634155247989
sg14
I8
sg15
I01
sg16
I12
sg17
I88
sbs(I18
I10
tp141
g1
(g10
g3
NtRp142
(dp143
g13
F16.243341561186838
sg14
I18
sg15
I01
sg16
I10
sg17
I209
sbs(I11
I3
tp144
g1
(g10
g3
NtRp145
(dp146
g13
F-12.287223985593663
sg14
I11
sg15
I01
sg16
I3
sg17
I78
sbs(I3
I8
tp147
g1
(g10
g3
NtRp148
(dp149
g13
F12.803941656030172
sg14
I3
sg15
I01
sg16
I8
sg17
I44
sbs(I8
I14
tp150
g1
(g10
g3
NtRp151
(dp152
g13
F2.5066762361603918
sg14
I8
sg15
I00
sg16
I14
sg17
I119
sbs(I20
I6
tp153
g1
(g10
g3
NtRp154
(dp155
g13
F-3.0921885886132836
sg14
I20
sg15
I01
sg16
I6
sg17
I221
sbs(I4
I3
tp156
g1
(g10
g3
NtRp157
(dp158
g13
F14.34690189256191
sg14
I4
sg15
I00
sg16
I3
sg17
I10
sbs(I1
I7
tp159
g1
(g10
g3
NtRp160
(dp161
g13
F12.53825620280808
sg14
I1
sg15
I01
sg16
I7
sg17
I29
sbs(I13
I9
tp162
g1
(g10
g3
NtRp163
(dp164
g13
F-0.8779234632736399
sg14
I13
sg15
I01
sg16
I9
sg17
I112
sbs(I5
I2
tp165
g1
(g10
g3
NtRp166
(dp167
g13
F3.4747691194995243
sg14
I5
sg15
I01
sg16
I2
sg17
I9
sbs(I10
I2
tp168
g1
(g10
g3
NtRp169
(dp170
g13
F-7.9362709949345884
sg14
I10
sg15
I01
sg16
I2
sg17
I65
sbssS'_input_nodes'
p171
I1
sS'_output_nodes'
p172
I1
sS'_node_gene_type'
p173
cneat.genome
NodeGene
p174
sS'_conn_gene_type'
p175
g10
sS'fitness'
p176
F0.98438611411867727
sS'parent2_id'
p177
I5814
sS'_id'
p178
I5832
sS'parent1_id'
p179
I5814
sS'_node_genes'
p180
(lp181
g1
(g174
g3
NtRp182
(dp183
S'_bias'
p184
I0
sS'_type'
p185
S'INPUT'
p186
sg178
I1
sS'_response'
p187
F4.9242730000000003
sS'_activation_type'
p188
Nsbag1
(g174
g3
NtRp189
(dp190
g184
F-6.7759573264696717
sg185
S'OUTPUT'
p191
sg178
I2
sg187
F4.6227498587651921
sg188
S'tanh'
p192
sbag1
(g174
g3
NtRp193
(dp194
g184
F1.5970496171019493
sg185
S'HIDDEN'
p195
sg178
I3
sg187
F3.9802621311878164
sg188
g192
sbag1
(g174
g3
NtRp196
(dp197
g184
F-5.2399019761226588
sg185
g195
sg178
I4
sg187
F6.6378266034638811
sg188
g192
sbag1
(g174
g3
NtRp198
(dp199
g184
F4.0011622520573296
sg185
g195
sg178
I5
sg187
F12.215419961644869
sg188
g192
sbag1
(g174
g3
NtRp200
(dp201
g184
F0.41827536951369004
sg185
g195
sg178
I6
sg187
F6.1482148028904389
sg188
g192
sbag1
(g174
g3
NtRp202
(dp203
g184
F-1.6870217850113352
sg185
g195
sg178
I7
sg187
F0.4649739952367718
sg188
g192
sbag1
(g174
g3
NtRp204
(dp205
g184
F-1.417090409543726
sg185
g195
sg178
I8
sg187
F12.077719017928011
sg188
g192
sbag1
(g174
g3
NtRp206
(dp207
g184
F-1.5569295413664979
sg185
g195
sg178
I9
sg187
F9.1664224515818766
sg188
g192
sbag1
(g174
g3
NtRp208
(dp209
g184
F-0.25209439080666252
sg185
g195
sg178
I10
sg187
F7.0357905306606412
sg188
g192
sbag1
(g174
g3
NtRp210
(dp211
g184
F0.50157094287685466
sg185
g195
sg178
I11
sg187
F7.8274573935777472
sg188
g192
sbag1
(g174
g3
NtRp212
(dp213
g184
F0.85617890427599752
sg185
g195
sg178
I12
sg187
F4.0728155195306996
sg188
g192
sbag1
(g174
g3
NtRp214
(dp215
g184
F-1.7508336688026247
sg185
g195
sg178
I13
sg187
F4.41955869229482
sg188
g192
sbag1
(g174
g3
NtRp216
(dp217
g184
F3.3708320799287961
sg185
g195
sg178
I14
sg187
F5.3272514293388964
sg188
g192
sbag1
(g174
g3
NtRp218
(dp219
g184
F-1.3229827753828967
sg185
g195
sg178
I15
sg187
F5.7576097945102394
sg188
g192
sbag1
(g174
g3
NtRp220
(dp221
g184
F0.62203779533865133
sg185
g195
sg178
I16
sg187
F3.9802763345448104
sg188
g192
sbag1
(g174
g3
NtRp222
(dp223
g184
I0
sg185
g195
sg178
I17
sg187
F4.6858875219210745
sg188
g192
sbag1
(g174
g3
NtRp224
(dp225
g184
F1.0029888403410419
sg185
g195
sg178
I18
sg187
F4.9242730000000003
sg188
g192
sbag1
(g174
g3
NtRp226
(dp227
g184
I0
sg185
g195
sg178
I19
sg187
F4.790634345171175
sg188
g192
sbag1
(g174
g3
NtRp228
(dp229
g184
I0
sg185
g195
sg178
I20
sg187
F4.9242730000000003
sg188
g192
sbasb.