ccopy_reg
_reconstructor
p1
(cneat.chromosome
Chromosome
p2
c__builtin__
object
p3
NtRp4
(dp5
S'species_id'
p6
I29
sS'_connection_genes'
p7
(dp8
(I1
I3
tp9
g1
(cneat.genome
ConnectionGene
p10
g3
NtRp11
(dp12
S'_ConnectionGene__weight'
p13
F-11.997626277278714
sS'_ConnectionGene__in'
p14
I1
sS'_ConnectionGene__enabled'
p15
I01
sS'_ConnectionGene__out'
p16
I3
sS'_ConnectionGene__innov_number'
p17
I3
sbs(I6
I6
tp18
g1
(g10
g3
NtRp19
(dp20
g13
F2.9086917316491556
sg14
I6
sg15
I01
sg16
I6
sg17
I39
sbs(I11
I2
tp21
g1
(g10
g3
NtRp22
(dp23
g13
F-14.355778649779687
sg14
I11
sg15
I01
sg16
I2
sg17
I80
sbs(I14
I5
tp24
g1
(g10
g3
NtRp25
(dp26
g13
F18.094759597189643
sg14
I14
sg15
I01
sg16
I5
sg17
I156
sbs(I6
I2
tp27
g1
(g10
g3
NtRp28
(dp29
g13
F11.177843353189232
sg14
I6
sg15
I01
sg16
I2
sg17
I21
sbs(I1
I11
tp30
g1
(g10
g3
NtRp31
(dp32
g13
F3.6356417759618846
sg14
I1
sg15
I01
sg16
I11
sg17
I77
sbs(I5
I8
tp33
g1
(g10
g3
NtRp34
(dp35
g13
F-9.9034836394236567
sg14
I5
sg15
I01
sg16
I8
sg17
I42
sbs(I1
I2
tp36
g1
(g10
g3
NtRp37
(dp38
g13
F-28.544806678575995
sg14
I1
sg15
I01
sg16
I2
sg17
I1
sbs(I12
I2
tp39
g1
(g10
g3
NtRp40
(dp41
g13
F-7.1026219205818872
sg14
I12
sg15
I01
sg16
I2
sg17
I82
sbs(I3
I3
tp42
g1
(g10
g3
NtRp43
(dp44
g13
F-4.6873248642933323
sg14
I3
sg15
I01
sg16
I3
sg17
I15
sbs(I2
I9
tp45
g1
(g10
g3
NtRp46
(dp47
g13
F16.542204005639654
sg14
I2
sg15
I01
sg16
I9
sg17
I53
sbs(I13
I3
tp48
g1
(g10
g3
NtRp49
(dp50
g13
F-13.33935911604585
sg14
I13
sg15
I01
sg16
I3
sg17
I92
sbs(I8
I10
tp51
g1
(g10
g3
NtRp52
(dp53
g13
F29.227903057573233
sg14
I8
sg15
I01
sg16
I10
sg17
I74
sbs(I4
I13
tp54
g1
(g10
g3
NtRp55
(dp56
g13
F-23.566592603240512
sg14
I4
sg15
I01
sg16
I13
sg17
I102
sbs(I1
I5
tp57
g1
(g10
g3
NtRp58
(dp59
g13
F-12.196465253889247
sg14
I1
sg15
I00
sg16
I5
sg17
I11
sbs(I3
I14
tp60
g1
(g10
g3
NtRp61
(dp62
g13
F1.6467245670122967
sg14
I3
sg15
I01
sg16
I14
sg17
I155
sbs(I2
I2
tp63
g1
(g10
g3
NtRp64
(dp65
g13
F28.245098846526236
sg14
I2
sg15
I01
sg16
I2
sg17
I2
sbs(I3
I2
tp66
g1
(g10
g3
NtRp67
(dp68
g13
F-22.004262194648536
sg14
I3
sg15
I01
sg16
I2
sg17
I4
sbs(I2
I6
tp69
g1
(g10
g3
NtRp70
(dp71
g13
F12.670261947423814
sg14
I2
sg15
I01
sg16
I6
sg17
I38
sbs(I8
I2
tp72
g1
(g10
g3
NtRp73
(dp74
g13
F-18.259200922193251
sg14
I8
sg15
I01
sg16
I2
sg17
I43
sbs(I5
I11
tp75
g1
(g10
g3
NtRp76
(dp77
g13
F12.357866746005332
sg14
I5
sg15
I01
sg16
I11
sg17
I79
sbs(I9
I3
tp78
g1
(g10
g3
NtRp79
(dp80
g13
F-10.682126701177884
sg14
I9
sg15
I01
sg16
I3
sg17
I60
sbs(I1
I4
tp81
g1
(g10
g3
NtRp82
(dp83
g13
F-14.644905529124065
sg14
I1
sg15
I01
sg16
I4
sg17
I6
sbs(I9
I10
tp84
g1
(g10
g3
NtRp85
(dp86
g13
F-6.5640594547772286
sg14
I9
sg15
I01
sg16
I10
sg17
I90
sbs(I7
I5
tp87
g1
(g10
g3
NtRp88
(dp89
g13
F-9.3107331663564672
sg14
I7
sg15
I01
sg16
I5
sg17
I30
sbs(I2
I3
tp90
g1
(g10
g3
NtRp91
(dp92
g13
F-10.400048763756761
sg14
I2
sg15
I01
sg16
I3
sg17
I5
sbs(I1
I9
tp93
g1
(g10
g3
NtRp94
(dp95
g13
F-21.736187399654277
sg14
I1
sg15
I01
sg16
I9
sg17
I58
sbs(I4
I2
tp96
g1
(g10
g3
NtRp97
(dp98
g13
F-18.235382602149279
sg14
I4
sg15
I00
sg16
I2
sg17
I7
sbs(I3
I5
tp99
g1
(g10
g3
NtRp100
(dp101
g13
F10.149985671800589
sg14
I3
sg15
I01
sg16
I5
sg17
I14
sbs(I4
I6
tp102
g1
(g10
g3
NtRp103
(dp104
g13
F6.7911313341809416
sg14
I4
sg15
I01
sg16
I6
sg17
I22
sbs(I8
I12
tp105
g1
(g10
g3
NtRp106
(dp107
g13
F-9.5953194881705901
sg14
I8
sg15
I01
sg16
I12
sg17
I88
sbs(I11
I3
tp108
g1
(g10
g3
NtRp109
(dp110
g13
F-5.060895036806385
sg14
I11
sg15
I01
sg16
I3
sg17
I78
sbs(I3
I8
tp111
g1
(g10
g3
NtRp112
(dp113
g13
F-21.714757082178874
sg14
I3
sg15
I01
sg16
I8
sg17
I44
sbs(I4
I3
tp114
g1
(g10
g3
NtRp115
(dp116
g13
F0.5714998757555928
sg14
I4
sg15
I00
sg16
I3
sg17
I10
sbs(I1
I7
tp117
g1
(g10
g3
NtRp118
(dp119
g13
F-9.3043107471059301
sg14
I1
sg15
I01
sg16
I7
sg17
I29
sbs(I5
I2
tp120
g1
(g10
g3
NtRp121
(dp122
g13
F-13.023879281687467
sg14
I5
sg15
I00
sg16
I2
sg17
I9
sbs(I10
I2
tp123
g1
(g10
g3
NtRp124
(dp125
g13
F-7.7857562192688201
sg14
I10
sg15
I01
sg16
I2
sg17
I65
sbssS'_input_nodes'
p126
I1
sS'_output_nodes'
p127
I1
sS'_node_gene_type'
p128
cneat.genome
NodeGene
p129
sS'_conn_gene_type'
p130
g10
sS'fitness'
p131
F0.98367529345338311
sS'parent2_id'
p132
I4825
sS'_id'
p133
I4847
sS'parent1_id'
p134
I4825
sS'_node_genes'
p135
(lp136
g1
(g129
g3
NtRp137
(dp138
S'_bias'
p139
I0
sS'_type'
p140
S'INPUT'
p141
sg133
I1
sS'_response'
p142
F4.9242730000000003
sS'_activation_type'
p143
Nsbag1
(g129
g3
NtRp144
(dp145
g139
F-4.6463258024186977
sg140
S'OUTPUT'
p146
sg133
I2
sg142
F4.3629670598217727
sg143
S'tanh'
p147
sbag1
(g129
g3
NtRp148
(dp149
g139
F-1.2374221581473095
sg140
S'HIDDEN'
p150
sg133
I3
sg142
F2.1054500518611574
sg143
g147
sbag1
(g129
g3
NtRp151
(dp152
g139
F-0.86179227368402156
sg140
g150
sg133
I4
sg142
F9.1136877301749646
sg143
g147
sbag1
(g129
g3
NtRp153
(dp154
g139
F2.8061053924973449
sg140
g150
sg133
I5
sg142
F9.8402872015580449
sg143
g147
sbag1
(g129
g3
NtRp155
(dp156
g139
F2.9065881605451818
sg140
g150
sg133
I6
sg142
F6.5227420843675867
sg143
g147
sbag1
(g129
g3
NtRp157
(dp158
g139
F-2.3700866140302197
sg140
g150
sg133
I7
sg142
F2.8151882662369525
sg143
g147
sbag1
(g129
g3
NtRp159
(dp160
g139
F1.2529578312656389
sg140
g150
sg133
I8
sg142
F7.8908735281480773
sg143
g147
sbag1
(g129
g3
NtRp161
(dp162
g139
F-1.2283622247325248
sg140
g150
sg133
I9
sg142
F5.0672718077585976
sg143
g147
sbag1
(g129
g3
NtRp163
(dp164
g139
F-1.6565170673212299
sg140
g150
sg133
I10
sg142
F5.0471639170186444
sg143
g147
sbag1
(g129
g3
NtRp165
(dp166
g139
F-1.5938851031451755
sg140
g150
sg133
I11
sg142
F8.4516423858122671
sg143
g147
sbag1
(g129
g3
NtRp167
(dp168
g139
F2.0996420213159768
sg140
g150
sg133
I12
sg142
F5.9592816917101104
sg143
g147
sbag1
(g129
g3
NtRp169
(dp170
g139
F-0.48127692217168727
sg140
g150
sg133
I13
sg142
F5.5780835771028041
sg143
g147
sbag1
(g129
g3
NtRp171
(dp172
g139
F1.0688467863589983
sg140
g150
sg133
I14
sg142
F5.2659208749666844
sg143
g147
sbasb.