ccopy_reg
_reconstructor
p1
(cneat.chromosome
Chromosome
p2
c__builtin__
object
p3
NtRp4
(dp5
S'species_id'
p6
I45
sS'_connection_genes'
p7
(dp8
(I17
I12
tp9
g1
(cneat.genome
ConnectionGene
p10
g3
NtRp11
(dp12
S'_ConnectionGene__weight'
p13
F-8.1892036093856646
sS'_ConnectionGene__in'
p14
I17
sS'_ConnectionGene__enabled'
p15
I01
sS'_ConnectionGene__out'
p16
I12
sS'_ConnectionGene__innov_number'
p17
I207
sbs(I1
I3
tp18
g1
(g10
g3
NtRp19
(dp20
g13
F5.7805800654230213
sg14
I1
sg15
I01
sg16
I3
sg17
I3
sbs(I6
I6
tp21
g1
(g10
g3
NtRp22
(dp23
g13
F26.334024662821321
sg14
I6
sg15
I01
sg16
I6
sg17
I39
sbs(I11
I2
tp24
g1
(g10
g3
NtRp25
(dp26
g13
F6.9030631547209191
sg14
I11
sg15
I01
sg16
I2
sg17
I80
sbs(I1
I15
tp27
g1
(g10
g3
NtRp28
(dp29
g13
F-5.2782590465651662
sg14
I1
sg15
I01
sg16
I15
sg17
I146
sbs(I6
I2
tp30
g1
(g10
g3
NtRp31
(dp32
g13
F22.99791422924152
sg14
I6
sg15
I01
sg16
I2
sg17
I21
sbs(I22
I6
tp33
g1
(g10
g3
NtRp34
(dp35
g13
F3.0258677208656803
sg14
I22
sg15
I01
sg16
I6
sg17
I267
sbs(I16
I14
tp36
g1
(g10
g3
NtRp37
(dp38
g13
F-26.314144539059164
sg14
I16
sg15
I01
sg16
I14
sg17
I193
sbs(I5
I8
tp39
g1
(g10
g3
NtRp40
(dp41
g13
F5.3407190255898431
sg14
I5
sg15
I00
sg16
I8
sg17
I42
sbs(I8
I2
tp42
g1
(g10
g3
NtRp43
(dp44
g13
F-27.882154802699088
sg14
I8
sg15
I01
sg16
I2
sg17
I43
sbs(I1
I2
tp45
g1
(g10
g3
NtRp46
(dp47
g13
F-9.39980979285105
sg14
I1
sg15
I01
sg16
I2
sg17
I1
sbs(I12
I2
tp48
g1
(g10
g3
NtRp49
(dp50
g13
F9.0825833710162343
sg14
I12
sg15
I01
sg16
I2
sg17
I82
sbs(I2
I19
tp51
g1
(g10
g3
NtRp52
(dp53
g13
F17.609105663907727
sg14
I2
sg15
I01
sg16
I19
sg17
I210
sbs(I3
I3
tp54
g1
(g10
g3
NtRp55
(dp56
g13
F-13.386140768804097
sg14
I3
sg15
I01
sg16
I3
sg17
I15
sbs(I2
I9
tp57
g1
(g10
g3
NtRp58
(dp59
g13
F29.899390117209268
sg14
I2
sg15
I01
sg16
I9
sg17
I53
sbs(I13
I3
tp60
g1
(g10
g3
NtRp61
(dp62
g13
F5.6013743836626002
sg14
I13
sg15
I01
sg16
I3
sg17
I92
sbs(I8
I10
tp63
g1
(g10
g3
NtRp64
(dp65
g13
F26.710256695753234
sg14
I8
sg15
I01
sg16
I10
sg17
I74
sbs(I21
I8
tp66
g1
(g10
g3
NtRp67
(dp68
g13
F-4.3077889156843137
sg14
I21
sg15
I01
sg16
I8
sg17
I250
sbs(I4
I13
tp69
g1
(g10
g3
NtRp70
(dp71
g13
F-1.8958668783734649
sg14
I4
sg15
I01
sg16
I13
sg17
I102
sbs(I1
I5
tp72
g1
(g10
g3
NtRp73
(dp74
g13
F-10.260747407275829
sg14
I1
sg15
I01
sg16
I5
sg17
I11
sbs(I9
I11
tp75
g1
(g10
g3
NtRp76
(dp77
g13
F3.8080324917135124
sg14
I9
sg15
I01
sg16
I11
sg17
I101
sbs(I19
I3
tp78
g1
(g10
g3
NtRp79
(dp80
g13
F19.706631413540116
sg14
I19
sg15
I01
sg16
I3
sg17
I212
sbs(I2
I2
tp81
g1
(g10
g3
NtRp82
(dp83
g13
F-9.6106654949216654
sg14
I2
sg15
I01
sg16
I2
sg17
I2
sbs(I12
I10
tp84
g1
(g10
g3
NtRp85
(dp86
g13
F-7.3330883973481988
sg14
I12
sg15
I01
sg16
I10
sg17
I105
sbs(I8
I16
tp87
g1
(g10
g3
NtRp88
(dp89
g13
F-14.412558249056675
sg14
I8
sg15
I01
sg16
I16
sg17
I177
sbs(I12
I3
tp90
g1
(g10
g3
NtRp91
(dp92
g13
F7.4406015614603946
sg14
I12
sg15
I01
sg16
I3
sg17
I86
sbs(I8
I18
tp93
g1
(g10
g3
NtRp94
(dp95
g13
F1.0461796799018224
sg14
I8
sg15
I01
sg16
I18
sg17
I208
sbs(I3
I2
tp96
g1
(g10
g3
NtRp97
(dp98
g13
F-23.56044480800583
sg14
I3
sg15
I01
sg16
I2
sg17
I4
sbs(I2
I6
tp99
g1
(g10
g3
NtRp100
(dp101
g13
F-6.7088853775224742
sg14
I2
sg15
I00
sg16
I6
sg17
I38
sbs(I20
I22
tp102
g1
(g10
g3
NtRp103
(dp104
g13
F4.3099995102399866
sg14
I20
sg15
I01
sg16
I22
sg17
I266
sbs(I5
I11
tp105
g1
(g10
g3
NtRp106
(dp107
g13
F-20.594325803720704
sg14
I5
sg15
I01
sg16
I11
sg17
I79
sbs(I15
I3
tp108
g1
(g10
g3
NtRp109
(dp110
g13
F-9.4860751904317588
sg14
I15
sg15
I01
sg16
I3
sg17
I147
sbs(I9
I3
tp111
g1
(g10
g3
NtRp112
(dp113
g13
F-4.5356951965746353
sg14
I9
sg15
I01
sg16
I3
sg17
I60
sbs(I2
I20
tp114
g1
(g10
g3
NtRp115
(dp116
g13
F4.6501410819895543
sg14
I2
sg15
I01
sg16
I20
sg17
I220
sbs(I1
I4
tp117
g1
(g10
g3
NtRp118
(dp119
g13
F-27.303254079359132
sg14
I1
sg15
I01
sg16
I4
sg17
I6
sbs(I9
I10
tp120
g1
(g10
g3
NtRp121
(dp122
g13
F-24.036888389770095
sg14
I9
sg15
I01
sg16
I10
sg17
I90
sbs(I7
I5
tp123
g1
(g10
g3
NtRp124
(dp125
g13
F-1.3381226003281226
sg14
I7
sg15
I01
sg16
I5
sg17
I30
sbs(I2
I3
tp126
g1
(g10
g3
NtRp127
(dp128
g13
F14.293574915864903
sg14
I2
sg15
I00
sg16
I3
sg17
I5
sbs(I1
I9
tp129
g1
(g10
g3
NtRp130
(dp131
g13
F26.12839055605459
sg14
I1
sg15
I01
sg16
I9
sg17
I58
sbs(I8
I17
tp132
g1
(g10
g3
NtRp133
(dp134
g13
F11.483653498298214
sg14
I8
sg15
I01
sg16
I17
sg17
I205
sbs(I4
I2
tp135
g1
(g10
g3
NtRp136
(dp137
g13
F-13.493780770176945
sg14
I4
sg15
I01
sg16
I2
sg17
I7
sbs(I14
I2
tp138
g1
(g10
g3
NtRp139
(dp140
g13
F5.7776141864171073
sg14
I14
sg15
I01
sg16
I2
sg17
I138
sbs(I3
I5
tp141
g1
(g10
g3
NtRp142
(dp143
g13
F29.963818244476716
sg14
I3
sg15
I01
sg16
I5
sg17
I14
sbs(I10
I5
tp144
g1
(g10
g3
NtRp145
(dp146
g13
F5.938557067847416
sg14
I10
sg15
I01
sg16
I5
sg17
I76
sbs(I4
I6
tp147
g1
(g10
g3
NtRp148
(dp149
g13
F-14.577977833206011
sg14
I4
sg15
I01
sg16
I6
sg17
I22
sbs(I15
I2
tp150
g1
(g10
g3
NtRp151
(dp152
g13
F1.1454400683876014
sg14
I15
sg15
I01
sg16
I2
sg17
I170
sbs(I8
I12
tp153
g1
(g10
g3
NtRp154
(dp155
g13
F1.4844124381699735
sg14
I8
sg15
I01
sg16
I12
sg17
I88
sbs(I18
I10
tp156
g1
(g10
g3
NtRp157
(dp158
g13
F22.906955258488768
sg14
I18
sg15
I01
sg16
I10
sg17
I209
sbs(I5
I21
tp159
g1
(g10
g3
NtRp160
(dp161
g13
F4.7366530518617793
sg14
I5
sg15
I01
sg16
I21
sg17
I249
sbs(I11
I3
tp162
g1
(g10
g3
NtRp163
(dp164
g13
F-16.630528176540583
sg14
I11
sg15
I01
sg16
I3
sg17
I78
sbs(I3
I8
tp165
g1
(g10
g3
NtRp166
(dp167
g13
F22.363229712866069
sg14
I3
sg15
I01
sg16
I8
sg17
I44
sbs(I8
I14
tp168
g1
(g10
g3
NtRp169
(dp170
g13
F10.08391221116106
sg14
I8
sg15
I01
sg16
I14
sg17
I119
sbs(I20
I6
tp171
g1
(g10
g3
NtRp172
(dp173
g13
F1.0194503826645378
sg14
I20
sg15
I00
sg16
I6
sg17
I221
sbs(I4
I3
tp174
g1
(g10
g3
NtRp175
(dp176
g13
F13.568845926406128
sg14
I4
sg15
I01
sg16
I3
sg17
I10
sbs(I1
I7
tp177
g1
(g10
g3
NtRp178
(dp179
g13
F2.0004958578150451
sg14
I1
sg15
I01
sg16
I7
sg17
I29
sbs(I13
I9
tp180
g1
(g10
g3
NtRp181
(dp182
g13
F-4.3144887355731489
sg14
I13
sg15
I01
sg16
I9
sg17
I112
sbs(I5
I2
tp183
g1
(g10
g3
NtRp184
(dp185
g13
F-3.5139791870691668
sg14
I5
sg15
I01
sg16
I2
sg17
I9
sbs(I10
I2
tp186
g1
(g10
g3
NtRp187
(dp188
g13
F-12.707893840665516
sg14
I10
sg15
I01
sg16
I2
sg17
I65
sbssS'_input_nodes'
p189
I1
sS'_output_nodes'
p190
I1
sS'_node_gene_type'
p191
cneat.genome
NodeGene
p192
sS'_conn_gene_type'
p193
g10
sS'fitness'
p194
F0.94581851649908244
sS'parent2_id'
p195
I6851
sS'_id'
p196
I6872
sS'parent1_id'
p197
I6851
sS'_node_genes'
p198
(lp199
g1
(g192
g3
NtRp200
(dp201
S'_bias'
p202
I0
sS'_type'
p203
S'INPUT'
p204
sg196
I1
sS'_response'
p205
F4.9242730000000003
sS'_activation_type'
p206
Nsbag1
(g192
g3
NtRp207
(dp208
g202
F-6.3043649375227551
sg203
S'OUTPUT'
p209
sg196
I2
sg205
F5.1667923080182163
sg206
S'tanh'
p210
sbag1
(g192
g3
NtRp211
(dp212
g202
F1.0598792384486628
sg203
S'HIDDEN'
p213
sg196
I3
sg205
F1.4054446489500043
sg206
g210
sbag1
(g192
g3
NtRp214
(dp215
g202
F-4.0123480127611817
sg203
g213
sg196
I4
sg205
F7.0920572753112792
sg206
g210
sbag1
(g192
g3
NtRp216
(dp217
g202
F4.3561516061362964
sg203
g213
sg196
I5
sg205
F11.278401707121112
sg206
g210
sbag1
(g192
g3
NtRp218
(dp219
g202
F-1.6788830024960602
sg203
g213
sg196
I6
sg205
F5.069582499556164
sg206
g210
sbag1
(g192
g3
NtRp220
(dp221
g202
F0.69821625022915301
sg203
g213
sg196
I7
sg205
F0.050000691158199606
sg206
g210
sbag1
(g192
g3
NtRp222
(dp223
g202
F-1.8139293920569581
sg203
g213
sg196
I8
sg205
F9.2005778865800849
sg206
g210
sbag1
(g192
g3
NtRp224
(dp225
g202
F0.046135480914836435
sg203
g213
sg196
I9
sg205
F7.114524997179867
sg206
g210
sbag1
(g192
g3
NtRp226
(dp227
g202
F-0.31577428735183155
sg203
g213
sg196
I10
sg205
F7.231361508299746
sg206
g210
sbag1
(g192
g3
NtRp228
(dp229
g202
F-0.10832342045932206
sg203
g213
sg196
I11
sg205
F6.7523784306775285
sg206
g210
sbag1
(g192
g3
NtRp230
(dp231
g202
F0.12676033546022147
sg203
g213
sg196
I12
sg205
F3.2370555116194253
sg206
g210
sbag1
(g192
g3
NtRp232
(dp233
g202
F-2.5666193998912372
sg203
g213
sg196
I13
sg205
F3.6409910530107688
sg206
g210
sbag1
(g192
g3
NtRp234
(dp235
g202
F3.8448986661131501
sg203
g213
sg196
I14
sg205
F5.3894715878892985
sg206
g210
sbag1
(g192
g3
NtRp236
(dp237
g202
F-4.2663225015056554
sg203
g213
sg196
I15
sg205
F6.0879138654948761
sg206
g210
sbag1
(g192
g3
NtRp238
(dp239
g202
F-0.52052148546668486
sg203
g213
sg196
I16
sg205
F4.9056015895434895
sg206
g210
sbag1
(g192
g3
NtRp240
(dp241
g202
F1.5361679013548235
sg203
g213
sg196
I17
sg205
F7.2380700710336665
sg206
g210
sbag1
(g192
g3
NtRp242
(dp243
g202
F3.0600577486539713
sg203
g213
sg196
I18
sg205
F4.2552765658013412
sg206
g210
sbag1
(g192
g3
NtRp244
(dp245
g202
F-0.72342239904663674
sg203
g213
sg196
I19
sg205
F1.5061909305077292
sg206
g210
sbag1
(g192
g3
NtRp246
(dp247
g202
F0.38152634771038113
sg203
g213
sg196
I20
sg205
F4.7445898858859969
sg206
g210
sbag1
(g192
g3
NtRp248
(dp249
g202
F0.023930983536975869
sg203
g213
sg196
I21
sg205
F3.6034078390429602
sg206
g210
sbag1
(g192
g3
NtRp250
(dp251
g202
F0.5114391895768855
sg203
g213
sg196
I22
sg205
F5.9645550137643495
sg206
g210
sbasb.