ccopy_reg
_reconstructor
p1
(cneat.chromosome
Chromosome
p2
c__builtin__
object
p3
NtRp4
(dp5
S'species_id'
p6
I47
sS'_connection_genes'
p7
(dp8
(I17
I12
tp9
g1
(cneat.genome
ConnectionGene
p10
g3
NtRp11
(dp12
S'_ConnectionGene__weight'
p13
F-2.7164539182359682
sS'_ConnectionGene__in'
p14
I17
sS'_ConnectionGene__enabled'
p15
I01
sS'_ConnectionGene__out'
p16
I12
sS'_ConnectionGene__innov_number'
p17
I207
sbs(I1
I3
tp18
g1
(g10
g3
NtRp19
(dp20
g13
F-0.27927204477701917
sg14
I1
sg15
I01
sg16
I3
sg17
I3
sbs(I6
I6
tp21
g1
(g10
g3
NtRp22
(dp23
g13
F24.978894775331206
sg14
I6
sg15
I01
sg16
I6
sg17
I39
sbs(I11
I2
tp24
g1
(g10
g3
NtRp25
(dp26
g13
F-0.91077017821489747
sg14
I11
sg15
I01
sg16
I2
sg17
I80
sbs(I7
I11
tp27
g1
(g10
g3
NtRp28
(dp29
g13
F-7.427341148634147
sg14
I7
sg15
I01
sg16
I11
sg17
I123
sbs(I1
I15
tp30
g1
(g10
g3
NtRp31
(dp32
g13
F-13.913730666312723
sg14
I1
sg15
I01
sg16
I15
sg17
I146
sbs(I23
I3
tp33
g1
(g10
g3
NtRp34
(dp35
g13
F-17.000489499783459
sg14
I23
sg15
I01
sg16
I3
sg17
I246
sbs(I6
I2
tp36
g1
(g10
g3
NtRp37
(dp38
g13
F24.055439620866771
sg14
I6
sg15
I01
sg16
I2
sg17
I21
sbs(I22
I6
tp39
g1
(g10
g3
NtRp40
(dp41
g13
F6.4262711590703834
sg14
I22
sg15
I01
sg16
I6
sg17
I267
sbs(I16
I14
tp42
g1
(g10
g3
NtRp43
(dp44
g13
F-30
sg14
I16
sg15
I01
sg16
I14
sg17
I193
sbs(I5
I8
tp45
g1
(g10
g3
NtRp46
(dp47
g13
F5.143428559717572
sg14
I5
sg15
I00
sg16
I8
sg17
I42
sbs(I20
I22
tp48
g1
(g10
g3
NtRp49
(dp50
g13
F10.101182423639937
sg14
I20
sg15
I01
sg16
I22
sg17
I266
sbs(I1
I2
tp51
g1
(g10
g3
NtRp52
(dp53
g13
F2.1222021898645704
sg14
I1
sg15
I01
sg16
I2
sg17
I1
sbs(I12
I2
tp54
g1
(g10
g3
NtRp55
(dp56
g13
F11.816363569319089
sg14
I12
sg15
I01
sg16
I2
sg17
I82
sbs(I2
I19
tp57
g1
(g10
g3
NtRp58
(dp59
g13
F10.610814178382878
sg14
I2
sg15
I01
sg16
I19
sg17
I210
sbs(I3
I3
tp60
g1
(g10
g3
NtRp61
(dp62
g13
F-8.8857895514974246
sg14
I3
sg15
I01
sg16
I3
sg17
I15
sbs(I2
I9
tp63
g1
(g10
g3
NtRp64
(dp65
g13
F25.493375273984743
sg14
I2
sg15
I01
sg16
I9
sg17
I53
sbs(I13
I3
tp66
g1
(g10
g3
NtRp67
(dp68
g13
F16.691779135159937
sg14
I13
sg15
I00
sg16
I3
sg17
I92
sbs(I8
I10
tp69
g1
(g10
g3
NtRp70
(dp71
g13
F26.259083083527905
sg14
I8
sg15
I01
sg16
I10
sg17
I74
sbs(I21
I8
tp72
g1
(g10
g3
NtRp73
(dp74
g13
F13.304722771956591
sg14
I21
sg15
I01
sg16
I8
sg17
I250
sbs(I4
I13
tp75
g1
(g10
g3
NtRp76
(dp77
g13
F-1.2705965816866143
sg14
I4
sg15
I01
sg16
I13
sg17
I102
sbs(I1
I5
tp78
g1
(g10
g3
NtRp79
(dp80
g13
F-2.2213090060765706
sg14
I1
sg15
I01
sg16
I5
sg17
I11
sbs(I9
I11
tp81
g1
(g10
g3
NtRp82
(dp83
g13
F20.407635227870763
sg14
I9
sg15
I01
sg16
I11
sg17
I101
sbs(I19
I3
tp84
g1
(g10
g3
NtRp85
(dp86
g13
F29.245237326745855
sg14
I19
sg15
I01
sg16
I3
sg17
I212
sbs(I2
I2
tp87
g1
(g10
g3
NtRp88
(dp89
g13
F2.4959552913254992
sg14
I2
sg15
I01
sg16
I2
sg17
I2
sbs(I12
I10
tp90
g1
(g10
g3
NtRp91
(dp92
g13
F17.989839903220826
sg14
I12
sg15
I01
sg16
I10
sg17
I105
sbs(I8
I16
tp93
g1
(g10
g3
NtRp94
(dp95
g13
F-11.767901483196745
sg14
I8
sg15
I01
sg16
I16
sg17
I177
sbs(I12
I3
tp96
g1
(g10
g3
NtRp97
(dp98
g13
F14.556246991369875
sg14
I12
sg15
I01
sg16
I3
sg17
I86
sbs(I20
I6
tp99
g1
(g10
g3
NtRp100
(dp101
g13
F-13.344308520230264
sg14
I20
sg15
I00
sg16
I6
sg17
I221
sbs(I3
I2
tp102
g1
(g10
g3
NtRp103
(dp104
g13
F-27.177384792567572
sg14
I3
sg15
I01
sg16
I2
sg17
I4
sbs(I2
I6
tp105
g1
(g10
g3
NtRp106
(dp107
g13
F-10.172218363662516
sg14
I2
sg15
I00
sg16
I6
sg17
I38
sbs(I8
I2
tp108
g1
(g10
g3
NtRp109
(dp110
g13
F-15.801969983447744
sg14
I8
sg15
I01
sg16
I2
sg17
I43
sbs(I5
I11
tp111
g1
(g10
g3
NtRp112
(dp113
g13
F-17.297025907628694
sg14
I5
sg15
I01
sg16
I11
sg17
I79
sbs(I15
I3
tp114
g1
(g10
g3
NtRp115
(dp116
g13
F-2.606946377857823
sg14
I15
sg15
I01
sg16
I3
sg17
I147
sbs(I9
I3
tp117
g1
(g10
g3
NtRp118
(dp119
g13
F-14.327297385003089
sg14
I9
sg15
I01
sg16
I3
sg17
I60
sbs(I2
I20
tp120
g1
(g10
g3
NtRp121
(dp122
g13
F14.365696252904996
sg14
I2
sg15
I01
sg16
I20
sg17
I220
sbs(I1
I4
tp123
g1
(g10
g3
NtRp124
(dp125
g13
F-27.357033284502819
sg14
I1
sg15
I01
sg16
I4
sg17
I6
sbs(I9
I10
tp126
g1
(g10
g3
NtRp127
(dp128
g13
F-23.383838031305455
sg14
I9
sg15
I01
sg16
I10
sg17
I90
sbs(I7
I5
tp129
g1
(g10
g3
NtRp130
(dp131
g13
F3.949999691566382
sg14
I7
sg15
I01
sg16
I5
sg17
I30
sbs(I2
I3
tp132
g1
(g10
g3
NtRp133
(dp134
g13
F20.520981168984548
sg14
I2
sg15
I00
sg16
I3
sg17
I5
sbs(I1
I9
tp135
g1
(g10
g3
NtRp136
(dp137
g13
F24.289067931512932
sg14
I1
sg15
I01
sg16
I9
sg17
I58
sbs(I8
I17
tp138
g1
(g10
g3
NtRp139
(dp140
g13
F20.105489195104745
sg14
I8
sg15
I01
sg16
I17
sg17
I205
sbs(I4
I2
tp141
g1
(g10
g3
NtRp142
(dp143
g13
F-5.5412638312509657
sg14
I4
sg15
I01
sg16
I2
sg17
I7
sbs(I14
I2
tp144
g1
(g10
g3
NtRp145
(dp146
g13
F9.8501218013988776
sg14
I14
sg15
I01
sg16
I2
sg17
I138
sbs(I20
I14
tp147
g1
(g10
g3
NtRp148
(dp149
g13
F1.1815016018060918
sg14
I20
sg15
I01
sg16
I14
sg17
I336
sbs(I3
I5
tp150
g1
(g10
g3
NtRp151
(dp152
g13
F29.391249219561782
sg14
I3
sg15
I01
sg16
I5
sg17
I14
sbs(I10
I5
tp153
g1
(g10
g3
NtRp154
(dp155
g13
F0.068230884210716214
sg14
I10
sg15
I01
sg16
I5
sg17
I76
sbs(I13
I23
tp156
g1
(g10
g3
NtRp157
(dp158
g13
F10.103244307204584
sg14
I13
sg15
I01
sg16
I23
sg17
I287
sbs(I4
I6
tp159
g1
(g10
g3
NtRp160
(dp161
g13
F-13.076946983778157
sg14
I4
sg15
I01
sg16
I6
sg17
I22
sbs(I15
I2
tp162
g1
(g10
g3
NtRp163
(dp164
g13
F-1.0103412454495397
sg14
I15
sg15
I01
sg16
I2
sg17
I170
sbs(I8
I12
tp165
g1
(g10
g3
NtRp166
(dp167
g13
F13.618435487776958
sg14
I8
sg15
I01
sg16
I12
sg17
I88
sbs(I22
I12
tp168
g1
(g10
g3
NtRp169
(dp170
g13
F-3.7889768939876225
sg14
I22
sg15
I01
sg16
I12
sg17
I226
sbs(I18
I10
tp171
g1
(g10
g3
NtRp172
(dp173
g13
F14.68218059318909
sg14
I18
sg15
I01
sg16
I10
sg17
I209
sbs(I11
I3
tp174
g1
(g10
g3
NtRp175
(dp176
g13
F-12.812282298454981
sg14
I11
sg15
I01
sg16
I3
sg17
I78
sbs(I3
I8
tp177
g1
(g10
g3
NtRp178
(dp179
g13
F11.189785104289671
sg14
I3
sg15
I01
sg16
I8
sg17
I44
sbs(I8
I14
tp180
g1
(g10
g3
NtRp181
(dp182
g13
F11.564323830641886
sg14
I8
sg15
I01
sg16
I14
sg17
I119
sbs(I8
I18
tp183
g1
(g10
g3
NtRp184
(dp185
g13
F-14.979133814936018
sg14
I8
sg15
I01
sg16
I18
sg17
I208
sbs(I4
I3
tp186
g1
(g10
g3
NtRp187
(dp188
g13
F3.9294347347727054
sg14
I4
sg15
I01
sg16
I3
sg17
I10
sbs(I1
I7
tp189
g1
(g10
g3
NtRp190
(dp191
g13
F-0.21602958535095884
sg14
I1
sg15
I01
sg16
I7
sg17
I29
sbs(I13
I9
tp192
g1
(g10
g3
NtRp193
(dp194
g13
F3.5834285767923286
sg14
I13
sg15
I01
sg16
I9
sg17
I112
sbs(I10
I2
tp195
g1
(g10
g3
NtRp196
(dp197
g13
F-15.456838403573803
sg14
I10
sg15
I01
sg16
I2
sg17
I65
sbs(I5
I2
tp198
g1
(g10
g3
NtRp199
(dp200
g13
F-15.564533882500156
sg14
I5
sg15
I01
sg16
I2
sg17
I9
sbs(I5
I21
tp201
g1
(g10
g3
NtRp202
(dp203
g13
F4.1821927598746278
sg14
I5
sg15
I01
sg16
I21
sg17
I249
sbssS'_input_nodes'
p204
I1
sS'_output_nodes'
p205
I1
sS'_node_gene_type'
p206
cneat.genome
NodeGene
p207
sS'_conn_gene_type'
p208
g10
sS'fitness'
p209
F0.87416073783176651
sS'parent2_id'
p210
I7865
sS'_id'
p211
I7881
sS'parent1_id'
p212
I7865
sS'_node_genes'
p213
(lp214
g1
(g207
g3
NtRp215
(dp216
S'_bias'
p217
I0
sS'_type'
p218
S'INPUT'
p219
sg211
I1
sS'_response'
p220
F4.9242730000000003
sS'_activation_type'
p221
Nsbag1
(g207
g3
NtRp222
(dp223
g217
F-8.1235205003369249
sg218
S'OUTPUT'
p224
sg211
I2
sg220
F5.1742693366504344
sg221
S'tanh'
p225
sbag1
(g207
g3
NtRp226
(dp227
g217
F1.3788134866827817
sg218
S'HIDDEN'
p228
sg211
I3
sg220
F1.6488157053933574
sg221
g225
sbag1
(g207
g3
NtRp229
(dp230
g217
F-2.7850145043245114
sg218
g228
sg211
I4
sg220
F8.3836477389155952
sg221
g225
sbag1
(g207
g3
NtRp231
(dp232
g217
F6.1705626012733381
sg218
g228
sg211
I5
sg220
F8.8141687031557314
sg221
g225
sbag1
(g207
g3
NtRp233
(dp234
g217
F-1.1327065743114539
sg218
g228
sg211
I6
sg220
F5.0497031938118031
sg221
g225
sbag1
(g207
g3
NtRp235
(dp236
g217
F0.90978710464771217
sg218
g228
sg211
I7
sg220
F-0.86174864340047863
sg221
g225
sbag1
(g207
g3
NtRp237
(dp238
g217
F-2.5509096529972348
sg218
g228
sg211
I8
sg220
F8.56422542519846
sg221
g225
sbag1
(g207
g3
NtRp239
(dp240
g217
F1.7827094384910935
sg218
g228
sg211
I9
sg220
F6.4446985543773483
sg221
g225
sbag1
(g207
g3
NtRp241
(dp242
g217
F0.33573116833396377
sg218
g228
sg211
I10
sg220
F7.894165850788128
sg221
g225
sbag1
(g207
g3
NtRp243
(dp244
g217
F-0.24476684460448647
sg218
g228
sg211
I11
sg220
F7.0461960947316467
sg221
g225
sbag1
(g207
g3
NtRp245
(dp246
g217
F2.2423597030847047
sg218
g228
sg211
I12
sg220
F4.3838561102151212
sg221
g225
sbag1
(g207
g3
NtRp247
(dp248
g217
F-0.79511942813861602
sg218
g228
sg211
I13
sg220
F4.8773946464875211
sg221
g225
sbag1
(g207
g3
NtRp249
(dp250
g217
F5.0612506432539002
sg218
g228
sg211
I14
sg220
F5.9057973339436218
sg221
g225
sbag1
(g207
g3
NtRp251
(dp252
g217
F-2.5079992471134682
sg218
g228
sg211
I15
sg220
F5.1674917144713399
sg221
g225
sbag1
(g207
g3
NtRp253
(dp254
g217
F2.2027067962935289
sg218
g228
sg211
I16
sg220
F4.1216305556037778
sg221
g225
sbag1
(g207
g3
NtRp255
(dp256
g217
F3.3413219507257161
sg218
g228
sg211
I17
sg220
F9.7404786767904081
sg221
g225
sbag1
(g207
g3
NtRp257
(dp258
g217
F1.1182507420305487
sg218
g228
sg211
I18
sg220
F3.1003499961319592
sg221
g225
sbag1
(g207
g3
NtRp259
(dp260
g217
F0.55964872856472181
sg218
g228
sg211
I19
sg220
F0.45724316068338711
sg221
g225
sbag1
(g207
g3
NtRp261
(dp262
g217
F0.43085468967874513
sg218
g228
sg211
I20
sg220
F4.4557704285511912
sg221
g225
sbag1
(g207
g3
NtRp263
(dp264
g217
F0.303361228714633
sg218
g228
sg211
I21
sg220
F4.0046320851708623
sg221
g225
sbag1
(g207
g3
NtRp265
(dp266
g217
F0.52691124889557184
sg218
g228
sg211
I22
sg220
F4.8891298372238632
sg221
g225
sbag1
(g207
g3
NtRp267
(dp268
g217
F-1.3864745881438636
sg218
g228
sg211
I23
sg220
F5.6435744289567982
sg221
g225
sbasb.