ccopy_reg
_reconstructor
p1
(cneat.chromosome
Chromosome
p2
c__builtin__
object
p3
NtRp4
(dp5
S'species_id'
p6
I38
sS'_connection_genes'
p7
(dp8
(I1
I3
tp9
g1
(cneat.genome
ConnectionGene
p10
g3
NtRp11
(dp12
S'_ConnectionGene__weight'
p13
F0.65758804451377051
sS'_ConnectionGene__in'
p14
I1
sS'_ConnectionGene__enabled'
p15
I01
sS'_ConnectionGene__out'
p16
I3
sS'_ConnectionGene__innov_number'
p17
I3
sbs(I6
I6
tp18
g1
(g10
g3
NtRp19
(dp20
g13
F21.400810676901106
sg14
I6
sg15
I01
sg16
I6
sg17
I39
sbs(I11
I2
tp21
g1
(g10
g3
NtRp22
(dp23
g13
F-5.7708461803516293
sg14
I11
sg15
I01
sg16
I2
sg17
I80
sbs(I1
I15
tp24
g1
(g10
g3
NtRp25
(dp26
g13
F-11.205379983215302
sg14
I1
sg15
I01
sg16
I15
sg17
I146
sbs(I6
I2
tp27
g1
(g10
g3
NtRp28
(dp29
g13
F30
sg14
I6
sg15
I01
sg16
I2
sg17
I21
sbs(I16
I14
tp30
g1
(g10
g3
NtRp31
(dp32
g13
F-28.614155307297278
sg14
I16
sg15
I01
sg16
I14
sg17
I193
sbs(I5
I8
tp33
g1
(g10
g3
NtRp34
(dp35
g13
F14.487272408047046
sg14
I5
sg15
I01
sg16
I8
sg17
I42
sbs(I1
I2
tp36
g1
(g10
g3
NtRp37
(dp38
g13
F-21.341728018728055
sg14
I1
sg15
I01
sg16
I2
sg17
I1
sbs(I12
I2
tp39
g1
(g10
g3
NtRp40
(dp41
g13
F10.710281599815035
sg14
I12
sg15
I01
sg16
I2
sg17
I82
sbs(I2
I19
tp42
g1
(g10
g3
NtRp43
(dp44
g13
F18.643089844009996
sg14
I2
sg15
I01
sg16
I19
sg17
I210
sbs(I3
I3
tp45
g1
(g10
g3
NtRp46
(dp47
g13
F2.4522150041314275
sg14
I3
sg15
I01
sg16
I3
sg17
I15
sbs(I2
I9
tp48
g1
(g10
g3
NtRp49
(dp50
g13
F23.211960926236543
sg14
I2
sg15
I01
sg16
I9
sg17
I53
sbs(I13
I3
tp51
g1
(g10
g3
NtRp52
(dp53
g13
F4.3205263858439054
sg14
I13
sg15
I01
sg16
I3
sg17
I92
sbs(I8
I10
tp54
g1
(g10
g3
NtRp55
(dp56
g13
F20.701323145076525
sg14
I8
sg15
I00
sg16
I10
sg17
I74
sbs(I4
I13
tp57
g1
(g10
g3
NtRp58
(dp59
g13
F-5.9109962083050824
sg14
I4
sg15
I01
sg16
I13
sg17
I102
sbs(I1
I5
tp60
g1
(g10
g3
NtRp61
(dp62
g13
F-16.054822742825852
sg14
I1
sg15
I00
sg16
I5
sg17
I11
sbs(I9
I11
tp63
g1
(g10
g3
NtRp64
(dp65
g13
F-4.0639972341463579
sg14
I9
sg15
I01
sg16
I11
sg17
I101
sbs(I19
I3
tp66
g1
(g10
g3
NtRp67
(dp68
g13
F15.061804980352289
sg14
I19
sg15
I01
sg16
I3
sg17
I212
sbs(I2
I2
tp69
g1
(g10
g3
NtRp70
(dp71
g13
F6.3577335693740302
sg14
I2
sg15
I01
sg16
I2
sg17
I2
sbs(I8
I16
tp72
g1
(g10
g3
NtRp73
(dp74
g13
F-2.8464732970329001
sg14
I8
sg15
I01
sg16
I16
sg17
I177
sbs(I20
I6
tp75
g1
(g10
g3
NtRp76
(dp77
g13
F-2.349336119934665
sg14
I20
sg15
I01
sg16
I6
sg17
I221
sbs(I3
I2
tp78
g1
(g10
g3
NtRp79
(dp80
g13
F-30
sg14
I3
sg15
I01
sg16
I2
sg17
I4
sbs(I2
I6
tp81
g1
(g10
g3
NtRp82
(dp83
g13
F-4.9542609939602356
sg14
I2
sg15
I00
sg16
I6
sg17
I38
sbs(I8
I2
tp84
g1
(g10
g3
NtRp85
(dp86
g13
F-27.650442254830633
sg14
I8
sg15
I01
sg16
I2
sg17
I43
sbs(I5
I11
tp87
g1
(g10
g3
NtRp88
(dp89
g13
F-10.26586020659353
sg14
I5
sg15
I01
sg16
I11
sg17
I79
sbs(I15
I3
tp90
g1
(g10
g3
NtRp91
(dp92
g13
F-6.7971023020221981
sg14
I15
sg15
I01
sg16
I3
sg17
I147
sbs(I9
I3
tp93
g1
(g10
g3
NtRp94
(dp95
g13
F-10.862535727567138
sg14
I9
sg15
I01
sg16
I3
sg17
I60
sbs(I2
I20
tp96
g1
(g10
g3
NtRp97
(dp98
g13
F2.2895431709923679
sg14
I2
sg15
I01
sg16
I20
sg17
I220
sbs(I1
I4
tp99
g1
(g10
g3
NtRp100
(dp101
g13
F-30
sg14
I1
sg15
I01
sg16
I4
sg17
I6
sbs(I9
I10
tp102
g1
(g10
g3
NtRp103
(dp104
g13
F-18.593623926815855
sg14
I9
sg15
I01
sg16
I10
sg17
I90
sbs(I7
I5
tp105
g1
(g10
g3
NtRp106
(dp107
g13
F-6.9400136828341417
sg14
I7
sg15
I01
sg16
I5
sg17
I30
sbs(I2
I3
tp108
g1
(g10
g3
NtRp109
(dp110
g13
F5.3825897192206966
sg14
I2
sg15
I00
sg16
I3
sg17
I5
sbs(I1
I9
tp111
g1
(g10
g3
NtRp112
(dp113
g13
F21.347161294960884
sg14
I1
sg15
I01
sg16
I9
sg17
I58
sbs(I13
I9
tp114
g1
(g10
g3
NtRp115
(dp116
g13
F-7.9611016694415646
sg14
I13
sg15
I01
sg16
I9
sg17
I112
sbs(I8
I17
tp117
g1
(g10
g3
NtRp118
(dp119
g13
F-1.439926415965282
sg14
I8
sg15
I01
sg16
I17
sg17
I205
sbs(I4
I2
tp120
g1
(g10
g3
NtRp121
(dp122
g13
F-15.700849259433639
sg14
I4
sg15
I01
sg16
I2
sg17
I7
sbs(I14
I2
tp123
g1
(g10
g3
NtRp124
(dp125
g13
F2.1051279619050911
sg14
I14
sg15
I01
sg16
I2
sg17
I138
sbs(I3
I5
tp126
g1
(g10
g3
NtRp127
(dp128
g13
F6.8182823688288829
sg14
I3
sg15
I01
sg16
I5
sg17
I14
sbs(I10
I5
tp129
g1
(g10
g3
NtRp130
(dp131
g13
F2.3514581254713258
sg14
I10
sg15
I01
sg16
I5
sg17
I76
sbs(I4
I6
tp132
g1
(g10
g3
NtRp133
(dp134
g13
F-21.571769660515869
sg14
I4
sg15
I01
sg16
I6
sg17
I22
sbs(I15
I2
tp135
g1
(g10
g3
NtRp136
(dp137
g13
F4.7808246166508752
sg14
I15
sg15
I01
sg16
I2
sg17
I170
sbs(I8
I12
tp138
g1
(g10
g3
NtRp139
(dp140
g13
F-1.2832209622505526
sg14
I8
sg15
I01
sg16
I12
sg17
I88
sbs(I18
I10
tp141
g1
(g10
g3
NtRp142
(dp143
g13
F15.308642652713681
sg14
I18
sg15
I01
sg16
I10
sg17
I209
sbs(I11
I3
tp144
g1
(g10
g3
NtRp145
(dp146
g13
F-17.090257687608332
sg14
I11
sg15
I01
sg16
I3
sg17
I78
sbs(I3
I8
tp147
g1
(g10
g3
NtRp148
(dp149
g13
F18.406532378823101
sg14
I3
sg15
I01
sg16
I8
sg17
I44
sbs(I8
I14
tp150
g1
(g10
g3
NtRp151
(dp152
g13
F-3.7118183721379903
sg14
I8
sg15
I01
sg16
I14
sg17
I119
sbs(I8
I18
tp153
g1
(g10
g3
NtRp154
(dp155
g13
F16.453931203081037
sg14
I8
sg15
I01
sg16
I18
sg17
I208
sbs(I17
I12
tp156
g1
(g10
g3
NtRp157
(dp158
g13
F0.09227725578394097
sg14
I17
sg15
I01
sg16
I12
sg17
I207
sbs(I1
I7
tp159
g1
(g10
g3
NtRp160
(dp161
g13
F13.635616008516317
sg14
I1
sg15
I01
sg16
I7
sg17
I29
sbs(I4
I3
tp162
g1
(g10
g3
NtRp163
(dp164
g13
F9.9545653944772585
sg14
I4
sg15
I01
sg16
I3
sg17
I10
sbs(I5
I2
tp165
g1
(g10
g3
NtRp166
(dp167
g13
F-5.2664563526164381
sg14
I5
sg15
I01
sg16
I2
sg17
I9
sbs(I10
I2
tp168
g1
(g10
g3
NtRp169
(dp170
g13
F-15.283796080285109
sg14
I10
sg15
I01
sg16
I2
sg17
I65
sbssS'_input_nodes'
p171
I1
sS'_output_nodes'
p172
I1
sS'_node_gene_type'
p173
cneat.genome
NodeGene
p174
sS'_conn_gene_type'
p175
g10
sS'fitness'
p176
F0.94371164379008399
sS'parent2_id'
p177
I6317
sS'_id'
p178
I6350
sS'parent1_id'
p179
I6317
sS'_node_genes'
p180
(lp181
g1
(g174
g3
NtRp182
(dp183
S'_bias'
p184
I0
sS'_type'
p185
S'INPUT'
p186
sg178
I1
sS'_response'
p187
F4.9242730000000003
sS'_activation_type'
p188
Nsbag1
(g174
g3
NtRp189
(dp190
g184
F-6.5277196675707589
sg185
S'OUTPUT'
p191
sg178
I2
sg187
F5.5928297173141859
sg188
S'tanh'
p192
sbag1
(g174
g3
NtRp193
(dp194
g184
F1.5695189838433765
sg185
S'HIDDEN'
p195
sg178
I3
sg187
F3.6445725988155853
sg188
g192
sbag1
(g174
g3
NtRp196
(dp197
g184
F-4.4164906359431004
sg185
g195
sg178
I4
sg187
F3.2406792323721665
sg188
g192
sbag1
(g174
g3
NtRp198
(dp199
g184
F4.7945671197415693
sg185
g195
sg178
I5
sg187
F12.364733961702445
sg188
g192
sbag1
(g174
g3
NtRp200
(dp201
g184
F0.21645533361317243
sg185
g195
sg178
I6
sg187
F3.9538011758816842
sg188
g192
sbag1
(g174
g3
NtRp202
(dp203
g184
F-1.6656197239503496
sg185
g195
sg178
I7
sg187
F-0.12864115427761041
sg188
g192
sbag1
(g174
g3
NtRp204
(dp205
g184
F-2.7853926024395337
sg185
g195
sg178
I8
sg187
F10.829245249327533
sg188
g192
sbag1
(g174
g3
NtRp206
(dp207
g184
F-2.0665074282958469
sg185
g195
sg178
I9
sg187
F7.307564589299349
sg188
g192
sbag1
(g174
g3
NtRp208
(dp209
g184
F-1.3352314500238247
sg185
g195
sg178
I10
sg187
F7.4398742045783894
sg188
g192
sbag1
(g174
g3
NtRp210
(dp211
g184
F-0.035379445122604714
sg185
g195
sg178
I11
sg187
F6.3551130780395972
sg188
g192
sbag1
(g174
g3
NtRp212
(dp213
g184
F-0.18460969588107412
sg185
g195
sg178
I12
sg187
F4.4863487587426771
sg188
g192
sbag1
(g174
g3
NtRp214
(dp215
g184
F-1.8519403225539892
sg185
g195
sg178
I13
sg187
F5.761198901800558
sg188
g192
sbag1
(g174
g3
NtRp216
(dp217
g184
F4.2751544013755369
sg185
g195
sg178
I14
sg187
F4.2176575826962193
sg188
g192
sbag1
(g174
g3
NtRp218
(dp219
g184
F-2.8871281077722588
sg185
g195
sg178
I15
sg187
F6.1448370268120547
sg188
g192
sbag1
(g174
g3
NtRp220
(dp221
g184
F-1.0700257057431219
sg185
g195
sg178
I16
sg187
F3.7634903097536658
sg188
g192
sbag1
(g174
g3
NtRp222
(dp223
g184
F0.55127469055280742
sg185
g195
sg178
I17
sg187
F5.770480715552293
sg188
g192
sbag1
(g174
g3
NtRp224
(dp225
g184
F0.64511655044056093
sg185
g195
sg178
I18
sg187
F4.9802025385332396
sg188
g192
sbag1
(g174
g3
NtRp226
(dp227
g184
F-0.2569208217794367
sg185
g195
sg178
I19
sg187
F3.977359391176543
sg188
g192
sbag1
(g174
g3
NtRp228
(dp229
g184
F0.26831403089548478
sg185
g195
sg178
I20
sg187
F5.572348746805889
sg188
g192
sbasb.