ccopy_reg
_reconstructor
p1
(cneat.chromosome
Chromosome
p2
c__builtin__
object
p3
NtRp4
(dp5
S'species_id'
p6
I36
sS'_connection_genes'
p7
(dp8
(I1
I3
tp9
g1
(cneat.genome
ConnectionGene
p10
g3
NtRp11
(dp12
S'_ConnectionGene__weight'
p13
F-7.2507233554546513
sS'_ConnectionGene__in'
p14
I1
sS'_ConnectionGene__enabled'
p15
I01
sS'_ConnectionGene__out'
p16
I3
sS'_ConnectionGene__innov_number'
p17
I3
sbs(I6
I6
tp18
g1
(g10
g3
NtRp19
(dp20
g13
F24.077762884048102
sg14
I6
sg15
I01
sg16
I6
sg17
I39
sbs(I11
I2
tp21
g1
(g10
g3
NtRp22
(dp23
g13
F2.632647388494989
sg14
I11
sg15
I01
sg16
I2
sg17
I80
sbs(I1
I15
tp24
g1
(g10
g3
NtRp25
(dp26
g13
F-9.5465147816347571
sg14
I1
sg15
I01
sg16
I15
sg17
I146
sbs(I6
I2
tp27
g1
(g10
g3
NtRp28
(dp29
g13
F27.883550157700796
sg14
I6
sg15
I01
sg16
I2
sg17
I21
sbs(I16
I14
tp30
g1
(g10
g3
NtRp31
(dp32
g13
F-14.6246542263083
sg14
I16
sg15
I01
sg16
I14
sg17
I193
sbs(I5
I8
tp33
g1
(g10
g3
NtRp34
(dp35
g13
F12.7211234524361
sg14
I5
sg15
I01
sg16
I8
sg17
I42
sbs(I1
I2
tp36
g1
(g10
g3
NtRp37
(dp38
g13
F-23.056687285201367
sg14
I1
sg15
I01
sg16
I2
sg17
I1
sbs(I12
I2
tp39
g1
(g10
g3
NtRp40
(dp41
g13
F3.8087775248471822
sg14
I12
sg15
I01
sg16
I2
sg17
I82
sbs(I2
I19
tp42
g1
(g10
g3
NtRp43
(dp44
g13
F11.096641205293938
sg14
I2
sg15
I01
sg16
I19
sg17
I210
sbs(I3
I3
tp45
g1
(g10
g3
NtRp46
(dp47
g13
F-6.7729474817235253
sg14
I3
sg15
I01
sg16
I3
sg17
I15
sbs(I2
I9
tp48
g1
(g10
g3
NtRp49
(dp50
g13
F14.861381415212916
sg14
I2
sg15
I01
sg16
I9
sg17
I53
sbs(I13
I3
tp51
g1
(g10
g3
NtRp52
(dp53
g13
F3.0857891933601409
sg14
I13
sg15
I01
sg16
I3
sg17
I92
sbs(I4
I3
tp54
g1
(g10
g3
NtRp55
(dp56
g13
F9.8705229111382771
sg14
I4
sg15
I01
sg16
I3
sg17
I10
sbs(I8
I10
tp57
g1
(g10
g3
NtRp58
(dp59
g13
F30
sg14
I8
sg15
I00
sg16
I10
sg17
I74
sbs(I4
I13
tp60
g1
(g10
g3
NtRp61
(dp62
g13
F-4.2401930028071169
sg14
I4
sg15
I01
sg16
I13
sg17
I102
sbs(I1
I5
tp63
g1
(g10
g3
NtRp64
(dp65
g13
F-13.726017663531518
sg14
I1
sg15
I00
sg16
I5
sg17
I11
sbs(I9
I11
tp66
g1
(g10
g3
NtRp67
(dp68
g13
F-11.108665542868664
sg14
I9
sg15
I01
sg16
I11
sg17
I101
sbs(I19
I3
tp69
g1
(g10
g3
NtRp70
(dp71
g13
F8.9934620138887613
sg14
I19
sg15
I01
sg16
I3
sg17
I212
sbs(I2
I2
tp72
g1
(g10
g3
NtRp73
(dp74
g13
F6.374311916099682
sg14
I2
sg15
I01
sg16
I2
sg17
I2
sbs(I8
I16
tp75
g1
(g10
g3
NtRp76
(dp77
g13
F-3.110641568042336
sg14
I8
sg15
I01
sg16
I16
sg17
I177
sbs(I20
I6
tp78
g1
(g10
g3
NtRp79
(dp80
g13
F-5.0164846235486635
sg14
I20
sg15
I01
sg16
I6
sg17
I221
sbs(I3
I2
tp81
g1
(g10
g3
NtRp82
(dp83
g13
F-26.227691610500251
sg14
I3
sg15
I01
sg16
I2
sg17
I4
sbs(I2
I6
tp84
g1
(g10
g3
NtRp85
(dp86
g13
F1.5157845503322789
sg14
I2
sg15
I00
sg16
I6
sg17
I38
sbs(I8
I2
tp87
g1
(g10
g3
NtRp88
(dp89
g13
F-17.024107513920637
sg14
I8
sg15
I01
sg16
I2
sg17
I43
sbs(I5
I11
tp90
g1
(g10
g3
NtRp91
(dp92
g13
F-8.9938039901536797
sg14
I5
sg15
I01
sg16
I11
sg17
I79
sbs(I15
I3
tp93
g1
(g10
g3
NtRp94
(dp95
g13
F-7.7583028374483272
sg14
I15
sg15
I00
sg16
I3
sg17
I147
sbs(I9
I3
tp96
g1
(g10
g3
NtRp97
(dp98
g13
F-12.364499524195178
sg14
I9
sg15
I01
sg16
I3
sg17
I60
sbs(I2
I20
tp99
g1
(g10
g3
NtRp100
(dp101
g13
F2.8431372911246919
sg14
I2
sg15
I01
sg16
I20
sg17
I220
sbs(I1
I4
tp102
g1
(g10
g3
NtRp103
(dp104
g13
F-28.746692232830029
sg14
I1
sg15
I01
sg16
I4
sg17
I6
sbs(I9
I10
tp105
g1
(g10
g3
NtRp106
(dp107
g13
F-19.647977555370208
sg14
I9
sg15
I01
sg16
I10
sg17
I90
sbs(I7
I5
tp108
g1
(g10
g3
NtRp109
(dp110
g13
F-6.6682223125910571
sg14
I7
sg15
I01
sg16
I5
sg17
I30
sbs(I2
I3
tp111
g1
(g10
g3
NtRp112
(dp113
g13
F2.3686758077539452
sg14
I2
sg15
I00
sg16
I3
sg17
I5
sbs(I1
I9
tp114
g1
(g10
g3
NtRp115
(dp116
g13
F10.673288589364137
sg14
I1
sg15
I01
sg16
I9
sg17
I58
sbs(I8
I17
tp117
g1
(g10
g3
NtRp118
(dp119
g13
F6.2439462088840303
sg14
I8
sg15
I01
sg16
I17
sg17
I205
sbs(I4
I2
tp120
g1
(g10
g3
NtRp121
(dp122
g13
F-1.034308386837159
sg14
I4
sg15
I01
sg16
I2
sg17
I7
sbs(I14
I2
tp123
g1
(g10
g3
NtRp124
(dp125
g13
F0.11998981937623587
sg14
I14
sg15
I01
sg16
I2
sg17
I138
sbs(I3
I5
tp126
g1
(g10
g3
NtRp127
(dp128
g13
F10.884132994563759
sg14
I3
sg15
I01
sg16
I5
sg17
I14
sbs(I10
I5
tp129
g1
(g10
g3
NtRp130
(dp131
g13
F-1.3239158620178419
sg14
I10
sg15
I01
sg16
I5
sg17
I76
sbs(I4
I6
tp132
g1
(g10
g3
NtRp133
(dp134
g13
F-10.318167482659547
sg14
I4
sg15
I01
sg16
I6
sg17
I22
sbs(I15
I2
tp135
g1
(g10
g3
NtRp136
(dp137
g13
F2.2705314046784397
sg14
I15
sg15
I01
sg16
I2
sg17
I170
sbs(I8
I12
tp138
g1
(g10
g3
NtRp139
(dp140
g13
F-1.3466537785858217
sg14
I8
sg15
I01
sg16
I12
sg17
I88
sbs(I18
I10
tp141
g1
(g10
g3
NtRp142
(dp143
g13
F18.689327393329656
sg14
I18
sg15
I01
sg16
I10
sg17
I209
sbs(I11
I3
tp144
g1
(g10
g3
NtRp145
(dp146
g13
F-12.289882315383066
sg14
I11
sg15
I01
sg16
I3
sg17
I78
sbs(I3
I8
tp147
g1
(g10
g3
NtRp148
(dp149
g13
F15.130854237528473
sg14
I3
sg15
I01
sg16
I8
sg17
I44
sbs(I8
I14
tp150
g1
(g10
g3
NtRp151
(dp152
g13
F1.7738687894993519
sg14
I8
sg15
I00
sg16
I14
sg17
I119
sbs(I8
I18
tp153
g1
(g10
g3
NtRp154
(dp155
g13
F1.3233987396568014
sg14
I8
sg15
I01
sg16
I18
sg17
I208
sbs(I17
I12
tp156
g1
(g10
g3
NtRp157
(dp158
g13
F-2.5452891151453407
sg14
I17
sg15
I01
sg16
I12
sg17
I207
sbs(I1
I7
tp159
g1
(g10
g3
NtRp160
(dp161
g13
F18.449020649673304
sg14
I1
sg15
I01
sg16
I7
sg17
I29
sbs(I13
I9
tp162
g1
(g10
g3
NtRp163
(dp164
g13
F-1.9722256306809967
sg14
I13
sg15
I01
sg16
I9
sg17
I112
sbs(I5
I2
tp165
g1
(g10
g3
NtRp166
(dp167
g13
F-0.30787658138323015
sg14
I5
sg15
I01
sg16
I2
sg17
I9
sbs(I10
I2
tp168
g1
(g10
g3
NtRp169
(dp170
g13
F-12.527014136979222
sg14
I10
sg15
I01
sg16
I2
sg17
I65
sbssS'_input_nodes'
p171
I1
sS'_output_nodes'
p172
I1
sS'_node_gene_type'
p173
cneat.genome
NodeGene
p174
sS'_conn_gene_type'
p175
g10
sS'fitness'
p176
F0.99104583236089072
sS'parent2_id'
p177
I5898
sS'_id'
p178
I5917
sS'parent1_id'
p179
I5898
sS'_node_genes'
p180
(lp181
g1
(g174
g3
NtRp182
(dp183
S'_bias'
p184
I0
sS'_type'
p185
S'INPUT'
p186
sg178
I1
sS'_response'
p187
F4.9242730000000003
sS'_activation_type'
p188
Nsbag1
(g174
g3
NtRp189
(dp190
g184
F-7.1247070992064465
sg185
S'OUTPUT'
p191
sg178
I2
sg187
F4.999484074371642
sg188
S'tanh'
p192
sbag1
(g174
g3
NtRp193
(dp194
g184
F1.5970496171019493
sg185
S'HIDDEN'
p195
sg178
I3
sg187
F3.1376278470729551
sg188
g192
sbag1
(g174
g3
NtRp196
(dp197
g184
F-5.3357095011294815
sg185
g195
sg178
I4
sg187
F5.6887710246700696
sg188
g192
sbag1
(g174
g3
NtRp198
(dp199
g184
F3.9873241254913907
sg185
g195
sg178
I5
sg187
F12.214670721477431
sg188
g192
sbag1
(g174
g3
NtRp200
(dp201
g184
F0.088838943361415623
sg185
g195
sg178
I6
sg187
F6.5068220545560189
sg188
g192
sbag1
(g174
g3
NtRp202
(dp203
g184
F-1.6870217850113352
sg185
g195
sg178
I7
sg187
F0.62867313061837127
sg188
g192
sbag1
(g174
g3
NtRp204
(dp205
g184
F-1.417090409543726
sg185
g195
sg178
I8
sg187
F11.948124866515027
sg188
g192
sbag1
(g174
g3
NtRp206
(dp207
g184
F-1.777601782013011
sg185
g195
sg178
I9
sg187
F9.1664224515818766
sg188
g192
sbag1
(g174
g3
NtRp208
(dp209
g184
F-0.15357175724619226
sg185
g195
sg178
I10
sg187
F7.3371133344333543
sg188
g192
sbag1
(g174
g3
NtRp210
(dp211
g184
F-0.44771898174502872
sg185
g195
sg178
I11
sg187
F7.7456648867584761
sg188
g192
sbag1
(g174
g3
NtRp212
(dp213
g184
F0.52078727358591337
sg185
g195
sg178
I12
sg187
F4.5955050190940652
sg188
g192
sbag1
(g174
g3
NtRp214
(dp215
g184
F-1.7870190345527697
sg185
g195
sg178
I13
sg187
F4.7255497394182386
sg188
g192
sbag1
(g174
g3
NtRp216
(dp217
g184
F2.9524774825521614
sg185
g195
sg178
I14
sg187
F4.7378836808711915
sg188
g192
sbag1
(g174
g3
NtRp218
(dp219
g184
F-1.9500388897235017
sg185
g195
sg178
I15
sg187
F5.2070116478645208
sg188
g192
sbag1
(g174
g3
NtRp220
(dp221
g184
F-0.31142784964839237
sg185
g195
sg178
I16
sg187
F3.9802763345448104
sg188
g192
sbag1
(g174
g3
NtRp222
(dp223
g184
F0.13294798992016943
sg185
g195
sg178
I17
sg187
F4.6858875219210745
sg188
g192
sbag1
(g174
g3
NtRp224
(dp225
g184
F0.57139834894561636
sg185
g195
sg178
I18
sg187
F4.7936545135632755
sg188
g192
sbag1
(g174
g3
NtRp226
(dp227
g184
F-0.13637198589012614
sg185
g195
sg178
I19
sg187
F4.790634345171175
sg188
g192
sbag1
(g174
g3
NtRp228
(dp229
g184
F-0.75696132719208131
sg185
g195
sg178
I20
sg187
F4.9242730000000003
sg188
g192
sbasb.