ccopy_reg
_reconstructor
p1
(cneat.chromosome
Chromosome
p2
c__builtin__
object
p3
NtRp4
(dp5
S'species_id'
p6
I24
sS'_connection_genes'
p7
(dp8
(I1
I3
tp9
g1
(cneat.genome
ConnectionGene
p10
g3
NtRp11
(dp12
S'_ConnectionGene__weight'
p13
F-1.9009771212205591
sS'_ConnectionGene__in'
p14
I1
sS'_ConnectionGene__enabled'
p15
I01
sS'_ConnectionGene__out'
p16
I3
sS'_ConnectionGene__innov_number'
p17
I3
sbs(I6
I6
tp18
g1
(g10
g3
NtRp19
(dp20
g13
F1.2581218198527768
sg14
I6
sg15
I01
sg16
I6
sg17
I39
sbs(I6
I2
tp21
g1
(g10
g3
NtRp22
(dp23
g13
F3.4844146704160446
sg14
I6
sg15
I01
sg16
I2
sg17
I21
sbs(I5
I8
tp24
g1
(g10
g3
NtRp25
(dp26
g13
F15.273329801385897
sg14
I5
sg15
I01
sg16
I8
sg17
I42
sbs(I1
I2
tp27
g1
(g10
g3
NtRp28
(dp29
g13
F-25.485857359581637
sg14
I1
sg15
I01
sg16
I2
sg17
I1
sbs(I3
I3
tp30
g1
(g10
g3
NtRp31
(dp32
g13
F3.6219292615354215
sg14
I3
sg15
I01
sg16
I3
sg17
I15
sbs(I2
I9
tp33
g1
(g10
g3
NtRp34
(dp35
g13
F-5.8222141313489075
sg14
I2
sg15
I01
sg16
I9
sg17
I53
sbs(I3
I10
tp36
g1
(g10
g3
NtRp37
(dp38
g13
F11.761553481001226
sg14
I3
sg15
I01
sg16
I10
sg17
I64
sbs(I6
I10
tp39
g1
(g10
g3
NtRp40
(dp41
g13
F-0.69076527422333989
sg14
I6
sg15
I01
sg16
I10
sg17
I134
sbs(I4
I4
tp42
g1
(g10
g3
NtRp43
(dp44
g13
F-13.275190799887593
sg14
I4
sg15
I00
sg16
I4
sg17
I16
sbs(I1
I5
tp45
g1
(g10
g3
NtRp46
(dp47
g13
F1.6178634269116996
sg14
I1
sg15
I01
sg16
I5
sg17
I11
sbs(I2
I2
tp48
g1
(g10
g3
NtRp49
(dp50
g13
F17.209622890432119
sg14
I2
sg15
I01
sg16
I2
sg17
I2
sbs(I1
I10
tp51
g1
(g10
g3
NtRp52
(dp53
g13
F-3.4078099161417876
sg14
I1
sg15
I01
sg16
I10
sg17
I71
sbs(I5
I3
tp54
g1
(g10
g3
NtRp55
(dp56
g13
F-2.9095453059741798
sg14
I5
sg15
I01
sg16
I3
sg17
I19
sbs(I3
I2
tp57
g1
(g10
g3
NtRp58
(dp59
g13
F-20.441526588869216
sg14
I3
sg15
I01
sg16
I2
sg17
I4
sbs(I2
I6
tp60
g1
(g10
g3
NtRp61
(dp62
g13
F-3.8084765712133244
sg14
I2
sg15
I01
sg16
I6
sg17
I38
sbs(I11
I4
tp63
g1
(g10
g3
NtRp64
(dp65
g13
F-11.004230006834652
sg14
I11
sg15
I01
sg16
I4
sg17
I99
sbs(I8
I2
tp66
g1
(g10
g3
NtRp67
(dp68
g13
F-1.2738681330082322
sg14
I8
sg15
I01
sg16
I2
sg17
I43
sbs(I9
I3
tp69
g1
(g10
g3
NtRp70
(dp71
g13
F30
sg14
I9
sg15
I01
sg16
I3
sg17
I60
sbs(I1
I4
tp72
g1
(g10
g3
NtRp73
(dp74
g13
F-12.851284925285038
sg14
I1
sg15
I01
sg16
I4
sg17
I6
sbs(I7
I5
tp75
g1
(g10
g3
NtRp76
(dp77
g13
F23.56683134055125
sg14
I7
sg15
I01
sg16
I5
sg17
I30
sbs(I2
I3
tp78
g1
(g10
g3
NtRp79
(dp80
g13
F-24.859654225059156
sg14
I2
sg15
I01
sg16
I3
sg17
I5
sbs(I1
I9
tp81
g1
(g10
g3
NtRp82
(dp83
g13
F-8.9705783548772438
sg14
I1
sg15
I01
sg16
I9
sg17
I58
sbs(I4
I2
tp84
g1
(g10
g3
NtRp85
(dp86
g13
F-19.993500484882311
sg14
I4
sg15
I00
sg16
I2
sg17
I7
sbs(I4
I11
tp87
g1
(g10
g3
NtRp88
(dp89
g13
F0.6207072002323315
sg14
I4
sg15
I01
sg16
I11
sg17
I89
sbs(I3
I5
tp90
g1
(g10
g3
NtRp91
(dp92
g13
F-27.69963066103033
sg14
I3
sg15
I01
sg16
I5
sg17
I14
sbs(I10
I5
tp93
g1
(g10
g3
NtRp94
(dp95
g13
F-3.4927384287282246
sg14
I10
sg15
I01
sg16
I5
sg17
I76
sbs(I4
I6
tp96
g1
(g10
g3
NtRp97
(dp98
g13
F14.422373242490499
sg14
I4
sg15
I01
sg16
I6
sg17
I22
sbs(I9
I2
tp99
g1
(g10
g3
NtRp100
(dp101
g13
F-8.1427953385455965
sg14
I9
sg15
I01
sg16
I2
sg17
I49
sbs(I4
I3
tp102
g1
(g10
g3
NtRp103
(dp104
g13
F8.1616957465148925
sg14
I4
sg15
I01
sg16
I3
sg17
I10
sbs(I1
I7
tp105
g1
(g10
g3
NtRp106
(dp107
g13
F-2.1126298928781955
sg14
I1
sg15
I01
sg16
I7
sg17
I29
sbs(I5
I2
tp108
g1
(g10
g3
NtRp109
(dp110
g13
F-28.833029827991965
sg14
I5
sg15
I01
sg16
I2
sg17
I9
sbssS'_input_nodes'
p111
I1
sS'_output_nodes'
p112
I1
sS'_node_gene_type'
p113
cneat.genome
NodeGene
p114
sS'_conn_gene_type'
p115
g10
sS'fitness'
p116
F0.95626223759152307
sS'parent2_id'
p117
I4150
sS'_id'
p118
I4167
sS'parent1_id'
p119
I4154
sS'_node_genes'
p120
(lp121
g1
(g114
g3
NtRp122
(dp123
S'_bias'
p124
I0
sS'_type'
p125
S'INPUT'
p126
sg118
I1
sS'_response'
p127
F4.9242730000000003
sS'_activation_type'
p128
Nsbag1
(g114
g3
NtRp129
(dp130
g124
F-2.4759483676292153
sg125
S'OUTPUT'
p131
sg118
I2
sg127
F4.2543731468410222
sg128
S'tanh'
p132
sbag1
(g114
g3
NtRp133
(dp134
g124
F2.6979749765363636
sg125
S'HIDDEN'
p135
sg118
I3
sg127
F4.5588315366812582
sg128
g132
sbag1
(g114
g3
NtRp136
(dp137
g124
F1.6322724305494216
sg125
g135
sg118
I4
sg127
F3.8976952160391094
sg128
g132
sbag1
(g114
g3
NtRp138
(dp139
g124
F4.8949924983670536
sg125
g135
sg118
I5
sg127
F10.011591092521259
sg128
g132
sbag1
(g114
g3
NtRp140
(dp141
g124
F4.1385791321830556
sg125
g135
sg118
I6
sg127
F11.747743689773666
sg128
g132
sbag1
(g114
g3
NtRp142
(dp143
g124
F-5.0074699123607189
sg125
g135
sg118
I7
sg127
F3.7241220381615081
sg128
g132
sbag1
(g114
g3
NtRp144
(dp145
g124
F2.9652104464168332
sg125
g135
sg118
I8
sg127
F3.9133124468350271
sg128
g132
sbag1
(g114
g3
NtRp146
(dp147
g124
F-2.1673487804198452
sg125
g135
sg118
I9
sg127
F5.4319310496672202
sg128
g132
sbag1
(g114
g3
NtRp148
(dp149
g124
F-4.2033065518509138
sg125
g135
sg118
I10
sg127
F4.0280943606955626
sg128
g132
sbag1
(g114
g3
NtRp150
(dp151
g124
F0.24042228177558408
sg125
g135
sg118
I11
sg127
F4.8484692703323402
sg128
g132
sbasb.