ccopy_reg
_reconstructor
p1
(cneat.chromosome
Chromosome
p2
c__builtin__
object
p3
NtRp4
(dp5
S'species_id'
p6
I19
sS'_connection_genes'
p7
(dp8
(I1
I3
tp9
g1
(cneat.genome
ConnectionGene
p10
g3
NtRp11
(dp12
S'_ConnectionGene__weight'
p13
F-5.30993907553189
sS'_ConnectionGene__in'
p14
I1
sS'_ConnectionGene__enabled'
p15
I00
sS'_ConnectionGene__out'
p16
I3
sS'_ConnectionGene__innov_number'
p17
I3
sbs(I6
I6
tp18
g1
(g10
g3
NtRp19
(dp20
g13
F18.572321676995561
sg14
I6
sg15
I01
sg16
I6
sg17
I39
sbs(I6
I2
tp21
g1
(g10
g3
NtRp22
(dp23
g13
F9.5099618747814105
sg14
I6
sg15
I01
sg16
I2
sg17
I21
sbs(I5
I8
tp24
g1
(g10
g3
NtRp25
(dp26
g13
F3.4732721186102364
sg14
I5
sg15
I01
sg16
I8
sg17
I42
sbs(I1
I2
tp27
g1
(g10
g3
NtRp28
(dp29
g13
F-23.67767403969204
sg14
I1
sg15
I01
sg16
I2
sg17
I1
sbs(I3
I3
tp30
g1
(g10
g3
NtRp31
(dp32
g13
F2.7196813545645155
sg14
I3
sg15
I01
sg16
I3
sg17
I15
sbs(I2
I9
tp33
g1
(g10
g3
NtRp34
(dp35
g13
F-4.055467189842962
sg14
I2
sg15
I01
sg16
I9
sg17
I53
sbs(I3
I10
tp36
g1
(g10
g3
NtRp37
(dp38
g13
F4.681131748491687
sg14
I3
sg15
I01
sg16
I10
sg17
I64
sbs(I4
I4
tp39
g1
(g10
g3
NtRp40
(dp41
g13
F-4.6735085894111661
sg14
I4
sg15
I01
sg16
I4
sg17
I16
sbs(I1
I5
tp42
g1
(g10
g3
NtRp43
(dp44
g13
F-9.1579722420799197
sg14
I1
sg15
I00
sg16
I5
sg17
I11
sbs(I2
I2
tp45
g1
(g10
g3
NtRp46
(dp47
g13
F19.017810080574336
sg14
I2
sg15
I00
sg16
I2
sg17
I2
sbs(I1
I10
tp48
g1
(g10
g3
NtRp49
(dp50
g13
F-3.4307776083528396
sg14
I1
sg15
I01
sg16
I10
sg17
I71
sbs(I3
I2
tp51
g1
(g10
g3
NtRp52
(dp53
g13
F-25.175829598386702
sg14
I3
sg15
I01
sg16
I2
sg17
I4
sbs(I2
I6
tp54
g1
(g10
g3
NtRp55
(dp56
g13
F8.0288354225884113
sg14
I2
sg15
I01
sg16
I6
sg17
I38
sbs(I8
I2
tp57
g1
(g10
g3
NtRp58
(dp59
g13
F1.3359065143505751
sg14
I8
sg15
I01
sg16
I2
sg17
I43
sbs(I9
I3
tp60
g1
(g10
g3
NtRp61
(dp62
g13
F14.900290867290632
sg14
I9
sg15
I01
sg16
I3
sg17
I60
sbs(I1
I4
tp63
g1
(g10
g3
NtRp64
(dp65
g13
F-10.977893494987605
sg14
I1
sg15
I01
sg16
I4
sg17
I6
sbs(I7
I5
tp66
g1
(g10
g3
NtRp67
(dp68
g13
F13.445249895396117
sg14
I7
sg15
I01
sg16
I5
sg17
I30
sbs(I2
I3
tp69
g1
(g10
g3
NtRp70
(dp71
g13
F-14.752856930683784
sg14
I2
sg15
I01
sg16
I3
sg17
I5
sbs(I1
I9
tp72
g1
(g10
g3
NtRp73
(dp74
g13
F-5.0549413340998566
sg14
I1
sg15
I01
sg16
I9
sg17
I58
sbs(I4
I2
tp75
g1
(g10
g3
NtRp76
(dp77
g13
F-19.492742898418619
sg14
I4
sg15
I00
sg16
I2
sg17
I7
sbs(I3
I5
tp78
g1
(g10
g3
NtRp79
(dp80
g13
F-9.2962169089934594
sg14
I3
sg15
I01
sg16
I5
sg17
I14
sbs(I10
I5
tp81
g1
(g10
g3
NtRp82
(dp83
g13
F-6.5110606802254276
sg14
I10
sg15
I01
sg16
I5
sg17
I76
sbs(I4
I6
tp84
g1
(g10
g3
NtRp85
(dp86
g13
F26.947648826036705
sg14
I4
sg15
I01
sg16
I6
sg17
I22
sbs(I4
I3
tp87
g1
(g10
g3
NtRp88
(dp89
g13
F11.924193336925317
sg14
I4
sg15
I01
sg16
I3
sg17
I10
sbs(I1
I7
tp90
g1
(g10
g3
NtRp91
(dp92
g13
F0.91838275277602621
sg14
I1
sg15
I01
sg16
I7
sg17
I29
sbs(I5
I2
tp93
g1
(g10
g3
NtRp94
(dp95
g13
F-30
sg14
I5
sg15
I01
sg16
I2
sg17
I9
sbssS'_input_nodes'
p96
I1
sS'_output_nodes'
p97
I1
sS'_node_gene_type'
p98
cneat.genome
NodeGene
p99
sS'_conn_gene_type'
p100
g10
sS'fitness'
p101
F0.93156485561336444
sS'parent2_id'
p102
I3223
sS'_id'
p103
I3242
sS'parent1_id'
p104
I3223
sS'_node_genes'
p105
(lp106
g1
(g99
g3
NtRp107
(dp108
S'_bias'
p109
I0
sS'_type'
p110
S'INPUT'
p111
sg103
I1
sS'_response'
p112
F4.9242730000000003
sS'_activation_type'
p113
Nsbag1
(g99
g3
NtRp114
(dp115
g109
F-2.0006503513710383
sg110
S'OUTPUT'
p116
sg103
I2
sg112
F4.1981853543576166
sg113
S'tanh'
p117
sbag1
(g99
g3
NtRp118
(dp119
g109
F-0.026444657148655626
sg110
S'HIDDEN'
p120
sg103
I3
sg112
F3.812302723582397
sg113
g117
sbag1
(g99
g3
NtRp121
(dp122
g109
F-0.56824155702372514
sg110
g120
sg103
I4
sg112
F4.0330019119615077
sg113
g117
sbag1
(g99
g3
NtRp123
(dp124
g109
F4.8098000674413566
sg110
g120
sg103
I5
sg112
F9.7783179614182139
sg113
g117
sbag1
(g99
g3
NtRp125
(dp126
g109
F2.331274456862789
sg110
g120
sg103
I6
sg112
F9.9179625342055182
sg113
g117
sbag1
(g99
g3
NtRp127
(dp128
g109
F-3.9768435806991977
sg110
g120
sg103
I7
sg112
F3.2333736594234481
sg113
g117
sbag1
(g99
g3
NtRp129
(dp130
g109
F2.2712603808307472
sg110
g120
sg103
I8
sg112
F5.2659562832995199
sg113
g117
sbag1
(g99
g3
NtRp131
(dp132
g109
F-2.1092423727746068
sg110
g120
sg103
I9
sg112
F5.515013639063457
sg113
g117
sbag1
(g99
g3
NtRp133
(dp134
g109
F-0.09446726375606182
sg110
g120
sg103
I10
sg112
F4.5807556684280595
sg113
g117
sbasb.