ccopy_reg
_reconstructor
p1
(cneat.chromosome
Chromosome
p2
c__builtin__
object
p3
NtRp4
(dp5
S'species_id'
p6
I20
sS'_connection_genes'
p7
(dp8
(I1
I3
tp9
g1
(cneat.genome
ConnectionGene
p10
g3
NtRp11
(dp12
S'_ConnectionGene__weight'
p13
F-0.73065597442910901
sS'_ConnectionGene__in'
p14
I1
sS'_ConnectionGene__enabled'
p15
I00
sS'_ConnectionGene__out'
p16
I3
sS'_ConnectionGene__innov_number'
p17
I3
sbs(I6
I6
tp18
g1
(g10
g3
NtRp19
(dp20
g13
F16.776922713995603
sg14
I6
sg15
I01
sg16
I6
sg17
I39
sbs(I11
I2
tp21
g1
(g10
g3
NtRp22
(dp23
g13
F-11.338605884849176
sg14
I11
sg15
I01
sg16
I2
sg17
I80
sbs(I6
I2
tp24
g1
(g10
g3
NtRp25
(dp26
g13
F18.635271595419098
sg14
I6
sg15
I01
sg16
I2
sg17
I21
sbs(I5
I8
tp27
g1
(g10
g3
NtRp28
(dp29
g13
F-1.6058344739197004
sg14
I5
sg15
I01
sg16
I8
sg17
I42
sbs(I1
I2
tp30
g1
(g10
g3
NtRp31
(dp32
g13
F-10.127030861118927
sg14
I1
sg15
I01
sg16
I2
sg17
I1
sbs(I12
I2
tp33
g1
(g10
g3
NtRp34
(dp35
g13
F2.4446571729564082
sg14
I12
sg15
I01
sg16
I2
sg17
I82
sbs(I3
I3
tp36
g1
(g10
g3
NtRp37
(dp38
g13
F-5.947609447943119
sg14
I3
sg15
I01
sg16
I3
sg17
I15
sbs(I2
I9
tp39
g1
(g10
g3
NtRp40
(dp41
g13
F-3.5602022993531914
sg14
I2
sg15
I01
sg16
I9
sg17
I53
sbs(I8
I10
tp42
g1
(g10
g3
NtRp43
(dp44
g13
F5.655140110770648
sg14
I8
sg15
I01
sg16
I10
sg17
I74
sbs(I1
I5
tp45
g1
(g10
g3
NtRp46
(dp47
g13
F2.1736237805357774
sg14
I1
sg15
I00
sg16
I5
sg17
I11
sbs(I2
I2
tp48
g1
(g10
g3
NtRp49
(dp50
g13
F18.927842904570721
sg14
I2
sg15
I00
sg16
I2
sg17
I2
sbs(I3
I2
tp51
g1
(g10
g3
NtRp52
(dp53
g13
F-18.407276483648634
sg14
I3
sg15
I01
sg16
I2
sg17
I4
sbs(I2
I6
tp54
g1
(g10
g3
NtRp55
(dp56
g13
F12.482929316933117
sg14
I2
sg15
I01
sg16
I6
sg17
I38
sbs(I8
I2
tp57
g1
(g10
g3
NtRp58
(dp59
g13
F-3.8150204286422555
sg14
I8
sg15
I00
sg16
I2
sg17
I43
sbs(I5
I11
tp60
g1
(g10
g3
NtRp61
(dp62
g13
F10.659332129595143
sg14
I5
sg15
I01
sg16
I11
sg17
I79
sbs(I9
I3
tp63
g1
(g10
g3
NtRp64
(dp65
g13
F-4.587851683252218
sg14
I9
sg15
I01
sg16
I3
sg17
I60
sbs(I1
I4
tp66
g1
(g10
g3
NtRp67
(dp68
g13
F-13.575778146322916
sg14
I1
sg15
I01
sg16
I4
sg17
I6
sbs(I9
I10
tp69
g1
(g10
g3
NtRp70
(dp71
g13
F2.8424743390881195
sg14
I9
sg15
I01
sg16
I10
sg17
I90
sbs(I7
I5
tp72
g1
(g10
g3
NtRp73
(dp74
g13
F6.5885404829854215
sg14
I7
sg15
I01
sg16
I5
sg17
I30
sbs(I2
I3
tp75
g1
(g10
g3
NtRp76
(dp77
g13
F-1.7265487007271723
sg14
I2
sg15
I01
sg16
I3
sg17
I5
sbs(I1
I9
tp78
g1
(g10
g3
NtRp79
(dp80
g13
F-9.3449522932602314
sg14
I1
sg15
I01
sg16
I9
sg17
I58
sbs(I4
I2
tp81
g1
(g10
g3
NtRp82
(dp83
g13
F-23.447497200388298
sg14
I4
sg15
I00
sg16
I2
sg17
I7
sbs(I3
I5
tp84
g1
(g10
g3
NtRp85
(dp86
g13
F-13.562669682558568
sg14
I3
sg15
I01
sg16
I5
sg17
I14
sbs(I4
I6
tp87
g1
(g10
g3
NtRp88
(dp89
g13
F15.371046155766475
sg14
I4
sg15
I01
sg16
I6
sg17
I22
sbs(I8
I12
tp90
g1
(g10
g3
NtRp91
(dp92
g13
F0.25831648395766182
sg14
I8
sg15
I01
sg16
I12
sg17
I88
sbs(I11
I3
tp93
g1
(g10
g3
NtRp94
(dp95
g13
F1.3230805710398075
sg14
I11
sg15
I01
sg16
I3
sg17
I78
sbs(I3
I8
tp96
g1
(g10
g3
NtRp97
(dp98
g13
F-0.17532884729175846
sg14
I3
sg15
I01
sg16
I8
sg17
I44
sbs(I4
I3
tp99
g1
(g10
g3
NtRp100
(dp101
g13
F1.6022755881900124
sg14
I4
sg15
I01
sg16
I3
sg17
I10
sbs(I1
I7
tp102
g1
(g10
g3
NtRp103
(dp104
g13
F4.2455907118851641
sg14
I1
sg15
I01
sg16
I7
sg17
I29
sbs(I5
I2
tp105
g1
(g10
g3
NtRp106
(dp107
g13
F-30
sg14
I5
sg15
I00
sg16
I2
sg17
I9
sbs(I10
I2
tp108
g1
(g10
g3
NtRp109
(dp110
g13
F-11.287229056111034
sg14
I10
sg15
I01
sg16
I2
sg17
I65
sbssS'_input_nodes'
p111
I1
sS'_output_nodes'
p112
I1
sS'_node_gene_type'
p113
cneat.genome
NodeGene
p114
sS'_conn_gene_type'
p115
g10
sS'fitness'
p116
F0.97709356933102565
sS'parent2_id'
p117
I3147
sS'_id'
p118
I3216
sS'parent1_id'
p119
I3178
sS'_node_genes'
p120
(lp121
g1
(g114
g3
NtRp122
(dp123
S'_bias'
p124
I0
sS'_type'
p125
S'INPUT'
p126
sg118
I1
sS'_response'
p127
F4.9242730000000003
sS'_activation_type'
p128
Nsbag1
(g114
g3
NtRp129
(dp130
g124
F-3.1358891388054384
sg125
S'OUTPUT'
p131
sg118
I2
sg127
F4.6056679600723731
sg128
S'tanh'
p132
sbag1
(g114
g3
NtRp133
(dp134
g124
F-1.0281751927572411
sg125
S'HIDDEN'
p135
sg118
I3
sg127
F3.6920217506095918
sg128
g132
sbag1
(g114
g3
NtRp136
(dp137
g124
F-1.5808420427954923
sg125
g135
sg118
I4
sg127
F5.5817385477293975
sg128
g132
sbag1
(g114
g3
NtRp138
(dp139
g124
F2.8575897731050142
sg125
g135
sg118
I5
sg127
F11.280147035372298
sg128
g132
sbag1
(g114
g3
NtRp140
(dp141
g124
F2.806491765809255
sg125
g135
sg118
I6
sg127
F8.6920229522843648
sg128
g132
sbag1
(g114
g3
NtRp142
(dp143
g124
F-0.96205586298741053
sg125
g135
sg118
I7
sg127
F5.1449350056275955
sg128
g132
sbag1
(g114
g3
NtRp144
(dp145
g124
F-0.74228467809048682
sg125
g135
sg118
I8
sg127
F7.9720010159252688
sg128
g132
sbag1
(g114
g3
NtRp146
(dp147
g124
F0.43857948397651791
sg125
g135
sg118
I9
sg127
F3.3563316251620563
sg128
g132
sbag1
(g114
g3
NtRp148
(dp149
g124
F1.5156066175064706
sg125
g135
sg118
I10
sg127
F5.6023290635365175
sg128
g132
sbag1
(g114
g3
NtRp150
(dp151
g124
F-0.25367401202007606
sg125
g135
sg118
I11
sg127
F4.9242730000000003
sg128
g132
sbag1
(g114
g3
NtRp152
(dp153
g124
F-0.05321411750294433
sg125
g135
sg118
I12
sg127
F4.9242730000000003
sg128
g132
sbasb.