ccopy_reg
_reconstructor
p1
(cneat.chromosome
Chromosome
p2
c__builtin__
object
p3
NtRp4
(dp5
S'species_id'
p6
I10
sS'_connection_genes'
p7
(dp8
(I1
I2
tp9
g1
(cneat.genome
ConnectionGene
p10
g3
NtRp11
(dp12
S'_ConnectionGene__weight'
p13
F-18.777973227386546
sS'_ConnectionGene__in'
p14
I1
sS'_ConnectionGene__enabled'
p15
I01
sS'_ConnectionGene__out'
p16
I2
sS'_ConnectionGene__innov_number'
p17
I1
sbs(I3
I2
tp18
g1
(g10
g3
NtRp19
(dp20
g13
F-19.093556989507228
sg14
I3
sg15
I01
sg16
I2
sg17
I4
sbs(I2
I6
tp21
g1
(g10
g3
NtRp22
(dp23
g13
F0.42580398211123688
sg14
I2
sg15
I01
sg16
I6
sg17
I38
sbs(I4
I6
tp24
g1
(g10
g3
NtRp25
(dp26
g13
F14.16483938155285
sg14
I4
sg15
I01
sg16
I6
sg17
I22
sbs(I6
I6
tp27
g1
(g10
g3
NtRp28
(dp29
g13
F10.520856951864321
sg14
I6
sg15
I01
sg16
I6
sg17
I39
sbs(I1
I7
tp30
g1
(g10
g3
NtRp31
(dp32
g13
F2.6888169437575842
sg14
I1
sg15
I01
sg16
I7
sg17
I29
sbs(I1
I4
tp33
g1
(g10
g3
NtRp34
(dp35
g13
F-0.012453926124304793
sg14
I1
sg15
I01
sg16
I4
sg17
I6
sbs(I1
I5
tp36
g1
(g10
g3
NtRp37
(dp38
g13
F0.37458949562666377
sg14
I1
sg15
I00
sg16
I5
sg17
I11
sbs(I7
I5
tp39
g1
(g10
g3
NtRp40
(dp41
g13
F1.1206157678107243
sg14
I7
sg15
I01
sg16
I5
sg17
I30
sbs(I2
I3
tp42
g1
(g10
g3
NtRp43
(dp44
g13
F-0.86631165095255347
sg14
I2
sg15
I01
sg16
I3
sg17
I5
sbs(I4
I3
tp45
g1
(g10
g3
NtRp46
(dp47
g13
F8.9489979107947999
sg14
I4
sg15
I01
sg16
I3
sg17
I10
sbs(I2
I2
tp48
g1
(g10
g3
NtRp49
(dp50
g13
F7.0035351907797754
sg14
I2
sg15
I00
sg16
I2
sg17
I2
sbs(I6
I2
tp51
g1
(g10
g3
NtRp52
(dp53
g13
F-1.0735552507704136
sg14
I6
sg15
I01
sg16
I2
sg17
I21
sbs(I4
I2
tp54
g1
(g10
g3
NtRp55
(dp56
g13
F-4.2307233513974776
sg14
I4
sg15
I00
sg16
I2
sg17
I7
sbs(I3
I5
tp57
g1
(g10
g3
NtRp58
(dp59
g13
F0.34521014713290854
sg14
I3
sg15
I01
sg16
I5
sg17
I14
sbs(I5
I2
tp60
g1
(g10
g3
NtRp61
(dp62
g13
F-20.451200000972882
sg14
I5
sg15
I00
sg16
I2
sg17
I9
sbs(I5
I8
tp63
g1
(g10
g3
NtRp64
(dp65
g13
F-0.71554786634270195
sg14
I5
sg15
I01
sg16
I8
sg17
I42
sbs(I8
I2
tp66
g1
(g10
g3
NtRp67
(dp68
g13
F-16.253455413073908
sg14
I8
sg15
I01
sg16
I2
sg17
I43
sbssS'_input_nodes'
p69
I1
sS'_output_nodes'
p70
I1
sS'_node_gene_type'
p71
cneat.genome
NodeGene
p72
sS'_conn_gene_type'
p73
g10
sS'fitness'
p74
F0.992264561978625
sS'parent2_id'
p75
I2091
sS'_id'
p76
I2102
sS'parent1_id'
p77
I2091
sS'_node_genes'
p78
(lp79
g1
(g72
g3
NtRp80
(dp81
S'_bias'
p82
I0
sS'_type'
p83
S'INPUT'
p84
sg76
I1
sS'_response'
p85
F4.9242730000000003
sS'_activation_type'
p86
Nsbag1
(g72
g3
NtRp87
(dp88
g82
F-3.2579053232288335
sg83
S'OUTPUT'
p89
sg76
I2
sg85
F6.9773017401072357
sg86
S'tanh'
p90
sbag1
(g72
g3
NtRp91
(dp92
g82
F-0.68210858073275737
sg83
S'HIDDEN'
p93
sg76
I3
sg85
F3.2153131935670696
sg86
g90
sbag1
(g72
g3
NtRp94
(dp95
g82
F-0.69749100642872697
sg83
g93
sg76
I4
sg85
F6.5664522733433364
sg86
g90
sbag1
(g72
g3
NtRp96
(dp97
g82
F1.9900611770026173
sg83
g93
sg76
I5
sg85
F8.3155543979335089
sg86
g90
sbag1
(g72
g3
NtRp98
(dp99
g82
F0.88923107576873739
sg83
g93
sg76
I6
sg85
F7.3737101461306489
sg86
g90
sbag1
(g72
g3
NtRp100
(dp101
g82
F-1.2732077730166553
sg83
g93
sg76
I7
sg85
F4.8708205183898565
sg86
g90
sbag1
(g72
g3
NtRp102
(dp103
g82
F0.20440452661181452
sg83
g93
sg76
I8
sg85
F4.2524834048217981
sg86
g90
sbasb.