ccopy_reg
_reconstructor
p1
(cneat.chromosome
Chromosome
p2
c__builtin__
object
p3
NtRp4
(dp5
S'species_id'
p6
I38
sS'_connection_genes'
p7
(dp8
(I1
I3
tp9
g1
(cneat.genome
ConnectionGene
p10
g3
NtRp11
(dp12
S'_ConnectionGene__weight'
p13
F-6.5062243644973066
sS'_ConnectionGene__in'
p14
I1
sS'_ConnectionGene__enabled'
p15
I01
sS'_ConnectionGene__out'
p16
I3
sS'_ConnectionGene__innov_number'
p17
I3
sbs(I6
I6
tp18
g1
(g10
g3
NtRp19
(dp20
g13
F21.618507928089379
sg14
I6
sg15
I00
sg16
I6
sg17
I39
sbs(I11
I2
tp21
g1
(g10
g3
NtRp22
(dp23
g13
F1.8950713520859626
sg14
I11
sg15
I01
sg16
I2
sg17
I80
sbs(I6
I21
tp24
g1
(g10
g3
NtRp25
(dp26
g13
F1
sg14
I6
sg15
I01
sg16
I21
sg17
I247
sbs(I1
I15
tp27
g1
(g10
g3
NtRp28
(dp29
g13
F-10.218746808564209
sg14
I1
sg15
I01
sg16
I15
sg17
I146
sbs(I6
I2
tp30
g1
(g10
g3
NtRp31
(dp32
g13
F28.45933752935828
sg14
I6
sg15
I01
sg16
I2
sg17
I21
sbs(I21
I6
tp33
g1
(g10
g3
NtRp34
(dp35
g13
F21.618507928089379
sg14
I21
sg15
I01
sg16
I6
sg17
I248
sbs(I16
I14
tp36
g1
(g10
g3
NtRp37
(dp38
g13
F-21.572823454093562
sg14
I16
sg15
I01
sg16
I14
sg17
I193
sbs(I5
I8
tp39
g1
(g10
g3
NtRp40
(dp41
g13
F7.3533199027453193
sg14
I5
sg15
I01
sg16
I8
sg17
I42
sbs(I1
I2
tp42
g1
(g10
g3
NtRp43
(dp44
g13
F-21.701392270232922
sg14
I1
sg15
I01
sg16
I2
sg17
I1
sbs(I12
I2
tp45
g1
(g10
g3
NtRp46
(dp47
g13
F10.718461548491275
sg14
I12
sg15
I01
sg16
I2
sg17
I82
sbs(I2
I19
tp48
g1
(g10
g3
NtRp49
(dp50
g13
F16.505829884220478
sg14
I2
sg15
I01
sg16
I19
sg17
I210
sbs(I3
I3
tp51
g1
(g10
g3
NtRp52
(dp53
g13
F-5.7211138334043765
sg14
I3
sg15
I01
sg16
I3
sg17
I15
sbs(I2
I9
tp54
g1
(g10
g3
NtRp55
(dp56
g13
F17.236274472603764
sg14
I2
sg15
I01
sg16
I9
sg17
I53
sbs(I13
I3
tp57
g1
(g10
g3
NtRp58
(dp59
g13
F1.33585922476897
sg14
I13
sg15
I01
sg16
I3
sg17
I92
sbs(I4
I3
tp60
g1
(g10
g3
NtRp61
(dp62
g13
F9.4107855080395915
sg14
I4
sg15
I01
sg16
I3
sg17
I10
sbs(I8
I10
tp63
g1
(g10
g3
NtRp64
(dp65
g13
F23.470258154280078
sg14
I8
sg15
I00
sg16
I10
sg17
I74
sbs(I4
I13
tp66
g1
(g10
g3
NtRp67
(dp68
g13
F-9.2169422865790285
sg14
I4
sg15
I01
sg16
I13
sg17
I102
sbs(I1
I5
tp69
g1
(g10
g3
NtRp70
(dp71
g13
F-13.353119608011335
sg14
I1
sg15
I00
sg16
I5
sg17
I11
sbs(I9
I11
tp72
g1
(g10
g3
NtRp73
(dp74
g13
F-8.0343668757846309
sg14
I9
sg15
I01
sg16
I11
sg17
I101
sbs(I19
I3
tp75
g1
(g10
g3
NtRp76
(dp77
g13
F11.473397153132463
sg14
I19
sg15
I01
sg16
I3
sg17
I212
sbs(I2
I2
tp78
g1
(g10
g3
NtRp79
(dp80
g13
F3.7446245312997331
sg14
I2
sg15
I01
sg16
I2
sg17
I2
sbs(I8
I16
tp81
g1
(g10
g3
NtRp82
(dp83
g13
F-8.5032949162831866
sg14
I8
sg15
I01
sg16
I16
sg17
I177
sbs(I20
I6
tp84
g1
(g10
g3
NtRp85
(dp86
g13
F4.0140984478312776
sg14
I20
sg15
I01
sg16
I6
sg17
I221
sbs(I3
I2
tp87
g1
(g10
g3
NtRp88
(dp89
g13
F-26.118842863871482
sg14
I3
sg15
I01
sg16
I2
sg17
I4
sbs(I2
I6
tp90
g1
(g10
g3
NtRp91
(dp92
g13
F2.9538473352937884
sg14
I2
sg15
I00
sg16
I6
sg17
I38
sbs(I8
I2
tp93
g1
(g10
g3
NtRp94
(dp95
g13
F-28.274539453922941
sg14
I8
sg15
I01
sg16
I2
sg17
I43
sbs(I5
I11
tp96
g1
(g10
g3
NtRp97
(dp98
g13
F-9.5211868806699869
sg14
I5
sg15
I01
sg16
I11
sg17
I79
sbs(I15
I3
tp99
g1
(g10
g3
NtRp100
(dp101
g13
F-9.3706773003975492
sg14
I15
sg15
I01
sg16
I3
sg17
I147
sbs(I9
I3
tp102
g1
(g10
g3
NtRp103
(dp104
g13
F-11.106054359755095
sg14
I9
sg15
I01
sg16
I3
sg17
I60
sbs(I2
I20
tp105
g1
(g10
g3
NtRp106
(dp107
g13
F4.9762268552066944
sg14
I2
sg15
I01
sg16
I20
sg17
I220
sbs(I1
I4
tp108
g1
(g10
g3
NtRp109
(dp110
g13
F-29.016651086337838
sg14
I1
sg15
I01
sg16
I4
sg17
I6
sbs(I9
I10
tp111
g1
(g10
g3
NtRp112
(dp113
g13
F-19.855422548820101
sg14
I9
sg15
I01
sg16
I10
sg17
I90
sbs(I7
I5
tp114
g1
(g10
g3
NtRp115
(dp116
g13
F-5.8347333715054113
sg14
I7
sg15
I01
sg16
I5
sg17
I30
sbs(I2
I3
tp117
g1
(g10
g3
NtRp118
(dp119
g13
F6.2310814123256399
sg14
I2
sg15
I00
sg16
I3
sg17
I5
sbs(I1
I9
tp120
g1
(g10
g3
NtRp121
(dp122
g13
F20.076343480857538
sg14
I1
sg15
I01
sg16
I9
sg17
I58
sbs(I8
I17
tp123
g1
(g10
g3
NtRp124
(dp125
g13
F6.452933695153888
sg14
I8
sg15
I01
sg16
I17
sg17
I205
sbs(I4
I2
tp126
g1
(g10
g3
NtRp127
(dp128
g13
F-10.395022181722219
sg14
I4
sg15
I01
sg16
I2
sg17
I7
sbs(I14
I2
tp129
g1
(g10
g3
NtRp130
(dp131
g13
F2.6631095500968458
sg14
I14
sg15
I01
sg16
I2
sg17
I138
sbs(I3
I5
tp132
g1
(g10
g3
NtRp133
(dp134
g13
F15.674506463986219
sg14
I3
sg15
I01
sg16
I5
sg17
I14
sbs(I10
I5
tp135
g1
(g10
g3
NtRp136
(dp137
g13
F0.51759037367423244
sg14
I10
sg15
I01
sg16
I5
sg17
I76
sbs(I4
I6
tp138
g1
(g10
g3
NtRp139
(dp140
g13
F-14.415206559042645
sg14
I4
sg15
I01
sg16
I6
sg17
I22
sbs(I15
I2
tp141
g1
(g10
g3
NtRp142
(dp143
g13
F2.7246817336442413
sg14
I15
sg15
I01
sg16
I2
sg17
I170
sbs(I8
I12
tp144
g1
(g10
g3
NtRp145
(dp146
g13
F0.57921056183800568
sg14
I8
sg15
I01
sg16
I12
sg17
I88
sbs(I18
I10
tp147
g1
(g10
g3
NtRp148
(dp149
g13
F18.633568766244601
sg14
I18
sg15
I01
sg16
I10
sg17
I209
sbs(I11
I3
tp150
g1
(g10
g3
NtRp151
(dp152
g13
F-14.485843751945199
sg14
I11
sg15
I01
sg16
I3
sg17
I78
sbs(I3
I8
tp153
g1
(g10
g3
NtRp154
(dp155
g13
F16.570649884878947
sg14
I3
sg15
I01
sg16
I8
sg17
I44
sbs(I8
I14
tp156
g1
(g10
g3
NtRp157
(dp158
g13
F2.139383743681988
sg14
I8
sg15
I01
sg16
I14
sg17
I119
sbs(I8
I18
tp159
g1
(g10
g3
NtRp160
(dp161
g13
F8.9053093597341544
sg14
I8
sg15
I01
sg16
I18
sg17
I208
sbs(I17
I12
tp162
g1
(g10
g3
NtRp163
(dp164
g13
F-2.6741144381246946
sg14
I17
sg15
I01
sg16
I12
sg17
I207
sbs(I1
I7
tp165
g1
(g10
g3
NtRp166
(dp167
g13
F14.805652527560726
sg14
I1
sg15
I01
sg16
I7
sg17
I29
sbs(I13
I9
tp168
g1
(g10
g3
NtRp169
(dp170
g13
F-3.416527810034947
sg14
I13
sg15
I01
sg16
I9
sg17
I112
sbs(I5
I2
tp171
g1
(g10
g3
NtRp172
(dp173
g13
F-6.206951423247669
sg14
I5
sg15
I01
sg16
I2
sg17
I9
sbs(I10
I2
tp174
g1
(g10
g3
NtRp175
(dp176
g13
F-15.599426050853999
sg14
I10
sg15
I01
sg16
I2
sg17
I65
sbssS'_input_nodes'
p177
I1
sS'_output_nodes'
p178
I1
sS'_node_gene_type'
p179
cneat.genome
NodeGene
p180
sS'_conn_gene_type'
p181
g10
sS'fitness'
p182
F0.95355802230840125
sS'parent2_id'
p183
I6155
sS'_id'
p184
I6176
sS'parent1_id'
p185
I6155
sS'_node_genes'
p186
(lp187
g1
(g180
g3
NtRp188
(dp189
S'_bias'
p190
I0
sS'_type'
p191
S'INPUT'
p192
sg184
I1
sS'_response'
p193
F4.9242730000000003
sS'_activation_type'
p194
Nsbag1
(g180
g3
NtRp195
(dp196
g190
F-6.5277196675707589
sg191
S'OUTPUT'
p197
sg184
I2
sg193
F5.3286689800340525
sg194
S'tanh'
p198
sbag1
(g180
g3
NtRp199
(dp200
g190
F1.1632977758100573
sg191
S'HIDDEN'
p201
sg184
I3
sg193
F3.7522482219351612
sg194
g198
sbag1
(g180
g3
NtRp202
(dp203
g190
F-5.3586771792848218
sg191
g201
sg184
I4
sg193
F5.7811008688702303
sg194
g198
sbag1
(g180
g3
NtRp204
(dp205
g190
F3.9073600866713716
sg191
g201
sg184
I5
sg193
F12.029676586909659
sg194
g198
sbag1
(g180
g3
NtRp206
(dp207
g190
F-0.26621384718954083
sg191
g201
sg184
I6
sg193
F5.5439912880581952
sg194
g198
sbag1
(g180
g3
NtRp208
(dp209
g190
F-1.6656197239503496
sg191
g201
sg184
I7
sg193
F-0.12864115427761041
sg194
g198
sbag1
(g180
g3
NtRp210
(dp211
g190
F-2.7853926024395337
sg191
g201
sg184
I8
sg193
F10.829245249327533
sg194
g198
sbag1
(g180
g3
NtRp212
(dp213
g190
F-1.5649001373381175
sg191
g201
sg184
I9
sg193
F7.7852264445587389
sg194
g198
sbag1
(g180
g3
NtRp214
(dp215
g190
F-0.74874046388678006
sg191
g201
sg184
I10
sg193
F7.8558149645441224
sg194
g198
sbag1
(g180
g3
NtRp216
(dp217
g190
F-0.44771898174502872
sg191
g201
sg184
I11
sg193
F7.1033876701091181
sg194
g198
sbag1
(g180
g3
NtRp218
(dp219
g190
F0.0013730100499866893
sg191
g201
sg184
I12
sg193
F4.6511923194694074
sg194
g198
sbag1
(g180
g3
NtRp220
(dp221
g190
F-1.789607355736476
sg191
g201
sg184
I13
sg193
F5.761198901800558
sg194
g198
sbag1
(g180
g3
NtRp222
(dp223
g190
F4.2751544013755369
sg191
g201
sg184
I14
sg193
F4.7146654486759685
sg194
g198
sbag1
(g180
g3
NtRp224
(dp225
g190
F-3.0538281010966903
sg191
g201
sg184
I15
sg193
F6.1321538402854587
sg194
g198
sbag1
(g180
g3
NtRp226
(dp227
g190
F-0.31142784964839237
sg191
g201
sg184
I16
sg193
F3.7634903097536658
sg194
g198
sbag1
(g180
g3
NtRp228
(dp229
g190
F0.2260551510863576
sg191
g201
sg184
I17
sg193
F5.0880636325761444
sg194
g198
sbag1
(g180
g3
NtRp230
(dp231
g190
F0.46138587506449341
sg191
g201
sg184
I18
sg193
F4.8088060038001714
sg194
g198
sbag1
(g180
g3
NtRp232
(dp233
g190
F-0.61313372010189271
sg191
g201
sg184
I19
sg193
F4.3913809199264984
sg194
g198
sbag1
(g180
g3
NtRp234
(dp235
g190
F0.47032591583638328
sg191
g201
sg184
I20
sg193
F5.9688913671312482
sg194
g198
sbag1
(g180
g3
NtRp236
(dp237
g190
I0
sg191
g201
sg184
I21
sg193
F4.9242730000000003
sg194
g198
sbasb.