ccopy_reg
_reconstructor
p1
(cneat.chromosome
Chromosome
p2
c__builtin__
object
p3
NtRp4
(dp5
S'species_id'
p6
I40
sS'_connection_genes'
p7
(dp8
(I1
I3
tp9
g1
(cneat.genome
ConnectionGene
p10
g3
NtRp11
(dp12
S'_ConnectionGene__weight'
p13
F-7.9699542820731208
sS'_ConnectionGene__in'
p14
I1
sS'_ConnectionGene__enabled'
p15
I01
sS'_ConnectionGene__out'
p16
I3
sS'_ConnectionGene__innov_number'
p17
I3
sbs(I6
I6
tp18
g1
(g10
g3
NtRp19
(dp20
g13
F21.857216580818569
sg14
I6
sg15
I01
sg16
I6
sg17
I39
sbs(I11
I2
tp21
g1
(g10
g3
NtRp22
(dp23
g13
F3.984397327989309
sg14
I11
sg15
I01
sg16
I2
sg17
I80
sbs(I1
I15
tp24
g1
(g10
g3
NtRp25
(dp26
g13
F-8.5299049350664582
sg14
I1
sg15
I01
sg16
I15
sg17
I146
sbs(I6
I2
tp27
g1
(g10
g3
NtRp28
(dp29
g13
F27.502912789266201
sg14
I6
sg15
I01
sg16
I2
sg17
I21
sbs(I16
I14
tp30
g1
(g10
g3
NtRp31
(dp32
g13
F-18.585320301038784
sg14
I16
sg15
I01
sg16
I14
sg17
I193
sbs(I5
I8
tp33
g1
(g10
g3
NtRp34
(dp35
g13
F9.1101970444107057
sg14
I5
sg15
I00
sg16
I8
sg17
I42
sbs(I1
I2
tp36
g1
(g10
g3
NtRp37
(dp38
g13
F-15.355997975765058
sg14
I1
sg15
I01
sg16
I2
sg17
I1
sbs(I12
I2
tp39
g1
(g10
g3
NtRp40
(dp41
g13
F2.7841027074045659
sg14
I12
sg15
I01
sg16
I2
sg17
I82
sbs(I2
I19
tp42
g1
(g10
g3
NtRp43
(dp44
g13
F22.256236501590685
sg14
I2
sg15
I01
sg16
I19
sg17
I210
sbs(I3
I3
tp45
g1
(g10
g3
NtRp46
(dp47
g13
F-9.1766734917859019
sg14
I3
sg15
I01
sg16
I3
sg17
I15
sbs(I2
I9
tp48
g1
(g10
g3
NtRp49
(dp50
g13
F23.478876390982506
sg14
I2
sg15
I01
sg16
I9
sg17
I53
sbs(I13
I3
tp51
g1
(g10
g3
NtRp52
(dp53
g13
F1.6691992574655283
sg14
I13
sg15
I01
sg16
I3
sg17
I92
sbs(I8
I10
tp54
g1
(g10
g3
NtRp55
(dp56
g13
F21.877516542123026
sg14
I8
sg15
I00
sg16
I10
sg17
I74
sbs(I21
I8
tp57
g1
(g10
g3
NtRp58
(dp59
g13
F2.5559190032333126
sg14
I21
sg15
I01
sg16
I8
sg17
I250
sbs(I4
I13
tp60
g1
(g10
g3
NtRp61
(dp62
g13
F-1.4939104496647948
sg14
I4
sg15
I01
sg16
I13
sg17
I102
sbs(I1
I5
tp63
g1
(g10
g3
NtRp64
(dp65
g13
F-9.29414371289276
sg14
I1
sg15
I00
sg16
I5
sg17
I11
sbs(I9
I11
tp66
g1
(g10
g3
NtRp67
(dp68
g13
F-4.1075584391992725
sg14
I9
sg15
I01
sg16
I11
sg17
I101
sbs(I19
I3
tp69
g1
(g10
g3
NtRp70
(dp71
g13
F14.511770983860709
sg14
I19
sg15
I01
sg16
I3
sg17
I212
sbs(I2
I2
tp72
g1
(g10
g3
NtRp73
(dp74
g13
F-5.1116169142085894
sg14
I2
sg15
I01
sg16
I2
sg17
I2
sbs(I12
I10
tp75
g1
(g10
g3
NtRp76
(dp77
g13
F-4.7773681517257307
sg14
I12
sg15
I01
sg16
I10
sg17
I105
sbs(I8
I16
tp78
g1
(g10
g3
NtRp79
(dp80
g13
F-11.342225729560436
sg14
I8
sg15
I01
sg16
I16
sg17
I177
sbs(I8
I18
tp81
g1
(g10
g3
NtRp82
(dp83
g13
F6.7820493059422855
sg14
I8
sg15
I01
sg16
I18
sg17
I208
sbs(I3
I2
tp84
g1
(g10
g3
NtRp85
(dp86
g13
F-25.889999823512856
sg14
I3
sg15
I01
sg16
I2
sg17
I4
sbs(I2
I6
tp87
g1
(g10
g3
NtRp88
(dp89
g13
F2.0683183012385493
sg14
I2
sg15
I00
sg16
I6
sg17
I38
sbs(I8
I2
tp90
g1
(g10
g3
NtRp91
(dp92
g13
F-27.165196517777176
sg14
I8
sg15
I01
sg16
I2
sg17
I43
sbs(I5
I11
tp93
g1
(g10
g3
NtRp94
(dp95
g13
F-11.580082651006375
sg14
I5
sg15
I01
sg16
I11
sg17
I79
sbs(I15
I3
tp96
g1
(g10
g3
NtRp97
(dp98
g13
F-10.021567793747995
sg14
I15
sg15
I01
sg16
I3
sg17
I147
sbs(I9
I3
tp99
g1
(g10
g3
NtRp100
(dp101
g13
F-11.732391314201097
sg14
I9
sg15
I01
sg16
I3
sg17
I60
sbs(I2
I20
tp102
g1
(g10
g3
NtRp103
(dp104
g13
F6.7530782050618985
sg14
I2
sg15
I01
sg16
I20
sg17
I220
sbs(I1
I4
tp105
g1
(g10
g3
NtRp106
(dp107
g13
F-27.697768908889103
sg14
I1
sg15
I01
sg16
I4
sg17
I6
sbs(I9
I10
tp108
g1
(g10
g3
NtRp109
(dp110
g13
F-24.597860908990878
sg14
I9
sg15
I01
sg16
I10
sg17
I90
sbs(I7
I5
tp111
g1
(g10
g3
NtRp112
(dp113
g13
F-9.0776552404478306
sg14
I7
sg15
I01
sg16
I5
sg17
I30
sbs(I2
I3
tp114
g1
(g10
g3
NtRp115
(dp116
g13
F15.08067489571223
sg14
I2
sg15
I00
sg16
I3
sg17
I5
sbs(I1
I9
tp117
g1
(g10
g3
NtRp118
(dp119
g13
F25.731748940278596
sg14
I1
sg15
I01
sg16
I9
sg17
I58
sbs(I13
I9
tp120
g1
(g10
g3
NtRp121
(dp122
g13
F-2.3217557409608229
sg14
I13
sg15
I01
sg16
I9
sg17
I112
sbs(I8
I17
tp123
g1
(g10
g3
NtRp124
(dp125
g13
F9.4919496573819089
sg14
I8
sg15
I01
sg16
I17
sg17
I205
sbs(I4
I2
tp126
g1
(g10
g3
NtRp127
(dp128
g13
F-6.5457409455132725
sg14
I4
sg15
I01
sg16
I2
sg17
I7
sbs(I14
I2
tp129
g1
(g10
g3
NtRp130
(dp131
g13
F-1.0552042323091821
sg14
I14
sg15
I01
sg16
I2
sg17
I138
sbs(I3
I5
tp132
g1
(g10
g3
NtRp133
(dp134
g13
F8.7010701932712156
sg14
I3
sg15
I01
sg16
I5
sg17
I14
sbs(I10
I5
tp135
g1
(g10
g3
NtRp136
(dp137
g13
F2.3478399591781716
sg14
I10
sg15
I01
sg16
I5
sg17
I76
sbs(I4
I6
tp138
g1
(g10
g3
NtRp139
(dp140
g13
F-14.005736543139252
sg14
I4
sg15
I01
sg16
I6
sg17
I22
sbs(I15
I2
tp141
g1
(g10
g3
NtRp142
(dp143
g13
F-1.2841114385785368
sg14
I15
sg15
I01
sg16
I2
sg17
I170
sbs(I8
I12
tp144
g1
(g10
g3
NtRp145
(dp146
g13
F2.6184492997464184
sg14
I8
sg15
I01
sg16
I12
sg17
I88
sbs(I18
I10
tp147
g1
(g10
g3
NtRp148
(dp149
g13
F19.626834614279577
sg14
I18
sg15
I01
sg16
I10
sg17
I209
sbs(I5
I21
tp150
g1
(g10
g3
NtRp151
(dp152
g13
F-0.076115030925258065
sg14
I5
sg15
I01
sg16
I21
sg17
I249
sbs(I11
I3
tp153
g1
(g10
g3
NtRp154
(dp155
g13
F-12.280994047938965
sg14
I11
sg15
I01
sg16
I3
sg17
I78
sbs(I3
I8
tp156
g1
(g10
g3
NtRp157
(dp158
g13
F17.21326897979861
sg14
I3
sg15
I01
sg16
I8
sg17
I44
sbs(I8
I14
tp159
g1
(g10
g3
NtRp160
(dp161
g13
F2.289629444936033
sg14
I8
sg15
I01
sg16
I14
sg17
I119
sbs(I20
I6
tp162
g1
(g10
g3
NtRp163
(dp164
g13
F2.5720095442118311
sg14
I20
sg15
I01
sg16
I6
sg17
I221
sbs(I17
I12
tp165
g1
(g10
g3
NtRp166
(dp167
g13
F-8.4410820055717153
sg14
I17
sg15
I01
sg16
I12
sg17
I207
sbs(I1
I7
tp168
g1
(g10
g3
NtRp169
(dp170
g13
F8.3946843467993286
sg14
I1
sg15
I01
sg16
I7
sg17
I29
sbs(I4
I3
tp171
g1
(g10
g3
NtRp172
(dp173
g13
F8.6772176903417488
sg14
I4
sg15
I01
sg16
I3
sg17
I10
sbs(I5
I2
tp174
g1
(g10
g3
NtRp175
(dp176
g13
F-3.4980644464274606
sg14
I5
sg15
I01
sg16
I2
sg17
I9
sbs(I10
I2
tp177
g1
(g10
g3
NtRp178
(dp179
g13
F-10.448440838906441
sg14
I10
sg15
I01
sg16
I2
sg17
I65
sbssS'_input_nodes'
p180
I1
sS'_output_nodes'
p181
I1
sS'_node_gene_type'
p182
cneat.genome
NodeGene
p183
sS'_conn_gene_type'
p184
g10
sS'fitness'
p185
F0.94735704572855606
sS'parent2_id'
p186
I6442
sS'_id'
p187
I6461
sS'parent1_id'
p188
I6442
sS'_node_genes'
p189
(lp190
g1
(g183
g3
NtRp191
(dp192
S'_bias'
p193
I0
sS'_type'
p194
S'INPUT'
p195
sg187
I1
sS'_response'
p196
F4.9242730000000003
sS'_activation_type'
p197
Nsbag1
(g183
g3
NtRp198
(dp199
g193
F-5.910842275919582
sg194
S'OUTPUT'
p200
sg187
I2
sg196
F5.1274538769573779
sg197
S'tanh'
p201
sbag1
(g183
g3
NtRp202
(dp203
g193
F0.8346466134857975
sg194
S'HIDDEN'
p204
sg187
I3
sg196
F2.0575266355019686
sg197
g201
sbag1
(g183
g3
NtRp205
(dp206
g193
F-5.3586771792848218
sg194
g204
sg187
I4
sg196
F6.2973694591516693
sg197
g201
sbag1
(g183
g3
NtRp207
(dp208
g193
F4.7279710418137721
sg194
g204
sg187
I5
sg196
F12.324234940939704
sg197
g201
sbag1
(g183
g3
NtRp209
(dp210
g193
F-1.5352091668574861
sg194
g204
sg187
I6
sg196
F5.3024198550046666
sg197
g201
sbag1
(g183
g3
NtRp211
(dp212
g193
F-1.6656197239503496
sg194
g204
sg187
I7
sg196
F-0.12864115427761041
sg197
g201
sbag1
(g183
g3
NtRp213
(dp214
g193
F-2.7853926024395337
sg194
g204
sg187
I8
sg196
F10.424435833414446
sg197
g201
sbag1
(g183
g3
NtRp215
(dp216
g193
F-0.86132415762663261
sg194
g204
sg187
I9
sg196
F7.5437839149343722
sg197
g201
sbag1
(g183
g3
NtRp217
(dp218
g193
F-0.26524035178328365
sg194
g204
sg187
I10
sg196
F7.5813831139380516
sg197
g201
sbag1
(g183
g3
NtRp219
(dp220
g193
F-1.4152768575234083
sg194
g204
sg187
I11
sg196
F6.4090220649457423
sg197
g201
sbag1
(g183
g3
NtRp221
(dp222
g193
F0.77894438982209113
sg194
g204
sg187
I12
sg196
F3.8435482081232655
sg197
g201
sbag1
(g183
g3
NtRp223
(dp224
g193
F-1.6189946421315149
sg194
g204
sg187
I13
sg196
F5.2759470070145991
sg197
g201
sbag1
(g183
g3
NtRp225
(dp226
g193
F4.3726515360768063
sg194
g204
sg187
I14
sg196
F5.1492852054274856
sg197
g201
sbag1
(g183
g3
NtRp227
(dp228
g193
F-3.3613163187725332
sg194
g204
sg187
I15
sg196
F7.0174359467972485
sg197
g201
sbag1
(g183
g3
NtRp229
(dp230
g193
F0.47239154345337492
sg194
g204
sg187
I16
sg196
F2.6381795586667725
sg197
g201
sbag1
(g183
g3
NtRp231
(dp232
g193
F1.4470212089009302
sg194
g204
sg187
I17
sg196
F5.7001232059116758
sg197
g201
sbag1
(g183
g3
NtRp233
(dp234
g193
F1.0682924946111396
sg194
g204
sg187
I18
sg196
F4.8088060038001714
sg197
g201
sbag1
(g183
g3
NtRp235
(dp236
g193
F-0.61313372010189271
sg194
g204
sg187
I19
sg196
F4.6228972090833684
sg197
g201
sbag1
(g183
g3
NtRp237
(dp238
g193
F0.68134848210786947
sg194
g204
sg187
I20
sg196
F6.6125057828311293
sg197
g201
sbag1
(g183
g3
NtRp239
(dp240
g193
F0.47801237304460559
sg194
g204
sg187
I21
sg196
F5.003297852000995
sg197
g201
sbasb.