ccopy_reg
_reconstructor
p1
(cneat.chromosome
Chromosome
p2
c__builtin__
object
p3
NtRp4
(dp5
S'species_id'
p6
I18
sS'_connection_genes'
p7
(dp8
(I1
I3
tp9
g1
(cneat.genome
ConnectionGene
p10
g3
NtRp11
(dp12
S'_ConnectionGene__weight'
p13
F-3.5682916619722791
sS'_ConnectionGene__in'
p14
I1
sS'_ConnectionGene__enabled'
p15
I00
sS'_ConnectionGene__out'
p16
I3
sS'_ConnectionGene__innov_number'
p17
I3
sbs(I6
I6
tp18
g1
(g10
g3
NtRp19
(dp20
g13
F24.483894698038284
sg14
I6
sg15
I01
sg16
I6
sg17
I39
sbs(I11
I2
tp21
g1
(g10
g3
NtRp22
(dp23
g13
F-22.648272204185009
sg14
I11
sg15
I01
sg16
I2
sg17
I80
sbs(I6
I2
tp24
g1
(g10
g3
NtRp25
(dp26
g13
F16.287803542677274
sg14
I6
sg15
I01
sg16
I2
sg17
I21
sbs(I5
I8
tp27
g1
(g10
g3
NtRp28
(dp29
g13
F4.5911337669195582
sg14
I5
sg15
I01
sg16
I8
sg17
I42
sbs(I1
I2
tp30
g1
(g10
g3
NtRp31
(dp32
g13
F-11.943622535834091
sg14
I1
sg15
I01
sg16
I2
sg17
I1
sbs(I3
I3
tp33
g1
(g10
g3
NtRp34
(dp35
g13
F-13.715797048024829
sg14
I3
sg15
I01
sg16
I3
sg17
I15
sbs(I2
I9
tp36
g1
(g10
g3
NtRp37
(dp38
g13
F0.93845493200241459
sg14
I2
sg15
I01
sg16
I9
sg17
I53
sbs(I11
I5
tp39
g1
(g10
g3
NtRp40
(dp41
g13
F-4.8924369860981756
sg14
I11
sg15
I01
sg16
I5
sg17
I87
sbs(I8
I10
tp42
g1
(g10
g3
NtRp43
(dp44
g13
F4.6169716960969618
sg14
I8
sg15
I01
sg16
I10
sg17
I74
sbs(I1
I5
tp45
g1
(g10
g3
NtRp46
(dp47
g13
F4.2539942759726879
sg14
I1
sg15
I00
sg16
I5
sg17
I11
sbs(I2
I2
tp48
g1
(g10
g3
NtRp49
(dp50
g13
F16.898269577080391
sg14
I2
sg15
I01
sg16
I2
sg17
I2
sbs(I3
I2
tp51
g1
(g10
g3
NtRp52
(dp53
g13
F-26.265000040113787
sg14
I3
sg15
I01
sg16
I2
sg17
I4
sbs(I2
I6
tp54
g1
(g10
g3
NtRp55
(dp56
g13
F6.7839856458867986
sg14
I2
sg15
I01
sg16
I6
sg17
I38
sbs(I8
I2
tp57
g1
(g10
g3
NtRp58
(dp59
g13
F-4.5199645184460229
sg14
I8
sg15
I00
sg16
I2
sg17
I43
sbs(I5
I11
tp60
g1
(g10
g3
NtRp61
(dp62
g13
F0.94439480962942035
sg14
I5
sg15
I01
sg16
I11
sg17
I79
sbs(I9
I3
tp63
g1
(g10
g3
NtRp64
(dp65
g13
F-0.45240550664524171
sg14
I9
sg15
I01
sg16
I3
sg17
I60
sbs(I1
I4
tp66
g1
(g10
g3
NtRp67
(dp68
g13
F-10.971482052523836
sg14
I1
sg15
I01
sg16
I4
sg17
I6
sbs(I7
I5
tp69
g1
(g10
g3
NtRp70
(dp71
g13
F6.6770721958451347
sg14
I7
sg15
I01
sg16
I5
sg17
I30
sbs(I2
I3
tp72
g1
(g10
g3
NtRp73
(dp74
g13
F-0.40581876801626127
sg14
I2
sg15
I01
sg16
I3
sg17
I5
sbs(I1
I9
tp75
g1
(g10
g3
NtRp76
(dp77
g13
F-10.813003737835915
sg14
I1
sg15
I01
sg16
I9
sg17
I58
sbs(I4
I2
tp78
g1
(g10
g3
NtRp79
(dp80
g13
F-21.801561910507051
sg14
I4
sg15
I00
sg16
I2
sg17
I7
sbs(I4
I11
tp81
g1
(g10
g3
NtRp82
(dp83
g13
F-5.3720723062603746
sg14
I4
sg15
I01
sg16
I11
sg17
I89
sbs(I3
I5
tp84
g1
(g10
g3
NtRp85
(dp86
g13
F-8.4884813546569102
sg14
I3
sg15
I01
sg16
I5
sg17
I14
sbs(I4
I6
tp87
g1
(g10
g3
NtRp88
(dp89
g13
F26.946791718281649
sg14
I4
sg15
I01
sg16
I6
sg17
I22
sbs(I3
I8
tp90
g1
(g10
g3
NtRp91
(dp92
g13
F-5.3157159235215845
sg14
I3
sg15
I01
sg16
I8
sg17
I44
sbs(I4
I3
tp93
g1
(g10
g3
NtRp94
(dp95
g13
F-1.9496834806321075
sg14
I4
sg15
I01
sg16
I3
sg17
I10
sbs(I1
I7
tp96
g1
(g10
g3
NtRp97
(dp98
g13
F0.059486701115008644
sg14
I1
sg15
I01
sg16
I7
sg17
I29
sbs(I5
I2
tp99
g1
(g10
g3
NtRp100
(dp101
g13
F-23.466739336048626
sg14
I5
sg15
I01
sg16
I2
sg17
I9
sbs(I10
I2
tp102
g1
(g10
g3
NtRp103
(dp104
g13
F-1.9639323992888054
sg14
I10
sg15
I01
sg16
I2
sg17
I65
sbssS'_input_nodes'
p105
I1
sS'_output_nodes'
p106
I1
sS'_node_gene_type'
p107
cneat.genome
NodeGene
p108
sS'_conn_gene_type'
p109
g10
sS'fitness'
p110
F0.97967920619205906
sS'parent2_id'
p111
I2948
sS'_id'
p112
I2965
sS'parent1_id'
p113
I2948
sS'_node_genes'
p114
(lp115
g1
(g108
g3
NtRp116
(dp117
S'_bias'
p118
I0
sS'_type'
p119
S'INPUT'
p120
sg112
I1
sS'_response'
p121
F4.9242730000000003
sS'_activation_type'
p122
Nsbag1
(g108
g3
NtRp123
(dp124
g118
F-2.9375887749315601
sg119
S'OUTPUT'
p125
sg112
I2
sg121
F4.7274551410853505
sg122
S'tanh'
p126
sbag1
(g108
g3
NtRp127
(dp128
g118
F-1.7306744959868994
sg119
S'HIDDEN'
p129
sg112
I3
sg121
F4.736276581108485
sg122
g126
sbag1
(g108
g3
NtRp130
(dp131
g118
F-0.68496259308681817
sg119
g129
sg112
I4
sg121
F4.9724590992728199
sg122
g126
sbag1
(g108
g3
NtRp132
(dp133
g118
F2.7123208609761442
sg119
g129
sg112
I5
sg121
F11.62128935346845
sg122
g126
sbag1
(g108
g3
NtRp134
(dp135
g118
F2.5156777959558183
sg119
g129
sg112
I6
sg121
F8.1283841134445289
sg122
g126
sbag1
(g108
g3
NtRp136
(dp137
g118
F-2.5436708693853101
sg119
g129
sg112
I7
sg121
F4.7474356814792218
sg122
g126
sbag1
(g108
g3
NtRp138
(dp139
g118
F-0.40902260474972413
sg119
g129
sg112
I8
sg121
F5.3093559056289701
sg122
g126
sbag1
(g108
g3
NtRp140
(dp141
g118
F-0.42999190004413013
sg119
g129
sg112
I9
sg121
F4.3911824550587486
sg122
g126
sbag1
(g108
g3
NtRp142
(dp143
g118
F0.12479959449979849
sg119
g129
sg112
I10
sg121
F4.9242730000000003
sg122
g126
sbag1
(g108
g3
NtRp144
(dp145
g118
F1.1361809902791173
sg119
g129
sg112
I11
sg121
F6.1261826875794787
sg122
g126
sbasb.