ccopy_reg
_reconstructor
p1
(cneat.chromosome
Chromosome
p2
c__builtin__
object
p3
NtRp4
(dp5
S'species_id'
p6
I24
sS'_connection_genes'
p7
(dp8
(I1
I3
tp9
g1
(cneat.genome
ConnectionGene
p10
g3
NtRp11
(dp12
S'_ConnectionGene__weight'
p13
F-0.75413459637580516
sS'_ConnectionGene__in'
p14
I1
sS'_ConnectionGene__enabled'
p15
I01
sS'_ConnectionGene__out'
p16
I3
sS'_ConnectionGene__innov_number'
p17
I3
sbs(I6
I6
tp18
g1
(g10
g3
NtRp19
(dp20
g13
F-2.2025620799586783
sg14
I6
sg15
I01
sg16
I6
sg17
I39
sbs(I6
I2
tp21
g1
(g10
g3
NtRp22
(dp23
g13
F6.0898376748630652
sg14
I6
sg15
I01
sg16
I2
sg17
I21
sbs(I5
I8
tp24
g1
(g10
g3
NtRp25
(dp26
g13
F15.416342101988102
sg14
I5
sg15
I01
sg16
I8
sg17
I42
sbs(I1
I2
tp27
g1
(g10
g3
NtRp28
(dp29
g13
F-25.485857359581637
sg14
I1
sg15
I01
sg16
I2
sg17
I1
sbs(I3
I3
tp30
g1
(g10
g3
NtRp31
(dp32
g13
F5.5679286435235635
sg14
I3
sg15
I01
sg16
I3
sg17
I15
sbs(I2
I9
tp33
g1
(g10
g3
NtRp34
(dp35
g13
F-6.7390266594639767
sg14
I2
sg15
I01
sg16
I9
sg17
I53
sbs(I3
I10
tp36
g1
(g10
g3
NtRp37
(dp38
g13
F10.656531479339948
sg14
I3
sg15
I01
sg16
I10
sg17
I64
sbs(I6
I10
tp39
g1
(g10
g3
NtRp40
(dp41
g13
F0.98673878954516825
sg14
I6
sg15
I01
sg16
I10
sg17
I134
sbs(I4
I4
tp42
g1
(g10
g3
NtRp43
(dp44
g13
F-13.678136069844484
sg14
I4
sg15
I00
sg16
I4
sg17
I16
sbs(I1
I5
tp45
g1
(g10
g3
NtRp46
(dp47
g13
F2.3913580573592714
sg14
I1
sg15
I01
sg16
I5
sg17
I11
sbs(I2
I2
tp48
g1
(g10
g3
NtRp49
(dp50
g13
F16.522750820754453
sg14
I2
sg15
I01
sg16
I2
sg17
I2
sbs(I1
I10
tp51
g1
(g10
g3
NtRp52
(dp53
g13
F-1.5419170696569489
sg14
I1
sg15
I01
sg16
I10
sg17
I71
sbs(I3
I5
tp54
g1
(g10
g3
NtRp55
(dp56
g13
F-26.284842503178769
sg14
I3
sg15
I01
sg16
I5
sg17
I14
sbs(I3
I2
tp57
g1
(g10
g3
NtRp58
(dp59
g13
F-22.337210689356876
sg14
I3
sg15
I01
sg16
I2
sg17
I4
sbs(I2
I6
tp60
g1
(g10
g3
NtRp61
(dp62
g13
F-2.5236182309503579
sg14
I2
sg15
I01
sg16
I6
sg17
I38
sbs(I11
I4
tp63
g1
(g10
g3
NtRp64
(dp65
g13
F-13.96916255733441
sg14
I11
sg15
I01
sg16
I4
sg17
I99
sbs(I8
I2
tp66
g1
(g10
g3
NtRp67
(dp68
g13
F-4.5793912832445534
sg14
I8
sg15
I01
sg16
I2
sg17
I43
sbs(I9
I3
tp69
g1
(g10
g3
NtRp70
(dp71
g13
F30
sg14
I9
sg15
I01
sg16
I3
sg17
I60
sbs(I1
I4
tp72
g1
(g10
g3
NtRp73
(dp74
g13
F-10.190243164205731
sg14
I1
sg15
I01
sg16
I4
sg17
I6
sbs(I7
I5
tp75
g1
(g10
g3
NtRp76
(dp77
g13
F24.192321187056109
sg14
I7
sg15
I01
sg16
I5
sg17
I30
sbs(I2
I3
tp78
g1
(g10
g3
NtRp79
(dp80
g13
F-27.013248113914784
sg14
I2
sg15
I01
sg16
I3
sg17
I5
sbs(I1
I9
tp81
g1
(g10
g3
NtRp82
(dp83
g13
F-14.048116772740588
sg14
I1
sg15
I01
sg16
I9
sg17
I58
sbs(I4
I2
tp84
g1
(g10
g3
NtRp85
(dp86
g13
F-25.283352571853094
sg14
I4
sg15
I00
sg16
I2
sg17
I7
sbs(I4
I11
tp87
g1
(g10
g3
NtRp88
(dp89
g13
F3.4291338512335887
sg14
I4
sg15
I01
sg16
I11
sg17
I89
sbs(I5
I3
tp90
g1
(g10
g3
NtRp91
(dp92
g13
F-5.1107173407797903
sg14
I5
sg15
I01
sg16
I3
sg17
I19
sbs(I10
I5
tp93
g1
(g10
g3
NtRp94
(dp95
g13
F-5.0228402133634837
sg14
I10
sg15
I01
sg16
I5
sg17
I76
sbs(I4
I6
tp96
g1
(g10
g3
NtRp97
(dp98
g13
F14.134406338582414
sg14
I4
sg15
I01
sg16
I6
sg17
I22
sbs(I9
I2
tp99
g1
(g10
g3
NtRp100
(dp101
g13
F-6.8243326619696303
sg14
I9
sg15
I01
sg16
I2
sg17
I49
sbs(I4
I3
tp102
g1
(g10
g3
NtRp103
(dp104
g13
F8.950824041251277
sg14
I4
sg15
I01
sg16
I3
sg17
I10
sbs(I1
I7
tp105
g1
(g10
g3
NtRp106
(dp107
g13
F-0.34063484075296557
sg14
I1
sg15
I01
sg16
I7
sg17
I29
sbs(I5
I2
tp108
g1
(g10
g3
NtRp109
(dp110
g13
F-29.257125337403679
sg14
I5
sg15
I01
sg16
I2
sg17
I9
sbssS'_input_nodes'
p111
I1
sS'_output_nodes'
p112
I1
sS'_node_gene_type'
p113
cneat.genome
NodeGene
p114
sS'_conn_gene_type'
p115
g10
sS'fitness'
p116
F0.91572148628303507
sS'parent2_id'
p117
I4139
sS'_id'
p118
I4154
sS'parent1_id'
p119
I4139
sS'_node_genes'
p120
(lp121
g1
(g114
g3
NtRp122
(dp123
S'_bias'
p124
I0
sS'_type'
p125
S'INPUT'
p126
sg118
I1
sS'_response'
p127
F4.9242730000000003
sS'_activation_type'
p128
Nsbag1
(g114
g3
NtRp129
(dp130
g124
F-2.4759483676292153
sg125
S'OUTPUT'
p131
sg118
I2
sg127
F4.1290088492877688
sg128
S'tanh'
p132
sbag1
(g114
g3
NtRp133
(dp134
g124
F2.6979749765363636
sg125
S'HIDDEN'
p135
sg118
I3
sg127
F4.5588315366812582
sg128
g132
sbag1
(g114
g3
NtRp136
(dp137
g124
F1.19650265473578
sg125
g135
sg118
I4
sg127
F3.8976952160391094
sg128
g132
sbag1
(g114
g3
NtRp138
(dp139
g124
F4.8949924983670536
sg125
g135
sg118
I5
sg127
F10.011591092521259
sg128
g132
sbag1
(g114
g3
NtRp140
(dp141
g124
F4.1385791321830556
sg125
g135
sg118
I6
sg127
F12.564967835356072
sg128
g132
sbag1
(g114
g3
NtRp142
(dp143
g124
F-5.0074699123607189
sg125
g135
sg118
I7
sg127
F4.1479804051365603
sg128
g132
sbag1
(g114
g3
NtRp144
(dp145
g124
F2.9652104464168332
sg125
g135
sg118
I8
sg127
F3.9133124468350271
sg128
g132
sbag1
(g114
g3
NtRp146
(dp147
g124
F-2.1673487804198452
sg125
g135
sg118
I9
sg127
F5.4319310496672202
sg128
g132
sbag1
(g114
g3
NtRp148
(dp149
g124
F-4.3228355101256746
sg125
g135
sg118
I10
sg127
F4.0280943606955626
sg128
g132
sbag1
(g114
g3
NtRp150
(dp151
g124
F0.0037920676286135879
sg125
g135
sg118
I11
sg127
F3.6425452607370317
sg128
g132
sbasb.