ccopy_reg
_reconstructor
p1
(cneat.chromosome
Chromosome
p2
c__builtin__
object
p3
NtRp4
(dp5
S'species_id'
p6
I48
sS'_connection_genes'
p7
(dp8
(I1
I21
tp9
g1
(cneat.genome
ConnectionGene
p10
g3
NtRp11
(dp12
S'_ConnectionGene__weight'
p13
F12.891211776937759
sS'_ConnectionGene__in'
p14
I1
sS'_ConnectionGene__enabled'
p15
I01
sS'_ConnectionGene__out'
p16
I21
sS'_ConnectionGene__innov_number'
p17
I222
sbs(I1
I3
tp18
g1
(g10
g3
NtRp19
(dp20
g13
F-19.100280429009025
sg14
I1
sg15
I01
sg16
I3
sg17
I3
sbs(I6
I6
tp21
g1
(g10
g3
NtRp22
(dp23
g13
F21.316050888075349
sg14
I6
sg15
I01
sg16
I6
sg17
I39
sbs(I11
I2
tp24
g1
(g10
g3
NtRp25
(dp26
g13
F20.658101360638611
sg14
I11
sg15
I01
sg16
I2
sg17
I80
sbs(I1
I15
tp27
g1
(g10
g3
NtRp28
(dp29
g13
F-13.240225642228729
sg14
I1
sg15
I01
sg16
I15
sg17
I146
sbs(I6
I2
tp30
g1
(g10
g3
NtRp31
(dp32
g13
F16.839121656950432
sg14
I6
sg15
I01
sg16
I2
sg17
I21
sbs(I16
I14
tp33
g1
(g10
g3
NtRp34
(dp35
g13
F-11.964364043529706
sg14
I16
sg15
I01
sg16
I14
sg17
I193
sbs(I5
I8
tp36
g1
(g10
g3
NtRp37
(dp38
g13
F-6.2246644010882743
sg14
I5
sg15
I01
sg16
I8
sg17
I42
sbs(I1
I2
tp39
g1
(g10
g3
NtRp40
(dp41
g13
F-23.846598938821344
sg14
I1
sg15
I01
sg16
I2
sg17
I1
sbs(I12
I2
tp42
g1
(g10
g3
NtRp43
(dp44
g13
F7.7033602298217811
sg14
I12
sg15
I01
sg16
I2
sg17
I82
sbs(I17
I12
tp45
g1
(g10
g3
NtRp46
(dp47
g13
F-7.1026382781362116
sg14
I17
sg15
I01
sg16
I12
sg17
I207
sbs(I2
I19
tp48
g1
(g10
g3
NtRp49
(dp50
g13
F2.9087464540105397
sg14
I2
sg15
I01
sg16
I19
sg17
I210
sbs(I3
I3
tp51
g1
(g10
g3
NtRp52
(dp53
g13
F0.0056737311211703112
sg14
I3
sg15
I01
sg16
I3
sg17
I15
sbs(I2
I9
tp54
g1
(g10
g3
NtRp55
(dp56
g13
F24.19168746260274
sg14
I2
sg15
I01
sg16
I9
sg17
I53
sbs(I13
I3
tp57
g1
(g10
g3
NtRp58
(dp59
g13
F8.5989891971943422
sg14
I13
sg15
I01
sg16
I3
sg17
I92
sbs(I5
I14
tp60
g1
(g10
g3
NtRp61
(dp62
g13
F-0.13531544930025718
sg14
I5
sg15
I01
sg16
I14
sg17
I132
sbs(I8
I10
tp63
g1
(g10
g3
NtRp64
(dp65
g13
F23.502480695978861
sg14
I8
sg15
I00
sg16
I10
sg17
I74
sbs(I4
I13
tp66
g1
(g10
g3
NtRp67
(dp68
g13
F-23.044414192889203
sg14
I4
sg15
I01
sg16
I13
sg17
I102
sbs(I1
I5
tp69
g1
(g10
g3
NtRp70
(dp71
g13
F-16.170964458627932
sg14
I1
sg15
I01
sg16
I5
sg17
I11
sbs(I9
I11
tp72
g1
(g10
g3
NtRp73
(dp74
g13
F-10.127975968377298
sg14
I9
sg15
I01
sg16
I11
sg17
I101
sbs(I19
I3
tp75
g1
(g10
g3
NtRp76
(dp77
g13
F-6.2550079011015374
sg14
I19
sg15
I01
sg16
I3
sg17
I212
sbs(I2
I2
tp78
g1
(g10
g3
NtRp79
(dp80
g13
F1.797216928928097
sg14
I2
sg15
I01
sg16
I2
sg17
I2
sbs(I3
I16
tp81
g1
(g10
g3
NtRp82
(dp83
g13
F-2.8004086244108963
sg14
I3
sg15
I01
sg16
I16
sg17
I188
sbs(I8
I16
tp84
g1
(g10
g3
NtRp85
(dp86
g13
F24.785828498260443
sg14
I8
sg15
I01
sg16
I16
sg17
I177
sbs(I20
I6
tp87
g1
(g10
g3
NtRp88
(dp89
g13
F-9.4561870781898172
sg14
I20
sg15
I01
sg16
I6
sg17
I221
sbs(I3
I2
tp90
g1
(g10
g3
NtRp91
(dp92
g13
F-4.9167966056567218
sg14
I3
sg15
I01
sg16
I2
sg17
I4
sbs(I2
I6
tp93
g1
(g10
g3
NtRp94
(dp95
g13
F-15.064720288640828
sg14
I2
sg15
I01
sg16
I6
sg17
I38
sbs(I8
I2
tp96
g1
(g10
g3
NtRp97
(dp98
g13
F-16.926462521102497
sg14
I8
sg15
I01
sg16
I2
sg17
I43
sbs(I5
I11
tp99
g1
(g10
g3
NtRp100
(dp101
g13
F-9.8284291739725234
sg14
I5
sg15
I01
sg16
I11
sg17
I79
sbs(I15
I3
tp102
g1
(g10
g3
NtRp103
(dp104
g13
F15.179017172295884
sg14
I15
sg15
I01
sg16
I3
sg17
I147
sbs(I9
I3
tp105
g1
(g10
g3
NtRp106
(dp107
g13
F19.444257514040757
sg14
I9
sg15
I01
sg16
I3
sg17
I60
sbs(I2
I20
tp108
g1
(g10
g3
NtRp109
(dp110
g13
F15.30992683523352
sg14
I2
sg15
I01
sg16
I20
sg17
I220
sbs(I1
I4
tp111
g1
(g10
g3
NtRp112
(dp113
g13
F-6.2947411756346323
sg14
I1
sg15
I01
sg16
I4
sg17
I6
sbs(I9
I10
tp114
g1
(g10
g3
NtRp115
(dp116
g13
F-20.171860942967641
sg14
I9
sg15
I01
sg16
I10
sg17
I90
sbs(I7
I5
tp117
g1
(g10
g3
NtRp118
(dp119
g13
F-24.49375073195294
sg14
I7
sg15
I01
sg16
I5
sg17
I30
sbs(I2
I3
tp120
g1
(g10
g3
NtRp121
(dp122
g13
F1.1644108860706399
sg14
I2
sg15
I01
sg16
I3
sg17
I5
sbs(I1
I9
tp123
g1
(g10
g3
NtRp124
(dp125
g13
F10.494211711430491
sg14
I1
sg15
I01
sg16
I9
sg17
I58
sbs(I8
I17
tp126
g1
(g10
g3
NtRp127
(dp128
g13
F8.9547455673811402
sg14
I8
sg15
I01
sg16
I17
sg17
I205
sbs(I4
I2
tp129
g1
(g10
g3
NtRp130
(dp131
g13
F1.2818081014142448
sg14
I4
sg15
I01
sg16
I2
sg17
I7
sbs(I14
I2
tp132
g1
(g10
g3
NtRp133
(dp134
g13
F-13.953957723892236
sg14
I14
sg15
I01
sg16
I2
sg17
I138
sbs(I5
I3
tp135
g1
(g10
g3
NtRp136
(dp137
g13
F-5.9345256589664865
sg14
I5
sg15
I01
sg16
I3
sg17
I19
sbs(I3
I5
tp138
g1
(g10
g3
NtRp139
(dp140
g13
F28.912438659727865
sg14
I3
sg15
I01
sg16
I5
sg17
I14
sbs(I11
I7
tp141
g1
(g10
g3
NtRp142
(dp143
g13
F1.4752674227929778
sg14
I11
sg15
I01
sg16
I7
sg17
I168
sbs(I10
I5
tp144
g1
(g10
g3
NtRp145
(dp146
g13
F2.2865426421251582
sg14
I10
sg15
I01
sg16
I5
sg17
I76
sbs(I4
I6
tp147
g1
(g10
g3
NtRp148
(dp149
g13
F-11.656453588878351
sg14
I4
sg15
I01
sg16
I6
sg17
I22
sbs(I15
I2
tp150
g1
(g10
g3
NtRp151
(dp152
g13
F17.257672022392477
sg14
I15
sg15
I01
sg16
I2
sg17
I170
sbs(I8
I12
tp153
g1
(g10
g3
NtRp154
(dp155
g13
F-3.3590946085650826
sg14
I8
sg15
I01
sg16
I12
sg17
I88
sbs(I19
I16
tp156
g1
(g10
g3
NtRp157
(dp158
g13
F-1.6874292195861109
sg14
I19
sg15
I01
sg16
I16
sg17
I231
sbs(I22
I12
tp159
g1
(g10
g3
NtRp160
(dp161
g13
F5.939981111802771
sg14
I22
sg15
I01
sg16
I12
sg17
I226
sbs(I18
I10
tp162
g1
(g10
g3
NtRp163
(dp164
g13
F28.217505563831441
sg14
I18
sg15
I01
sg16
I10
sg17
I209
sbs(I8
I22
tp165
g1
(g10
g3
NtRp166
(dp167
g13
F-14.878956704191474
sg14
I8
sg15
I01
sg16
I22
sg17
I225
sbs(I11
I3
tp168
g1
(g10
g3
NtRp169
(dp170
g13
F-13.104735167068153
sg14
I11
sg15
I01
sg16
I3
sg17
I78
sbs(I21
I3
tp171
g1
(g10
g3
NtRp172
(dp173
g13
F-23.406583695459958
sg14
I21
sg15
I01
sg16
I3
sg17
I224
sbs(I3
I8
tp174
g1
(g10
g3
NtRp175
(dp176
g13
F7.6625360220535423
sg14
I3
sg15
I01
sg16
I8
sg17
I44
sbs(I8
I14
tp177
g1
(g10
g3
NtRp178
(dp179
g13
F-5.1143725864363159
sg14
I8
sg15
I00
sg16
I14
sg17
I119
sbs(I8
I18
tp180
g1
(g10
g3
NtRp181
(dp182
g13
F8.0890855026953314
sg14
I8
sg15
I01
sg16
I18
sg17
I208
sbs(I4
I3
tp183
g1
(g10
g3
NtRp184
(dp185
g13
F11.076707806483995
sg14
I4
sg15
I01
sg16
I3
sg17
I10
sbs(I1
I7
tp186
g1
(g10
g3
NtRp187
(dp188
g13
F9.5896038767000231
sg14
I1
sg15
I01
sg16
I7
sg17
I29
sbs(I13
I9
tp189
g1
(g10
g3
NtRp190
(dp191
g13
F-11.67602128125638
sg14
I13
sg15
I01
sg16
I9
sg17
I112
sbs(I5
I2
tp192
g1
(g10
g3
NtRp193
(dp194
g13
F1.725304312591968
sg14
I5
sg15
I01
sg16
I2
sg17
I9
sbs(I10
I2
tp195
g1
(g10
g3
NtRp196
(dp197
g13
F-8.424250844262513
sg14
I10
sg15
I01
sg16
I2
sg17
I65
sbssS'_input_nodes'
p198
I1
sS'_output_nodes'
p199
I1
sS'_node_gene_type'
p200
cneat.genome
NodeGene
p201
sS'_conn_gene_type'
p202
g10
sS'fitness'
p203
F0.99025240975876161
sS'parent2_id'
p204
I7686
sS'_id'
p205
I7707
sS'parent1_id'
p206
I7686
sS'_node_genes'
p207
(lp208
g1
(g201
g3
NtRp209
(dp210
S'_bias'
p211
I0
sS'_type'
p212
S'INPUT'
p213
sg205
I1
sS'_response'
p214
F4.9242730000000003
sS'_activation_type'
p215
Nsbag1
(g201
g3
NtRp216
(dp217
g211
F-5.1992331690049038
sg212
S'OUTPUT'
p218
sg205
I2
sg214
F4.2821993689733207
sg215
S'tanh'
p219
sbag1
(g201
g3
NtRp220
(dp221
g211
F-2.4006035452309686
sg212
S'HIDDEN'
p222
sg205
I3
sg214
F2.544282772281139
sg215
g219
sbag1
(g201
g3
NtRp223
(dp224
g211
F-3.7174025909908757
sg212
g222
sg205
I4
sg214
F4.6506149208696854
sg215
g219
sbag1
(g201
g3
NtRp225
(dp226
g211
F1.7256649677263207
sg212
g222
sg205
I5
sg214
F14.248890141197226
sg215
g219
sbag1
(g201
g3
NtRp227
(dp228
g211
F0.3259954556905707
sg212
g222
sg205
I6
sg214
F2.6675302909990726
sg215
g219
sbag1
(g201
g3
NtRp229
(dp230
g211
F-1.1201335890560666
sg212
g222
sg205
I7
sg214
F0.4187438570193861
sg215
g219
sbag1
(g201
g3
NtRp231
(dp232
g211
F-1.8029713797058962
sg212
g222
sg205
I8
sg214
F14.033318752465355
sg215
g219
sbag1
(g201
g3
NtRp233
(dp234
g211
F-0.26225296902523526
sg212
g222
sg205
I9
sg214
F7.8326979325032333
sg215
g219
sbag1
(g201
g3
NtRp235
(dp236
g211
F1.0960949949283352
sg212
g222
sg205
I10
sg214
F6.8002149224869939
sg215
g219
sbag1
(g201
g3
NtRp237
(dp238
g211
F0.46009175027485122
sg212
g222
sg205
I11
sg214
F5.5690039584707467
sg215
g219
sbag1
(g201
g3
NtRp239
(dp240
g211
F3.2484748793529152
sg212
g222
sg205
I12
sg214
F5.3286700058742653
sg215
g219
sbag1
(g201
g3
NtRp241
(dp242
g211
F-1.3630174659927319
sg212
g222
sg205
I13
sg214
F2.4335837227933812
sg215
g219
sbag1
(g201
g3
NtRp243
(dp244
g211
F2.2402366596636352
sg212
g222
sg205
I14
sg214
F4.8547173957818002
sg215
g219
sbag1
(g201
g3
NtRp245
(dp246
g211
F-3.9924016397429978
sg212
g222
sg205
I15
sg214
F5.5384542724141808
sg215
g219
sbag1
(g201
g3
NtRp247
(dp248
g211
F-1.7416712238198044
sg212
g222
sg205
I16
sg214
F5.719790141719554
sg215
g219
sbag1
(g201
g3
NtRp249
(dp250
g211
F-1.5549078780735597
sg212
g222
sg205
I17
sg214
F4.5042210630472495
sg215
g219
sbag1
(g201
g3
NtRp251
(dp252
g211
F1.115912462674292
sg212
g222
sg205
I18
sg214
F4.1297767044676421
sg215
g219
sbag1
(g201
g3
NtRp253
(dp254
g211
F1.403165022744385
sg212
g222
sg205
I19
sg214
F2.358927224599725
sg215
g219
sbag1
(g201
g3
NtRp255
(dp256
g211
F2.2012237073793344
sg212
g222
sg205
I20
sg214
F5.2457347458817294
sg215
g219
sbag1
(g201
g3
NtRp257
(dp258
g211
F0.0025401927078752551
sg212
g222
sg205
I21
sg214
F6.5097585175781791
sg215
g219
sbag1
(g201
g3
NtRp259
(dp260
g211
F3.2518686566184112
sg212
g222
sg205
I22
sg214
F6.0048746981983747
sg215
g219
sbasb.