ccopy_reg
_reconstructor
p1
(cneat.chromosome
Chromosome
p2
c__builtin__
object
p3
NtRp4
(dp5
S'species_id'
p6
I28
sS'_connection_genes'
p7
(dp8
(I1
I3
tp9
g1
(cneat.genome
ConnectionGene
p10
g3
NtRp11
(dp12
S'_ConnectionGene__weight'
p13
F-3.1358783699065049
sS'_ConnectionGene__in'
p14
I1
sS'_ConnectionGene__enabled'
p15
I00
sS'_ConnectionGene__out'
p16
I3
sS'_ConnectionGene__innov_number'
p17
I3
sbs(I6
I6
tp18
g1
(g10
g3
NtRp19
(dp20
g13
F10.45018934493198
sg14
I6
sg15
I01
sg16
I6
sg17
I39
sbs(I11
I2
tp21
g1
(g10
g3
NtRp22
(dp23
g13
F-11.017587075982053
sg14
I11
sg15
I01
sg16
I2
sg17
I80
sbs(I1
I15
tp24
g1
(g10
g3
NtRp25
(dp26
g13
F-0.044313115964556005
sg14
I1
sg15
I01
sg16
I15
sg17
I146
sbs(I6
I2
tp27
g1
(g10
g3
NtRp28
(dp29
g13
F19.95103201148142
sg14
I6
sg15
I01
sg16
I2
sg17
I21
sbs(I5
I8
tp30
g1
(g10
g3
NtRp31
(dp32
g13
F-2.8123365941005338
sg14
I5
sg15
I01
sg16
I8
sg17
I42
sbs(I1
I2
tp33
g1
(g10
g3
NtRp34
(dp35
g13
F-24.994010638676141
sg14
I1
sg15
I01
sg16
I2
sg17
I1
sbs(I12
I2
tp36
g1
(g10
g3
NtRp37
(dp38
g13
F8.8628644997199366
sg14
I12
sg15
I01
sg16
I2
sg17
I82
sbs(I3
I3
tp39
g1
(g10
g3
NtRp40
(dp41
g13
F-3.3205369627736911
sg14
I3
sg15
I01
sg16
I3
sg17
I15
sbs(I2
I9
tp42
g1
(g10
g3
NtRp43
(dp44
g13
F5.6922817855251839
sg14
I2
sg15
I01
sg16
I9
sg17
I53
sbs(I13
I3
tp45
g1
(g10
g3
NtRp46
(dp47
g13
F5.634756873952754
sg14
I13
sg15
I01
sg16
I3
sg17
I92
sbs(I8
I10
tp48
g1
(g10
g3
NtRp49
(dp50
g13
F26.136769140073191
sg14
I8
sg15
I01
sg16
I10
sg17
I74
sbs(I4
I13
tp51
g1
(g10
g3
NtRp52
(dp53
g13
F-9.5890509191300595
sg14
I4
sg15
I01
sg16
I13
sg17
I102
sbs(I1
I5
tp54
g1
(g10
g3
NtRp55
(dp56
g13
F-6.3512952181045224
sg14
I1
sg15
I00
sg16
I5
sg17
I11
sbs(I2
I2
tp57
g1
(g10
g3
NtRp58
(dp59
g13
F25.712740852433171
sg14
I2
sg15
I01
sg16
I2
sg17
I2
sbs(I3
I2
tp60
g1
(g10
g3
NtRp61
(dp62
g13
F-20.680577905901366
sg14
I3
sg15
I01
sg16
I2
sg17
I4
sbs(I2
I6
tp63
g1
(g10
g3
NtRp64
(dp65
g13
F1.1361247134743517
sg14
I2
sg15
I01
sg16
I6
sg17
I38
sbs(I8
I2
tp66
g1
(g10
g3
NtRp67
(dp68
g13
F-10.599536424100458
sg14
I8
sg15
I00
sg16
I2
sg17
I43
sbs(I5
I11
tp69
g1
(g10
g3
NtRp70
(dp71
g13
F7.6065302691426524
sg14
I5
sg15
I01
sg16
I11
sg17
I79
sbs(I15
I3
tp72
g1
(g10
g3
NtRp73
(dp74
g13
F-0.80712567645154643
sg14
I15
sg15
I01
sg16
I3
sg17
I147
sbs(I9
I3
tp75
g1
(g10
g3
NtRp76
(dp77
g13
F-13.344733430473102
sg14
I9
sg15
I01
sg16
I3
sg17
I60
sbs(I1
I4
tp78
g1
(g10
g3
NtRp79
(dp80
g13
F-16.939370912561696
sg14
I1
sg15
I01
sg16
I4
sg17
I6
sbs(I9
I10
tp81
g1
(g10
g3
NtRp82
(dp83
g13
F-9.9980439090791187
sg14
I9
sg15
I01
sg16
I10
sg17
I90
sbs(I7
I5
tp84
g1
(g10
g3
NtRp85
(dp86
g13
F3.6472115467295887
sg14
I7
sg15
I01
sg16
I5
sg17
I30
sbs(I2
I3
tp87
g1
(g10
g3
NtRp88
(dp89
g13
F-3.8051306626428261
sg14
I2
sg15
I01
sg16
I3
sg17
I5
sbs(I1
I9
tp90
g1
(g10
g3
NtRp91
(dp92
g13
F-13.460966846532362
sg14
I1
sg15
I01
sg16
I9
sg17
I58
sbs(I4
I2
tp93
g1
(g10
g3
NtRp94
(dp95
g13
F-21.145050664062559
sg14
I4
sg15
I00
sg16
I2
sg17
I7
sbs(I14
I2
tp96
g1
(g10
g3
NtRp97
(dp98
g13
F-9.9616497929492809
sg14
I14
sg15
I01
sg16
I2
sg17
I138
sbs(I3
I5
tp99
g1
(g10
g3
NtRp100
(dp101
g13
F3.4131277085111145
sg14
I3
sg15
I01
sg16
I5
sg17
I14
sbs(I4
I6
tp102
g1
(g10
g3
NtRp103
(dp104
g13
F7.5694086370661999
sg14
I4
sg15
I01
sg16
I6
sg17
I22
sbs(I8
I12
tp105
g1
(g10
g3
NtRp106
(dp107
g13
F-1.3151718532242103
sg14
I8
sg15
I01
sg16
I12
sg17
I88
sbs(I11
I3
tp108
g1
(g10
g3
NtRp109
(dp110
g13
F0.88212496981739519
sg14
I11
sg15
I01
sg16
I3
sg17
I78
sbs(I3
I8
tp111
g1
(g10
g3
NtRp112
(dp113
g13
F-0.8678906039115013
sg14
I3
sg15
I01
sg16
I8
sg17
I44
sbs(I8
I14
tp114
g1
(g10
g3
NtRp115
(dp116
g13
F1.1252934486709072
sg14
I8
sg15
I01
sg16
I14
sg17
I119
sbs(I4
I3
tp117
g1
(g10
g3
NtRp118
(dp119
g13
F-5.2380334654934435
sg14
I4
sg15
I00
sg16
I3
sg17
I10
sbs(I1
I7
tp120
g1
(g10
g3
NtRp121
(dp122
g13
F1.0456522346291286
sg14
I1
sg15
I01
sg16
I7
sg17
I29
sbs(I5
I2
tp123
g1
(g10
g3
NtRp124
(dp125
g13
F-18.92209175818774
sg14
I5
sg15
I00
sg16
I2
sg17
I9
sbs(I10
I2
tp126
g1
(g10
g3
NtRp127
(dp128
g13
F-7.0022368330746314
sg14
I10
sg15
I01
sg16
I2
sg17
I65
sbssS'_input_nodes'
p129
I1
sS'_output_nodes'
p130
I1
sS'_node_gene_type'
p131
cneat.genome
NodeGene
p132
sS'_conn_gene_type'
p133
g10
sS'fitness'
p134
F0.94547810846093394
sS'parent2_id'
p135
I4268
sS'_id'
p136
I4281
sS'parent1_id'
p137
I4268
sS'_node_genes'
p138
(lp139
g1
(g132
g3
NtRp140
(dp141
S'_bias'
p142
I0
sS'_type'
p143
S'INPUT'
p144
sg136
I1
sS'_response'
p145
F4.9242730000000003
sS'_activation_type'
p146
Nsbag1
(g132
g3
NtRp147
(dp148
g142
F-5.9557926067674289
sg143
S'OUTPUT'
p149
sg136
I2
sg145
F4.2339797978880371
sg146
S'tanh'
p150
sbag1
(g132
g3
NtRp151
(dp152
g142
F0.1331917124571651
sg143
S'HIDDEN'
p153
sg136
I3
sg145
F4.3806361848236426
sg146
g150
sbag1
(g132
g3
NtRp154
(dp155
g142
F-1.4220169318846676
sg143
g153
sg136
I4
sg145
F9.6315506189378617
sg146
g150
sbag1
(g132
g3
NtRp156
(dp157
g142
F2.5656440104049301
sg143
g153
sg136
I5
sg145
F9.0366248192629275
sg146
g150
sbag1
(g132
g3
NtRp158
(dp159
g142
F1.056097525900237
sg143
g153
sg136
I6
sg145
F7.0465568636132616
sg146
g150
sbag1
(g132
g3
NtRp160
(dp161
g142
F-1.0283586682411103
sg143
g153
sg136
I7
sg145
F3.0910794360008023
sg146
g150
sbag1
(g132
g3
NtRp162
(dp163
g142
F-0.16350121997995679
sg143
g153
sg136
I8
sg145
F9.4790672590112681
sg146
g150
sbag1
(g132
g3
NtRp164
(dp165
g142
F0.47121332093985879
sg143
g153
sg136
I9
sg145
F5.9929515814988363
sg146
g150
sbag1
(g132
g3
NtRp166
(dp167
g142
F-1.5696982724852637
sg143
g153
sg136
I10
sg145
F5.4688402145629702
sg146
g150
sbag1
(g132
g3
NtRp168
(dp169
g142
F-0.65879813168245038
sg143
g153
sg136
I11
sg145
F6.6131729465392386
sg146
g150
sbag1
(g132
g3
NtRp170
(dp171
g142
F0.092025177725029744
sg143
g153
sg136
I12
sg145
F6.2835988859141567
sg146
g150
sbag1
(g132
g3
NtRp172
(dp173
g142
F-0.82443244841376639
sg143
g153
sg136
I13
sg145
F4.9941279154498996
sg146
g150
sbag1
(g132
g3
NtRp174
(dp175
g142
I0
sg143
g153
sg136
I14
sg145
F4.9242730000000003
sg146
g150
sbag1
(g132
g3
NtRp176
(dp177
g142
F0.067872374751086872
sg143
g153
sg136
I15
sg145
F4.9924904819378115
sg146
g150
sbasb.