ccopy_reg
_reconstructor
p1
(cneat.chromosome
Chromosome
p2
c__builtin__
object
p3
NtRp4
(dp5
S'species_id'
p6
I45
sS'_connection_genes'
p7
(dp8
(I1
I3
tp9
g1
(cneat.genome
ConnectionGene
p10
g3
NtRp11
(dp12
S'_ConnectionGene__weight'
p13
F7.8629995694742973
sS'_ConnectionGene__in'
p14
I1
sS'_ConnectionGene__enabled'
p15
I01
sS'_ConnectionGene__out'
p16
I3
sS'_ConnectionGene__innov_number'
p17
I3
sbs(I6
I6
tp18
g1
(g10
g3
NtRp19
(dp20
g13
F23.46982833697076
sg14
I6
sg15
I01
sg16
I6
sg17
I39
sbs(I11
I2
tp21
g1
(g10
g3
NtRp22
(dp23
g13
F5.9871898269951025
sg14
I11
sg15
I01
sg16
I2
sg17
I80
sbs(I7
I11
tp24
g1
(g10
g3
NtRp25
(dp26
g13
F-0.33041922926454825
sg14
I7
sg15
I01
sg16
I11
sg17
I123
sbs(I1
I15
tp27
g1
(g10
g3
NtRp28
(dp29
g13
F-4.1020238528534794
sg14
I1
sg15
I01
sg16
I15
sg17
I146
sbs(I23
I3
tp30
g1
(g10
g3
NtRp31
(dp32
g13
F10.216544156965753
sg14
I23
sg15
I01
sg16
I3
sg17
I246
sbs(I6
I2
tp33
g1
(g10
g3
NtRp34
(dp35
g13
F25.042232526059603
sg14
I6
sg15
I01
sg16
I2
sg17
I21
sbs(I22
I6
tp36
g1
(g10
g3
NtRp37
(dp38
g13
F7.3252444058662967
sg14
I22
sg15
I01
sg16
I6
sg17
I267
sbs(I16
I14
tp39
g1
(g10
g3
NtRp40
(dp41
g13
F-29.93635121894339
sg14
I16
sg15
I01
sg16
I14
sg17
I193
sbs(I5
I8
tp42
g1
(g10
g3
NtRp43
(dp44
g13
F4.0786381339290116
sg14
I5
sg15
I00
sg16
I8
sg17
I42
sbs(I20
I22
tp45
g1
(g10
g3
NtRp46
(dp47
g13
F1.7727971880280893
sg14
I20
sg15
I01
sg16
I22
sg17
I266
sbs(I1
I2
tp48
g1
(g10
g3
NtRp49
(dp50
g13
F-8.5104464838925971
sg14
I1
sg15
I01
sg16
I2
sg17
I1
sbs(I12
I2
tp51
g1
(g10
g3
NtRp52
(dp53
g13
F5.5322719647802776
sg14
I12
sg15
I01
sg16
I2
sg17
I82
sbs(I2
I19
tp54
g1
(g10
g3
NtRp55
(dp56
g13
F20.271197469662752
sg14
I2
sg15
I01
sg16
I19
sg17
I210
sbs(I3
I3
tp57
g1
(g10
g3
NtRp58
(dp59
g13
F-12.684552963716369
sg14
I3
sg15
I01
sg16
I3
sg17
I15
sbs(I2
I9
tp60
g1
(g10
g3
NtRp61
(dp62
g13
F29.320028606832292
sg14
I2
sg15
I01
sg16
I9
sg17
I53
sbs(I13
I3
tp63
g1
(g10
g3
NtRp64
(dp65
g13
F5.63140624328428
sg14
I13
sg15
I00
sg16
I3
sg17
I92
sbs(I8
I10
tp66
g1
(g10
g3
NtRp67
(dp68
g13
F23.698351765184061
sg14
I8
sg15
I01
sg16
I10
sg17
I74
sbs(I21
I8
tp69
g1
(g10
g3
NtRp70
(dp71
g13
F-3.7773661384058581
sg14
I21
sg15
I01
sg16
I8
sg17
I250
sbs(I4
I13
tp72
g1
(g10
g3
NtRp73
(dp74
g13
F-2.928588012601272
sg14
I4
sg15
I01
sg16
I13
sg17
I102
sbs(I1
I5
tp75
g1
(g10
g3
NtRp76
(dp77
g13
F-11.042070406497674
sg14
I1
sg15
I01
sg16
I5
sg17
I11
sbs(I9
I11
tp78
g1
(g10
g3
NtRp79
(dp80
g13
F8.1598897746501731
sg14
I9
sg15
I01
sg16
I11
sg17
I101
sbs(I19
I3
tp81
g1
(g10
g3
NtRp82
(dp83
g13
F23.042128155733955
sg14
I19
sg15
I01
sg16
I3
sg17
I212
sbs(I2
I2
tp84
g1
(g10
g3
NtRp85
(dp86
g13
F-8.6617509628029055
sg14
I2
sg15
I01
sg16
I2
sg17
I2
sbs(I12
I10
tp87
g1
(g10
g3
NtRp88
(dp89
g13
F-4.7468870706076594
sg14
I12
sg15
I01
sg16
I10
sg17
I105
sbs(I8
I16
tp90
g1
(g10
g3
NtRp91
(dp92
g13
F-9.5976031958850747
sg14
I8
sg15
I01
sg16
I16
sg17
I177
sbs(I12
I3
tp93
g1
(g10
g3
NtRp94
(dp95
g13
F6.949280141157038
sg14
I12
sg15
I01
sg16
I3
sg17
I86
sbs(I20
I6
tp96
g1
(g10
g3
NtRp97
(dp98
g13
F1.6067198519978165
sg14
I20
sg15
I00
sg16
I6
sg17
I221
sbs(I3
I2
tp99
g1
(g10
g3
NtRp100
(dp101
g13
F-16.341360357892988
sg14
I3
sg15
I01
sg16
I2
sg17
I4
sbs(I2
I6
tp102
g1
(g10
g3
NtRp103
(dp104
g13
F-8.8693435712260893
sg14
I2
sg15
I00
sg16
I6
sg17
I38
sbs(I8
I2
tp105
g1
(g10
g3
NtRp106
(dp107
g13
F-25.066906046213212
sg14
I8
sg15
I01
sg16
I2
sg17
I43
sbs(I5
I11
tp108
g1
(g10
g3
NtRp109
(dp110
g13
F-23.281930633477465
sg14
I5
sg15
I01
sg16
I11
sg17
I79
sbs(I15
I3
tp111
g1
(g10
g3
NtRp112
(dp113
g13
F-7.7398660440530938
sg14
I15
sg15
I01
sg16
I3
sg17
I147
sbs(I9
I3
tp114
g1
(g10
g3
NtRp115
(dp116
g13
F-3.7746514893357315
sg14
I9
sg15
I01
sg16
I3
sg17
I60
sbs(I2
I20
tp117
g1
(g10
g3
NtRp118
(dp119
g13
F3.6598329757655739
sg14
I2
sg15
I01
sg16
I20
sg17
I220
sbs(I1
I4
tp120
g1
(g10
g3
NtRp121
(dp122
g13
F-28.019628111505959
sg14
I1
sg15
I01
sg16
I4
sg17
I6
sbs(I9
I10
tp123
g1
(g10
g3
NtRp124
(dp125
g13
F-25.326555224940524
sg14
I9
sg15
I01
sg16
I10
sg17
I90
sbs(I7
I5
tp126
g1
(g10
g3
NtRp127
(dp128
g13
F-2.9660367627349156
sg14
I7
sg15
I01
sg16
I5
sg17
I30
sbs(I2
I3
tp129
g1
(g10
g3
NtRp130
(dp131
g13
F11.21544647633992
sg14
I2
sg15
I00
sg16
I3
sg17
I5
sbs(I1
I9
tp132
g1
(g10
g3
NtRp133
(dp134
g13
F26.125444729125508
sg14
I1
sg15
I01
sg16
I9
sg17
I58
sbs(I13
I9
tp135
g1
(g10
g3
NtRp136
(dp137
g13
F-3.9863432410809985
sg14
I13
sg15
I01
sg16
I9
sg17
I112
sbs(I8
I17
tp138
g1
(g10
g3
NtRp139
(dp140
g13
F17.018670001392
sg14
I8
sg15
I01
sg16
I17
sg17
I205
sbs(I4
I2
tp141
g1
(g10
g3
NtRp142
(dp143
g13
F-19.649370462349385
sg14
I4
sg15
I01
sg16
I2
sg17
I7
sbs(I14
I2
tp144
g1
(g10
g3
NtRp145
(dp146
g13
F7.7056794827516022
sg14
I14
sg15
I01
sg16
I2
sg17
I138
sbs(I3
I5
tp147
g1
(g10
g3
NtRp148
(dp149
g13
F30
sg14
I3
sg15
I01
sg16
I5
sg17
I14
sbs(I10
I5
tp150
g1
(g10
g3
NtRp151
(dp152
g13
F1.5106313777109572
sg14
I10
sg15
I01
sg16
I5
sg17
I76
sbs(I13
I23
tp153
g1
(g10
g3
NtRp154
(dp155
g13
F3.2107965366546996
sg14
I13
sg15
I01
sg16
I23
sg17
I287
sbs(I4
I6
tp156
g1
(g10
g3
NtRp157
(dp158
g13
F-10.397680373932085
sg14
I4
sg15
I01
sg16
I6
sg17
I22
sbs(I15
I2
tp159
g1
(g10
g3
NtRp160
(dp161
g13
F2.0880223965959566
sg14
I15
sg15
I01
sg16
I2
sg17
I170
sbs(I8
I12
tp162
g1
(g10
g3
NtRp163
(dp164
g13
F-1.2330847342976849
sg14
I8
sg15
I01
sg16
I12
sg17
I88
sbs(I18
I10
tp165
g1
(g10
g3
NtRp166
(dp167
g13
F19.412049360777441
sg14
I18
sg15
I01
sg16
I10
sg17
I209
sbs(I11
I3
tp168
g1
(g10
g3
NtRp169
(dp170
g13
F-11.228030664735321
sg14
I11
sg15
I01
sg16
I3
sg17
I78
sbs(I3
I8
tp171
g1
(g10
g3
NtRp172
(dp173
g13
F22.024594734423054
sg14
I3
sg15
I01
sg16
I8
sg17
I44
sbs(I8
I14
tp174
g1
(g10
g3
NtRp175
(dp176
g13
F14.420910411723417
sg14
I8
sg15
I01
sg16
I14
sg17
I119
sbs(I8
I18
tp177
g1
(g10
g3
NtRp178
(dp179
g13
F0.73569650417733468
sg14
I8
sg15
I01
sg16
I18
sg17
I208
sbs(I17
I12
tp180
g1
(g10
g3
NtRp181
(dp182
g13
F-7.56030240760556
sg14
I17
sg15
I01
sg16
I12
sg17
I207
sbs(I1
I7
tp183
g1
(g10
g3
NtRp184
(dp185
g13
F5.1640929346163791
sg14
I1
sg15
I01
sg16
I7
sg17
I29
sbs(I4
I3
tp186
g1
(g10
g3
NtRp187
(dp188
g13
F16.174099089851417
sg14
I4
sg15
I01
sg16
I3
sg17
I10
sbs(I10
I2
tp189
g1
(g10
g3
NtRp190
(dp191
g13
F-8.6116184876329243
sg14
I10
sg15
I01
sg16
I2
sg17
I65
sbs(I5
I2
tp192
g1
(g10
g3
NtRp193
(dp194
g13
F-8.6345001380602042
sg14
I5
sg15
I01
sg16
I2
sg17
I9
sbs(I5
I21
tp195
g1
(g10
g3
NtRp196
(dp197
g13
F4.8159911973946734
sg14
I5
sg15
I01
sg16
I21
sg17
I249
sbssS'_input_nodes'
p198
I1
sS'_output_nodes'
p199
I1
sS'_node_gene_type'
p200
cneat.genome
NodeGene
p201
sS'_conn_gene_type'
p202
g10
sS'fitness'
p203
F0.97510811185471646
sS'parent2_id'
p204
I6990
sS'_id'
p205
I7007
sS'parent1_id'
p206
I6990
sS'_node_genes'
p207
(lp208
g1
(g201
g3
NtRp209
(dp210
S'_bias'
p211
I0
sS'_type'
p212
S'INPUT'
p213
sg205
I1
sS'_response'
p214
F4.9242730000000003
sS'_activation_type'
p215
Nsbag1
(g201
g3
NtRp216
(dp217
g211
F-6.3043649375227551
sg212
S'OUTPUT'
p218
sg205
I2
sg214
F5.1255763739525868
sg215
S'tanh'
p219
sbag1
(g201
g3
NtRp220
(dp221
g211
F1.0598792384486628
sg212
S'HIDDEN'
p222
sg205
I3
sg214
F1.4054446489500043
sg215
g219
sbag1
(g201
g3
NtRp223
(dp224
g211
F-4.7019071871834317
sg212
g222
sg205
I4
sg214
F7.0920572753112792
sg215
g219
sbag1
(g201
g3
NtRp225
(dp226
g211
F4.3561516061362964
sg212
g222
sg205
I5
sg214
F11.120329149209249
sg215
g219
sbag1
(g201
g3
NtRp227
(dp228
g211
F-1.6788830024960602
sg212
g222
sg205
I6
sg214
F5.1893201135786056
sg215
g219
sbag1
(g201
g3
NtRp229
(dp230
g211
F0.49487501142928375
sg212
g222
sg205
I7
sg214
F0.050000691158199606
sg215
g219
sbag1
(g201
g3
NtRp231
(dp232
g211
F-1.8139293920569581
sg212
g222
sg205
I8
sg214
F9.1551518543942674
sg215
g219
sbag1
(g201
g3
NtRp233
(dp234
g211
F0.046135480914836435
sg212
g222
sg205
I9
sg214
F7.0004910820533821
sg215
g219
sbag1
(g201
g3
NtRp235
(dp236
g211
F0.17154315225927097
sg212
g222
sg205
I10
sg214
F8.240333781602601
sg215
g219
sbag1
(g201
g3
NtRp237
(dp238
g211
F-0.33600738706493888
sg212
g222
sg205
I11
sg214
F6.8821326935699512
sg215
g219
sbag1
(g201
g3
NtRp239
(dp240
g211
F0.12676033546022147
sg212
g222
sg205
I12
sg214
F3.5472011630870468
sg215
g219
sbag1
(g201
g3
NtRp241
(dp242
g211
F-2.3193439202384134
sg212
g222
sg205
I13
sg214
F3.6409910530107688
sg215
g219
sbag1
(g201
g3
NtRp243
(dp244
g211
F3.4657193328604117
sg212
g222
sg205
I14
sg214
F5.82917693478585
sg215
g219
sbag1
(g201
g3
NtRp245
(dp246
g211
F-3.9515801050089627
sg212
g222
sg205
I15
sg214
F5.6841905488129925
sg215
g219
sbag1
(g201
g3
NtRp247
(dp248
g211
F-0.52052148546668486
sg212
g222
sg205
I16
sg214
F4.8352426725808426
sg215
g219
sbag1
(g201
g3
NtRp249
(dp250
g211
F1.933420617062596
sg212
g222
sg205
I17
sg214
F7.7159584684527109
sg215
g219
sbag1
(g201
g3
NtRp251
(dp252
g211
F3.0677775366034492
sg212
g222
sg205
I18
sg214
F3.9397741221582341
sg215
g219
sbag1
(g201
g3
NtRp253
(dp254
g211
F-1.3786108384680571
sg212
g222
sg205
I19
sg214
F1.5061909305077292
sg215
g219
sbag1
(g201
g3
NtRp255
(dp256
g211
F0.65227870360182438
sg212
g222
sg205
I20
sg214
F4.7445898858859969
sg215
g219
sbag1
(g201
g3
NtRp257
(dp258
g211
F0.093913130560680347
sg212
g222
sg205
I21
sg214
F3.6034078390429602
sg215
g219
sbag1
(g201
g3
NtRp259
(dp260
g211
F0.5114391895768855
sg212
g222
sg205
I22
sg214
F5.184299763999765
sg215
g219
sbag1
(g201
g3
NtRp261
(dp262
g211
F-0.57471610330870571
sg212
g222
sg205
I23
sg214
F4.9242730000000003
sg215
g219
sbasb.