ccopy_reg
_reconstructor
p1
(cneat.chromosome
Chromosome
p2
c__builtin__
object
p3
NtRp4
(dp5
S'species_id'
p6
I24
sS'_connection_genes'
p7
(dp8
(I1
I3
tp9
g1
(cneat.genome
ConnectionGene
p10
g3
NtRp11
(dp12
S'_ConnectionGene__weight'
p13
F-1.225214492682666
sS'_ConnectionGene__in'
p14
I1
sS'_ConnectionGene__enabled'
p15
I01
sS'_ConnectionGene__out'
p16
I3
sS'_ConnectionGene__innov_number'
p17
I3
sbs(I6
I6
tp18
g1
(g10
g3
NtRp19
(dp20
g13
F-0.62169210721788937
sg14
I6
sg15
I01
sg16
I6
sg17
I39
sbs(I6
I2
tp21
g1
(g10
g3
NtRp22
(dp23
g13
F9.6352469063538226
sg14
I6
sg15
I01
sg16
I2
sg17
I21
sbs(I5
I8
tp24
g1
(g10
g3
NtRp25
(dp26
g13
F13.818765516479909
sg14
I5
sg15
I01
sg16
I8
sg17
I42
sbs(I1
I2
tp27
g1
(g10
g3
NtRp28
(dp29
g13
F-29.375442503700434
sg14
I1
sg15
I01
sg16
I2
sg17
I1
sbs(I3
I3
tp30
g1
(g10
g3
NtRp31
(dp32
g13
F0.60927698473654135
sg14
I3
sg15
I01
sg16
I3
sg17
I15
sbs(I2
I9
tp33
g1
(g10
g3
NtRp34
(dp35
g13
F-3.6527391095205255
sg14
I2
sg15
I01
sg16
I9
sg17
I53
sbs(I3
I10
tp36
g1
(g10
g3
NtRp37
(dp38
g13
F13.01438122490123
sg14
I3
sg15
I01
sg16
I10
sg17
I64
sbs(I6
I10
tp39
g1
(g10
g3
NtRp40
(dp41
g13
F0.95876940575155123
sg14
I6
sg15
I01
sg16
I10
sg17
I134
sbs(I4
I4
tp42
g1
(g10
g3
NtRp43
(dp44
g13
F-17.195164136600422
sg14
I4
sg15
I01
sg16
I4
sg17
I16
sbs(I1
I5
tp45
g1
(g10
g3
NtRp46
(dp47
g13
F-1.6751670679351141
sg14
I1
sg15
I01
sg16
I5
sg17
I11
sbs(I2
I2
tp48
g1
(g10
g3
NtRp49
(dp50
g13
F18.079271069198683
sg14
I2
sg15
I01
sg16
I2
sg17
I2
sbs(I1
I10
tp51
g1
(g10
g3
NtRp52
(dp53
g13
F0.10069148519317639
sg14
I1
sg15
I01
sg16
I10
sg17
I71
sbs(I5
I3
tp54
g1
(g10
g3
NtRp55
(dp56
g13
F-8.7523563755991152
sg14
I5
sg15
I01
sg16
I3
sg17
I19
sbs(I3
I2
tp57
g1
(g10
g3
NtRp58
(dp59
g13
F-27.363293946303152
sg14
I3
sg15
I01
sg16
I2
sg17
I4
sbs(I2
I6
tp60
g1
(g10
g3
NtRp61
(dp62
g13
F-5.9801607533530454
sg14
I2
sg15
I01
sg16
I6
sg17
I38
sbs(I8
I2
tp63
g1
(g10
g3
NtRp64
(dp65
g13
F-0.20757698644447076
sg14
I8
sg15
I01
sg16
I2
sg17
I43
sbs(I9
I3
tp66
g1
(g10
g3
NtRp67
(dp68
g13
F29.514631807940106
sg14
I9
sg15
I01
sg16
I3
sg17
I60
sbs(I1
I4
tp69
g1
(g10
g3
NtRp70
(dp71
g13
F-7.9791160397059819
sg14
I1
sg15
I01
sg16
I4
sg17
I6
sbs(I7
I5
tp72
g1
(g10
g3
NtRp73
(dp74
g13
F25.378698229065751
sg14
I7
sg15
I01
sg16
I5
sg17
I30
sbs(I2
I3
tp75
g1
(g10
g3
NtRp76
(dp77
g13
F-29.794189825342571
sg14
I2
sg15
I01
sg16
I3
sg17
I5
sbs(I1
I9
tp78
g1
(g10
g3
NtRp79
(dp80
g13
F-8.9316422779050786
sg14
I1
sg15
I01
sg16
I9
sg17
I58
sbs(I4
I2
tp81
g1
(g10
g3
NtRp82
(dp83
g13
F-19.252204797649796
sg14
I4
sg15
I00
sg16
I2
sg17
I7
sbs(I3
I5
tp84
g1
(g10
g3
NtRp85
(dp86
g13
F-28.28328376945468
sg14
I3
sg15
I01
sg16
I5
sg17
I14
sbs(I10
I5
tp87
g1
(g10
g3
NtRp88
(dp89
g13
F-9.3295034813392288
sg14
I10
sg15
I01
sg16
I5
sg17
I76
sbs(I4
I6
tp90
g1
(g10
g3
NtRp91
(dp92
g13
F23.061060523085303
sg14
I4
sg15
I01
sg16
I6
sg17
I22
sbs(I9
I2
tp93
g1
(g10
g3
NtRp94
(dp95
g13
F-8.4717184277079909
sg14
I9
sg15
I01
sg16
I2
sg17
I49
sbs(I4
I3
tp96
g1
(g10
g3
NtRp97
(dp98
g13
F20.010103731170243
sg14
I4
sg15
I01
sg16
I3
sg17
I10
sbs(I1
I7
tp99
g1
(g10
g3
NtRp100
(dp101
g13
F-4.9166884001505862
sg14
I1
sg15
I01
sg16
I7
sg17
I29
sbs(I5
I2
tp102
g1
(g10
g3
NtRp103
(dp104
g13
F-30
sg14
I5
sg15
I01
sg16
I2
sg17
I9
sbssS'_input_nodes'
p105
I1
sS'_output_nodes'
p106
I1
sS'_node_gene_type'
p107
cneat.genome
NodeGene
p108
sS'_conn_gene_type'
p109
g10
sS'fitness'
p110
F0.9850216470675297
sS'parent2_id'
p111
I4012
sS'_id'
p112
I4035
sS'parent1_id'
p113
I4012
sS'_node_genes'
p114
(lp115
g1
(g108
g3
NtRp116
(dp117
S'_bias'
p118
I0
sS'_type'
p119
S'INPUT'
p120
sg112
I1
sS'_response'
p121
F4.9242730000000003
sS'_activation_type'
p122
Nsbag1
(g108
g3
NtRp123
(dp124
g118
F-2.4759989661706578
sg119
S'OUTPUT'
p125
sg112
I2
sg121
F4.3244657618099609
sg122
S'tanh'
p126
sbag1
(g108
g3
NtRp127
(dp128
g118
F3.2680794800086419
sg119
S'HIDDEN'
p129
sg112
I3
sg121
F3.6903447918266306
sg122
g126
sbag1
(g108
g3
NtRp130
(dp131
g118
F1.6870935454035028
sg119
g129
sg112
I4
sg121
F3.2812945546709567
sg122
g126
sbag1
(g108
g3
NtRp132
(dp133
g118
F4.8949924983670536
sg119
g129
sg112
I5
sg121
F9.0979026199416246
sg122
g126
sbag1
(g108
g3
NtRp134
(dp135
g118
F4.1385791321830556
sg119
g129
sg112
I6
sg121
F11.956016176912264
sg122
g126
sbag1
(g108
g3
NtRp136
(dp137
g118
F-4.8929621682857753
sg119
g129
sg112
I7
sg121
F4.2426862796625606
sg122
g126
sbag1
(g108
g3
NtRp138
(dp139
g118
F2.3108729818060527
sg119
g129
sg112
I8
sg121
F3.8446216266457425
sg122
g126
sbag1
(g108
g3
NtRp140
(dp141
g118
F-2.4323801587437215
sg119
g129
sg112
I9
sg121
F5.4319310496672202
sg122
g126
sbag1
(g108
g3
NtRp142
(dp143
g118
F-3.6007014916450175
sg119
g129
sg112
I10
sg121
F4.0280943606955626
sg122
g126
sbasb.