ccopy_reg
_reconstructor
p1
(cneat.chromosome
Chromosome
p2
c__builtin__
object
p3
NtRp4
(dp5
S'species_id'
p6
I23
sS'_connection_genes'
p7
(dp8
(I1
I3
tp9
g1
(cneat.genome
ConnectionGene
p10
g3
NtRp11
(dp12
S'_ConnectionGene__weight'
p13
F0.68624337927484014
sS'_ConnectionGene__in'
p14
I1
sS'_ConnectionGene__enabled'
p15
I01
sS'_ConnectionGene__out'
p16
I3
sS'_ConnectionGene__innov_number'
p17
I3
sbs(I6
I6
tp18
g1
(g10
g3
NtRp19
(dp20
g13
F11.421374089658197
sg14
I6
sg15
I01
sg16
I6
sg17
I39
sbs(I11
I2
tp21
g1
(g10
g3
NtRp22
(dp23
g13
F-11.039656986379098
sg14
I11
sg15
I01
sg16
I2
sg17
I80
sbs(I6
I2
tp24
g1
(g10
g3
NtRp25
(dp26
g13
F18.347010225467784
sg14
I6
sg15
I01
sg16
I2
sg17
I21
sbs(I5
I8
tp27
g1
(g10
g3
NtRp28
(dp29
g13
F-8.4594430411395525
sg14
I5
sg15
I01
sg16
I8
sg17
I42
sbs(I1
I2
tp30
g1
(g10
g3
NtRp31
(dp32
g13
F-29.419312662434496
sg14
I1
sg15
I01
sg16
I2
sg17
I1
sbs(I12
I2
tp33
g1
(g10
g3
NtRp34
(dp35
g13
F8.4590874679010568
sg14
I12
sg15
I01
sg16
I2
sg17
I82
sbs(I3
I3
tp36
g1
(g10
g3
NtRp37
(dp38
g13
F-0.23769871119757247
sg14
I3
sg15
I01
sg16
I3
sg17
I15
sbs(I2
I9
tp39
g1
(g10
g3
NtRp40
(dp41
g13
F-1.968298076603521
sg14
I2
sg15
I01
sg16
I9
sg17
I53
sbs(I13
I3
tp42
g1
(g10
g3
NtRp43
(dp44
g13
F3.7074270967281899
sg14
I13
sg15
I01
sg16
I3
sg17
I92
sbs(I8
I10
tp45
g1
(g10
g3
NtRp46
(dp47
g13
F21.271066054500867
sg14
I8
sg15
I01
sg16
I10
sg17
I74
sbs(I4
I13
tp48
g1
(g10
g3
NtRp49
(dp50
g13
F5.6686438267934331
sg14
I4
sg15
I01
sg16
I13
sg17
I102
sbs(I1
I5
tp51
g1
(g10
g3
NtRp52
(dp53
g13
F0.74105763049506423
sg14
I1
sg15
I00
sg16
I5
sg17
I11
sbs(I2
I2
tp54
g1
(g10
g3
NtRp55
(dp56
g13
F27.47357832502815
sg14
I2
sg15
I01
sg16
I2
sg17
I2
sbs(I3
I2
tp57
g1
(g10
g3
NtRp58
(dp59
g13
F-15.565368640185651
sg14
I3
sg15
I01
sg16
I2
sg17
I4
sbs(I2
I6
tp60
g1
(g10
g3
NtRp61
(dp62
g13
F-0.066562361992519747
sg14
I2
sg15
I01
sg16
I6
sg17
I38
sbs(I8
I2
tp63
g1
(g10
g3
NtRp64
(dp65
g13
F-9.8311461088271912
sg14
I8
sg15
I01
sg16
I2
sg17
I43
sbs(I5
I11
tp66
g1
(g10
g3
NtRp67
(dp68
g13
F12.855120098327619
sg14
I5
sg15
I01
sg16
I11
sg17
I79
sbs(I9
I3
tp69
g1
(g10
g3
NtRp70
(dp71
g13
F-12.295566723675899
sg14
I9
sg15
I01
sg16
I3
sg17
I60
sbs(I1
I4
tp72
g1
(g10
g3
NtRp73
(dp74
g13
F-20.480094314412678
sg14
I1
sg15
I01
sg16
I4
sg17
I6
sbs(I9
I10
tp75
g1
(g10
g3
NtRp76
(dp77
g13
F-12.209429162018619
sg14
I9
sg15
I01
sg16
I10
sg17
I90
sbs(I7
I5
tp78
g1
(g10
g3
NtRp79
(dp80
g13
F-6.7083284633786766
sg14
I7
sg15
I01
sg16
I5
sg17
I30
sbs(I2
I3
tp81
g1
(g10
g3
NtRp82
(dp83
g13
F-8.9517664229236402
sg14
I2
sg15
I01
sg16
I3
sg17
I5
sbs(I1
I9
tp84
g1
(g10
g3
NtRp85
(dp86
g13
F-10.123310477473323
sg14
I1
sg15
I01
sg16
I9
sg17
I58
sbs(I4
I2
tp87
g1
(g10
g3
NtRp88
(dp89
g13
F-22.423045581730531
sg14
I4
sg15
I00
sg16
I2
sg17
I7
sbs(I3
I5
tp90
g1
(g10
g3
NtRp91
(dp92
g13
F4.685847029206359
sg14
I3
sg15
I01
sg16
I5
sg17
I14
sbs(I4
I6
tp93
g1
(g10
g3
NtRp94
(dp95
g13
F11.315564302178949
sg14
I4
sg15
I01
sg16
I6
sg17
I22
sbs(I8
I12
tp96
g1
(g10
g3
NtRp97
(dp98
g13
F-4.7472261184620574
sg14
I8
sg15
I01
sg16
I12
sg17
I88
sbs(I11
I3
tp99
g1
(g10
g3
NtRp100
(dp101
g13
F3.9762061185818398
sg14
I11
sg15
I01
sg16
I3
sg17
I78
sbs(I3
I8
tp102
g1
(g10
g3
NtRp103
(dp104
g13
F3.011867271922422
sg14
I3
sg15
I01
sg16
I8
sg17
I44
sbs(I4
I3
tp105
g1
(g10
g3
NtRp106
(dp107
g13
F-3.6864338341562344
sg14
I4
sg15
I00
sg16
I3
sg17
I10
sbs(I1
I7
tp108
g1
(g10
g3
NtRp109
(dp110
g13
F2.1890280951994896
sg14
I1
sg15
I01
sg16
I7
sg17
I29
sbs(I5
I2
tp111
g1
(g10
g3
NtRp112
(dp113
g13
F-23.178130252467749
sg14
I5
sg15
I00
sg16
I2
sg17
I9
sbs(I10
I2
tp114
g1
(g10
g3
NtRp115
(dp116
g13
F-2.5789966472716928
sg14
I10
sg15
I01
sg16
I2
sg17
I65
sbssS'_input_nodes'
p117
I1
sS'_output_nodes'
p118
I1
sS'_node_gene_type'
p119
cneat.genome
NodeGene
p120
sS'_conn_gene_type'
p121
g10
sS'fitness'
p122
F0.98735373193608023
sS'parent2_id'
p123
I3912
sS'_id'
p124
I3929
sS'parent1_id'
p125
I3912
sS'_node_genes'
p126
(lp127
g1
(g120
g3
NtRp128
(dp129
S'_bias'
p130
I0
sS'_type'
p131
S'INPUT'
p132
sg124
I1
sS'_response'
p133
F4.9242730000000003
sS'_activation_type'
p134
Nsbag1
(g120
g3
NtRp135
(dp136
g130
F-5.0705356851248258
sg131
S'OUTPUT'
p137
sg124
I2
sg133
F4.883014194400662
sg134
S'tanh'
p138
sbag1
(g120
g3
NtRp139
(dp140
g130
F-0.14752846813658943
sg131
S'HIDDEN'
p141
sg124
I3
sg133
F2.6538094593053372
sg134
g138
sbag1
(g120
g3
NtRp142
(dp143
g130
F-0.099091035612372258
sg131
g141
sg124
I4
sg133
F7.028371899811801
sg134
g138
sbag1
(g120
g3
NtRp144
(dp145
g130
F1.2695215313209878
sg131
g141
sg124
I5
sg133
F8.6290812105898045
sg134
g138
sbag1
(g120
g3
NtRp146
(dp147
g130
F1.1210424973349742
sg131
g141
sg124
I6
sg133
F7.5477248787535673
sg134
g138
sbag1
(g120
g3
NtRp148
(dp149
g130
F-1.0283586682411103
sg131
g141
sg124
I7
sg133
F4.2463663642726601
sg134
g138
sbag1
(g120
g3
NtRp150
(dp151
g130
F-0.3383115860190824
sg131
g141
sg124
I8
sg133
F9.8089406936377053
sg134
g138
sbag1
(g120
g3
NtRp152
(dp153
g130
F1.4066666599185047
sg131
g141
sg124
I9
sg133
F4.8966780309078075
sg134
g138
sbag1
(g120
g3
NtRp154
(dp155
g130
F-0.091107762720856023
sg131
g141
sg124
I10
sg133
F5.6409338288683317
sg134
g138
sbag1
(g120
g3
NtRp156
(dp157
g130
F-0.43146896385339634
sg131
g141
sg124
I11
sg133
F6.6445903586830903
sg134
g138
sbag1
(g120
g3
NtRp158
(dp159
g130
F-1.2700661109982863
sg131
g141
sg124
I12
sg133
F5.5140977274908902
sg134
g138
sbag1
(g120
g3
NtRp160
(dp161
g130
F-1.4894443278027087
sg131
g141
sg124
I13
sg133
F3.7683745794790657
sg134
g138
sbasb.