ccopy_reg
_reconstructor
p1
(cneat.chromosome
Chromosome
p2
c__builtin__
object
p3
NtRp4
(dp5
S'species_id'
p6
I47
sS'_connection_genes'
p7
(dp8
(I1
I3
tp9
g1
(cneat.genome
ConnectionGene
p10
g3
NtRp11
(dp12
S'_ConnectionGene__weight'
p13
F-4.2947811885710792
sS'_ConnectionGene__in'
p14
I1
sS'_ConnectionGene__enabled'
p15
I01
sS'_ConnectionGene__out'
p16
I3
sS'_ConnectionGene__innov_number'
p17
I3
sbs(I6
I6
tp18
g1
(g10
g3
NtRp19
(dp20
g13
F23.250482417147669
sg14
I6
sg15
I01
sg16
I6
sg17
I39
sbs(I11
I2
tp21
g1
(g10
g3
NtRp22
(dp23
g13
F2.5757915643119729
sg14
I11
sg15
I01
sg16
I2
sg17
I80
sbs(I7
I11
tp24
g1
(g10
g3
NtRp25
(dp26
g13
F0.33258923358291348
sg14
I7
sg15
I01
sg16
I11
sg17
I123
sbs(I1
I15
tp27
g1
(g10
g3
NtRp28
(dp29
g13
F-6.5003100208903133
sg14
I1
sg15
I01
sg16
I15
sg17
I146
sbs(I23
I3
tp30
g1
(g10
g3
NtRp31
(dp32
g13
F-2.6681971629130836
sg14
I23
sg15
I01
sg16
I3
sg17
I246
sbs(I6
I2
tp33
g1
(g10
g3
NtRp34
(dp35
g13
F27.878559249230996
sg14
I6
sg15
I01
sg16
I2
sg17
I21
sbs(I22
I6
tp36
g1
(g10
g3
NtRp37
(dp38
g13
F4.4105772492704061
sg14
I22
sg15
I01
sg16
I6
sg17
I267
sbs(I16
I14
tp39
g1
(g10
g3
NtRp40
(dp41
g13
F-26.718535060176354
sg14
I16
sg15
I01
sg16
I14
sg17
I193
sbs(I5
I8
tp42
g1
(g10
g3
NtRp43
(dp44
g13
F-2.8169054075828917
sg14
I5
sg15
I00
sg16
I8
sg17
I42
sbs(I8
I2
tp45
g1
(g10
g3
NtRp46
(dp47
g13
F-23.223324515808269
sg14
I8
sg15
I01
sg16
I2
sg17
I43
sbs(I1
I2
tp48
g1
(g10
g3
NtRp49
(dp50
g13
F-0.57393696724373067
sg14
I1
sg15
I01
sg16
I2
sg17
I1
sbs(I12
I2
tp51
g1
(g10
g3
NtRp52
(dp53
g13
F8.3713838695523464
sg14
I12
sg15
I01
sg16
I2
sg17
I82
sbs(I2
I19
tp54
g1
(g10
g3
NtRp55
(dp56
g13
F17.423570791315687
sg14
I2
sg15
I01
sg16
I19
sg17
I210
sbs(I3
I3
tp57
g1
(g10
g3
NtRp58
(dp59
g13
F-16.017570931870161
sg14
I3
sg15
I01
sg16
I3
sg17
I15
sbs(I2
I9
tp60
g1
(g10
g3
NtRp61
(dp62
g13
F30
sg14
I2
sg15
I01
sg16
I9
sg17
I53
sbs(I13
I3
tp63
g1
(g10
g3
NtRp64
(dp65
g13
F13.82914602786227
sg14
I13
sg15
I00
sg16
I3
sg17
I92
sbs(I4
I3
tp66
g1
(g10
g3
NtRp67
(dp68
g13
F10.536404641530265
sg14
I4
sg15
I01
sg16
I3
sg17
I10
sbs(I8
I10
tp69
g1
(g10
g3
NtRp70
(dp71
g13
F21.950708061816442
sg14
I8
sg15
I01
sg16
I10
sg17
I74
sbs(I21
I8
tp72
g1
(g10
g3
NtRp73
(dp74
g13
F2.801955773421577
sg14
I21
sg15
I01
sg16
I8
sg17
I250
sbs(I4
I13
tp75
g1
(g10
g3
NtRp76
(dp77
g13
F-6.9121400980481482
sg14
I4
sg15
I01
sg16
I13
sg17
I102
sbs(I1
I5
tp78
g1
(g10
g3
NtRp79
(dp80
g13
F-6.7921671241378769
sg14
I1
sg15
I01
sg16
I5
sg17
I11
sbs(I9
I11
tp81
g1
(g10
g3
NtRp82
(dp83
g13
F11.742304082789683
sg14
I9
sg15
I01
sg16
I11
sg17
I101
sbs(I19
I3
tp84
g1
(g10
g3
NtRp85
(dp86
g13
F26.829636623443704
sg14
I19
sg15
I01
sg16
I3
sg17
I212
sbs(I2
I2
tp87
g1
(g10
g3
NtRp88
(dp89
g13
F-7.4384797561788218
sg14
I2
sg15
I01
sg16
I2
sg17
I2
sbs(I12
I10
tp90
g1
(g10
g3
NtRp91
(dp92
g13
F12.137537368534513
sg14
I12
sg15
I01
sg16
I10
sg17
I105
sbs(I8
I16
tp93
g1
(g10
g3
NtRp94
(dp95
g13
F-13.310999433249583
sg14
I8
sg15
I01
sg16
I16
sg17
I177
sbs(I12
I3
tp96
g1
(g10
g3
NtRp97
(dp98
g13
F8.8196016458894988
sg14
I12
sg15
I01
sg16
I3
sg17
I86
sbs(I8
I18
tp99
g1
(g10
g3
NtRp100
(dp101
g13
F-0.9740356236861154
sg14
I8
sg15
I01
sg16
I18
sg17
I208
sbs(I3
I2
tp102
g1
(g10
g3
NtRp103
(dp104
g13
F-18.310178869456099
sg14
I3
sg15
I01
sg16
I2
sg17
I4
sbs(I2
I6
tp105
g1
(g10
g3
NtRp106
(dp107
g13
F-3.312327323118522
sg14
I2
sg15
I00
sg16
I6
sg17
I38
sbs(I20
I22
tp108
g1
(g10
g3
NtRp109
(dp110
g13
F8.0135578009061419
sg14
I20
sg15
I01
sg16
I22
sg17
I266
sbs(I5
I11
tp111
g1
(g10
g3
NtRp112
(dp113
g13
F-26.681739194490127
sg14
I5
sg15
I01
sg16
I11
sg17
I79
sbs(I15
I3
tp114
g1
(g10
g3
NtRp115
(dp116
g13
F-7.0692932677566773
sg14
I15
sg15
I01
sg16
I3
sg17
I147
sbs(I9
I3
tp117
g1
(g10
g3
NtRp118
(dp119
g13
F-7.3977817346718631
sg14
I9
sg15
I01
sg16
I3
sg17
I60
sbs(I2
I20
tp120
g1
(g10
g3
NtRp121
(dp122
g13
F11.21341920402628
sg14
I2
sg15
I01
sg16
I20
sg17
I220
sbs(I1
I4
tp123
g1
(g10
g3
NtRp124
(dp125
g13
F-30
sg14
I1
sg15
I01
sg16
I4
sg17
I6
sbs(I9
I10
tp126
g1
(g10
g3
NtRp127
(dp128
g13
F-28.46862465879861
sg14
I9
sg15
I01
sg16
I10
sg17
I90
sbs(I7
I5
tp129
g1
(g10
g3
NtRp130
(dp131
g13
F-4.892621127142581
sg14
I7
sg15
I01
sg16
I5
sg17
I30
sbs(I2
I3
tp132
g1
(g10
g3
NtRp133
(dp134
g13
F20.352534414991993
sg14
I2
sg15
I00
sg16
I3
sg17
I5
sbs(I1
I9
tp135
g1
(g10
g3
NtRp136
(dp137
g13
F24.394290678578621
sg14
I1
sg15
I01
sg16
I9
sg17
I58
sbs(I8
I17
tp138
g1
(g10
g3
NtRp139
(dp140
g13
F20.880966871670942
sg14
I8
sg15
I01
sg16
I17
sg17
I205
sbs(I4
I2
tp141
g1
(g10
g3
NtRp142
(dp143
g13
F-14.496496062043393
sg14
I4
sg15
I01
sg16
I2
sg17
I7
sbs(I14
I2
tp144
g1
(g10
g3
NtRp145
(dp146
g13
F15.257571160740683
sg14
I14
sg15
I01
sg16
I2
sg17
I138
sbs(I3
I5
tp147
g1
(g10
g3
NtRp148
(dp149
g13
F30
sg14
I3
sg15
I01
sg16
I5
sg17
I14
sbs(I10
I5
tp150
g1
(g10
g3
NtRp151
(dp152
g13
F3.8145789854919747
sg14
I10
sg15
I01
sg16
I5
sg17
I76
sbs(I13
I23
tp153
g1
(g10
g3
NtRp154
(dp155
g13
F13.200215413242608
sg14
I13
sg15
I01
sg16
I23
sg17
I287
sbs(I4
I6
tp156
g1
(g10
g3
NtRp157
(dp158
g13
F-10.265852453609417
sg14
I4
sg15
I01
sg16
I6
sg17
I22
sbs(I15
I2
tp159
g1
(g10
g3
NtRp160
(dp161
g13
F1.2550020736678491
sg14
I15
sg15
I01
sg16
I2
sg17
I170
sbs(I8
I12
tp162
g1
(g10
g3
NtRp163
(dp164
g13
F11.557877382865881
sg14
I8
sg15
I01
sg16
I12
sg17
I88
sbs(I18
I10
tp165
g1
(g10
g3
NtRp166
(dp167
g13
F18.178246704973983
sg14
I18
sg15
I01
sg16
I10
sg17
I209
sbs(I5
I21
tp168
g1
(g10
g3
NtRp169
(dp170
g13
F10.410002517617793
sg14
I5
sg15
I01
sg16
I21
sg17
I249
sbs(I11
I3
tp171
g1
(g10
g3
NtRp172
(dp173
g13
F-10.769309956509908
sg14
I11
sg15
I01
sg16
I3
sg17
I78
sbs(I3
I8
tp174
g1
(g10
g3
NtRp175
(dp176
g13
F16.124100508566439
sg14
I3
sg15
I01
sg16
I8
sg17
I44
sbs(I8
I14
tp177
g1
(g10
g3
NtRp178
(dp179
g13
F21.764571546847581
sg14
I8
sg15
I01
sg16
I14
sg17
I119
sbs(I20
I6
tp180
g1
(g10
g3
NtRp181
(dp182
g13
F-12.753181105348082
sg14
I20
sg15
I00
sg16
I6
sg17
I221
sbs(I17
I12
tp183
g1
(g10
g3
NtRp184
(dp185
g13
F-0.27662897175678092
sg14
I17
sg15
I01
sg16
I12
sg17
I207
sbs(I1
I7
tp186
g1
(g10
g3
NtRp187
(dp188
g13
F3.5945829358657329
sg14
I1
sg15
I01
sg16
I7
sg17
I29
sbs(I13
I9
tp189
g1
(g10
g3
NtRp190
(dp191
g13
F1.1496485845693236
sg14
I13
sg15
I01
sg16
I9
sg17
I112
sbs(I5
I2
tp192
g1
(g10
g3
NtRp193
(dp194
g13
F-11.132048727966589
sg14
I5
sg15
I01
sg16
I2
sg17
I9
sbs(I10
I2
tp195
g1
(g10
g3
NtRp196
(dp197
g13
F-10.717633112605572
sg14
I10
sg15
I01
sg16
I2
sg17
I65
sbssS'_input_nodes'
p198
I1
sS'_output_nodes'
p199
I1
sS'_node_gene_type'
p200
cneat.genome
NodeGene
p201
sS'_conn_gene_type'
p202
g10
sS'fitness'
p203
F0.92653123224303735
sS'parent2_id'
p204
I7459
sS'_id'
p205
I7471
sS'parent1_id'
p206
I7459
sS'_node_genes'
p207
(lp208
g1
(g201
g3
NtRp209
(dp210
S'_bias'
p211
I0
sS'_type'
p212
S'INPUT'
p213
sg205
I1
sS'_response'
p214
F4.9242730000000003
sS'_activation_type'
p215
Nsbag1
(g201
g3
NtRp216
(dp217
g211
F-6.2661982071981814
sg212
S'OUTPUT'
p218
sg205
I2
sg214
F4.1926130892866329
sg215
S'tanh'
p219
sbag1
(g201
g3
NtRp220
(dp221
g211
F1.412594638771927
sg212
S'HIDDEN'
p222
sg205
I3
sg214
F0.64212754762737678
sg215
g219
sbag1
(g201
g3
NtRp223
(dp224
g211
F-4.7729627665746612
sg212
g222
sg205
I4
sg214
F8.062541967454127
sg215
g219
sbag1
(g201
g3
NtRp225
(dp226
g211
F5.4470363642528348
sg212
g222
sg205
I5
sg214
F9.9745845062782035
sg215
g219
sbag1
(g201
g3
NtRp227
(dp228
g211
F-0.6409546113409037
sg212
g222
sg205
I6
sg214
F4.7015747040378031
sg215
g219
sbag1
(g201
g3
NtRp229
(dp230
g211
F1.2203804674706624
sg212
g222
sg205
I7
sg214
F0.52560721673529165
sg215
g219
sbag1
(g201
g3
NtRp231
(dp232
g211
F-1.4506547876398992
sg212
g222
sg205
I8
sg214
F9.2837610014324401
sg215
g219
sbag1
(g201
g3
NtRp233
(dp234
g211
F0.62995459456771252
sg212
g222
sg205
I9
sg214
F6.340261886582466
sg215
g219
sbag1
(g201
g3
NtRp235
(dp236
g211
F1.08772570575454
sg212
g222
sg205
I10
sg214
F8.3458631983947491
sg215
g219
sbag1
(g201
g3
NtRp237
(dp238
g211
F0.065139478059659667
sg212
g222
sg205
I11
sg214
F7.6091655486080851
sg215
g219
sbag1
(g201
g3
NtRp239
(dp240
g211
F-0.310207458500532
sg212
g222
sg205
I12
sg214
F3.7760463327986113
sg215
g219
sbag1
(g201
g3
NtRp241
(dp242
g211
F-1.595731457266552
sg212
g222
sg205
I13
sg214
F4.7975339596595408
sg215
g219
sbag1
(g201
g3
NtRp243
(dp244
g211
F2.886020426594988
sg212
g222
sg205
I14
sg214
F4.9773722239413889
sg215
g219
sbag1
(g201
g3
NtRp245
(dp246
g211
F-2.7980999960993649
sg212
g222
sg205
I15
sg214
F6.7627672421966993
sg215
g219
sbag1
(g201
g3
NtRp247
(dp248
g211
F0.37295835236258479
sg212
g222
sg205
I16
sg214
F4.1157314288661997
sg215
g219
sbag1
(g201
g3
NtRp249
(dp250
g211
F1.9136877720050647
sg212
g222
sg205
I17
sg214
F8.5389081894191126
sg215
g219
sbag1
(g201
g3
NtRp251
(dp252
g211
F3.3250677950369756
sg212
g222
sg205
I18
sg214
F4.5675492087141905
sg215
g219
sbag1
(g201
g3
NtRp253
(dp254
g211
F0.87014979656705982
sg212
g222
sg205
I19
sg214
F1.3407148587199074
sg215
g219
sbag1
(g201
g3
NtRp255
(dp256
g211
F0.23259465942672841
sg212
g222
sg205
I20
sg214
F4.9127936984688052
sg215
g219
sbag1
(g201
g3
NtRp257
(dp258
g211
F0.23036034075023815
sg212
g222
sg205
I21
sg214
F3.321666118156704
sg215
g219
sbag1
(g201
g3
NtRp259
(dp260
g211
F0.16593968249547209
sg212
g222
sg205
I22
sg214
F5.184299763999765
sg215
g219
sbag1
(g201
g3
NtRp261
(dp262
g211
F-1.1183632773250769
sg212
g222
sg205
I23
sg214
F4.4570167491163399
sg215
g219
sbasb.