ccopy_reg
_reconstructor
p1
(cneat.chromosome
Chromosome
p2
c__builtin__
object
p3
NtRp4
(dp5
S'species_id'
p6
I51
sS'_connection_genes'
p7
(dp8
(I17
I12
tp9
g1
(cneat.genome
ConnectionGene
p10
g3
NtRp11
(dp12
S'_ConnectionGene__weight'
p13
F-0.89533936709820972
sS'_ConnectionGene__in'
p14
I17
sS'_ConnectionGene__enabled'
p15
I01
sS'_ConnectionGene__out'
p16
I12
sS'_ConnectionGene__innov_number'
p17
I207
sbs(I1
I3
tp18
g1
(g10
g3
NtRp19
(dp20
g13
F0.2303341522823279
sg14
I1
sg15
I01
sg16
I3
sg17
I3
sbs(I20
I25
tp21
g1
(g10
g3
NtRp22
(dp23
g13
F-9.2308683098958682
sg14
I20
sg15
I01
sg16
I25
sg17
I341
sbs(I6
I6
tp24
g1
(g10
g3
NtRp25
(dp26
g13
F29.287956822299147
sg14
I6
sg15
I01
sg16
I6
sg17
I39
sbs(I11
I2
tp27
g1
(g10
g3
NtRp28
(dp29
g13
F2.4557483300427263
sg14
I11
sg15
I01
sg16
I2
sg17
I80
sbs(I7
I11
tp30
g1
(g10
g3
NtRp31
(dp32
g13
F-5.2488194426079113
sg14
I7
sg15
I01
sg16
I11
sg17
I123
sbs(I1
I15
tp33
g1
(g10
g3
NtRp34
(dp35
g13
F-10.133409138707981
sg14
I1
sg15
I01
sg16
I15
sg17
I146
sbs(I23
I3
tp36
g1
(g10
g3
NtRp37
(dp38
g13
F-1.05666319841515
sg14
I23
sg15
I01
sg16
I3
sg17
I246
sbs(I6
I2
tp39
g1
(g10
g3
NtRp40
(dp41
g13
F20.062096223839404
sg14
I6
sg15
I01
sg16
I2
sg17
I21
sbs(I22
I6
tp42
g1
(g10
g3
NtRp43
(dp44
g13
F16.521139791226823
sg14
I22
sg15
I01
sg16
I6
sg17
I267
sbs(I16
I14
tp45
g1
(g10
g3
NtRp46
(dp47
g13
F-24.260239694695251
sg14
I16
sg15
I01
sg16
I14
sg17
I193
sbs(I5
I8
tp48
g1
(g10
g3
NtRp49
(dp50
g13
F7.8942864539798965
sg14
I5
sg15
I00
sg16
I8
sg17
I42
sbs(I8
I2
tp51
g1
(g10
g3
NtRp52
(dp53
g13
F-20.935968029930468
sg14
I8
sg15
I01
sg16
I2
sg17
I43
sbs(I1
I2
tp54
g1
(g10
g3
NtRp55
(dp56
g13
F-6.8605802942160645
sg14
I1
sg15
I01
sg16
I2
sg17
I1
sbs(I12
I2
tp57
g1
(g10
g3
NtRp58
(dp59
g13
F25.80620363236298
sg14
I12
sg15
I01
sg16
I2
sg17
I82
sbs(I8
I24
tp60
g1
(g10
g3
NtRp61
(dp62
g13
F1.8208364515105204
sg14
I8
sg15
I01
sg16
I24
sg17
I301
sbs(I2
I19
tp63
g1
(g10
g3
NtRp64
(dp65
g13
F12.98570782616599
sg14
I2
sg15
I01
sg16
I19
sg17
I210
sbs(I3
I3
tp66
g1
(g10
g3
NtRp67
(dp68
g13
F-11.100812217629745
sg14
I3
sg15
I01
sg16
I3
sg17
I15
sbs(I2
I9
tp69
g1
(g10
g3
NtRp70
(dp71
g13
F22.700611356137923
sg14
I2
sg15
I01
sg16
I9
sg17
I53
sbs(I13
I3
tp72
g1
(g10
g3
NtRp73
(dp74
g13
F9.5553482197548565
sg14
I13
sg15
I01
sg16
I3
sg17
I92
sbs(I3
I13
tp75
g1
(g10
g3
NtRp76
(dp77
g13
F-0.36377027759505715
sg14
I3
sg15
I01
sg16
I13
sg17
I91
sbs(I8
I10
tp78
g1
(g10
g3
NtRp79
(dp80
g13
F7.7517495877533715
sg14
I8
sg15
I01
sg16
I10
sg17
I74
sbs(I21
I8
tp81
g1
(g10
g3
NtRp82
(dp83
g13
F13.499720137043946
sg14
I21
sg15
I01
sg16
I8
sg17
I250
sbs(I4
I13
tp84
g1
(g10
g3
NtRp85
(dp86
g13
F-12.25997894289501
sg14
I4
sg15
I01
sg16
I13
sg17
I102
sbs(I1
I5
tp87
g1
(g10
g3
NtRp88
(dp89
g13
F1.456156901793453
sg14
I1
sg15
I01
sg16
I5
sg17
I11
sbs(I9
I11
tp90
g1
(g10
g3
NtRp91
(dp92
g13
F13.94701301946197
sg14
I9
sg15
I01
sg16
I11
sg17
I101
sbs(I19
I3
tp93
g1
(g10
g3
NtRp94
(dp95
g13
F25.912665342297814
sg14
I19
sg15
I01
sg16
I3
sg17
I212
sbs(I2
I2
tp96
g1
(g10
g3
NtRp97
(dp98
g13
F-1.2717661788618269
sg14
I2
sg15
I01
sg16
I2
sg17
I2
sbs(I12
I10
tp99
g1
(g10
g3
NtRp100
(dp101
g13
F11.713931884607558
sg14
I12
sg15
I01
sg16
I10
sg17
I105
sbs(I8
I16
tp102
g1
(g10
g3
NtRp103
(dp104
g13
F-19.100648354127468
sg14
I8
sg15
I01
sg16
I16
sg17
I177
sbs(I25
I22
tp105
g1
(g10
g3
NtRp106
(dp107
g13
F7.6944029280518969
sg14
I25
sg15
I01
sg16
I22
sg17
I342
sbs(I12
I3
tp108
g1
(g10
g3
NtRp109
(dp110
g13
F23.19802305469668
sg14
I12
sg15
I01
sg16
I3
sg17
I86
sbs(I8
I18
tp111
g1
(g10
g3
NtRp112
(dp113
g13
F-14.888071193733637
sg14
I8
sg15
I00
sg16
I18
sg17
I208
sbs(I3
I22
tp114
g1
(g10
g3
NtRp115
(dp116
g13
F4.601812099844877
sg14
I3
sg15
I01
sg16
I22
sg17
I377
sbs(I3
I2
tp117
g1
(g10
g3
NtRp118
(dp119
g13
F-24.570344140354333
sg14
I3
sg15
I01
sg16
I2
sg17
I4
sbs(I2
I6
tp120
g1
(g10
g3
NtRp121
(dp122
g13
F-16.744781297125073
sg14
I2
sg15
I01
sg16
I6
sg17
I38
sbs(I20
I22
tp123
g1
(g10
g3
NtRp124
(dp125
g13
F15.676361096931613
sg14
I20
sg15
I00
sg16
I22
sg17
I266
sbs(I5
I11
tp126
g1
(g10
g3
NtRp127
(dp128
g13
F-18.826658374712274
sg14
I5
sg15
I01
sg16
I11
sg17
I79
sbs(I15
I3
tp129
g1
(g10
g3
NtRp130
(dp131
g13
F0.74529027277557203
sg14
I15
sg15
I01
sg16
I3
sg17
I147
sbs(I9
I3
tp132
g1
(g10
g3
NtRp133
(dp134
g13
F-7.1729424352495545
sg14
I9
sg15
I01
sg16
I3
sg17
I60
sbs(I2
I20
tp135
g1
(g10
g3
NtRp136
(dp137
g13
F2.0651761734897773
sg14
I2
sg15
I01
sg16
I20
sg17
I220
sbs(I1
I4
tp138
g1
(g10
g3
NtRp139
(dp140
g13
F-21.584119272136203
sg14
I1
sg15
I01
sg16
I4
sg17
I6
sbs(I9
I10
tp141
g1
(g10
g3
NtRp142
(dp143
g13
F-20.726074279027888
sg14
I9
sg15
I01
sg16
I10
sg17
I90
sbs(I7
I5
tp144
g1
(g10
g3
NtRp145
(dp146
g13
F11.953605847380798
sg14
I7
sg15
I01
sg16
I5
sg17
I30
sbs(I2
I3
tp147
g1
(g10
g3
NtRp148
(dp149
g13
F13.716770889371691
sg14
I2
sg15
I00
sg16
I3
sg17
I5
sbs(I1
I9
tp150
g1
(g10
g3
NtRp151
(dp152
g13
F20.984711455761214
sg14
I1
sg15
I01
sg16
I9
sg17
I58
sbs(I8
I17
tp153
g1
(g10
g3
NtRp154
(dp155
g13
F24.922168314490758
sg14
I8
sg15
I01
sg16
I17
sg17
I205
sbs(I4
I2
tp156
g1
(g10
g3
NtRp157
(dp158
g13
F-0.40866760013049119
sg14
I4
sg15
I01
sg16
I2
sg17
I7
sbs(I14
I2
tp159
g1
(g10
g3
NtRp160
(dp161
g13
F7.6928346376471959
sg14
I14
sg15
I01
sg16
I2
sg17
I138
sbs(I24
I18
tp162
g1
(g10
g3
NtRp163
(dp164
g13
F-21.776280171529148
sg14
I24
sg15
I01
sg16
I18
sg17
I331
sbs(I3
I5
tp165
g1
(g10
g3
NtRp166
(dp167
g13
F29.090677365816028
sg14
I3
sg15
I01
sg16
I5
sg17
I14
sbs(I10
I5
tp168
g1
(g10
g3
NtRp169
(dp170
g13
F0.6213073212982414
sg14
I10
sg15
I01
sg16
I5
sg17
I76
sbs(I13
I23
tp171
g1
(g10
g3
NtRp172
(dp173
g13
F10.852824545605385
sg14
I13
sg15
I01
sg16
I23
sg17
I287
sbs(I4
I6
tp174
g1
(g10
g3
NtRp175
(dp176
g13
F-1.3294399728390736
sg14
I4
sg15
I01
sg16
I6
sg17
I22
sbs(I15
I2
tp177
g1
(g10
g3
NtRp178
(dp179
g13
F9.5861197542731098
sg14
I15
sg15
I01
sg16
I2
sg17
I170
sbs(I8
I12
tp180
g1
(g10
g3
NtRp181
(dp182
g13
F19.187274219635881
sg14
I8
sg15
I01
sg16
I12
sg17
I88
sbs(I18
I10
tp183
g1
(g10
g3
NtRp184
(dp185
g13
F19.674614252189706
sg14
I18
sg15
I01
sg16
I10
sg17
I209
sbs(I5
I21
tp186
g1
(g10
g3
NtRp187
(dp188
g13
F20.913336586034799
sg14
I5
sg15
I01
sg16
I21
sg17
I249
sbs(I11
I3
tp189
g1
(g10
g3
NtRp190
(dp191
g13
F-8.2526908913511949
sg14
I11
sg15
I01
sg16
I3
sg17
I78
sbs(I3
I8
tp192
g1
(g10
g3
NtRp193
(dp194
g13
F1.27543369641188
sg14
I3
sg15
I01
sg16
I8
sg17
I44
sbs(I8
I14
tp195
g1
(g10
g3
NtRp196
(dp197
g13
F1.1440663853997368
sg14
I8
sg15
I01
sg16
I14
sg17
I119
sbs(I18
I6
tp198
g1
(g10
g3
NtRp199
(dp200
g13
F-1.1436583736082895
sg14
I18
sg15
I01
sg16
I6
sg17
I317
sbs(I20
I6
tp201
g1
(g10
g3
NtRp202
(dp203
g13
F-1.6663469030067466
sg14
I20
sg15
I00
sg16
I6
sg17
I221
sbs(I4
I3
tp204
g1
(g10
g3
NtRp205
(dp206
g13
F26.876737937570663
sg14
I4
sg15
I01
sg16
I3
sg17
I10
sbs(I1
I7
tp207
g1
(g10
g3
NtRp208
(dp209
g13
F-6.4425036683951307
sg14
I1
sg15
I01
sg16
I7
sg17
I29
sbs(I13
I9
tp210
g1
(g10
g3
NtRp211
(dp212
g13
F5.1792731581340981
sg14
I13
sg15
I01
sg16
I9
sg17
I112
sbs(I5
I2
tp213
g1
(g10
g3
NtRp214
(dp215
g13
F-20.275512669638232
sg14
I5
sg15
I01
sg16
I2
sg17
I9
sbs(I10
I2
tp216
g1
(g10
g3
NtRp217
(dp218
g13
F-2.3829955576910193
sg14
I10
sg15
I01
sg16
I2
sg17
I65
sbssS'_input_nodes'
p219
I1
sS'_output_nodes'
p220
I1
sS'_node_gene_type'
p221
cneat.genome
NodeGene
p222
sS'_conn_gene_type'
p223
g10
sS'fitness'
p224
F0.84978925036310415
sS'parent2_id'
p225
I8407
sS'_id'
p226
I8426
sS'parent1_id'
p227
I8407
sS'_node_genes'
p228
(lp229
g1
(g222
g3
NtRp230
(dp231
S'_bias'
p232
I0
sS'_type'
p233
S'INPUT'
p234
sg226
I1
sS'_response'
p235
F4.9242730000000003
sS'_activation_type'
p236
Nsbag1
(g222
g3
NtRp237
(dp238
g232
F-5.9121158302359422
sg233
S'OUTPUT'
p239
sg226
I2
sg235
F5.0084812380758885
sg236
S'tanh'
p240
sbag1
(g222
g3
NtRp241
(dp242
g232
F-1.4121901109518848
sg233
S'HIDDEN'
p243
sg226
I3
sg235
F0.9624102158616934
sg236
g240
sbag1
(g222
g3
NtRp244
(dp245
g232
F-3.2422664029710124
sg233
g243
sg226
I4
sg235
F7.1206351638850549
sg236
g240
sbag1
(g222
g3
NtRp246
(dp247
g232
F6.6262076516954531
sg233
g243
sg226
I5
sg235
F9.5783501219759692
sg236
g240
sbag1
(g222
g3
NtRp248
(dp249
g232
F-0.3848893596624125
sg233
g243
sg226
I6
sg235
F4.4020535886740237
sg236
g240
sbag1
(g222
g3
NtRp250
(dp251
g232
F0.82904837534342479
sg233
g243
sg226
I7
sg235
F2.7323475754017239
sg236
g240
sbag1
(g222
g3
NtRp252
(dp253
g232
F-2.6605090318134361
sg233
g243
sg226
I8
sg235
F7.1946361353122459
sg236
g240
sbag1
(g222
g3
NtRp254
(dp255
g232
F1.1120672967517575
sg233
g243
sg226
I9
sg235
F6.8977931422649164
sg236
g240
sbag1
(g222
g3
NtRp256
(dp257
g232
F0.85360393757172448
sg233
g243
sg226
I10
sg235
F7.1149355318226037
sg236
g240
sbag1
(g222
g3
NtRp258
(dp259
g232
F-0.60223148398353232
sg233
g243
sg226
I11
sg235
F6.314705794652312
sg236
g240
sbag1
(g222
g3
NtRp260
(dp261
g232
F1.0261487415422603
sg233
g243
sg226
I12
sg235
F1.8795134164612823
sg236
g240
sbag1
(g222
g3
NtRp262
(dp263
g232
F-0.54311025800150581
sg233
g243
sg226
I13
sg235
F4.293522681275058
sg236
g240
sbag1
(g222
g3
NtRp264
(dp265
g232
F5.2211677061702542
sg233
g243
sg226
I14
sg235
F5.599998048709244
sg236
g240
sbag1
(g222
g3
NtRp266
(dp267
g232
F-4.4594148235082898
sg233
g243
sg226
I15
sg235
F3.9391328390217617
sg236
g240
sbag1
(g222
g3
NtRp268
(dp269
g232
F0.70240114774347884
sg233
g243
sg226
I16
sg235
F2.6205035000760302
sg236
g240
sbag1
(g222
g3
NtRp270
(dp271
g232
F2.6028433588620823
sg233
g243
sg226
I17
sg235
F11.089645219110167
sg236
g240
sbag1
(g222
g3
NtRp272
(dp273
g232
F1.8251434529554404
sg233
g243
sg226
I18
sg235
F3.0309618464729611
sg236
g240
sbag1
(g222
g3
NtRp274
(dp275
g232
F3.0055295121291508
sg233
g243
sg226
I19
sg235
F-0.14284249739650079
sg236
g240
sbag1
(g222
g3
NtRp276
(dp277
g232
F-0.49173423423660656
sg233
g243
sg226
I20
sg235
F6.5719504650932299
sg236
g240
sbag1
(g222
g3
NtRp278
(dp279
g232
F-0.26034431190951746
sg233
g243
sg226
I21
sg235
F4.4104108173907761
sg236
g240
sbag1
(g222
g3
NtRp280
(dp281
g232
F-0.54670366130886516
sg233
g243
sg226
I22
sg235
F4.5740428750107043
sg236
g240
sbag1
(g222
g3
NtRp282
(dp283
g232
F-0.74225128529002182
sg233
g243
sg226
I23
sg235
F4.852205446411646
sg236
g240
sbag1
(g222
g3
NtRp284
(dp285
g232
F-0.92950909325508624
sg233
g243
sg226
I24
sg235
F4.5643189560695054
sg236
g240
sbag1
(g222
g3
NtRp286
(dp287
g232
F0.22337043575424048
sg233
g243
sg226
I25
sg235
F5.4710377156459575
sg236
g240
sbasb.