ccopy_reg
_reconstructor
p1
(cneat.chromosome
Chromosome
p2
c__builtin__
object
p3
NtRp4
(dp5
S'species_id'
p6
I40
sS'_connection_genes'
p7
(dp8
(I17
I12
tp9
g1
(cneat.genome
ConnectionGene
p10
g3
NtRp11
(dp12
S'_ConnectionGene__weight'
p13
F-9.7141661467349252
sS'_ConnectionGene__in'
p14
I17
sS'_ConnectionGene__enabled'
p15
I01
sS'_ConnectionGene__out'
p16
I12
sS'_ConnectionGene__innov_number'
p17
I207
sbs(I1
I3
tp18
g1
(g10
g3
NtRp19
(dp20
g13
F-5.455085113190405
sg14
I1
sg15
I01
sg16
I3
sg17
I3
sbs(I6
I6
tp21
g1
(g10
g3
NtRp22
(dp23
g13
F21.993348304698021
sg14
I6
sg15
I01
sg16
I6
sg17
I39
sbs(I11
I2
tp24
g1
(g10
g3
NtRp25
(dp26
g13
F3.1548395423139528
sg14
I11
sg15
I01
sg16
I2
sg17
I80
sbs(I1
I15
tp27
g1
(g10
g3
NtRp28
(dp29
g13
F-9.1036694965838656
sg14
I1
sg15
I01
sg16
I15
sg17
I146
sbs(I6
I2
tp30
g1
(g10
g3
NtRp31
(dp32
g13
F27.795866723862861
sg14
I6
sg15
I01
sg16
I2
sg17
I21
sbs(I16
I14
tp33
g1
(g10
g3
NtRp34
(dp35
g13
F-17.827489893406785
sg14
I16
sg15
I01
sg16
I14
sg17
I193
sbs(I5
I8
tp36
g1
(g10
g3
NtRp37
(dp38
g13
F9.1101970444107057
sg14
I5
sg15
I00
sg16
I8
sg17
I42
sbs(I1
I2
tp39
g1
(g10
g3
NtRp40
(dp41
g13
F-15.363633701967721
sg14
I1
sg15
I01
sg16
I2
sg17
I1
sbs(I12
I2
tp42
g1
(g10
g3
NtRp43
(dp44
g13
F5.2418437257309893
sg14
I12
sg15
I01
sg16
I2
sg17
I82
sbs(I2
I19
tp45
g1
(g10
g3
NtRp46
(dp47
g13
F22.846170603271393
sg14
I2
sg15
I01
sg16
I19
sg17
I210
sbs(I3
I3
tp48
g1
(g10
g3
NtRp49
(dp50
g13
F-9.1766734917859019
sg14
I3
sg15
I01
sg16
I3
sg17
I15
sbs(I2
I9
tp51
g1
(g10
g3
NtRp52
(dp53
g13
F23.20763973759701
sg14
I2
sg15
I01
sg16
I9
sg17
I53
sbs(I13
I3
tp54
g1
(g10
g3
NtRp55
(dp56
g13
F-0.20408674961590023
sg14
I13
sg15
I01
sg16
I3
sg17
I92
sbs(I8
I10
tp57
g1
(g10
g3
NtRp58
(dp59
g13
F22.044082885173328
sg14
I8
sg15
I00
sg16
I10
sg17
I74
sbs(I21
I8
tp60
g1
(g10
g3
NtRp61
(dp62
g13
F2.5559190032333126
sg14
I21
sg15
I01
sg16
I8
sg17
I250
sbs(I4
I13
tp63
g1
(g10
g3
NtRp64
(dp65
g13
F-0.97537268216774464
sg14
I4
sg15
I01
sg16
I13
sg17
I102
sbs(I1
I5
tp66
g1
(g10
g3
NtRp67
(dp68
g13
F-7.4793837872121003
sg14
I1
sg15
I00
sg16
I5
sg17
I11
sbs(I9
I11
tp69
g1
(g10
g3
NtRp70
(dp71
g13
F-4.8087875073372297
sg14
I9
sg15
I01
sg16
I11
sg17
I101
sbs(I19
I3
tp72
g1
(g10
g3
NtRp73
(dp74
g13
F16.822206968392614
sg14
I19
sg15
I01
sg16
I3
sg17
I212
sbs(I2
I2
tp75
g1
(g10
g3
NtRp76
(dp77
g13
F-5.3423855520061361
sg14
I2
sg15
I01
sg16
I2
sg17
I2
sbs(I12
I10
tp78
g1
(g10
g3
NtRp79
(dp80
g13
F-5.4228851901071282
sg14
I12
sg15
I01
sg16
I10
sg17
I105
sbs(I8
I16
tp81
g1
(g10
g3
NtRp82
(dp83
g13
F-12.841858714395519
sg14
I8
sg15
I01
sg16
I16
sg17
I177
sbs(I12
I3
tp84
g1
(g10
g3
NtRp85
(dp86
g13
F-4.6413619926176226
sg14
I12
sg15
I01
sg16
I3
sg17
I86
sbs(I8
I18
tp87
g1
(g10
g3
NtRp88
(dp89
g13
F7.2902558492392897
sg14
I8
sg15
I01
sg16
I18
sg17
I208
sbs(I3
I2
tp90
g1
(g10
g3
NtRp91
(dp92
g13
F-25.393458143329045
sg14
I3
sg15
I01
sg16
I2
sg17
I4
sbs(I2
I6
tp93
g1
(g10
g3
NtRp94
(dp95
g13
F-1.1661975756320877
sg14
I2
sg15
I00
sg16
I6
sg17
I38
sbs(I8
I2
tp96
g1
(g10
g3
NtRp97
(dp98
g13
F-28.252267363656639
sg14
I8
sg15
I01
sg16
I2
sg17
I43
sbs(I5
I11
tp99
g1
(g10
g3
NtRp100
(dp101
g13
F-14.42218872631857
sg14
I5
sg15
I01
sg16
I11
sg17
I79
sbs(I15
I3
tp102
g1
(g10
g3
NtRp103
(dp104
g13
F-10.602510244735967
sg14
I15
sg15
I01
sg16
I3
sg17
I147
sbs(I9
I3
tp105
g1
(g10
g3
NtRp106
(dp107
g13
F-11.732391314201097
sg14
I9
sg15
I01
sg16
I3
sg17
I60
sbs(I2
I20
tp108
g1
(g10
g3
NtRp109
(dp110
g13
F5.5592684946666449
sg14
I2
sg15
I01
sg16
I20
sg17
I220
sbs(I1
I4
tp111
g1
(g10
g3
NtRp112
(dp113
g13
F-25.760769329499677
sg14
I1
sg15
I01
sg16
I4
sg17
I6
sbs(I9
I10
tp114
g1
(g10
g3
NtRp115
(dp116
g13
F-22.702708862030256
sg14
I9
sg15
I01
sg16
I10
sg17
I90
sbs(I7
I5
tp117
g1
(g10
g3
NtRp118
(dp119
g13
F-9.28263305817039
sg14
I7
sg15
I01
sg16
I5
sg17
I30
sbs(I2
I3
tp120
g1
(g10
g3
NtRp121
(dp122
g13
F15.475826156993536
sg14
I2
sg15
I00
sg16
I3
sg17
I5
sbs(I1
I9
tp123
g1
(g10
g3
NtRp124
(dp125
g13
F23.846611356650776
sg14
I1
sg15
I01
sg16
I9
sg17
I58
sbs(I8
I17
tp126
g1
(g10
g3
NtRp127
(dp128
g13
F10.309440232410498
sg14
I8
sg15
I01
sg16
I17
sg17
I205
sbs(I4
I2
tp129
g1
(g10
g3
NtRp130
(dp131
g13
F-6.3101905957350892
sg14
I4
sg15
I01
sg16
I2
sg17
I7
sbs(I14
I2
tp132
g1
(g10
g3
NtRp133
(dp134
g13
F-1.7376873467048186
sg14
I14
sg15
I01
sg16
I2
sg17
I138
sbs(I3
I5
tp135
g1
(g10
g3
NtRp136
(dp137
g13
F12.941843453599793
sg14
I3
sg15
I01
sg16
I5
sg17
I14
sbs(I10
I5
tp138
g1
(g10
g3
NtRp139
(dp140
g13
F3.1089798357416978
sg14
I10
sg15
I01
sg16
I5
sg17
I76
sbs(I4
I6
tp141
g1
(g10
g3
NtRp142
(dp143
g13
F-13.07049569635854
sg14
I4
sg15
I01
sg16
I6
sg17
I22
sbs(I15
I2
tp144
g1
(g10
g3
NtRp145
(dp146
g13
F-0.44455168372757381
sg14
I15
sg15
I01
sg16
I2
sg17
I170
sbs(I8
I12
tp147
g1
(g10
g3
NtRp148
(dp149
g13
F1.9503710977806863
sg14
I8
sg15
I01
sg16
I12
sg17
I88
sbs(I18
I10
tp150
g1
(g10
g3
NtRp151
(dp152
g13
F20.765550457312621
sg14
I18
sg15
I01
sg16
I10
sg17
I209
sbs(I5
I21
tp153
g1
(g10
g3
NtRp154
(dp155
g13
F3.7889367914760235
sg14
I5
sg15
I01
sg16
I21
sg17
I249
sbs(I11
I3
tp156
g1
(g10
g3
NtRp157
(dp158
g13
F-15.160056143870914
sg14
I11
sg15
I01
sg16
I3
sg17
I78
sbs(I3
I8
tp159
g1
(g10
g3
NtRp160
(dp161
g13
F16.761509027968991
sg14
I3
sg15
I01
sg16
I8
sg17
I44
sbs(I8
I14
tp162
g1
(g10
g3
NtRp163
(dp164
g13
F2.8499433728267811
sg14
I8
sg15
I01
sg16
I14
sg17
I119
sbs(I20
I6
tp165
g1
(g10
g3
NtRp166
(dp167
g13
F2.5720095442118311
sg14
I20
sg15
I01
sg16
I6
sg17
I221
sbs(I4
I3
tp168
g1
(g10
g3
NtRp169
(dp170
g13
F6.3729635644348086
sg14
I4
sg15
I01
sg16
I3
sg17
I10
sbs(I1
I7
tp171
g1
(g10
g3
NtRp172
(dp173
g13
F8.5311506378651583
sg14
I1
sg15
I01
sg16
I7
sg17
I29
sbs(I13
I9
tp174
g1
(g10
g3
NtRp175
(dp176
g13
F-2.9768208769209088
sg14
I13
sg15
I01
sg16
I9
sg17
I112
sbs(I5
I2
tp177
g1
(g10
g3
NtRp178
(dp179
g13
F-2.480704645101349
sg14
I5
sg15
I01
sg16
I2
sg17
I9
sbs(I10
I2
tp180
g1
(g10
g3
NtRp181
(dp182
g13
F-13.070769916715443
sg14
I10
sg15
I01
sg16
I2
sg17
I65
sbssS'_input_nodes'
p183
I1
sS'_output_nodes'
p184
I1
sS'_node_gene_type'
p185
cneat.genome
NodeGene
p186
sS'_conn_gene_type'
p187
g10
sS'fitness'
p188
F0.8823856135399496
sS'parent2_id'
p189
I6475
sS'_id'
p190
I6494
sS'parent1_id'
p191
I6475
sS'_node_genes'
p192
(lp193
g1
(g186
g3
NtRp194
(dp195
S'_bias'
p196
I0
sS'_type'
p197
S'INPUT'
p198
sg190
I1
sS'_response'
p199
F4.9242730000000003
sS'_activation_type'
p200
Nsbag1
(g186
g3
NtRp201
(dp202
g196
F-5.910842275919582
sg197
S'OUTPUT'
p203
sg190
I2
sg199
F5.1274538769573779
sg200
S'tanh'
p204
sbag1
(g186
g3
NtRp205
(dp206
g196
F0.8346466134857975
sg197
S'HIDDEN'
p207
sg190
I3
sg199
F2.0575266355019686
sg200
g204
sbag1
(g186
g3
NtRp208
(dp209
g196
F-5.3586771792848218
sg197
g207
sg190
I4
sg199
F6.2973694591516693
sg200
g204
sbag1
(g186
g3
NtRp210
(dp211
g196
F4.3561516061362964
sg197
g207
sg190
I5
sg199
F12.324234940939704
sg200
g204
sbag1
(g186
g3
NtRp212
(dp213
g196
F-1.5352091668574861
sg197
g207
sg190
I6
sg199
F5.3024198550046666
sg200
g204
sbag1
(g186
g3
NtRp214
(dp215
g196
F-1.6656197239503496
sg197
g207
sg190
I7
sg199
F-0.12864115427761041
sg200
g204
sbag1
(g186
g3
NtRp216
(dp217
g196
F-2.7853926024395337
sg197
g207
sg190
I8
sg199
F10.424435833414446
sg200
g204
sbag1
(g186
g3
NtRp218
(dp219
g196
F-0.86132415762663261
sg197
g207
sg190
I9
sg199
F7.5437839149343722
sg200
g204
sbag1
(g186
g3
NtRp220
(dp221
g196
F-0.26524035178328365
sg197
g207
sg190
I10
sg199
F7.5813831139380516
sg200
g204
sbag1
(g186
g3
NtRp222
(dp223
g196
F-1.4152768575234083
sg197
g207
sg190
I11
sg199
F6.4090220649457423
sg200
g204
sbag1
(g186
g3
NtRp224
(dp225
g196
F0.77894438982209113
sg197
g207
sg190
I12
sg199
F3.8435482081232655
sg200
g204
sbag1
(g186
g3
NtRp226
(dp227
g196
F-1.6189946421315149
sg197
g207
sg190
I13
sg199
F5.2759470070145991
sg200
g204
sbag1
(g186
g3
NtRp228
(dp229
g196
F4.3726515360768063
sg197
g207
sg190
I14
sg199
F5.1492852054274856
sg200
g204
sbag1
(g186
g3
NtRp230
(dp231
g196
F-3.3613163187725332
sg197
g207
sg190
I15
sg199
F6.7622444873244349
sg200
g204
sbag1
(g186
g3
NtRp232
(dp233
g196
F0.47239154345337492
sg197
g207
sg190
I16
sg199
F2.6381795586667725
sg200
g204
sbag1
(g186
g3
NtRp234
(dp235
g196
F1.6239454210516757
sg197
g207
sg190
I17
sg199
F5.7001232059116758
sg200
g204
sbag1
(g186
g3
NtRp236
(dp237
g196
F1.0682924946111396
sg197
g207
sg190
I18
sg199
F4.8088060038001714
sg200
g204
sbag1
(g186
g3
NtRp238
(dp239
g196
F-0.41353944701847695
sg197
g207
sg190
I19
sg199
F4.6228972090833684
sg200
g204
sbag1
(g186
g3
NtRp240
(dp241
g196
F0.68134848210786947
sg197
g207
sg190
I20
sg199
F6.6125057828311293
sg200
g204
sbag1
(g186
g3
NtRp242
(dp243
g196
F0.47801237304460559
sg197
g207
sg190
I21
sg199
F5.2062662756622498
sg200
g204
sbasb.