ccopy_reg
_reconstructor
p1
(cneat.chromosome
Chromosome
p2
c__builtin__
object
p3
NtRp4
(dp5
S'species_id'
p6
I24
sS'_connection_genes'
p7
(dp8
(I1
I3
tp9
g1
(cneat.genome
ConnectionGene
p10
g3
NtRp11
(dp12
S'_ConnectionGene__weight'
p13
F-1.9009771212205591
sS'_ConnectionGene__in'
p14
I1
sS'_ConnectionGene__enabled'
p15
I01
sS'_ConnectionGene__out'
p16
I3
sS'_ConnectionGene__innov_number'
p17
I3
sbs(I6
I6
tp18
g1
(g10
g3
NtRp19
(dp20
g13
F-0.0075899386183426731
sg14
I6
sg15
I01
sg16
I6
sg17
I39
sbs(I6
I2
tp21
g1
(g10
g3
NtRp22
(dp23
g13
F1.6076085502853725
sg14
I6
sg15
I01
sg16
I2
sg17
I21
sbs(I5
I8
tp24
g1
(g10
g3
NtRp25
(dp26
g13
F12.516669305226156
sg14
I5
sg15
I01
sg16
I8
sg17
I42
sbs(I1
I2
tp27
g1
(g10
g3
NtRp28
(dp29
g13
F-21.836660498635528
sg14
I1
sg15
I01
sg16
I2
sg17
I1
sbs(I3
I3
tp30
g1
(g10
g3
NtRp31
(dp32
g13
F1.8859569512020558
sg14
I3
sg15
I01
sg16
I3
sg17
I15
sbs(I2
I9
tp33
g1
(g10
g3
NtRp34
(dp35
g13
F-8.7286061588759161
sg14
I2
sg15
I01
sg16
I9
sg17
I53
sbs(I3
I10
tp36
g1
(g10
g3
NtRp37
(dp38
g13
F11.487996688155938
sg14
I3
sg15
I01
sg16
I10
sg17
I64
sbs(I6
I10
tp39
g1
(g10
g3
NtRp40
(dp41
g13
F-2.3953648861838914
sg14
I6
sg15
I01
sg16
I10
sg17
I134
sbs(I4
I4
tp42
g1
(g10
g3
NtRp43
(dp44
g13
F-12.327306124993775
sg14
I4
sg15
I00
sg16
I4
sg17
I16
sbs(I1
I5
tp45
g1
(g10
g3
NtRp46
(dp47
g13
F2.3214686185694715
sg14
I1
sg15
I01
sg16
I5
sg17
I11
sbs(I2
I2
tp48
g1
(g10
g3
NtRp49
(dp50
g13
F16.600535475826469
sg14
I2
sg15
I01
sg16
I2
sg17
I2
sbs(I1
I10
tp51
g1
(g10
g3
NtRp52
(dp53
g13
F-3.9112572117818369
sg14
I1
sg15
I01
sg16
I10
sg17
I71
sbs(I5
I3
tp54
g1
(g10
g3
NtRp55
(dp56
g13
F-3.303015442030548
sg14
I5
sg15
I01
sg16
I3
sg17
I19
sbs(I3
I2
tp57
g1
(g10
g3
NtRp58
(dp59
g13
F-20.529358316705991
sg14
I3
sg15
I01
sg16
I2
sg17
I4
sbs(I2
I6
tp60
g1
(g10
g3
NtRp61
(dp62
g13
F-5.1812617066946256
sg14
I2
sg15
I01
sg16
I6
sg17
I38
sbs(I11
I4
tp63
g1
(g10
g3
NtRp64
(dp65
g13
F-9.5042191154303879
sg14
I11
sg15
I00
sg16
I4
sg17
I99
sbs(I8
I2
tp66
g1
(g10
g3
NtRp67
(dp68
g13
F0.61148727030913719
sg14
I8
sg15
I01
sg16
I2
sg17
I43
sbs(I9
I3
tp69
g1
(g10
g3
NtRp70
(dp71
g13
F30
sg14
I9
sg15
I01
sg16
I3
sg17
I60
sbs(I1
I4
tp72
g1
(g10
g3
NtRp73
(dp74
g13
F-12.851284925285038
sg14
I1
sg15
I01
sg16
I4
sg17
I6
sbs(I7
I5
tp75
g1
(g10
g3
NtRp76
(dp77
g13
F22.105000105371104
sg14
I7
sg15
I01
sg16
I5
sg17
I30
sbs(I2
I3
tp78
g1
(g10
g3
NtRp79
(dp80
g13
F-29.309521516848029
sg14
I2
sg15
I01
sg16
I3
sg17
I5
sbs(I1
I9
tp81
g1
(g10
g3
NtRp82
(dp83
g13
F-8.9705783548772438
sg14
I1
sg15
I01
sg16
I9
sg17
I58
sbs(I4
I2
tp84
g1
(g10
g3
NtRp85
(dp86
g13
F-20.57110601257062
sg14
I4
sg15
I00
sg16
I2
sg17
I7
sbs(I11
I12
tp87
g1
(g10
g3
NtRp88
(dp89
g13
F1.2035937274987112
sg14
I11
sg15
I01
sg16
I12
sg17
I144
sbs(I4
I11
tp90
g1
(g10
g3
NtRp91
(dp92
g13
F2.3021629708738698
sg14
I4
sg15
I01
sg16
I11
sg17
I89
sbs(I3
I5
tp93
g1
(g10
g3
NtRp94
(dp95
g13
F-26.708170326667513
sg14
I3
sg15
I01
sg16
I5
sg17
I14
sbs(I10
I5
tp96
g1
(g10
g3
NtRp97
(dp98
g13
F-2.7671037534722096
sg14
I10
sg15
I01
sg16
I5
sg17
I76
sbs(I4
I6
tp99
g1
(g10
g3
NtRp100
(dp101
g13
F14.916771194968472
sg14
I4
sg15
I01
sg16
I6
sg17
I22
sbs(I9
I2
tp102
g1
(g10
g3
NtRp103
(dp104
g13
F-8.4780725546510531
sg14
I9
sg15
I01
sg16
I2
sg17
I49
sbs(I12
I4
tp105
g1
(g10
g3
NtRp106
(dp107
g13
F-9.7266266467540312
sg14
I12
sg15
I01
sg16
I4
sg17
I145
sbs(I4
I3
tp108
g1
(g10
g3
NtRp109
(dp110
g13
F7.4838489273468181
sg14
I4
sg15
I01
sg16
I3
sg17
I10
sbs(I1
I7
tp111
g1
(g10
g3
NtRp112
(dp113
g13
F-0.94604998267431029
sg14
I1
sg15
I01
sg16
I7
sg17
I29
sbs(I5
I2
tp114
g1
(g10
g3
NtRp115
(dp116
g13
F-28.73816497722067
sg14
I5
sg15
I01
sg16
I2
sg17
I9
sbssS'_input_nodes'
p117
I1
sS'_output_nodes'
p118
I1
sS'_node_gene_type'
p119
cneat.genome
NodeGene
p120
sS'_conn_gene_type'
p121
g10
sS'fitness'
p122
F0.99073422310306702
sS'parent2_id'
p123
I4186
sS'_id'
p124
I4221
sS'parent1_id'
p125
I4186
sS'_node_genes'
p126
(lp127
g1
(g120
g3
NtRp128
(dp129
S'_bias'
p130
I0
sS'_type'
p131
S'INPUT'
p132
sg124
I1
sS'_response'
p133
F4.9242730000000003
sS'_activation_type'
p134
Nsbag1
(g120
g3
NtRp135
(dp136
g130
F-2.4759483676292153
sg131
S'OUTPUT'
p137
sg124
I2
sg133
F2.8184433080811844
sg134
S'tanh'
p138
sbag1
(g120
g3
NtRp139
(dp140
g130
F2.6979749765363636
sg131
S'HIDDEN'
p141
sg124
I3
sg133
F4.9874789568716462
sg134
g138
sbag1
(g120
g3
NtRp142
(dp143
g130
F1.6322724305494216
sg131
g141
sg124
I4
sg133
F3.8976952160391094
sg134
g138
sbag1
(g120
g3
NtRp144
(dp145
g130
F4.8949924983670536
sg131
g141
sg124
I5
sg133
F10.011591092521259
sg134
g138
sbag1
(g120
g3
NtRp146
(dp147
g130
F4.1385791321830556
sg131
g141
sg124
I6
sg133
F11.747743689773666
sg134
g138
sbag1
(g120
g3
NtRp148
(dp149
g130
F-4.5710379012566564
sg131
g141
sg124
I7
sg133
F3.7241220381615081
sg134
g138
sbag1
(g120
g3
NtRp150
(dp151
g130
F2.9652104464168332
sg131
g141
sg124
I8
sg133
F3.9133124468350271
sg134
g138
sbag1
(g120
g3
NtRp152
(dp153
g130
F-2.1673487804198452
sg131
g141
sg124
I9
sg133
F5.4319310496672202
sg134
g138
sbag1
(g120
g3
NtRp154
(dp155
g130
F-4.2033065518509138
sg131
g141
sg124
I10
sg133
F4.0280943606955626
sg134
g138
sbag1
(g120
g3
NtRp156
(dp157
g130
F0.24042228177558408
sg131
g141
sg124
I11
sg133
F4.8484692703323402
sg134
g138
sbag1
(g120
g3
NtRp158
(dp159
g130
I0
sg131
g141
sg124
I12
sg133
F4.9242730000000003
sg134
g138
sbasb.