ccopy_reg
_reconstructor
p1
(cneat.chromosome
Chromosome
p2
c__builtin__
object
p3
NtRp4
(dp5
S'species_id'
p6
I10
sS'_connection_genes'
p7
(dp8
(I1
I3
tp9
g1
(cneat.genome
ConnectionGene
p10
g3
NtRp11
(dp12
S'_ConnectionGene__weight'
p13
F0.34722300787319815
sS'_ConnectionGene__in'
p14
I1
sS'_ConnectionGene__enabled'
p15
I00
sS'_ConnectionGene__out'
p16
I3
sS'_ConnectionGene__innov_number'
p17
I3
sbs(I6
I6
tp18
g1
(g10
g3
NtRp19
(dp20
g13
F24.912252788819512
sg14
I6
sg15
I01
sg16
I6
sg17
I39
sbs(I6
I2
tp21
g1
(g10
g3
NtRp22
(dp23
g13
F12.250140872992617
sg14
I6
sg15
I01
sg16
I2
sg17
I21
sbs(I5
I8
tp24
g1
(g10
g3
NtRp25
(dp26
g13
F1.7899508054038085
sg14
I5
sg15
I01
sg16
I8
sg17
I42
sbs(I1
I2
tp27
g1
(g10
g3
NtRp28
(dp29
g13
F-18.160445079854043
sg14
I1
sg15
I01
sg16
I2
sg17
I1
sbs(I3
I3
tp30
g1
(g10
g3
NtRp31
(dp32
g13
F-15.581690276075232
sg14
I3
sg15
I01
sg16
I3
sg17
I15
sbs(I1
I5
tp33
g1
(g10
g3
NtRp34
(dp35
g13
F-5.3000812380375102
sg14
I1
sg15
I00
sg16
I5
sg17
I11
sbs(I2
I2
tp36
g1
(g10
g3
NtRp37
(dp38
g13
F11.953988346373576
sg14
I2
sg15
I00
sg16
I2
sg17
I2
sbs(I3
I2
tp39
g1
(g10
g3
NtRp40
(dp41
g13
F-26.164334352670618
sg14
I3
sg15
I01
sg16
I2
sg17
I4
sbs(I2
I6
tp42
g1
(g10
g3
NtRp43
(dp44
g13
F7.273717486475368
sg14
I2
sg15
I01
sg16
I6
sg17
I38
sbs(I8
I2
tp45
g1
(g10
g3
NtRp46
(dp47
g13
F-9.4946039474437498
sg14
I8
sg15
I01
sg16
I2
sg17
I43
sbs(I9
I3
tp48
g1
(g10
g3
NtRp49
(dp50
g13
F3.0598988044237605
sg14
I9
sg15
I01
sg16
I3
sg17
I60
sbs(I1
I4
tp51
g1
(g10
g3
NtRp52
(dp53
g13
F-4.0234083000907521
sg14
I1
sg15
I01
sg16
I4
sg17
I6
sbs(I7
I5
tp54
g1
(g10
g3
NtRp55
(dp56
g13
F10.067423489167648
sg14
I7
sg15
I01
sg16
I5
sg17
I30
sbs(I2
I3
tp57
g1
(g10
g3
NtRp58
(dp59
g13
F-10.208781520540981
sg14
I2
sg15
I01
sg16
I3
sg17
I5
sbs(I1
I9
tp60
g1
(g10
g3
NtRp61
(dp62
g13
F-0.88152152298168196
sg14
I1
sg15
I01
sg16
I9
sg17
I58
sbs(I4
I2
tp63
g1
(g10
g3
NtRp64
(dp65
g13
F-9.0451786804339882
sg14
I4
sg15
I00
sg16
I2
sg17
I7
sbs(I3
I5
tp66
g1
(g10
g3
NtRp67
(dp68
g13
F-13.281120774451495
sg14
I3
sg15
I01
sg16
I5
sg17
I14
sbs(I4
I6
tp69
g1
(g10
g3
NtRp70
(dp71
g13
F16.431102614227555
sg14
I4
sg15
I01
sg16
I6
sg17
I22
sbs(I4
I3
tp72
g1
(g10
g3
NtRp73
(dp74
g13
F2.8026634630117164
sg14
I4
sg15
I01
sg16
I3
sg17
I10
sbs(I1
I7
tp75
g1
(g10
g3
NtRp76
(dp77
g13
F2.8938391190078416
sg14
I1
sg15
I01
sg16
I7
sg17
I29
sbs(I5
I2
tp78
g1
(g10
g3
NtRp79
(dp80
g13
F-19.403338305704725
sg14
I5
sg15
I00
sg16
I2
sg17
I9
sbssS'_input_nodes'
p81
I1
sS'_output_nodes'
p82
I1
sS'_node_gene_type'
p83
cneat.genome
NodeGene
p84
sS'_conn_gene_type'
p85
g10
sS'fitness'
p86
F0.95044279439888835
sS'parent2_id'
p87
I2443
sS'_id'
p88
I2473
sS'parent1_id'
p89
I2452
sS'_node_genes'
p90
(lp91
g1
(g84
g3
NtRp92
(dp93
S'_bias'
p94
I0
sS'_type'
p95
S'INPUT'
p96
sg88
I1
sS'_response'
p97
F4.9242730000000003
sS'_activation_type'
p98
Nsbag1
(g84
g3
NtRp99
(dp100
g94
F-3.8702505094487649
sg95
S'OUTPUT'
p101
sg88
I2
sg97
F5.5467003845268223
sg98
S'tanh'
p102
sbag1
(g84
g3
NtRp103
(dp104
g94
F-1.0438587953371896
sg95
S'HIDDEN'
p105
sg88
I3
sg97
F3.8666827925001712
sg98
g102
sbag1
(g84
g3
NtRp106
(dp107
g94
F-0.28194752823953961
sg95
g105
sg88
I4
sg97
F5.1803764544879183
sg98
g102
sbag1
(g84
g3
NtRp108
(dp109
g94
F2.929763807333067
sg95
g105
sg88
I5
sg97
F10.366006214477872
sg98
g102
sbag1
(g84
g3
NtRp110
(dp111
g94
F1.6700783248648523
sg95
g105
sg88
I6
sg97
F7.3737101461306489
sg98
g102
sbag1
(g84
g3
NtRp112
(dp113
g94
F-1.4797672147107062
sg95
g105
sg88
I7
sg97
F4.4034010049151382
sg98
g102
sbag1
(g84
g3
NtRp114
(dp115
g94
F1.1325191068144291
sg95
g105
sg88
I8
sg97
F4.3554052344226584
sg98
g102
sbag1
(g84
g3
NtRp116
(dp117
g94
I0
sg95
g105
sg88
I9
sg97
F4.9242730000000003
sg98
g102
sbasb.