ccopy_reg
_reconstructor
p1
(cneat.chromosome
Chromosome
p2
c__builtin__
object
p3
NtRp4
(dp5
S'species_id'
p6
I31
sS'_connection_genes'
p7
(dp8
(I17
I12
tp9
g1
(cneat.genome
ConnectionGene
p10
g3
NtRp11
(dp12
S'_ConnectionGene__weight'
p13
F-6.1161250478438705
sS'_ConnectionGene__in'
p14
I17
sS'_ConnectionGene__enabled'
p15
I01
sS'_ConnectionGene__out'
p16
I12
sS'_ConnectionGene__innov_number'
p17
I207
sbs(I1
I3
tp18
g1
(g10
g3
NtRp19
(dp20
g13
F-2.453928236853006
sg14
I1
sg15
I01
sg16
I3
sg17
I3
sbs(I6
I6
tp21
g1
(g10
g3
NtRp22
(dp23
g13
F19.606702411084214
sg14
I6
sg15
I01
sg16
I6
sg17
I39
sbs(I11
I2
tp24
g1
(g10
g3
NtRp25
(dp26
g13
F1.530288061465886
sg14
I11
sg15
I01
sg16
I2
sg17
I80
sbs(I1
I15
tp27
g1
(g10
g3
NtRp28
(dp29
g13
F-9.0004046598101883
sg14
I1
sg15
I01
sg16
I15
sg17
I146
sbs(I6
I2
tp30
g1
(g10
g3
NtRp31
(dp32
g13
F28.19727075035377
sg14
I6
sg15
I01
sg16
I2
sg17
I21
sbs(I16
I14
tp33
g1
(g10
g3
NtRp34
(dp35
g13
F-19.06171142655376
sg14
I16
sg15
I01
sg16
I14
sg17
I193
sbs(I5
I8
tp36
g1
(g10
g3
NtRp37
(dp38
g13
F7.6631995482993425
sg14
I5
sg15
I01
sg16
I8
sg17
I42
sbs(I1
I2
tp39
g1
(g10
g3
NtRp40
(dp41
g13
F-20.335299213996255
sg14
I1
sg15
I01
sg16
I2
sg17
I1
sbs(I12
I2
tp42
g1
(g10
g3
NtRp43
(dp44
g13
F4.2968780786606926
sg14
I12
sg15
I01
sg16
I2
sg17
I82
sbs(I3
I3
tp45
g1
(g10
g3
NtRp46
(dp47
g13
F3.3433040339826192
sg14
I3
sg15
I01
sg16
I3
sg17
I15
sbs(I2
I9
tp48
g1
(g10
g3
NtRp49
(dp50
g13
F16.272492049323024
sg14
I2
sg15
I01
sg16
I9
sg17
I53
sbs(I13
I3
tp51
g1
(g10
g3
NtRp52
(dp53
g13
F2.6487779915069019
sg14
I13
sg15
I01
sg16
I3
sg17
I92
sbs(I8
I10
tp54
g1
(g10
g3
NtRp55
(dp56
g13
F26.173324352871887
sg14
I8
sg15
I00
sg16
I10
sg17
I74
sbs(I4
I13
tp57
g1
(g10
g3
NtRp58
(dp59
g13
F-11.645901711914725
sg14
I4
sg15
I01
sg16
I13
sg17
I102
sbs(I1
I5
tp60
g1
(g10
g3
NtRp61
(dp62
g13
F-12.021681462306326
sg14
I1
sg15
I00
sg16
I5
sg17
I11
sbs(I9
I11
tp63
g1
(g10
g3
NtRp64
(dp65
g13
F-6.3536171384091515
sg14
I9
sg15
I01
sg16
I11
sg17
I101
sbs(I2
I2
tp66
g1
(g10
g3
NtRp67
(dp68
g13
F6.727242570759536
sg14
I2
sg15
I01
sg16
I2
sg17
I2
sbs(I8
I16
tp69
g1
(g10
g3
NtRp70
(dp71
g13
F-2.590918781222026
sg14
I8
sg15
I01
sg16
I16
sg17
I177
sbs(I3
I2
tp72
g1
(g10
g3
NtRp73
(dp74
g13
F-22.243960508178905
sg14
I3
sg15
I01
sg16
I2
sg17
I4
sbs(I2
I6
tp75
g1
(g10
g3
NtRp76
(dp77
g13
F-2.7351886545629189
sg14
I2
sg15
I01
sg16
I6
sg17
I38
sbs(I8
I2
tp78
g1
(g10
g3
NtRp79
(dp80
g13
F-25.792227347245511
sg14
I8
sg15
I01
sg16
I2
sg17
I43
sbs(I5
I11
tp81
g1
(g10
g3
NtRp82
(dp83
g13
F-5.6323679392288586
sg14
I5
sg15
I01
sg16
I11
sg17
I79
sbs(I15
I3
tp84
g1
(g10
g3
NtRp85
(dp86
g13
F2.3318769680111222
sg14
I15
sg15
I00
sg16
I3
sg17
I147
sbs(I9
I3
tp87
g1
(g10
g3
NtRp88
(dp89
g13
F-10.598200942541061
sg14
I9
sg15
I01
sg16
I3
sg17
I60
sbs(I1
I4
tp90
g1
(g10
g3
NtRp91
(dp92
g13
F-23.65171036379229
sg14
I1
sg15
I01
sg16
I4
sg17
I6
sbs(I9
I10
tp93
g1
(g10
g3
NtRp94
(dp95
g13
F-29.548510545259472
sg14
I9
sg15
I01
sg16
I10
sg17
I90
sbs(I7
I5
tp96
g1
(g10
g3
NtRp97
(dp98
g13
F-11.726177912316025
sg14
I7
sg15
I01
sg16
I5
sg17
I30
sbs(I2
I3
tp99
g1
(g10
g3
NtRp100
(dp101
g13
F1.9877344560251555
sg14
I2
sg15
I01
sg16
I3
sg17
I5
sbs(I1
I9
tp102
g1
(g10
g3
NtRp103
(dp104
g13
F-0.10253977551528104
sg14
I1
sg15
I01
sg16
I9
sg17
I58
sbs(I8
I17
tp105
g1
(g10
g3
NtRp106
(dp107
g13
F-2.0460823463547397
sg14
I8
sg15
I01
sg16
I17
sg17
I205
sbs(I4
I2
tp108
g1
(g10
g3
NtRp109
(dp110
g13
F-10.401519640525805
sg14
I4
sg15
I01
sg16
I2
sg17
I7
sbs(I14
I2
tp111
g1
(g10
g3
NtRp112
(dp113
g13
F-4.6921180870430206
sg14
I14
sg15
I01
sg16
I2
sg17
I138
sbs(I3
I5
tp114
g1
(g10
g3
NtRp115
(dp116
g13
F2.8316661985455553
sg14
I3
sg15
I01
sg16
I5
sg17
I14
sbs(I10
I5
tp117
g1
(g10
g3
NtRp118
(dp119
g13
F-4.0072351141659706
sg14
I10
sg15
I01
sg16
I5
sg17
I76
sbs(I4
I6
tp120
g1
(g10
g3
NtRp121
(dp122
g13
F-6.0510587278511672
sg14
I4
sg15
I01
sg16
I6
sg17
I22
sbs(I15
I2
tp123
g1
(g10
g3
NtRp124
(dp125
g13
F7.3712678765839783
sg14
I15
sg15
I01
sg16
I2
sg17
I170
sbs(I8
I12
tp126
g1
(g10
g3
NtRp127
(dp128
g13
F-5.1804856255945193
sg14
I8
sg15
I01
sg16
I12
sg17
I88
sbs(I18
I10
tp129
g1
(g10
g3
NtRp130
(dp131
g13
F24.56967794751149
sg14
I18
sg15
I01
sg16
I10
sg17
I209
sbs(I11
I3
tp132
g1
(g10
g3
NtRp133
(dp134
g13
F-8.1464084596191864
sg14
I11
sg15
I01
sg16
I3
sg17
I78
sbs(I3
I8
tp135
g1
(g10
g3
NtRp136
(dp137
g13
F15.033506605585362
sg14
I3
sg15
I01
sg16
I8
sg17
I44
sbs(I8
I14
tp138
g1
(g10
g3
NtRp139
(dp140
g13
F5.723543053586492
sg14
I8
sg15
I00
sg16
I14
sg17
I119
sbs(I8
I18
tp141
g1
(g10
g3
NtRp142
(dp143
g13
F-1.6576135803133765
sg14
I8
sg15
I01
sg16
I18
sg17
I208
sbs(I4
I3
tp144
g1
(g10
g3
NtRp145
(dp146
g13
F14.493851924540934
sg14
I4
sg15
I00
sg16
I3
sg17
I10
sbs(I1
I7
tp147
g1
(g10
g3
NtRp148
(dp149
g13
F12.423789886469471
sg14
I1
sg15
I01
sg16
I7
sg17
I29
sbs(I13
I9
tp150
g1
(g10
g3
NtRp151
(dp152
g13
F2.1360357477766523
sg14
I13
sg15
I01
sg16
I9
sg17
I112
sbs(I5
I2
tp153
g1
(g10
g3
NtRp154
(dp155
g13
F3.5983827512253508
sg14
I5
sg15
I01
sg16
I2
sg17
I9
sbs(I10
I2
tp156
g1
(g10
g3
NtRp157
(dp158
g13
F-12.124523776905626
sg14
I10
sg15
I01
sg16
I2
sg17
I65
sbssS'_input_nodes'
p159
I1
sS'_output_nodes'
p160
I1
sS'_node_gene_type'
p161
cneat.genome
NodeGene
p162
sS'_conn_gene_type'
p163
g10
sS'fitness'
p164
F0.99777189850099457
sS'parent2_id'
p165
I5692
sS'_id'
p166
I5713
sS'parent1_id'
p167
I5692
sS'_node_genes'
p168
(lp169
g1
(g162
g3
NtRp170
(dp171
S'_bias'
p172
I0
sS'_type'
p173
S'INPUT'
p174
sg166
I1
sS'_response'
p175
F4.9242730000000003
sS'_activation_type'
p176
Nsbag1
(g162
g3
NtRp177
(dp178
g172
F-6.3176358505970782
sg173
S'OUTPUT'
p179
sg166
I2
sg175
F3.994317525988369
sg176
S'tanh'
p180
sbag1
(g162
g3
NtRp181
(dp182
g172
F1.5970496171019493
sg173
S'HIDDEN'
p183
sg166
I3
sg175
F5.2038449939106091
sg176
g180
sbag1
(g162
g3
NtRp184
(dp185
g172
F-4.962699024495862
sg173
g183
sg166
I4
sg175
F6.2778638409808618
sg176
g180
sbag1
(g162
g3
NtRp186
(dp187
g172
F4.5785761400149276
sg173
g183
sg166
I5
sg175
F12.215419961644869
sg176
g180
sbag1
(g162
g3
NtRp188
(dp189
g172
F0.2754472350739755
sg173
g183
sg166
I6
sg175
F6.1482148028904389
sg176
g180
sbag1
(g162
g3
NtRp190
(dp191
g172
F-2.1161226492062628
sg173
g183
sg166
I7
sg175
F0.39605520995980559
sg176
g180
sbag1
(g162
g3
NtRp192
(dp193
g172
F-1.7652724635131567
sg173
g183
sg166
I8
sg175
F12.077719017928011
sg176
g180
sbag1
(g162
g3
NtRp194
(dp195
g172
F-1.7769491578432546
sg173
g183
sg166
I9
sg175
F8.5752109680528736
sg176
g180
sbag1
(g162
g3
NtRp196
(dp197
g172
F0.84136828914087947
sg173
g183
sg166
I10
sg175
F7.0357905306606412
sg176
g180
sbag1
(g162
g3
NtRp198
(dp199
g172
F0.28093597187223984
sg173
g183
sg166
I11
sg175
F8.7956577176504389
sg176
g180
sbag1
(g162
g3
NtRp200
(dp201
g172
F0.6533195190548382
sg173
g183
sg166
I12
sg175
F3.9894003318113045
sg176
g180
sbag1
(g162
g3
NtRp202
(dp203
g172
F-2.3139370158498602
sg173
g183
sg166
I13
sg175
F4.6524489377739391
sg176
g180
sbag1
(g162
g3
NtRp204
(dp205
g172
F3.3708320799287961
sg173
g183
sg166
I14
sg175
F4.7868594030389202
sg176
g180
sbag1
(g162
g3
NtRp206
(dp207
g172
F-2.4474883429314174
sg173
g183
sg166
I15
sg175
F6.0200600702186957
sg176
g180
sbag1
(g162
g3
NtRp208
(dp209
g172
F0.43258298128314798
sg173
g183
sg166
I16
sg175
F4.6227008271919487
sg176
g180
sbag1
(g162
g3
NtRp210
(dp211
g172
I0
sg173
g183
sg166
I17
sg175
F5.6426965188926044
sg176
g180
sbag1
(g162
g3
NtRp212
(dp213
g172
I0
sg173
g183
sg166
I18
sg175
F4.9242730000000003
sg176
g180
sbasb.