ccopy_reg
_reconstructor
p1
(cneat.chromosome
Chromosome
p2
c__builtin__
object
p3
NtRp4
(dp5
S'species_id'
p6
I29
sS'_connection_genes'
p7
(dp8
(I1
I3
tp9
g1
(cneat.genome
ConnectionGene
p10
g3
NtRp11
(dp12
S'_ConnectionGene__weight'
p13
F-10.55072432560549
sS'_ConnectionGene__in'
p14
I1
sS'_ConnectionGene__enabled'
p15
I01
sS'_ConnectionGene__out'
p16
I3
sS'_ConnectionGene__innov_number'
p17
I3
sbs(I6
I6
tp18
g1
(g10
g3
NtRp19
(dp20
g13
F3.6934945439240887
sg14
I6
sg15
I01
sg16
I6
sg17
I39
sbs(I11
I2
tp21
g1
(g10
g3
NtRp22
(dp23
g13
F-16.208510994324644
sg14
I11
sg15
I01
sg16
I2
sg17
I80
sbs(I4
I6
tp24
g1
(g10
g3
NtRp25
(dp26
g13
F11.924021930676441
sg14
I4
sg15
I01
sg16
I6
sg17
I22
sbs(I6
I2
tp27
g1
(g10
g3
NtRp28
(dp29
g13
F15.212146241727087
sg14
I6
sg15
I01
sg16
I2
sg17
I21
sbs(I1
I11
tp30
g1
(g10
g3
NtRp31
(dp32
g13
F-0.073085294369848564
sg14
I1
sg15
I01
sg16
I11
sg17
I77
sbs(I3
I14
tp33
g1
(g10
g3
NtRp34
(dp35
g13
F-1.1331158853030172
sg14
I3
sg15
I01
sg16
I14
sg17
I155
sbs(I1
I2
tp36
g1
(g10
g3
NtRp37
(dp38
g13
F-25.700881489707108
sg14
I1
sg15
I01
sg16
I2
sg17
I1
sbs(I12
I2
tp39
g1
(g10
g3
NtRp40
(dp41
g13
F-9.00964468637412
sg14
I12
sg15
I01
sg16
I2
sg17
I82
sbs(I6
I7
tp42
g1
(g10
g3
NtRp43
(dp44
g13
F-0.89560529810733791
sg14
I6
sg15
I01
sg16
I7
sg17
I36
sbs(I3
I3
tp45
g1
(g10
g3
NtRp46
(dp47
g13
F-8.1267469614841907
sg14
I3
sg15
I01
sg16
I3
sg17
I15
sbs(I2
I9
tp48
g1
(g10
g3
NtRp49
(dp50
g13
F15.698123009483794
sg14
I2
sg15
I01
sg16
I9
sg17
I53
sbs(I13
I3
tp51
g1
(g10
g3
NtRp52
(dp53
g13
F-15.502145693049833
sg14
I13
sg15
I01
sg16
I3
sg17
I92
sbs(I8
I10
tp54
g1
(g10
g3
NtRp55
(dp56
g13
F28.522532552750011
sg14
I8
sg15
I01
sg16
I10
sg17
I74
sbs(I4
I13
tp57
g1
(g10
g3
NtRp58
(dp59
g13
F-24.929180714177971
sg14
I4
sg15
I01
sg16
I13
sg17
I102
sbs(I1
I5
tp60
g1
(g10
g3
NtRp61
(dp62
g13
F-12.205563795312786
sg14
I1
sg15
I00
sg16
I5
sg17
I11
sbs(I5
I8
tp63
g1
(g10
g3
NtRp64
(dp65
g13
F-11.254969654588773
sg14
I5
sg15
I01
sg16
I8
sg17
I42
sbs(I2
I2
tp66
g1
(g10
g3
NtRp67
(dp68
g13
F27.615391240419214
sg14
I2
sg15
I01
sg16
I2
sg17
I2
sbs(I3
I2
tp69
g1
(g10
g3
NtRp70
(dp71
g13
F-20.576610530847312
sg14
I3
sg15
I01
sg16
I2
sg17
I4
sbs(I2
I6
tp72
g1
(g10
g3
NtRp73
(dp74
g13
F12.512342807654893
sg14
I2
sg15
I01
sg16
I6
sg17
I38
sbs(I8
I2
tp75
g1
(g10
g3
NtRp76
(dp77
g13
F-19.537389503524658
sg14
I8
sg15
I01
sg16
I2
sg17
I43
sbs(I5
I11
tp78
g1
(g10
g3
NtRp79
(dp80
g13
F9.5447075613636443
sg14
I5
sg15
I01
sg16
I11
sg17
I79
sbs(I9
I3
tp81
g1
(g10
g3
NtRp82
(dp83
g13
F-8.8764594261215919
sg14
I9
sg15
I01
sg16
I3
sg17
I60
sbs(I1
I4
tp84
g1
(g10
g3
NtRp85
(dp86
g13
F-14.247437377473288
sg14
I1
sg15
I01
sg16
I4
sg17
I6
sbs(I9
I10
tp87
g1
(g10
g3
NtRp88
(dp89
g13
F-2.7916821919089232
sg14
I9
sg15
I01
sg16
I10
sg17
I90
sbs(I7
I5
tp90
g1
(g10
g3
NtRp91
(dp92
g13
F-13.328276995041303
sg14
I7
sg15
I01
sg16
I5
sg17
I30
sbs(I2
I3
tp93
g1
(g10
g3
NtRp94
(dp95
g13
F-8.2849815869997645
sg14
I2
sg15
I01
sg16
I3
sg17
I5
sbs(I1
I9
tp96
g1
(g10
g3
NtRp97
(dp98
g13
F-14.262309323973692
sg14
I1
sg15
I01
sg16
I9
sg17
I58
sbs(I4
I2
tp99
g1
(g10
g3
NtRp100
(dp101
g13
F-16.982097415271113
sg14
I4
sg15
I00
sg16
I2
sg17
I7
sbs(I3
I5
tp102
g1
(g10
g3
NtRp103
(dp104
g13
F15.055267540736221
sg14
I3
sg15
I01
sg16
I5
sg17
I14
sbs(I14
I5
tp105
g1
(g10
g3
NtRp106
(dp107
g13
F16.236478655398244
sg14
I14
sg15
I01
sg16
I5
sg17
I156
sbs(I8
I12
tp108
g1
(g10
g3
NtRp109
(dp110
g13
F-3.0807756392190893
sg14
I8
sg15
I01
sg16
I12
sg17
I88
sbs(I11
I3
tp111
g1
(g10
g3
NtRp112
(dp113
g13
F-3.2451817982837792
sg14
I11
sg15
I01
sg16
I3
sg17
I78
sbs(I3
I8
tp114
g1
(g10
g3
NtRp115
(dp116
g13
F-17.79021543166515
sg14
I3
sg15
I01
sg16
I8
sg17
I44
sbs(I4
I3
tp117
g1
(g10
g3
NtRp118
(dp119
g13
F-2.2123122316344319
sg14
I4
sg15
I00
sg16
I3
sg17
I10
sbs(I1
I7
tp120
g1
(g10
g3
NtRp121
(dp122
g13
F-9.9250791009459682
sg14
I1
sg15
I01
sg16
I7
sg17
I29
sbs(I5
I2
tp123
g1
(g10
g3
NtRp124
(dp125
g13
F-17.66607121406912
sg14
I5
sg15
I00
sg16
I2
sg17
I9
sbs(I10
I2
tp126
g1
(g10
g3
NtRp127
(dp128
g13
F-6.3074946684668092
sg14
I10
sg15
I01
sg16
I2
sg17
I65
sbssS'_input_nodes'
p129
I1
sS'_output_nodes'
p130
I1
sS'_node_gene_type'
p131
cneat.genome
NodeGene
p132
sS'_conn_gene_type'
p133
g10
sS'fitness'
p134
F0.91978846376814383
sS'parent2_id'
p135
I5031
sS'_id'
p136
I5047
sS'parent1_id'
p137
I5031
sS'_node_genes'
p138
(lp139
g1
(g132
g3
NtRp140
(dp141
S'_bias'
p142
I0
sS'_type'
p143
S'INPUT'
p144
sg136
I1
sS'_response'
p145
F4.9242730000000003
sS'_activation_type'
p146
Nsbag1
(g132
g3
NtRp147
(dp148
g142
F-5.212168982248369
sg143
S'OUTPUT'
p149
sg136
I2
sg145
F4.3629670598217727
sg146
S'tanh'
p150
sbag1
(g132
g3
NtRp151
(dp152
g142
F-1.2374221581473095
sg143
S'HIDDEN'
p153
sg136
I3
sg145
F2.1054500518611574
sg146
g150
sbag1
(g132
g3
NtRp154
(dp155
g142
F0.0058275549569100082
sg143
g153
sg136
I4
sg145
F8.8275857464828213
sg146
g150
sbag1
(g132
g3
NtRp156
(dp157
g142
F2.0756274157134862
sg143
g153
sg136
I5
sg145
F9.8402872015580449
sg146
g150
sbag1
(g132
g3
NtRp158
(dp159
g142
F2.9065881605451818
sg143
g153
sg136
I6
sg145
F6.58155230776367
sg146
g150
sbag1
(g132
g3
NtRp160
(dp161
g142
F-2.1735095904466211
sg143
g153
sg136
I7
sg145
F2.9022433876416858
sg146
g150
sbag1
(g132
g3
NtRp162
(dp163
g142
F1.2529578312656389
sg143
g153
sg136
I8
sg145
F8.3785918091905494
sg146
g150
sbag1
(g132
g3
NtRp164
(dp165
g142
F-2.2487014317787111
sg143
g153
sg136
I9
sg145
F5.7706040517273749
sg146
g150
sbag1
(g132
g3
NtRp166
(dp167
g142
F-1.0596267159820993
sg143
g153
sg136
I10
sg145
F5.0471639170186444
sg146
g150
sbag1
(g132
g3
NtRp168
(dp169
g142
F-2.653468953713586
sg143
g153
sg136
I11
sg145
F10.269977125165811
sg146
g150
sbag1
(g132
g3
NtRp170
(dp171
g142
F3.2216303348487476
sg143
g153
sg136
I12
sg145
F5.0424143254819054
sg146
g150
sbag1
(g132
g3
NtRp172
(dp173
g142
F0.61663902216130118
sg143
g153
sg136
I13
sg145
F7.1748297824187226
sg146
g150
sbag1
(g132
g3
NtRp174
(dp175
g142
F0.62490290973209328
sg143
g153
sg136
I14
sg145
F5.2659208749666844
sg146
g150
sbasb.