ccopy_reg
_reconstructor
p1
(cneat.chromosome
Chromosome
p2
c__builtin__
object
p3
NtRp4
(dp5
S'species_id'
p6
I19
sS'_connection_genes'
p7
(dp8
(I1
I3
tp9
g1
(cneat.genome
ConnectionGene
p10
g3
NtRp11
(dp12
S'_ConnectionGene__weight'
p13
F-7.3700926291262903
sS'_ConnectionGene__in'
p14
I1
sS'_ConnectionGene__enabled'
p15
I00
sS'_ConnectionGene__out'
p16
I3
sS'_ConnectionGene__innov_number'
p17
I3
sbs(I6
I6
tp18
g1
(g10
g3
NtRp19
(dp20
g13
F18.871706677909771
sg14
I6
sg15
I01
sg16
I6
sg17
I39
sbs(I6
I2
tp21
g1
(g10
g3
NtRp22
(dp23
g13
F9.1395948787982171
sg14
I6
sg15
I01
sg16
I2
sg17
I21
sbs(I5
I8
tp24
g1
(g10
g3
NtRp25
(dp26
g13
F6.4065227311786321
sg14
I5
sg15
I01
sg16
I8
sg17
I42
sbs(I1
I2
tp27
g1
(g10
g3
NtRp28
(dp29
g13
F-24.662371963055008
sg14
I1
sg15
I01
sg16
I2
sg17
I1
sbs(I3
I3
tp30
g1
(g10
g3
NtRp31
(dp32
g13
F-0.15341832712889492
sg14
I3
sg15
I01
sg16
I3
sg17
I15
sbs(I2
I9
tp33
g1
(g10
g3
NtRp34
(dp35
g13
F-4.7297638395668002
sg14
I2
sg15
I01
sg16
I9
sg17
I53
sbs(I3
I10
tp36
g1
(g10
g3
NtRp37
(dp38
g13
F5.5223691142584848
sg14
I3
sg15
I01
sg16
I10
sg17
I64
sbs(I4
I4
tp39
g1
(g10
g3
NtRp40
(dp41
g13
F-0.5116411531548648
sg14
I4
sg15
I01
sg16
I4
sg17
I16
sbs(I1
I5
tp42
g1
(g10
g3
NtRp43
(dp44
g13
F-8.1064370063964972
sg14
I1
sg15
I00
sg16
I5
sg17
I11
sbs(I2
I2
tp45
g1
(g10
g3
NtRp46
(dp47
g13
F15.63269553616726
sg14
I2
sg15
I00
sg16
I2
sg17
I2
sbs(I1
I10
tp48
g1
(g10
g3
NtRp49
(dp50
g13
F-1.3010085262401874
sg14
I1
sg15
I01
sg16
I10
sg17
I71
sbs(I3
I2
tp51
g1
(g10
g3
NtRp52
(dp53
g13
F-20.530796849882197
sg14
I3
sg15
I01
sg16
I2
sg17
I4
sbs(I2
I6
tp54
g1
(g10
g3
NtRp55
(dp56
g13
F6.1486050292945436
sg14
I2
sg15
I01
sg16
I6
sg17
I38
sbs(I8
I2
tp57
g1
(g10
g3
NtRp58
(dp59
g13
F3.0531281719301648
sg14
I8
sg15
I01
sg16
I2
sg17
I43
sbs(I9
I3
tp60
g1
(g10
g3
NtRp61
(dp62
g13
F13.175280405532302
sg14
I9
sg15
I01
sg16
I3
sg17
I60
sbs(I1
I4
tp63
g1
(g10
g3
NtRp64
(dp65
g13
F-8.7892323383223374
sg14
I1
sg15
I01
sg16
I4
sg17
I6
sbs(I7
I5
tp66
g1
(g10
g3
NtRp67
(dp68
g13
F18.707352150553916
sg14
I7
sg15
I01
sg16
I5
sg17
I30
sbs(I2
I3
tp69
g1
(g10
g3
NtRp70
(dp71
g13
F-12.897324671774211
sg14
I2
sg15
I01
sg16
I3
sg17
I5
sbs(I1
I9
tp72
g1
(g10
g3
NtRp73
(dp74
g13
F-4.8454797126789799
sg14
I1
sg15
I01
sg16
I9
sg17
I58
sbs(I4
I2
tp75
g1
(g10
g3
NtRp76
(dp77
g13
F-13.367399367231611
sg14
I4
sg15
I00
sg16
I2
sg17
I7
sbs(I3
I5
tp78
g1
(g10
g3
NtRp79
(dp80
g13
F-8.1087126142304093
sg14
I3
sg15
I01
sg16
I5
sg17
I14
sbs(I10
I5
tp81
g1
(g10
g3
NtRp82
(dp83
g13
F-5.9113072260012416
sg14
I10
sg15
I01
sg16
I5
sg17
I76
sbs(I4
I6
tp84
g1
(g10
g3
NtRp85
(dp86
g13
F30
sg14
I4
sg15
I01
sg16
I6
sg17
I22
sbs(I4
I3
tp87
g1
(g10
g3
NtRp88
(dp89
g13
F4.3878971491835976
sg14
I4
sg15
I01
sg16
I3
sg17
I10
sbs(I1
I7
tp90
g1
(g10
g3
NtRp91
(dp92
g13
F3.5477378926999399
sg14
I1
sg15
I01
sg16
I7
sg17
I29
sbs(I5
I2
tp93
g1
(g10
g3
NtRp94
(dp95
g13
F-29.631482170653289
sg14
I5
sg15
I01
sg16
I2
sg17
I9
sbssS'_input_nodes'
p96
I1
sS'_output_nodes'
p97
I1
sS'_node_gene_type'
p98
cneat.genome
NodeGene
p99
sS'_conn_gene_type'
p100
g10
sS'fitness'
p101
F0.99087019769946172
sS'parent2_id'
p102
I3135
sS'_id'
p103
I3158
sS'parent1_id'
p104
I3135
sS'_node_genes'
p105
(lp106
g1
(g99
g3
NtRp107
(dp108
S'_bias'
p109
I0
sS'_type'
p110
S'INPUT'
p111
sg103
I1
sS'_response'
p112
F4.9242730000000003
sS'_activation_type'
p113
Nsbag1
(g99
g3
NtRp114
(dp115
g109
F-2.1195767257409628
sg110
S'OUTPUT'
p116
sg103
I2
sg112
F4.5963343624341615
sg113
S'tanh'
p117
sbag1
(g99
g3
NtRp118
(dp119
g109
F-0.026444657148655626
sg110
S'HIDDEN'
p120
sg103
I3
sg112
F3.7502273722688257
sg113
g117
sbag1
(g99
g3
NtRp121
(dp122
g109
F-0.26553348121871728
sg110
g120
sg103
I4
sg112
F4.8742690389184489
sg113
g117
sbag1
(g99
g3
NtRp123
(dp124
g109
F4.8098000674413566
sg110
g120
sg103
I5
sg112
F9.1267450016952623
sg113
g117
sbag1
(g99
g3
NtRp125
(dp126
g109
F2.331274456862789
sg110
g120
sg103
I6
sg112
F9.9179625342055182
sg113
g117
sbag1
(g99
g3
NtRp127
(dp128
g109
F-3.9768435806991977
sg110
g120
sg103
I7
sg112
F4.1936740878938608
sg113
g117
sbag1
(g99
g3
NtRp129
(dp130
g109
F2.3619240465294906
sg110
g120
sg103
I8
sg112
F5.2659562832995199
sg113
g117
sbag1
(g99
g3
NtRp131
(dp132
g109
F-1.1988842427760609
sg110
g120
sg103
I9
sg112
F5.1251149662897255
sg113
g117
sbag1
(g99
g3
NtRp133
(dp134
g109
F-0.09446726375606182
sg110
g120
sg103
I10
sg112
F4.5389661426028791
sg113
g117
sbasb.