ccopy_reg
_reconstructor
p1
(cneat.chromosome
Chromosome
p2
c__builtin__
object
p3
NtRp4
(dp5
S'species_id'
p6
I31
sS'_connection_genes'
p7
(dp8
(I1
I3
tp9
g1
(cneat.genome
ConnectionGene
p10
g3
NtRp11
(dp12
S'_ConnectionGene__weight'
p13
F-8.9191853176808458
sS'_ConnectionGene__in'
p14
I1
sS'_ConnectionGene__enabled'
p15
I01
sS'_ConnectionGene__out'
p16
I3
sS'_ConnectionGene__innov_number'
p17
I3
sbs(I6
I6
tp18
g1
(g10
g3
NtRp19
(dp20
g13
F21.315663589950759
sg14
I6
sg15
I01
sg16
I6
sg17
I39
sbs(I11
I2
tp21
g1
(g10
g3
NtRp22
(dp23
g13
F-1.1819221497297645
sg14
I11
sg15
I01
sg16
I2
sg17
I80
sbs(I1
I15
tp24
g1
(g10
g3
NtRp25
(dp26
g13
F-2.8520506514969584
sg14
I1
sg15
I01
sg16
I15
sg17
I146
sbs(I6
I2
tp27
g1
(g10
g3
NtRp28
(dp29
g13
F27.676848554591199
sg14
I6
sg15
I01
sg16
I2
sg17
I21
sbs(I16
I14
tp30
g1
(g10
g3
NtRp31
(dp32
g13
F-11.610782133312968
sg14
I16
sg15
I01
sg16
I14
sg17
I193
sbs(I5
I8
tp33
g1
(g10
g3
NtRp34
(dp35
g13
F7.9492236773998268
sg14
I5
sg15
I01
sg16
I8
sg17
I42
sbs(I1
I2
tp36
g1
(g10
g3
NtRp37
(dp38
g13
F-23.355656622301307
sg14
I1
sg15
I01
sg16
I2
sg17
I1
sbs(I12
I2
tp39
g1
(g10
g3
NtRp40
(dp41
g13
F8.074072216172576
sg14
I12
sg15
I01
sg16
I2
sg17
I82
sbs(I3
I3
tp42
g1
(g10
g3
NtRp43
(dp44
g13
F-6.2358592657496557
sg14
I3
sg15
I01
sg16
I3
sg17
I15
sbs(I2
I9
tp45
g1
(g10
g3
NtRp46
(dp47
g13
F17.587397974760123
sg14
I2
sg15
I01
sg16
I9
sg17
I53
sbs(I13
I3
tp48
g1
(g10
g3
NtRp49
(dp50
g13
F7.2253318142410885
sg14
I13
sg15
I01
sg16
I3
sg17
I92
sbs(I8
I10
tp51
g1
(g10
g3
NtRp52
(dp53
g13
F30
sg14
I8
sg15
I01
sg16
I10
sg17
I74
sbs(I4
I13
tp54
g1
(g10
g3
NtRp55
(dp56
g13
F-8.6122967015967813
sg14
I4
sg15
I01
sg16
I13
sg17
I102
sbs(I1
I5
tp57
g1
(g10
g3
NtRp58
(dp59
g13
F-17.722267546217623
sg14
I1
sg15
I00
sg16
I5
sg17
I11
sbs(I2
I2
tp60
g1
(g10
g3
NtRp61
(dp62
g13
F6.9761806053728881
sg14
I2
sg15
I01
sg16
I2
sg17
I2
sbs(I8
I16
tp63
g1
(g10
g3
NtRp64
(dp65
g13
F1.2270338375925964
sg14
I8
sg15
I01
sg16
I16
sg17
I177
sbs(I3
I2
tp66
g1
(g10
g3
NtRp67
(dp68
g13
F-26.602768128603898
sg14
I3
sg15
I01
sg16
I2
sg17
I4
sbs(I2
I6
tp69
g1
(g10
g3
NtRp70
(dp71
g13
F5.4489588993027924
sg14
I2
sg15
I01
sg16
I6
sg17
I38
sbs(I8
I2
tp72
g1
(g10
g3
NtRp73
(dp74
g13
F-20.282641192753957
sg14
I8
sg15
I01
sg16
I2
sg17
I43
sbs(I5
I11
tp75
g1
(g10
g3
NtRp76
(dp77
g13
F-0.11501868361566681
sg14
I5
sg15
I01
sg16
I11
sg17
I79
sbs(I15
I3
tp78
g1
(g10
g3
NtRp79
(dp80
g13
F-1.0931375180150207
sg14
I15
sg15
I01
sg16
I3
sg17
I147
sbs(I9
I3
tp81
g1
(g10
g3
NtRp82
(dp83
g13
F-13.875643669153588
sg14
I9
sg15
I01
sg16
I3
sg17
I60
sbs(I1
I4
tp84
g1
(g10
g3
NtRp85
(dp86
g13
F-26.490381746981601
sg14
I1
sg15
I01
sg16
I4
sg17
I6
sbs(I9
I10
tp87
g1
(g10
g3
NtRp88
(dp89
g13
F-22.533935148241767
sg14
I9
sg15
I01
sg16
I10
sg17
I90
sbs(I7
I5
tp90
g1
(g10
g3
NtRp91
(dp92
g13
F-10.507295392538548
sg14
I7
sg15
I01
sg16
I5
sg17
I30
sbs(I2
I3
tp93
g1
(g10
g3
NtRp94
(dp95
g13
F2.7457045157578794
sg14
I2
sg15
I01
sg16
I3
sg17
I5
sbs(I1
I9
tp96
g1
(g10
g3
NtRp97
(dp98
g13
F4.7531598856869586
sg14
I1
sg15
I01
sg16
I9
sg17
I58
sbs(I4
I2
tp99
g1
(g10
g3
NtRp100
(dp101
g13
F-12.320369265998636
sg14
I4
sg15
I01
sg16
I2
sg17
I7
sbs(I14
I2
tp102
g1
(g10
g3
NtRp103
(dp104
g13
F-10.51585638240592
sg14
I14
sg15
I01
sg16
I2
sg17
I138
sbs(I3
I5
tp105
g1
(g10
g3
NtRp106
(dp107
g13
F1.9495922149364722
sg14
I3
sg15
I01
sg16
I5
sg17
I14
sbs(I10
I5
tp108
g1
(g10
g3
NtRp109
(dp110
g13
F-3.2979601473619855
sg14
I10
sg15
I01
sg16
I5
sg17
I76
sbs(I4
I6
tp111
g1
(g10
g3
NtRp112
(dp113
g13
F-10.461391082498491
sg14
I4
sg15
I01
sg16
I6
sg17
I22
sbs(I15
I2
tp114
g1
(g10
g3
NtRp115
(dp116
g13
F8.9224912149060156
sg14
I15
sg15
I00
sg16
I2
sg17
I170
sbs(I8
I12
tp117
g1
(g10
g3
NtRp118
(dp119
g13
F3.008313592576537
sg14
I8
sg15
I01
sg16
I12
sg17
I88
sbs(I11
I3
tp120
g1
(g10
g3
NtRp121
(dp122
g13
F-17.593888558604903
sg14
I11
sg15
I01
sg16
I3
sg17
I78
sbs(I3
I8
tp123
g1
(g10
g3
NtRp124
(dp125
g13
F18.020863876912003
sg14
I3
sg15
I01
sg16
I8
sg17
I44
sbs(I8
I14
tp126
g1
(g10
g3
NtRp127
(dp128
g13
F-1.502776567479978
sg14
I8
sg15
I00
sg16
I14
sg17
I119
sbs(I4
I3
tp129
g1
(g10
g3
NtRp130
(dp131
g13
F9.7855052048873148
sg14
I4
sg15
I00
sg16
I3
sg17
I10
sbs(I1
I7
tp132
g1
(g10
g3
NtRp133
(dp134
g13
F8.4561267117649912
sg14
I1
sg15
I01
sg16
I7
sg17
I29
sbs(I5
I2
tp135
g1
(g10
g3
NtRp136
(dp137
g13
F3.9722420356306443
sg14
I5
sg15
I01
sg16
I2
sg17
I9
sbs(I10
I2
tp138
g1
(g10
g3
NtRp139
(dp140
g13
F-11.839042733595063
sg14
I10
sg15
I01
sg16
I2
sg17
I65
sbssS'_input_nodes'
p141
I1
sS'_output_nodes'
p142
I1
sS'_node_gene_type'
p143
cneat.genome
NodeGene
p144
sS'_conn_gene_type'
p145
g10
sS'fitness'
p146
F0.96693781303693027
sS'parent2_id'
p147
I5381
sS'_id'
p148
I5391
sS'parent1_id'
p149
I5384
sS'_node_genes'
p150
(lp151
g1
(g144
g3
NtRp152
(dp153
S'_bias'
p154
I0
sS'_type'
p155
S'INPUT'
p156
sg148
I1
sS'_response'
p157
F4.9242730000000003
sS'_activation_type'
p158
Nsbag1
(g144
g3
NtRp159
(dp160
g154
F-6.4171819358478057
sg155
S'OUTPUT'
p161
sg148
I2
sg157
F4.1197671131450493
sg158
S'tanh'
p162
sbag1
(g144
g3
NtRp163
(dp164
g154
F1.2347156812496953
sg155
S'HIDDEN'
p165
sg148
I3
sg157
F6.2565945735906165
sg158
g162
sbag1
(g144
g3
NtRp166
(dp167
g154
F-4.6216833789640006
sg155
g165
sg148
I4
sg157
F8.1442236453453756
sg158
g162
sbag1
(g144
g3
NtRp168
(dp169
g154
F4.0670210395862485
sg155
g165
sg148
I5
sg157
F12.035013873548282
sg158
g162
sbag1
(g144
g3
NtRp170
(dp171
g154
F0.068208138413863167
sg155
g165
sg148
I6
sg157
F5.628244711980444
sg158
g162
sbag1
(g144
g3
NtRp172
(dp173
g154
F-2.3079043681857514
sg155
g165
sg148
I7
sg157
F0.62111290189918478
sg158
g162
sbag1
(g144
g3
NtRp174
(dp175
g154
F-1.4856341540870388
sg155
g165
sg148
I8
sg157
F11.76146709519236
sg158
g162
sbag1
(g144
g3
NtRp176
(dp177
g154
F-2.4558436756177122
sg155
g165
sg148
I9
sg157
F9.0824056179929507
sg158
g162
sbag1
(g144
g3
NtRp178
(dp179
g154
F0.0072673235991820295
sg155
g165
sg148
I10
sg157
F7.4174091491952501
sg158
g162
sbag1
(g144
g3
NtRp180
(dp181
g154
F0.3132882943371631
sg155
g165
sg148
I11
sg157
F8.7956577176504389
sg158
g162
sbag1
(g144
g3
NtRp182
(dp183
g154
F1.0056470527902017
sg155
g165
sg148
I12
sg157
F4.3194287421376911
sg158
g162
sbag1
(g144
g3
NtRp184
(dp185
g154
F-1.2667423807571967
sg155
g165
sg148
I13
sg157
F4.3597373606583885
sg158
g162
sbag1
(g144
g3
NtRp186
(dp187
g154
F2.3960344711448438
sg155
g165
sg148
I14
sg157
F3.7699499365767166
sg158
g162
sbag1
(g144
g3
NtRp188
(dp189
g154
F-1.9397224208689903
sg155
g165
sg148
I15
sg157
F4.9305854254647672
sg158
g162
sbag1
(g144
g3
NtRp190
(dp191
g154
I0
sg155
g165
sg148
I16
sg157
F4.9242730000000003
sg158
g162
sbasb.