ccopy_reg
_reconstructor
p1
(cneat.chromosome
Chromosome
p2
c__builtin__
object
p3
NtRp4
(dp5
S'species_id'
p6
I26
sS'_connection_genes'
p7
(dp8
(I2
I7
tp9
g1
(cneat.genome
ConnectionGene
p10
g3
NtRp11
(dp12
S'_ConnectionGene__weight'
p13
F12.042960776342035
sS'_ConnectionGene__in'
p14
I2
sS'_ConnectionGene__enabled'
p15
I00
sS'_ConnectionGene__out'
p16
I7
sS'_ConnectionGene__innov_number'
p17
I7
sbs(I5
I9
tp18
g1
(g10
g3
NtRp19
(dp20
g13
F-2.725022557480647
sg14
I5
sg15
I01
sg16
I9
sg17
I31
sbs(I4
I7
tp21
g1
(g10
g3
NtRp22
(dp23
g13
F-22.032330925737522
sg14
I4
sg15
I01
sg16
I7
sg17
I9
sbs(I2
I6
tp24
g1
(g10
g3
NtRp25
(dp26
g13
F-16.893463944111964
sg14
I2
sg15
I00
sg16
I6
sg17
I2
sbs(I4
I6
tp27
g1
(g10
g3
NtRp28
(dp29
g13
F7.4175596544354629
sg14
I4
sg15
I01
sg16
I6
sg17
I4
sbs(I2
I9
tp30
g1
(g10
g3
NtRp31
(dp32
g13
F5.8999879589214403
sg14
I2
sg15
I01
sg16
I9
sg17
I20
sbs(I6
I6
tp33
g1
(g10
g3
NtRp34
(dp35
g13
F17.08445630335531
sg14
I6
sg15
I00
sg16
I6
sg17
I15
sbs(I5
I6
tp36
g1
(g10
g3
NtRp37
(dp38
g13
F0.65165558422161141
sg14
I5
sg15
I01
sg16
I6
sg17
I5
sbs(I2
I8
tp39
g1
(g10
g3
NtRp40
(dp41
g13
F5.2244431005271892
sg14
I2
sg15
I01
sg16
I8
sg17
I13
sbs(I5
I7
tp42
g1
(g10
g3
NtRp43
(dp44
g13
F-0.15212599631696633
sg14
I5
sg15
I01
sg16
I7
sg17
I10
sbs(I10
I6
tp45
g1
(g10
g3
NtRp46
(dp47
g13
F19.577007047312847
sg14
I10
sg15
I01
sg16
I6
sg17
I34
sbs(I8
I9
tp48
g1
(g10
g3
NtRp49
(dp50
g13
F3.0886133377083125
sg14
I8
sg15
I01
sg16
I9
sg17
I32
sbs(I6
I10
tp51
g1
(g10
g3
NtRp52
(dp53
g13
F-0.93035742026736634
sg14
I6
sg15
I01
sg16
I10
sg17
I47
sbs(I1
I6
tp54
g1
(g10
g3
NtRp55
(dp56
g13
F-22.941580257037874
sg14
I1
sg15
I01
sg16
I6
sg17
I1
sbs(I3
I6
tp57
g1
(g10
g3
NtRp58
(dp59
g13
F-7.170300768938862
sg14
I3
sg15
I01
sg16
I6
sg17
I3
sbs(I1
I7
tp60
g1
(g10
g3
NtRp61
(dp62
g13
F-11.578540085606637
sg14
I1
sg15
I01
sg16
I7
sg17
I6
sbs(I8
I6
tp63
g1
(g10
g3
NtRp64
(dp65
g13
F-11.543385924172913
sg14
I8
sg15
I01
sg16
I6
sg17
I14
sbs(I3
I7
tp66
g1
(g10
g3
NtRp67
(dp68
g13
F12.528599574392587
sg14
I3
sg15
I01
sg16
I7
sg17
I8
sbs(I9
I7
tp69
g1
(g10
g3
NtRp70
(dp71
g13
F10.012143106670466
sg14
I9
sg15
I01
sg16
I7
sg17
I29
sbssS'_input_nodes'
p72
I5
sS'_output_nodes'
p73
I2
sS'_node_gene_type'
p74
cneat.genome
NodeGene
p75
sS'_conn_gene_type'
p76
g10
sS'fitness'
p77
F8.0713934822148201e-20
sS'parent2_id'
p78
I2964
sS'_id'
p79
I3008
sS'parent1_id'
p80
I2964
sS'_node_genes'
p81
(lp82
g1
(g75
g3
NtRp83
(dp84
S'_bias'
p85
I0
sS'_type'
p86
S'INPUT'
p87
sg79
I1
sS'_response'
p88
F4.9242730000000003
sS'_activation_type'
p89
Nsbag1
(g75
g3
NtRp90
(dp91
g85
I0
sg86
g87
sg79
I2
sg88
F4.9242730000000003
sg89
Nsbag1
(g75
g3
NtRp92
(dp93
g85
I0
sg86
g87
sg79
I3
sg88
F4.9242730000000003
sg89
Nsbag1
(g75
g3
NtRp94
(dp95
g85
I0
sg86
g87
sg79
I4
sg88
F4.9242730000000003
sg89
Nsbag1
(g75
g3
NtRp96
(dp97
g85
I0
sg86
g87
sg79
I5
sg88
F4.9242730000000003
sg89
Nsbag1
(g75
g3
NtRp98
(dp99
g85
F2.3707570206308288
sg86
S'OUTPUT'
p100
sg79
I6
sg88
F6.8673554862812658
sg89
S'exp'
p101
sbag1
(g75
g3
NtRp102
(dp103
g85
F-2.0684503937222152
sg86
g100
sg79
I7
sg88
F3.9745857184596654
sg89
g101
sbag1
(g75
g3
NtRp104
(dp105
g85
F-2.1712472746855003
sg86
S'HIDDEN'
p106
sg79
I8
sg88
F6.2312362722219419
sg89
g101
sbag1
(g75
g3
NtRp107
(dp108
g85
I0
sg86
g106
sg79
I9
sg88
F4.9242730000000003
sg89
g101
sbag1
(g75
g3
NtRp109
(dp110
g85
I0
sg86
g106
sg79
I10
sg88
F4.9242730000000003
sg89
g101
sbasb.