ccopy_reg
_reconstructor
p1
(cneat.chromosome
Chromosome
p2
c__builtin__
object
p3
NtRp4
(dp5
S'species_id'
p6
I34
sS'_connection_genes'
p7
(dp8
(I5
I9
tp9
g1
(cneat.genome
ConnectionGene
p10
g3
NtRp11
(dp12
S'_ConnectionGene__weight'
p13
F5.9481434357956013
sS'_ConnectionGene__in'
p14
I5
sS'_ConnectionGene__enabled'
p15
I01
sS'_ConnectionGene__out'
p16
I9
sS'_ConnectionGene__innov_number'
p17
I31
sbs(I4
I7
tp18
g1
(g10
g3
NtRp19
(dp20
g13
F-24.595580996209442
sg14
I4
sg15
I00
sg16
I7
sg17
I9
sbs(I6
I6
tp21
g1
(g10
g3
NtRp22
(dp23
g13
F14.098548769599116
sg14
I6
sg15
I00
sg16
I6
sg17
I15
sbs(I5
I6
tp24
g1
(g10
g3
NtRp25
(dp26
g13
F-3.313251216375416
sg14
I5
sg15
I01
sg16
I6
sg17
I5
sbs(I2
I8
tp27
g1
(g10
g3
NtRp28
(dp29
g13
F7.0966118590223299
sg14
I2
sg15
I01
sg16
I8
sg17
I13
sbs(I6
I9
tp30
g1
(g10
g3
NtRp31
(dp32
g13
F0.96615661668999142
sg14
I6
sg15
I01
sg16
I9
sg17
I36
sbs(I8
I9
tp33
g1
(g10
g3
NtRp34
(dp35
g13
F1.4504397112185818
sg14
I8
sg15
I01
sg16
I9
sg17
I32
sbs(I4
I12
tp36
g1
(g10
g3
NtRp37
(dp38
g13
F1
sg14
I4
sg15
I01
sg16
I12
sg17
I74
sbs(I1
I6
tp39
g1
(g10
g3
NtRp40
(dp41
g13
F-22.785410052768594
sg14
I1
sg15
I01
sg16
I6
sg17
I1
sbs(I3
I7
tp42
g1
(g10
g3
NtRp43
(dp44
g13
F-3.4453182781659106
sg14
I3
sg15
I01
sg16
I7
sg17
I8
sbs(I5
I8
tp45
g1
(g10
g3
NtRp46
(dp47
g13
F6.123535898403782
sg14
I5
sg15
I01
sg16
I8
sg17
I27
sbs(I6
I7
tp48
g1
(g10
g3
NtRp49
(dp50
g13
F8.3520241785046565
sg14
I6
sg15
I01
sg16
I7
sg17
I19
sbs(I10
I7
tp51
g1
(g10
g3
NtRp52
(dp53
g13
F0.93373057398402715
sg14
I10
sg15
I01
sg16
I7
sg17
I38
sbs(I3
I6
tp54
g1
(g10
g3
NtRp55
(dp56
g13
F7.3717081381713081
sg14
I3
sg15
I01
sg16
I6
sg17
I3
sbs(I8
I6
tp57
g1
(g10
g3
NtRp58
(dp59
g13
F0.32433084735459472
sg14
I8
sg15
I01
sg16
I6
sg17
I14
sbs(I2
I6
tp60
g1
(g10
g3
NtRp61
(dp62
g13
F-14.991683560316284
sg14
I2
sg15
I00
sg16
I6
sg17
I2
sbs(I6
I11
tp63
g1
(g10
g3
NtRp64
(dp65
g13
F4.4648783565290318
sg14
I6
sg15
I01
sg16
I11
sg17
I67
sbs(I12
I7
tp66
g1
(g10
g3
NtRp67
(dp68
g13
F-24.595580996209442
sg14
I12
sg15
I01
sg16
I7
sg17
I54
sbs(I11
I9
tp69
g1
(g10
g3
NtRp70
(dp71
g13
F-0.98196623705540786
sg14
I11
sg15
I01
sg16
I9
sg17
I59
sbs(I9
I6
tp72
g1
(g10
g3
NtRp73
(dp74
g13
F19.636158373817391
sg14
I9
sg15
I01
sg16
I6
sg17
I26
sbs(I2
I7
tp75
g1
(g10
g3
NtRp76
(dp77
g13
F7.9116529064578813
sg14
I2
sg15
I00
sg16
I7
sg17
I7
sbs(I5
I10
tp78
g1
(g10
g3
NtRp79
(dp80
g13
F-0.92398421799045094
sg14
I5
sg15
I01
sg16
I10
sg17
I44
sbs(I4
I6
tp81
g1
(g10
g3
NtRp82
(dp83
g13
F11.856197844047141
sg14
I4
sg15
I01
sg16
I6
sg17
I4
sbs(I5
I7
tp84
g1
(g10
g3
NtRp85
(dp86
g13
F2.4007933573634399
sg14
I5
sg15
I00
sg16
I7
sg17
I10
sbs(I3
I8
tp87
g1
(g10
g3
NtRp88
(dp89
g13
F-6.2609604147699702
sg14
I3
sg15
I01
sg16
I8
sg17
I16
sbs(I1
I7
tp90
g1
(g10
g3
NtRp91
(dp92
g13
F-0.52379459069249379
sg14
I1
sg15
I01
sg16
I7
sg17
I6
sbssS'_input_nodes'
p93
I5
sS'_output_nodes'
p94
I2
sS'_node_gene_type'
p95
cneat.genome
NodeGene
p96
sS'_conn_gene_type'
p97
g10
sS'fitness'
p98
F7.4755036206298271e-20
sS'parent2_id'
p99
I4535
sS'_id'
p100
I4582
sS'parent1_id'
p101
I4535
sS'_node_genes'
p102
(lp103
g1
(g96
g3
NtRp104
(dp105
S'_bias'
p106
I0
sS'_type'
p107
S'INPUT'
p108
sg100
I1
sS'_response'
p109
F4.9242730000000003
sS'_activation_type'
p110
Nsbag1
(g96
g3
NtRp111
(dp112
g106
I0
sg107
g108
sg100
I2
sg109
F4.9242730000000003
sg110
Nsbag1
(g96
g3
NtRp113
(dp114
g106
I0
sg107
g108
sg100
I3
sg109
F4.9242730000000003
sg110
Nsbag1
(g96
g3
NtRp115
(dp116
g106
I0
sg107
g108
sg100
I4
sg109
F4.9242730000000003
sg110
Nsbag1
(g96
g3
NtRp117
(dp118
g106
I0
sg107
g108
sg100
I5
sg109
F4.9242730000000003
sg110
Nsbag1
(g96
g3
NtRp119
(dp120
g106
F2.7298767075863513
sg107
S'OUTPUT'
p121
sg100
I6
sg109
F6.4368507004093214
sg110
S'exp'
p122
sbag1
(g96
g3
NtRp123
(dp124
g106
F-0.39046591622322346
sg107
g121
sg100
I7
sg109
F5.2714357241490157
sg110
g122
sbag1
(g96
g3
NtRp125
(dp126
g106
F-4.0736976668399771
sg107
S'HIDDEN'
p127
sg100
I8
sg109
F7.2058066692874201
sg110
g122
sbag1
(g96
g3
NtRp128
(dp129
g106
F-0.4137403008800522
sg107
g127
sg100
I9
sg109
F6.2040932967146274
sg110
g122
sbag1
(g96
g3
NtRp130
(dp131
g106
I0
sg107
g127
sg100
I10
sg109
F4.6627445081379157
sg110
g122
sbag1
(g96
g3
NtRp132
(dp133
g106
F0.6078431912480502
sg107
g127
sg100
I11
sg109
F4.9242730000000003
sg110
g122
sbag1
(g96
g3
NtRp134
(dp135
g106
I0
sg107
g127
sg100
I12
sg109
F4.9242730000000003
sg110
g122
sbasb.