ccopy_reg
_reconstructor
p1
(cneat.chromosome
Chromosome
p2
c__builtin__
object
p3
NtRp4
(dp5
S'species_id'
p6
I23
sS'_connection_genes'
p7
(dp8
(I2
I7
tp9
g1
(cneat.genome
ConnectionGene
p10
g3
NtRp11
(dp12
S'_ConnectionGene__weight'
p13
F6.5560911047388757
sS'_ConnectionGene__in'
p14
I2
sS'_ConnectionGene__enabled'
p15
I00
sS'_ConnectionGene__out'
p16
I7
sS'_ConnectionGene__innov_number'
p17
I7
sbs(I4
I7
tp18
g1
(g10
g3
NtRp19
(dp20
g13
F-21.585883692984368
sg14
I4
sg15
I01
sg16
I7
sg17
I9
sbs(I2
I6
tp21
g1
(g10
g3
NtRp22
(dp23
g13
F-15.504788136459984
sg14
I2
sg15
I00
sg16
I6
sg17
I2
sbs(I3
I7
tp24
g1
(g10
g3
NtRp25
(dp26
g13
F13.605188777972726
sg14
I3
sg15
I01
sg16
I7
sg17
I8
sbs(I4
I6
tp27
g1
(g10
g3
NtRp28
(dp29
g13
F3.4801436981132876
sg14
I4
sg15
I01
sg16
I6
sg17
I4
sbs(I2
I9
tp30
g1
(g10
g3
NtRp31
(dp32
g13
F0.74624009206097086
sg14
I2
sg15
I01
sg16
I9
sg17
I20
sbs(I6
I6
tp33
g1
(g10
g3
NtRp34
(dp35
g13
F18.041476963532244
sg14
I6
sg15
I01
sg16
I6
sg17
I15
sbs(I5
I6
tp36
g1
(g10
g3
NtRp37
(dp38
g13
F0.70269922428433995
sg14
I5
sg15
I01
sg16
I6
sg17
I5
sbs(I2
I8
tp39
g1
(g10
g3
NtRp40
(dp41
g13
F5.9126601523622657
sg14
I2
sg15
I01
sg16
I8
sg17
I13
sbs(I5
I7
tp42
g1
(g10
g3
NtRp43
(dp44
g13
F0.33270979557026159
sg14
I5
sg15
I01
sg16
I7
sg17
I10
sbs(I8
I9
tp45
g1
(g10
g3
NtRp46
(dp47
g13
F-5.962059358965246
sg14
I8
sg15
I01
sg16
I9
sg17
I32
sbs(I1
I6
tp48
g1
(g10
g3
NtRp49
(dp50
g13
F-23.204727319290676
sg14
I1
sg15
I01
sg16
I6
sg17
I1
sbs(I3
I6
tp51
g1
(g10
g3
NtRp52
(dp53
g13
F-5.9981093489120738
sg14
I3
sg15
I01
sg16
I6
sg17
I3
sbs(I1
I7
tp54
g1
(g10
g3
NtRp55
(dp56
g13
F-4.8214000232979295
sg14
I1
sg15
I01
sg16
I7
sg17
I6
sbs(I8
I6
tp57
g1
(g10
g3
NtRp58
(dp59
g13
F-6.1253930879136602
sg14
I8
sg15
I01
sg16
I6
sg17
I14
sbs(I9
I7
tp60
g1
(g10
g3
NtRp61
(dp62
g13
F10.385604379307498
sg14
I9
sg15
I01
sg16
I7
sg17
I29
sbssS'_input_nodes'
p63
I5
sS'_output_nodes'
p64
I2
sS'_node_gene_type'
p65
cneat.genome
NodeGene
p66
sS'_conn_gene_type'
p67
g10
sS'fitness'
p68
F8.0937345279153174e-20
sS'parent2_id'
p69
I2613
sS'_id'
p70
I2657
sS'parent1_id'
p71
I2613
sS'_node_genes'
p72
(lp73
g1
(g66
g3
NtRp74
(dp75
S'_bias'
p76
I0
sS'_type'
p77
S'INPUT'
p78
sg70
I1
sS'_response'
p79
F4.9242730000000003
sS'_activation_type'
p80
Nsbag1
(g66
g3
NtRp81
(dp82
g76
I0
sg77
g78
sg70
I2
sg79
F4.9242730000000003
sg80
Nsbag1
(g66
g3
NtRp83
(dp84
g76
I0
sg77
g78
sg70
I3
sg79
F4.9242730000000003
sg80
Nsbag1
(g66
g3
NtRp85
(dp86
g76
I0
sg77
g78
sg70
I4
sg79
F4.9242730000000003
sg80
Nsbag1
(g66
g3
NtRp87
(dp88
g76
I0
sg77
g78
sg70
I5
sg79
F4.9242730000000003
sg80
Nsbag1
(g66
g3
NtRp89
(dp90
g76
F2.9283730628501292
sg77
S'OUTPUT'
p91
sg70
I6
sg79
F6.4615106650526553
sg80
S'exp'
p92
sbag1
(g66
g3
NtRp93
(dp94
g76
F-1.7442982867101267
sg77
g91
sg70
I7
sg79
F3.9745857184596654
sg80
g92
sbag1
(g66
g3
NtRp95
(dp96
g76
F-2.0322867367586253
sg77
S'HIDDEN'
p97
sg70
I8
sg79
F6.8336674068387104
sg80
g92
sbag1
(g66
g3
NtRp98
(dp99
g76
I0
sg77
g97
sg70
I9
sg79
F4.9242730000000003
sg80
g92
sbasb.