ccopy_reg
_reconstructor
p1
(cneat.chromosome
Chromosome
p2
c__builtin__
object
p3
NtRp4
(dp5
S'species_id'
p6
I26
sS'_connection_genes'
p7
(dp8
(I2
I7
tp9
g1
(cneat.genome
ConnectionGene
p10
g3
NtRp11
(dp12
S'_ConnectionGene__weight'
p13
F7.0459056573088077
sS'_ConnectionGene__in'
p14
I2
sS'_ConnectionGene__enabled'
p15
I00
sS'_ConnectionGene__out'
p16
I7
sS'_ConnectionGene__innov_number'
p17
I7
sbs(I5
I9
tp18
g1
(g10
g3
NtRp19
(dp20
g13
F-2.6528056242520135
sg14
I5
sg15
I01
sg16
I9
sg17
I31
sbs(I4
I7
tp21
g1
(g10
g3
NtRp22
(dp23
g13
F-24.263306675833672
sg14
I4
sg15
I01
sg16
I7
sg17
I9
sbs(I2
I6
tp24
g1
(g10
g3
NtRp25
(dp26
g13
F-20.98010765965309
sg14
I2
sg15
I00
sg16
I6
sg17
I2
sbs(I4
I6
tp27
g1
(g10
g3
NtRp28
(dp29
g13
F4.7945952408387269
sg14
I4
sg15
I01
sg16
I6
sg17
I4
sbs(I2
I9
tp30
g1
(g10
g3
NtRp31
(dp32
g13
F-1.3567833307927653
sg14
I2
sg15
I01
sg16
I9
sg17
I20
sbs(I6
I6
tp33
g1
(g10
g3
NtRp34
(dp35
g13
F19.382466629987295
sg14
I6
sg15
I00
sg16
I6
sg17
I15
sbs(I5
I6
tp36
g1
(g10
g3
NtRp37
(dp38
g13
F-1.8427517581261277
sg14
I5
sg15
I01
sg16
I6
sg17
I5
sbs(I2
I8
tp39
g1
(g10
g3
NtRp40
(dp41
g13
F0.010930530791344317
sg14
I2
sg15
I01
sg16
I8
sg17
I13
sbs(I5
I7
tp42
g1
(g10
g3
NtRp43
(dp44
g13
F9.0391011430047215
sg14
I5
sg15
I01
sg16
I7
sg17
I10
sbs(I10
I6
tp45
g1
(g10
g3
NtRp46
(dp47
g13
F24.148446016326812
sg14
I10
sg15
I01
sg16
I6
sg17
I34
sbs(I8
I9
tp48
g1
(g10
g3
NtRp49
(dp50
g13
F-0.06062928391778355
sg14
I8
sg15
I01
sg16
I9
sg17
I32
sbs(I6
I10
tp51
g1
(g10
g3
NtRp52
(dp53
g13
F-2.6154579708487788
sg14
I6
sg15
I01
sg16
I10
sg17
I47
sbs(I1
I6
tp54
g1
(g10
g3
NtRp55
(dp56
g13
F-24.645506711016854
sg14
I1
sg15
I01
sg16
I6
sg17
I1
sbs(I3
I6
tp57
g1
(g10
g3
NtRp58
(dp59
g13
F-5.3943351752922961
sg14
I3
sg15
I01
sg16
I6
sg17
I3
sbs(I1
I7
tp60
g1
(g10
g3
NtRp61
(dp62
g13
F-11.54184373211927
sg14
I1
sg15
I01
sg16
I7
sg17
I6
sbs(I8
I6
tp63
g1
(g10
g3
NtRp64
(dp65
g13
F-10.964552615601258
sg14
I8
sg15
I01
sg16
I6
sg17
I14
sbs(I3
I7
tp66
g1
(g10
g3
NtRp67
(dp68
g13
F12.91736591379601
sg14
I3
sg15
I01
sg16
I7
sg17
I8
sbs(I9
I7
tp69
g1
(g10
g3
NtRp70
(dp71
g13
F3.7686704519554302
sg14
I9
sg15
I01
sg16
I7
sg17
I29
sbssS'_input_nodes'
p72
I5
sS'_output_nodes'
p73
I2
sS'_node_gene_type'
p74
cneat.genome
NodeGene
p75
sS'_conn_gene_type'
p76
g10
sS'fitness'
p77
F8.1184628762788801e-20
sS'parent2_id'
p78
I3261
sS'_id'
p79
I3299
sS'parent1_id'
p80
I3261
sS'_node_genes'
p81
(lp82
g1
(g75
g3
NtRp83
(dp84
S'_bias'
p85
I0
sS'_type'
p86
S'INPUT'
p87
sg79
I1
sS'_response'
p88
F4.9242730000000003
sS'_activation_type'
p89
Nsbag1
(g75
g3
NtRp90
(dp91
g85
I0
sg86
g87
sg79
I2
sg88
F4.9242730000000003
sg89
Nsbag1
(g75
g3
NtRp92
(dp93
g85
I0
sg86
g87
sg79
I3
sg88
F4.9242730000000003
sg89
Nsbag1
(g75
g3
NtRp94
(dp95
g85
I0
sg86
g87
sg79
I4
sg88
F4.9242730000000003
sg89
Nsbag1
(g75
g3
NtRp96
(dp97
g85
I0
sg86
g87
sg79
I5
sg88
F4.9242730000000003
sg89
Nsbag1
(g75
g3
NtRp98
(dp99
g85
F2.3707570206308288
sg86
S'OUTPUT'
p100
sg79
I6
sg88
F5.962388266438257
sg89
S'exp'
p101
sbag1
(g75
g3
NtRp102
(dp103
g85
F-2.0684503937222152
sg86
g100
sg79
I7
sg88
F3.8257548178931184
sg89
g101
sbag1
(g75
g3
NtRp104
(dp105
g85
F-2.7005532379468433
sg86
S'HIDDEN'
p106
sg79
I8
sg88
F6.2312362722219419
sg89
g101
sbag1
(g75
g3
NtRp107
(dp108
g85
F1.4719601280665076
sg86
g106
sg79
I9
sg88
F4.6314558220976885
sg89
g101
sbag1
(g75
g3
NtRp109
(dp110
g85
F-0.180287759706033
sg86
g106
sg79
I10
sg88
F4.8417674011421932
sg89
g101
sbasb.