ccopy_reg
_reconstructor
p1
(cneat.chromosome
Chromosome
p2
c__builtin__
object
p3
NtRp4
(dp5
S'species_id'
p6
I42
sS'_connection_genes'
p7
(dp8
(I5
I9
tp9
g1
(cneat.genome
ConnectionGene
p10
g3
NtRp11
(dp12
S'_ConnectionGene__weight'
p13
F-3.0549383852962624
sS'_ConnectionGene__in'
p14
I5
sS'_ConnectionGene__enabled'
p15
I01
sS'_ConnectionGene__out'
p16
I9
sS'_ConnectionGene__innov_number'
p17
I31
sbs(I4
I7
tp18
g1
(g10
g3
NtRp19
(dp20
g13
F-22.293557576975019
sg14
I4
sg15
I01
sg16
I7
sg17
I9
sbs(I6
I6
tp21
g1
(g10
g3
NtRp22
(dp23
g13
F13.408897056006488
sg14
I6
sg15
I01
sg16
I6
sg17
I15
sbs(I5
I6
tp24
g1
(g10
g3
NtRp25
(dp26
g13
F-9.6192337507895864
sg14
I5
sg15
I01
sg16
I6
sg17
I5
sbs(I2
I8
tp27
g1
(g10
g3
NtRp28
(dp29
g13
F7.1594410408251479
sg14
I2
sg15
I01
sg16
I8
sg17
I13
sbs(I6
I9
tp30
g1
(g10
g3
NtRp31
(dp32
g13
F1.9601718209731924
sg14
I6
sg15
I01
sg16
I9
sg17
I36
sbs(I8
I9
tp33
g1
(g10
g3
NtRp34
(dp35
g13
F-0.54069531367322132
sg14
I8
sg15
I00
sg16
I9
sg17
I32
sbs(I1
I6
tp36
g1
(g10
g3
NtRp37
(dp38
g13
F-27.005520971477402
sg14
I1
sg15
I01
sg16
I6
sg17
I1
sbs(I3
I7
tp39
g1
(g10
g3
NtRp40
(dp41
g13
F6.2399082804237063
sg14
I3
sg15
I01
sg16
I7
sg17
I8
sbs(I5
I8
tp42
g1
(g10
g3
NtRp43
(dp44
g13
F5.7968183477345017
sg14
I5
sg15
I01
sg16
I8
sg17
I27
sbs(I6
I7
tp45
g1
(g10
g3
NtRp46
(dp47
g13
F13.670675356582141
sg14
I6
sg15
I01
sg16
I7
sg17
I19
sbs(I10
I7
tp48
g1
(g10
g3
NtRp49
(dp50
g13
F0.42857440223462762
sg14
I10
sg15
I01
sg16
I7
sg17
I38
sbs(I3
I6
tp51
g1
(g10
g3
NtRp52
(dp53
g13
F12.38038933144453
sg14
I3
sg15
I01
sg16
I6
sg17
I3
sbs(I8
I6
tp54
g1
(g10
g3
NtRp55
(dp56
g13
F2.2350826843603291
sg14
I8
sg15
I01
sg16
I6
sg17
I14
sbs(I2
I6
tp57
g1
(g10
g3
NtRp58
(dp59
g13
F-6.9528979291432478
sg14
I2
sg15
I00
sg16
I6
sg17
I2
sbs(I3
I9
tp60
g1
(g10
g3
NtRp61
(dp62
g13
F4.1204362499939755
sg14
I3
sg15
I01
sg16
I9
sg17
I28
sbs(I9
I6
tp63
g1
(g10
g3
NtRp64
(dp65
g13
F22.149042068267953
sg14
I9
sg15
I01
sg16
I6
sg17
I26
sbs(I2
I7
tp66
g1
(g10
g3
NtRp67
(dp68
g13
F8.2471721731600542
sg14
I2
sg15
I00
sg16
I7
sg17
I7
sbs(I5
I10
tp69
g1
(g10
g3
NtRp70
(dp71
g13
F-1.8772837902679558
sg14
I5
sg15
I01
sg16
I10
sg17
I44
sbs(I4
I6
tp72
g1
(g10
g3
NtRp73
(dp74
g13
F14.128246486663045
sg14
I4
sg15
I01
sg16
I6
sg17
I4
sbs(I5
I7
tp75
g1
(g10
g3
NtRp76
(dp77
g13
F2.1059172021118187
sg14
I5
sg15
I00
sg16
I7
sg17
I10
sbs(I3
I8
tp78
g1
(g10
g3
NtRp79
(dp80
g13
F-8.0653278126878494
sg14
I3
sg15
I01
sg16
I8
sg17
I16
sbs(I1
I7
tp81
g1
(g10
g3
NtRp82
(dp83
g13
F-2.0990570848428454
sg14
I1
sg15
I01
sg16
I7
sg17
I6
sbssS'_input_nodes'
p84
I5
sS'_output_nodes'
p85
I2
sS'_node_gene_type'
p86
cneat.genome
NodeGene
p87
sS'_conn_gene_type'
p88
g10
sS'fitness'
p89
F7.9972538035699218e-20
sS'parent2_id'
p90
I4774
sS'_id'
p91
I4816
sS'parent1_id'
p92
I4775
sS'_node_genes'
p93
(lp94
g1
(g87
g3
NtRp95
(dp96
S'_bias'
p97
I0
sS'_type'
p98
S'INPUT'
p99
sg91
I1
sS'_response'
p100
F4.9242730000000003
sS'_activation_type'
p101
Nsbag1
(g87
g3
NtRp102
(dp103
g97
I0
sg98
g99
sg91
I2
sg100
F4.9242730000000003
sg101
Nsbag1
(g87
g3
NtRp104
(dp105
g97
I0
sg98
g99
sg91
I3
sg100
F4.9242730000000003
sg101
Nsbag1
(g87
g3
NtRp106
(dp107
g97
I0
sg98
g99
sg91
I4
sg100
F4.9242730000000003
sg101
Nsbag1
(g87
g3
NtRp108
(dp109
g97
I0
sg98
g99
sg91
I5
sg100
F4.9242730000000003
sg101
Nsbag1
(g87
g3
NtRp110
(dp111
g97
F2.310486004502013
sg98
S'OUTPUT'
p112
sg91
I6
sg100
F7.1258687750438838
sg101
S'exp'
p113
sbag1
(g87
g3
NtRp114
(dp115
g97
F-1.6110119210426748
sg98
g112
sg91
I7
sg100
F4.5050907155105744
sg101
g113
sbag1
(g87
g3
NtRp116
(dp117
g97
F-3.1886862043698856
sg98
S'HIDDEN'
p118
sg91
I8
sg100
F6.7870439624825307
sg101
g113
sbag1
(g87
g3
NtRp119
(dp120
g97
F-0.4137403008800522
sg98
g118
sg91
I9
sg100
F5.4921623619105286
sg101
g113
sbag1
(g87
g3
NtRp121
(dp122
g97
I0
sg98
g118
sg91
I10
sg100
F3.7022658954977725
sg101
g113
sbasb.