ccopy_reg
_reconstructor
p1
(cneat.chromosome
Chromosome
p2
c__builtin__
object
p3
NtRp4
(dp5
S'species_id'
p6
I7
sS'_connection_genes'
p7
(dp8
(I2
I7
tp9
g1
(cneat.genome
ConnectionGene
p10
g3
NtRp11
(dp12
S'_ConnectionGene__weight'
p13
F9.5129302657246431
sS'_ConnectionGene__in'
p14
I2
sS'_ConnectionGene__enabled'
p15
I01
sS'_ConnectionGene__out'
p16
I7
sS'_ConnectionGene__innov_number'
p17
I7
sbs(I4
I7
tp18
g1
(g10
g3
NtRp19
(dp20
g13
F-2.5997132318145777
sg14
I4
sg15
I01
sg16
I7
sg17
I9
sbs(I2
I6
tp21
g1
(g10
g3
NtRp22
(dp23
g13
F2.3905634035496339
sg14
I2
sg15
I01
sg16
I6
sg17
I2
sbs(I4
I6
tp24
g1
(g10
g3
NtRp25
(dp26
g13
F1.0444312087966983
sg14
I4
sg15
I01
sg16
I6
sg17
I4
sbs(I6
I6
tp27
g1
(g10
g3
NtRp28
(dp29
g13
F-3.1842189927888453
sg14
I6
sg15
I01
sg16
I6
sg17
I15
sbs(I5
I6
tp30
g1
(g10
g3
NtRp31
(dp32
g13
F-5.7607960062765811
sg14
I5
sg15
I01
sg16
I6
sg17
I5
sbs(I5
I7
tp33
g1
(g10
g3
NtRp34
(dp35
g13
F-7.4139795429566728
sg14
I5
sg15
I01
sg16
I7
sg17
I10
sbs(I1
I6
tp36
g1
(g10
g3
NtRp37
(dp38
g13
F-10.051452362187145
sg14
I1
sg15
I01
sg16
I6
sg17
I1
sbs(I3
I6
tp39
g1
(g10
g3
NtRp40
(dp41
g13
F-5.5688337869379136
sg14
I3
sg15
I01
sg16
I6
sg17
I3
sbs(I1
I7
tp42
g1
(g10
g3
NtRp43
(dp44
g13
F-7.0438942927112347
sg14
I1
sg15
I01
sg16
I7
sg17
I6
sbs(I3
I7
tp45
g1
(g10
g3
NtRp46
(dp47
g13
F-10.23807048899512
sg14
I3
sg15
I01
sg16
I7
sg17
I8
sbssS'_input_nodes'
p48
I5
sS'_output_nodes'
p49
I2
sS'_node_gene_type'
p50
cneat.genome
NodeGene
p51
sS'_conn_gene_type'
p52
g10
sS'fitness'
p53
F8.1557482392382924e-20
sS'parent2_id'
p54
I1393
sS'_id'
p55
I1438
sS'parent1_id'
p56
I1393
sS'_node_genes'
p57
(lp58
g1
(g51
g3
NtRp59
(dp60
S'_bias'
p61
I0
sS'_type'
p62
S'INPUT'
p63
sg55
I1
sS'_response'
p64
F4.9242730000000003
sS'_activation_type'
p65
Nsbag1
(g51
g3
NtRp66
(dp67
g61
I0
sg62
g63
sg55
I2
sg64
F4.9242730000000003
sg65
Nsbag1
(g51
g3
NtRp68
(dp69
g61
I0
sg62
g63
sg55
I3
sg64
F4.9242730000000003
sg65
Nsbag1
(g51
g3
NtRp70
(dp71
g61
I0
sg62
g63
sg55
I4
sg64
F4.9242730000000003
sg65
Nsbag1
(g51
g3
NtRp72
(dp73
g61
I0
sg62
g63
sg55
I5
sg64
F4.9242730000000003
sg65
Nsbag1
(g51
g3
NtRp74
(dp75
g61
F-1.2390161739872703
sg62
S'OUTPUT'
p76
sg55
I6
sg64
F6.2530332605731305
sg65
S'exp'
p77
sbag1
(g51
g3
NtRp78
(dp79
g61
F-0.32806117592743778
sg62
g76
sg55
I7
sg64
F4.6966601294920114
sg65
g77
sbasb.