ccopy_reg
_reconstructor
p1
(cneat.chromosome
Chromosome
p2
c__builtin__
object
p3
NtRp4
(dp5
S'species_id'
p6
I39
sS'_connection_genes'
p7
(dp8
(I5
I9
tp9
g1
(cneat.genome
ConnectionGene
p10
g3
NtRp11
(dp12
S'_ConnectionGene__weight'
p13
F-6.3977106425649346
sS'_ConnectionGene__in'
p14
I5
sS'_ConnectionGene__enabled'
p15
I01
sS'_ConnectionGene__out'
p16
I9
sS'_ConnectionGene__innov_number'
p17
I31
sbs(I4
I7
tp18
g1
(g10
g3
NtRp19
(dp20
g13
F-28.572273787813153
sg14
I4
sg15
I01
sg16
I7
sg17
I9
sbs(I6
I6
tp21
g1
(g10
g3
NtRp22
(dp23
g13
F7.9480597254187675
sg14
I6
sg15
I00
sg16
I6
sg17
I15
sbs(I5
I6
tp24
g1
(g10
g3
NtRp25
(dp26
g13
F-3.246974518218674
sg14
I5
sg15
I01
sg16
I6
sg17
I5
sbs(I2
I8
tp27
g1
(g10
g3
NtRp28
(dp29
g13
F-3.561358650239574
sg14
I2
sg15
I00
sg16
I8
sg17
I13
sbs(I10
I6
tp30
g1
(g10
g3
NtRp31
(dp32
g13
F13.868681954762343
sg14
I10
sg15
I01
sg16
I6
sg17
I34
sbs(I7
I7
tp33
g1
(g10
g3
NtRp34
(dp35
g13
F6.4875912198601027
sg14
I7
sg15
I01
sg16
I7
sg17
I17
sbs(I8
I9
tp36
g1
(g10
g3
NtRp37
(dp38
g13
F-1.7859252911280863
sg14
I8
sg15
I01
sg16
I9
sg17
I32
sbs(I1
I6
tp39
g1
(g10
g3
NtRp40
(dp41
g13
F-30
sg14
I1
sg15
I01
sg16
I6
sg17
I1
sbs(I3
I7
tp42
g1
(g10
g3
NtRp43
(dp44
g13
F14.73805321761119
sg14
I3
sg15
I01
sg16
I7
sg17
I8
sbs(I2
I9
tp45
g1
(g10
g3
NtRp46
(dp47
g13
F-2.6805733474628308
sg14
I2
sg15
I01
sg16
I9
sg17
I20
sbs(I6
I10
tp48
g1
(g10
g3
NtRp49
(dp50
g13
F-3.7706734426804891
sg14
I6
sg15
I01
sg16
I10
sg17
I47
sbs(I3
I6
tp51
g1
(g10
g3
NtRp52
(dp53
g13
F-6.1807836979874287
sg14
I3
sg15
I01
sg16
I6
sg17
I3
sbs(I8
I6
tp54
g1
(g10
g3
NtRp55
(dp56
g13
F-0.1391072281083261
sg14
I8
sg15
I01
sg16
I6
sg17
I14
sbs(I9
I7
tp57
g1
(g10
g3
NtRp58
(dp59
g13
F-2.4195355692395175
sg14
I9
sg15
I01
sg16
I7
sg17
I29
sbs(I2
I6
tp60
g1
(g10
g3
NtRp61
(dp62
g13
F-17.490222594645964
sg14
I2
sg15
I00
sg16
I6
sg17
I2
sbs(I2
I7
tp63
g1
(g10
g3
NtRp64
(dp65
g13
F16.671293717711176
sg14
I2
sg15
I00
sg16
I7
sg17
I7
sbs(I4
I6
tp66
g1
(g10
g3
NtRp67
(dp68
g13
F12.905987757107136
sg14
I4
sg15
I01
sg16
I6
sg17
I4
sbs(I11
I8
tp69
g1
(g10
g3
NtRp70
(dp71
g13
F-10.903207435182338
sg14
I11
sg15
I01
sg16
I8
sg17
I60
sbs(I5
I7
tp72
g1
(g10
g3
NtRp73
(dp74
g13
F-4.750881001397337
sg14
I5
sg15
I01
sg16
I7
sg17
I10
sbs(I2
I11
tp75
g1
(g10
g3
NtRp76
(dp77
g13
F-11.407703203048984
sg14
I2
sg15
I01
sg16
I11
sg17
I49
sbs(I1
I7
tp78
g1
(g10
g3
NtRp79
(dp80
g13
F-11.767430124873369
sg14
I1
sg15
I01
sg16
I7
sg17
I6
sbssS'_input_nodes'
p81
I5
sS'_output_nodes'
p82
I2
sS'_node_gene_type'
p83
cneat.genome
NodeGene
p84
sS'_conn_gene_type'
p85
g10
sS'fitness'
p86
F7.9330278712756029e-20
sS'parent2_id'
p87
I4714
sS'_id'
p88
I4759
sS'parent1_id'
p89
I4714
sS'_node_genes'
p90
(lp91
g1
(g84
g3
NtRp92
(dp93
S'_bias'
p94
I0
sS'_type'
p95
S'INPUT'
p96
sg88
I1
sS'_response'
p97
F4.9242730000000003
sS'_activation_type'
p98
Nsbag1
(g84
g3
NtRp99
(dp100
g94
I0
sg95
g96
sg88
I2
sg97
F4.9242730000000003
sg98
Nsbag1
(g84
g3
NtRp101
(dp102
g94
I0
sg95
g96
sg88
I3
sg97
F4.9242730000000003
sg98
Nsbag1
(g84
g3
NtRp103
(dp104
g94
I0
sg95
g96
sg88
I4
sg97
F4.9242730000000003
sg98
Nsbag1
(g84
g3
NtRp105
(dp106
g94
I0
sg95
g96
sg88
I5
sg97
F4.9242730000000003
sg98
Nsbag1
(g84
g3
NtRp107
(dp108
g94
F5.6901894230437762
sg95
S'OUTPUT'
p109
sg88
I6
sg97
F6.2254961754800329
sg98
S'exp'
p110
sbag1
(g84
g3
NtRp111
(dp112
g94
F-1.3378101081437697
sg95
g109
sg88
I7
sg97
F3.6295225510328688
sg98
g110
sbag1
(g84
g3
NtRp113
(dp114
g94
F-1.460647624882645
sg95
S'HIDDEN'
p115
sg88
I8
sg97
F5.7023242461895016
sg98
g110
sbag1
(g84
g3
NtRp116
(dp117
g94
F0.37817607142715637
sg95
g115
sg88
I9
sg97
F1.4369874719850964
sg98
g110
sbag1
(g84
g3
NtRp118
(dp119
g94
F0.87478791082769591
sg95
g115
sg88
I10
sg97
F4.3854116584163272
sg98
g110
sbag1
(g84
g3
NtRp120
(dp121
g94
F0.0055476497789399559
sg95
g115
sg88
I11
sg97
F5.7472252008804547
sg98
g110
sbasb.