ccopy_reg
_reconstructor
p1
(cneat.chromosome
Chromosome
p2
c__builtin__
object
p3
NtRp4
(dp5
S'species_id'
p6
I17
sS'_connection_genes'
p7
(dp8
(I2
I7
tp9
g1
(cneat.genome
ConnectionGene
p10
g3
NtRp11
(dp12
S'_ConnectionGene__weight'
p13
F4.1404494031721653
sS'_ConnectionGene__in'
p14
I2
sS'_ConnectionGene__enabled'
p15
I01
sS'_ConnectionGene__out'
p16
I7
sS'_ConnectionGene__innov_number'
p17
I7
sbs(I4
I7
tp18
g1
(g10
g3
NtRp19
(dp20
g13
F-21.385046276847678
sg14
I4
sg15
I01
sg16
I7
sg17
I9
sbs(I2
I6
tp21
g1
(g10
g3
NtRp22
(dp23
g13
F-18.970517569746711
sg14
I2
sg15
I00
sg16
I6
sg17
I2
sbs(I3
I7
tp24
g1
(g10
g3
NtRp25
(dp26
g13
F11.276226512784481
sg14
I3
sg15
I01
sg16
I7
sg17
I8
sbs(I4
I6
tp27
g1
(g10
g3
NtRp28
(dp29
g13
F1.7048541883342649
sg14
I4
sg15
I01
sg16
I6
sg17
I4
sbs(I6
I6
tp30
g1
(g10
g3
NtRp31
(dp32
g13
F15.109993997814696
sg14
I6
sg15
I01
sg16
I6
sg17
I15
sbs(I5
I6
tp33
g1
(g10
g3
NtRp34
(dp35
g13
F-3.1795653181956935
sg14
I5
sg15
I01
sg16
I6
sg17
I5
sbs(I2
I8
tp36
g1
(g10
g3
NtRp37
(dp38
g13
F1.4575164601900503
sg14
I2
sg15
I01
sg16
I8
sg17
I13
sbs(I7
I6
tp39
g1
(g10
g3
NtRp40
(dp41
g13
F-0.44053743010387802
sg14
I7
sg15
I01
sg16
I6
sg17
I18
sbs(I5
I7
tp42
g1
(g10
g3
NtRp43
(dp44
g13
F2.1217567837022591
sg14
I5
sg15
I01
sg16
I7
sg17
I10
sbs(I1
I6
tp45
g1
(g10
g3
NtRp46
(dp47
g13
F-16.902054765230734
sg14
I1
sg15
I01
sg16
I6
sg17
I1
sbs(I3
I6
tp48
g1
(g10
g3
NtRp49
(dp50
g13
F-2.893757879307512
sg14
I3
sg15
I01
sg16
I6
sg17
I3
sbs(I1
I7
tp51
g1
(g10
g3
NtRp52
(dp53
g13
F-7.6509888453485875
sg14
I1
sg15
I01
sg16
I7
sg17
I6
sbs(I8
I6
tp54
g1
(g10
g3
NtRp55
(dp56
g13
F-3.6162960703892288
sg14
I8
sg15
I01
sg16
I6
sg17
I14
sbssS'_input_nodes'
p57
I5
sS'_output_nodes'
p58
I2
sS'_node_gene_type'
p59
cneat.genome
NodeGene
p60
sS'_conn_gene_type'
p61
g10
sS'fitness'
p62
F7.8403993294753132e-20
sS'parent2_id'
p63
I2196
sS'_id'
p64
I2235
sS'parent1_id'
p65
I2197
sS'_node_genes'
p66
(lp67
g1
(g60
g3
NtRp68
(dp69
S'_bias'
p70
I0
sS'_type'
p71
S'INPUT'
p72
sg64
I1
sS'_response'
p73
F4.9242730000000003
sS'_activation_type'
p74
Nsbag1
(g60
g3
NtRp75
(dp76
g70
I0
sg71
g72
sg64
I2
sg73
F4.9242730000000003
sg74
Nsbag1
(g60
g3
NtRp77
(dp78
g70
I0
sg71
g72
sg64
I3
sg73
F4.9242730000000003
sg74
Nsbag1
(g60
g3
NtRp79
(dp80
g70
I0
sg71
g72
sg64
I4
sg73
F4.9242730000000003
sg74
Nsbag1
(g60
g3
NtRp81
(dp82
g70
I0
sg71
g72
sg64
I5
sg73
F4.9242730000000003
sg74
Nsbag1
(g60
g3
NtRp83
(dp84
g70
F1.8897263965089937
sg71
S'OUTPUT'
p85
sg64
I6
sg73
F6.2586451093513409
sg74
S'exp'
p86
sbag1
(g60
g3
NtRp87
(dp88
g70
F-2.0684503937222152
sg71
g85
sg64
I7
sg73
F4.9729012611159753
sg74
g86
sbag1
(g60
g3
NtRp89
(dp90
g70
F-1.1934375356745268
sg71
S'HIDDEN'
p91
sg64
I8
sg73
F6.8336674068387104
sg74
g86
sbasb.