ccopy_reg
_reconstructor
p1
(cneat.chromosome
Chromosome
p2
c__builtin__
object
p3
NtRp4
(dp5
S'species_id'
p6
I39
sS'_connection_genes'
p7
(dp8
(I5
I9
tp9
g1
(cneat.genome
ConnectionGene
p10
g3
NtRp11
(dp12
S'_ConnectionGene__weight'
p13
F0.17318778799612977
sS'_ConnectionGene__in'
p14
I5
sS'_ConnectionGene__enabled'
p15
I01
sS'_ConnectionGene__out'
p16
I9
sS'_ConnectionGene__innov_number'
p17
I31
sbs(I4
I7
tp18
g1
(g10
g3
NtRp19
(dp20
g13
F-24.915592085395815
sg14
I4
sg15
I01
sg16
I7
sg17
I9
sbs(I6
I6
tp21
g1
(g10
g3
NtRp22
(dp23
g13
F11.670266944890281
sg14
I6
sg15
I00
sg16
I6
sg17
I15
sbs(I5
I6
tp24
g1
(g10
g3
NtRp25
(dp26
g13
F-2.3611918171520991
sg14
I5
sg15
I01
sg16
I6
sg17
I5
sbs(I2
I8
tp27
g1
(g10
g3
NtRp28
(dp29
g13
F-2.870921355707897
sg14
I2
sg15
I00
sg16
I8
sg17
I13
sbs(I10
I6
tp30
g1
(g10
g3
NtRp31
(dp32
g13
F10.605735449531169
sg14
I10
sg15
I01
sg16
I6
sg17
I34
sbs(I7
I7
tp33
g1
(g10
g3
NtRp34
(dp35
g13
F0.56025158804759523
sg14
I7
sg15
I01
sg16
I7
sg17
I17
sbs(I8
I9
tp36
g1
(g10
g3
NtRp37
(dp38
g13
F-0.2632801314890898
sg14
I8
sg15
I01
sg16
I9
sg17
I32
sbs(I1
I6
tp39
g1
(g10
g3
NtRp40
(dp41
g13
F-26.450456068741694
sg14
I1
sg15
I01
sg16
I6
sg17
I1
sbs(I3
I7
tp42
g1
(g10
g3
NtRp43
(dp44
g13
F9.9510363806439788
sg14
I3
sg15
I01
sg16
I7
sg17
I8
sbs(I2
I9
tp45
g1
(g10
g3
NtRp46
(dp47
g13
F-5.6945615042384778
sg14
I2
sg15
I01
sg16
I9
sg17
I20
sbs(I6
I10
tp48
g1
(g10
g3
NtRp49
(dp50
g13
F-5.3522786166333312
sg14
I6
sg15
I01
sg16
I10
sg17
I47
sbs(I3
I6
tp51
g1
(g10
g3
NtRp52
(dp53
g13
F-4.7436041352561436
sg14
I3
sg15
I01
sg16
I6
sg17
I3
sbs(I8
I6
tp54
g1
(g10
g3
NtRp55
(dp56
g13
F-9.0136724603112839
sg14
I8
sg15
I01
sg16
I6
sg17
I14
sbs(I9
I7
tp57
g1
(g10
g3
NtRp58
(dp59
g13
F4.1226854135719
sg14
I9
sg15
I01
sg16
I7
sg17
I29
sbs(I2
I6
tp60
g1
(g10
g3
NtRp61
(dp62
g13
F-15.250528596669843
sg14
I2
sg15
I00
sg16
I6
sg17
I2
sbs(I2
I7
tp63
g1
(g10
g3
NtRp64
(dp65
g13
F9.8264529267689902
sg14
I2
sg15
I00
sg16
I7
sg17
I7
sbs(I4
I6
tp66
g1
(g10
g3
NtRp67
(dp68
g13
F13.217153327181514
sg14
I4
sg15
I01
sg16
I6
sg17
I4
sbs(I11
I8
tp69
g1
(g10
g3
NtRp70
(dp71
g13
F-2.1186684751774751
sg14
I11
sg15
I01
sg16
I8
sg17
I60
sbs(I5
I7
tp72
g1
(g10
g3
NtRp73
(dp74
g13
F-1.426951108538159
sg14
I5
sg15
I01
sg16
I7
sg17
I10
sbs(I2
I11
tp75
g1
(g10
g3
NtRp76
(dp77
g13
F-6.8903327668126835
sg14
I2
sg15
I01
sg16
I11
sg17
I49
sbs(I1
I7
tp78
g1
(g10
g3
NtRp79
(dp80
g13
F-14.288771818539681
sg14
I1
sg15
I01
sg16
I7
sg17
I6
sbssS'_input_nodes'
p81
I5
sS'_output_nodes'
p82
I2
sS'_node_gene_type'
p83
cneat.genome
NodeGene
p84
sS'_conn_gene_type'
p85
g10
sS'fitness'
p86
F7.0678914068098933e-20
sS'parent2_id'
p87
I4315
sS'_id'
p88
I4365
sS'parent1_id'
p89
I4315
sS'_node_genes'
p90
(lp91
g1
(g84
g3
NtRp92
(dp93
S'_bias'
p94
I0
sS'_type'
p95
S'INPUT'
p96
sg88
I1
sS'_response'
p97
F4.9242730000000003
sS'_activation_type'
p98
Nsbag1
(g84
g3
NtRp99
(dp100
g94
I0
sg95
g96
sg88
I2
sg97
F4.9242730000000003
sg98
Nsbag1
(g84
g3
NtRp101
(dp102
g94
I0
sg95
g96
sg88
I3
sg97
F4.9242730000000003
sg98
Nsbag1
(g84
g3
NtRp103
(dp104
g94
I0
sg95
g96
sg88
I4
sg97
F4.9242730000000003
sg98
Nsbag1
(g84
g3
NtRp105
(dp106
g94
I0
sg95
g96
sg88
I5
sg97
F4.9242730000000003
sg98
Nsbag1
(g84
g3
NtRp107
(dp108
g94
F3.4222807668724005
sg95
S'OUTPUT'
p109
sg88
I6
sg97
F6.6079161903050379
sg98
S'exp'
p110
sbag1
(g84
g3
NtRp111
(dp112
g94
F-0.71162578431236523
sg95
g109
sg88
I7
sg97
F4.5942917483936032
sg98
g110
sbag1
(g84
g3
NtRp113
(dp114
g94
F-0.50945053914753125
sg95
S'HIDDEN'
p115
sg88
I8
sg97
F5.4194206536230629
sg98
g110
sbag1
(g84
g3
NtRp116
(dp117
g94
F0.011614475593046125
sg95
g115
sg88
I9
sg97
F1.7533225584533705
sg98
g110
sbag1
(g84
g3
NtRp118
(dp119
g94
F0.51542317519437242
sg95
g115
sg88
I10
sg97
F4.0255371256544219
sg98
g110
sbag1
(g84
g3
NtRp120
(dp121
g94
F0.0055476497789399559
sg95
g115
sg88
I11
sg97
F5.6004437058758496
sg98
g110
sbasb.