ccopy_reg
_reconstructor
p1
(cneat.chromosome
Chromosome
p2
c__builtin__
object
p3
NtRp4
(dp5
S'species_id'
p6
I4
sS'_connection_genes'
p7
(dp8
(I2
I7
tp9
g1
(cneat.genome
ConnectionGene
p10
g3
NtRp11
(dp12
S'_ConnectionGene__weight'
p13
F8.9410879389321956
sS'_ConnectionGene__in'
p14
I2
sS'_ConnectionGene__enabled'
p15
I01
sS'_ConnectionGene__out'
p16
I7
sS'_ConnectionGene__innov_number'
p17
I7
sbs(I8
I6
tp18
g1
(g10
g3
NtRp19
(dp20
g13
F1.9953943547542872
sg14
I8
sg15
I01
sg16
I6
sg17
I14
sbs(I4
I7
tp21
g1
(g10
g3
NtRp22
(dp23
g13
F2.2285984058277211
sg14
I4
sg15
I01
sg16
I7
sg17
I9
sbs(I2
I6
tp24
g1
(g10
g3
NtRp25
(dp26
g13
F-10.390028222369258
sg14
I2
sg15
I00
sg16
I6
sg17
I2
sbs(I4
I6
tp27
g1
(g10
g3
NtRp28
(dp29
g13
F-2.8833737857065307
sg14
I4
sg15
I01
sg16
I6
sg17
I4
sbs(I5
I6
tp30
g1
(g10
g3
NtRp31
(dp32
g13
F-1.4639726748237845
sg14
I5
sg15
I01
sg16
I6
sg17
I5
sbs(I2
I8
tp33
g1
(g10
g3
NtRp34
(dp35
g13
F8.944020371536574
sg14
I2
sg15
I01
sg16
I8
sg17
I13
sbs(I5
I7
tp36
g1
(g10
g3
NtRp37
(dp38
g13
F4.9296229125133113
sg14
I5
sg15
I01
sg16
I7
sg17
I10
sbs(I9
I9
tp39
g1
(g10
g3
NtRp40
(dp41
g13
F2.3013066760523229
sg14
I9
sg15
I01
sg16
I9
sg17
I40
sbs(I1
I8
tp42
g1
(g10
g3
NtRp43
(dp44
g13
F0.15982695991200813
sg14
I1
sg15
I01
sg16
I8
sg17
I11
sbs(I3
I9
tp45
g1
(g10
g3
NtRp46
(dp47
g13
F-2.8727948910001486
sg14
I3
sg15
I01
sg16
I9
sg17
I28
sbs(I1
I6
tp48
g1
(g10
g3
NtRp49
(dp50
g13
F-11.697894791250341
sg14
I1
sg15
I01
sg16
I6
sg17
I1
sbs(I3
I6
tp51
g1
(g10
g3
NtRp52
(dp53
g13
F-7.6154772833731066
sg14
I3
sg15
I00
sg16
I6
sg17
I3
sbs(I1
I7
tp54
g1
(g10
g3
NtRp55
(dp56
g13
F-6.3772953149768465
sg14
I1
sg15
I01
sg16
I7
sg17
I6
sbs(I3
I7
tp57
g1
(g10
g3
NtRp58
(dp59
g13
F-0.30565118594613216
sg14
I3
sg15
I01
sg16
I7
sg17
I8
sbs(I9
I6
tp60
g1
(g10
g3
NtRp61
(dp62
g13
F-10.222869978120785
sg14
I9
sg15
I01
sg16
I6
sg17
I26
sbssS'_input_nodes'
p63
I5
sS'_output_nodes'
p64
I2
sS'_node_gene_type'
p65
cneat.genome
NodeGene
p66
sS'_conn_gene_type'
p67
g10
sS'fitness'
p68
F7.3082572420514987e-20
sS'parent2_id'
p69
I1486
sS'_id'
p70
I1536
sS'parent1_id'
p71
I1486
sS'_node_genes'
p72
(lp73
g1
(g66
g3
NtRp74
(dp75
S'_bias'
p76
I0
sS'_type'
p77
S'INPUT'
p78
sg70
I1
sS'_response'
p79
F4.9242730000000003
sS'_activation_type'
p80
Nsbag1
(g66
g3
NtRp81
(dp82
g76
I0
sg77
g78
sg70
I2
sg79
F4.9242730000000003
sg80
Nsbag1
(g66
g3
NtRp83
(dp84
g76
I0
sg77
g78
sg70
I3
sg79
F4.9242730000000003
sg80
Nsbag1
(g66
g3
NtRp85
(dp86
g76
I0
sg77
g78
sg70
I4
sg79
F4.9242730000000003
sg80
Nsbag1
(g66
g3
NtRp87
(dp88
g76
I0
sg77
g78
sg70
I5
sg79
F4.9242730000000003
sg80
Nsbag1
(g66
g3
NtRp89
(dp90
g76
F0.94091933386000559
sg77
S'OUTPUT'
p91
sg70
I6
sg79
F4.0690291021946328
sg80
S'exp'
p92
sbag1
(g66
g3
NtRp93
(dp94
g76
F-0.76932633659347971
sg77
g91
sg70
I7
sg79
F5.5748842699593117
sg80
g92
sbag1
(g66
g3
NtRp95
(dp96
g76
F0.80644626441878109
sg77
S'HIDDEN'
p97
sg70
I8
sg79
F5.6244518127311922
sg80
g92
sbag1
(g66
g3
NtRp98
(dp99
g76
F1.0372041319235392
sg77
g97
sg70
I9
sg79
F3.3043468799541751
sg80
g92
sbasb.