ccopy_reg
_reconstructor
p1
(cneat.chromosome
Chromosome
p2
c__builtin__
object
p3
NtRp4
(dp5
S'species_id'
p6
I25
sS'_connection_genes'
p7
(dp8
(I2
I7
tp9
g1
(cneat.genome
ConnectionGene
p10
g3
NtRp11
(dp12
S'_ConnectionGene__weight'
p13
F5.998363101396869
sS'_ConnectionGene__in'
p14
I2
sS'_ConnectionGene__enabled'
p15
I00
sS'_ConnectionGene__out'
p16
I7
sS'_ConnectionGene__innov_number'
p17
I7
sbs(I5
I9
tp18
g1
(g10
g3
NtRp19
(dp20
g13
F-1.6045978903506029
sg14
I5
sg15
I01
sg16
I9
sg17
I31
sbs(I4
I7
tp21
g1
(g10
g3
NtRp22
(dp23
g13
F-24.479628361840867
sg14
I4
sg15
I01
sg16
I7
sg17
I9
sbs(I2
I6
tp24
g1
(g10
g3
NtRp25
(dp26
g13
F-18.009474436580021
sg14
I2
sg15
I00
sg16
I6
sg17
I2
sbs(I6
I7
tp27
g1
(g10
g3
NtRp28
(dp29
g13
F9.9817576860049524
sg14
I6
sg15
I01
sg16
I7
sg17
I19
sbs(I4
I6
tp30
g1
(g10
g3
NtRp31
(dp32
g13
F6.5545010397270236
sg14
I4
sg15
I01
sg16
I6
sg17
I4
sbs(I6
I6
tp33
g1
(g10
g3
NtRp34
(dp35
g13
F10.444368385357889
sg14
I6
sg15
I00
sg16
I6
sg17
I15
sbs(I5
I6
tp36
g1
(g10
g3
NtRp37
(dp38
g13
F0.88995958335177061
sg14
I5
sg15
I01
sg16
I6
sg17
I5
sbs(I2
I8
tp39
g1
(g10
g3
NtRp40
(dp41
g13
F1.5766698237967824
sg14
I2
sg15
I01
sg16
I8
sg17
I13
sbs(I5
I7
tp42
g1
(g10
g3
NtRp43
(dp44
g13
F5.8575921079058864
sg14
I5
sg15
I01
sg16
I7
sg17
I10
sbs(I6
I9
tp45
g1
(g10
g3
NtRp46
(dp47
g13
F-0.23282628603214328
sg14
I6
sg15
I01
sg16
I9
sg17
I36
sbs(I3
I7
tp48
g1
(g10
g3
NtRp49
(dp50
g13
F3.3373129134595523
sg14
I3
sg15
I01
sg16
I7
sg17
I8
sbs(I3
I8
tp51
g1
(g10
g3
NtRp52
(dp53
g13
F-1.7362247024222917
sg14
I3
sg15
I01
sg16
I8
sg17
I16
sbs(I1
I6
tp54
g1
(g10
g3
NtRp55
(dp56
g13
F-20.307188917993788
sg14
I1
sg15
I01
sg16
I6
sg17
I1
sbs(I3
I6
tp57
g1
(g10
g3
NtRp58
(dp59
g13
F3.2773055535834095
sg14
I3
sg15
I01
sg16
I6
sg17
I3
sbs(I1
I7
tp60
g1
(g10
g3
NtRp61
(dp62
g13
F-3.0373942959767368
sg14
I1
sg15
I01
sg16
I7
sg17
I6
sbs(I8
I6
tp63
g1
(g10
g3
NtRp64
(dp65
g13
F-2.3131073334418035
sg14
I8
sg15
I01
sg16
I6
sg17
I14
sbs(I8
I9
tp66
g1
(g10
g3
NtRp67
(dp68
g13
F-1.6539465781124263
sg14
I8
sg15
I01
sg16
I9
sg17
I32
sbs(I9
I6
tp69
g1
(g10
g3
NtRp70
(dp71
g13
F15.401384573904249
sg14
I9
sg15
I01
sg16
I6
sg17
I26
sbssS'_input_nodes'
p72
I5
sS'_output_nodes'
p73
I2
sS'_node_gene_type'
p74
cneat.genome
NodeGene
p75
sS'_conn_gene_type'
p76
g10
sS'fitness'
p77
F7.3972495684815093e-20
sS'parent2_id'
p78
I3803
sS'_id'
p79
I3851
sS'parent1_id'
p80
I3803
sS'_node_genes'
p81
(lp82
g1
(g75
g3
NtRp83
(dp84
S'_bias'
p85
I0
sS'_type'
p86
S'INPUT'
p87
sg79
I1
sS'_response'
p88
F4.9242730000000003
sS'_activation_type'
p89
Nsbag1
(g75
g3
NtRp90
(dp91
g85
I0
sg86
g87
sg79
I2
sg88
F4.9242730000000003
sg89
Nsbag1
(g75
g3
NtRp92
(dp93
g85
I0
sg86
g87
sg79
I3
sg88
F4.9242730000000003
sg89
Nsbag1
(g75
g3
NtRp94
(dp95
g85
I0
sg86
g87
sg79
I4
sg88
F4.9242730000000003
sg89
Nsbag1
(g75
g3
NtRp96
(dp97
g85
I0
sg86
g87
sg79
I5
sg88
F4.9242730000000003
sg89
Nsbag1
(g75
g3
NtRp98
(dp99
g85
F2.2182748968824941
sg86
S'OUTPUT'
p100
sg79
I6
sg88
F6.7628067178155256
sg89
S'exp'
p101
sbag1
(g75
g3
NtRp102
(dp103
g85
F-0.6825411830019974
sg86
g100
sg79
I7
sg88
F5.5547205623336851
sg89
g101
sbag1
(g75
g3
NtRp104
(dp105
g85
F-2.2890152172379716
sg86
S'HIDDEN'
p106
sg79
I8
sg88
F7.1271670609379685
sg89
g101
sbag1
(g75
g3
NtRp107
(dp108
g85
F-0.4137403008800522
sg86
g106
sg79
I9
sg88
F5.0099906292809315
sg89
g101
sbasb.