ccopy_reg
_reconstructor
p1
(cneat.chromosome
Chromosome
p2
c__builtin__
object
p3
NtRp4
(dp5
S'species_id'
p6
I21
sS'_connection_genes'
p7
(dp8
(I2
I7
tp9
g1
(cneat.genome
ConnectionGene
p10
g3
NtRp11
(dp12
S'_ConnectionGene__weight'
p13
F-1.6981516669198373
sS'_ConnectionGene__in'
p14
I2
sS'_ConnectionGene__enabled'
p15
I01
sS'_ConnectionGene__out'
p16
I7
sS'_ConnectionGene__innov_number'
p17
I7
sbs(I8
I6
tp18
g1
(g10
g3
NtRp19
(dp20
g13
F1.6856986568011256
sg14
I8
sg15
I01
sg16
I6
sg17
I14
sbs(I4
I7
tp21
g1
(g10
g3
NtRp22
(dp23
g13
F0.65111282741762744
sg14
I4
sg15
I01
sg16
I7
sg17
I9
sbs(I2
I6
tp24
g1
(g10
g3
NtRp25
(dp26
g13
F-13.332886076515345
sg14
I2
sg15
I00
sg16
I6
sg17
I2
sbs(I4
I6
tp27
g1
(g10
g3
NtRp28
(dp29
g13
F-0.3624115769028412
sg14
I4
sg15
I01
sg16
I6
sg17
I4
sbs(I5
I6
tp30
g1
(g10
g3
NtRp31
(dp32
g13
F-2.3795431009971879
sg14
I5
sg15
I01
sg16
I6
sg17
I5
sbs(I2
I8
tp33
g1
(g10
g3
NtRp34
(dp35
g13
F1.6937150602416935
sg14
I2
sg15
I01
sg16
I8
sg17
I13
sbs(I5
I7
tp36
g1
(g10
g3
NtRp37
(dp38
g13
F6.9934381164439108
sg14
I5
sg15
I01
sg16
I7
sg17
I10
sbs(I10
I6
tp39
g1
(g10
g3
NtRp40
(dp41
g13
F-10.497579213475872
sg14
I10
sg15
I01
sg16
I6
sg17
I34
sbs(I9
I9
tp42
g1
(g10
g3
NtRp43
(dp44
g13
F7.9126062731076257
sg14
I9
sg15
I01
sg16
I9
sg17
I40
sbs(I2
I10
tp45
g1
(g10
g3
NtRp46
(dp47
g13
F-6.562121613704476
sg14
I2
sg15
I01
sg16
I10
sg17
I37
sbs(I3
I9
tp48
g1
(g10
g3
NtRp49
(dp50
g13
F-5.2845462142306125
sg14
I3
sg15
I01
sg16
I9
sg17
I28
sbs(I1
I6
tp51
g1
(g10
g3
NtRp52
(dp53
g13
F-15.319976216421235
sg14
I1
sg15
I01
sg16
I6
sg17
I1
sbs(I3
I6
tp54
g1
(g10
g3
NtRp55
(dp56
g13
F-3.0399161985319365
sg14
I3
sg15
I01
sg16
I6
sg17
I3
sbs(I1
I7
tp57
g1
(g10
g3
NtRp58
(dp59
g13
F-7.7068821643491985
sg14
I1
sg15
I01
sg16
I7
sg17
I6
sbs(I3
I7
tp60
g1
(g10
g3
NtRp61
(dp62
g13
F4.4629249711152879
sg14
I3
sg15
I01
sg16
I7
sg17
I8
sbs(I9
I6
tp63
g1
(g10
g3
NtRp64
(dp65
g13
F-12.413283513292651
sg14
I9
sg15
I01
sg16
I6
sg17
I26
sbssS'_input_nodes'
p66
I5
sS'_output_nodes'
p67
I2
sS'_node_gene_type'
p68
cneat.genome
NodeGene
p69
sS'_conn_gene_type'
p70
g10
sS'fitness'
p71
F7.4859904334288013e-20
sS'parent2_id'
p72
I2221
sS'_id'
p73
I2274
sS'parent1_id'
p74
I2221
sS'_node_genes'
p75
(lp76
g1
(g69
g3
NtRp77
(dp78
S'_bias'
p79
I0
sS'_type'
p80
S'INPUT'
p81
sg73
I1
sS'_response'
p82
F4.9242730000000003
sS'_activation_type'
p83
Nsbag1
(g69
g3
NtRp84
(dp85
g79
I0
sg80
g81
sg73
I2
sg82
F4.9242730000000003
sg83
Nsbag1
(g69
g3
NtRp86
(dp87
g79
I0
sg80
g81
sg73
I3
sg82
F4.9242730000000003
sg83
Nsbag1
(g69
g3
NtRp88
(dp89
g79
I0
sg80
g81
sg73
I4
sg82
F4.9242730000000003
sg83
Nsbag1
(g69
g3
NtRp90
(dp91
g79
I0
sg80
g81
sg73
I5
sg82
F4.9242730000000003
sg83
Nsbag1
(g69
g3
NtRp92
(dp93
g79
F1.4650657966335534
sg80
S'OUTPUT'
p94
sg73
I6
sg82
F2.5232080748475778
sg83
S'exp'
p95
sbag1
(g69
g3
NtRp96
(dp97
g79
F-1.5383060858290165
sg80
g94
sg73
I7
sg82
F6.4794094447428021
sg83
g95
sbag1
(g69
g3
NtRp98
(dp99
g79
F0.80616129667528347
sg80
S'HIDDEN'
p100
sg73
I8
sg82
F6.4677371676879813
sg83
g95
sbag1
(g69
g3
NtRp101
(dp102
g79
F0.2082988352711681
sg80
g100
sg73
I9
sg82
F3.2948440729679098
sg83
g95
sbag1
(g69
g3
NtRp103
(dp104
g79
F0.8650858077581145
sg80
g100
sg73
I10
sg82
F4.8479347235763086
sg83
g95
sbasb.