ccopy_reg
_reconstructor
p1
(cneat.chromosome
Chromosome
p2
c__builtin__
object
p3
NtRp4
(dp5
S'species_id'
p6
I40
sS'_connection_genes'
p7
(dp8
(I5
I9
tp9
g1
(cneat.genome
ConnectionGene
p10
g3
NtRp11
(dp12
S'_ConnectionGene__weight'
p13
F-0.092616497953252219
sS'_ConnectionGene__in'
p14
I5
sS'_ConnectionGene__enabled'
p15
I01
sS'_ConnectionGene__out'
p16
I9
sS'_ConnectionGene__innov_number'
p17
I31
sbs(I4
I7
tp18
g1
(g10
g3
NtRp19
(dp20
g13
F-25.430636450243963
sg14
I4
sg15
I00
sg16
I7
sg17
I9
sbs(I6
I6
tp21
g1
(g10
g3
NtRp22
(dp23
g13
F4.3198231024903819
sg14
I6
sg15
I01
sg16
I6
sg17
I15
sbs(I5
I6
tp24
g1
(g10
g3
NtRp25
(dp26
g13
F-2.2615029043117323
sg14
I5
sg15
I01
sg16
I6
sg17
I5
sbs(I2
I8
tp27
g1
(g10
g3
NtRp28
(dp29
g13
F-1.5266629355284564
sg14
I2
sg15
I01
sg16
I8
sg17
I13
sbs(I8
I9
tp30
g1
(g10
g3
NtRp31
(dp32
g13
F0.75065171953618348
sg14
I8
sg15
I01
sg16
I9
sg17
I32
sbs(I1
I6
tp33
g1
(g10
g3
NtRp34
(dp35
g13
F-29.687275628101279
sg14
I1
sg15
I01
sg16
I6
sg17
I1
sbs(I3
I7
tp36
g1
(g10
g3
NtRp37
(dp38
g13
F3.1321912563783583
sg14
I3
sg15
I01
sg16
I7
sg17
I8
sbs(I5
I8
tp39
g1
(g10
g3
NtRp40
(dp41
g13
F18.650383625954326
sg14
I5
sg15
I01
sg16
I8
sg17
I27
sbs(I2
I9
tp42
g1
(g10
g3
NtRp43
(dp44
g13
F9.4393752529070341
sg14
I2
sg15
I01
sg16
I9
sg17
I20
sbs(I10
I7
tp45
g1
(g10
g3
NtRp46
(dp47
g13
F-24.102017619681217
sg14
I10
sg15
I01
sg16
I7
sg17
I38
sbs(I3
I6
tp48
g1
(g10
g3
NtRp49
(dp50
g13
F-7.0348451315521761
sg14
I3
sg15
I01
sg16
I6
sg17
I3
sbs(I8
I6
tp51
g1
(g10
g3
NtRp52
(dp53
g13
F-9.3081434673475982
sg14
I8
sg15
I01
sg16
I6
sg17
I14
sbs(I9
I7
tp54
g1
(g10
g3
NtRp55
(dp56
g13
F-3.1187665273477996
sg14
I9
sg15
I01
sg16
I7
sg17
I29
sbs(I4
I10
tp57
g1
(g10
g3
NtRp58
(dp59
g13
F-7.3106047402706187
sg14
I4
sg15
I01
sg16
I10
sg17
I48
sbs(I2
I6
tp60
g1
(g10
g3
NtRp61
(dp62
g13
F-16.778847212869032
sg14
I2
sg15
I01
sg16
I6
sg17
I2
sbs(I5
I11
tp63
g1
(g10
g3
NtRp64
(dp65
g13
F3.0391294396290025
sg14
I5
sg15
I01
sg16
I11
sg17
I58
sbs(I2
I7
tp66
g1
(g10
g3
NtRp67
(dp68
g13
F1.4928823442787309
sg14
I2
sg15
I00
sg16
I7
sg17
I7
sbs(I11
I7
tp69
g1
(g10
g3
NtRp70
(dp71
g13
F-6.9178445064387848
sg14
I11
sg15
I01
sg16
I7
sg17
I46
sbs(I4
I6
tp72
g1
(g10
g3
NtRp73
(dp74
g13
F6.4417517507467119
sg14
I4
sg15
I01
sg16
I6
sg17
I4
sbs(I5
I7
tp75
g1
(g10
g3
NtRp76
(dp77
g13
F-5.5108646525437317
sg14
I5
sg15
I00
sg16
I7
sg17
I10
sbs(I1
I7
tp78
g1
(g10
g3
NtRp79
(dp80
g13
F-21.339468242280621
sg14
I1
sg15
I01
sg16
I7
sg17
I6
sbssS'_input_nodes'
p81
I5
sS'_output_nodes'
p82
I2
sS'_node_gene_type'
p83
cneat.genome
NodeGene
p84
sS'_conn_gene_type'
p85
g10
sS'fitness'
p86
F8.2555358069259164e-20
sS'parent2_id'
p87
I4867
sS'_id'
p88
I4911
sS'parent1_id'
p89
I4867
sS'_node_genes'
p90
(lp91
g1
(g84
g3
NtRp92
(dp93
S'_bias'
p94
I0
sS'_type'
p95
S'INPUT'
p96
sg88
I1
sS'_response'
p97
F4.9242730000000003
sS'_activation_type'
p98
Nsbag1
(g84
g3
NtRp99
(dp100
g94
I0
sg95
g96
sg88
I2
sg97
F4.9242730000000003
sg98
Nsbag1
(g84
g3
NtRp101
(dp102
g94
I0
sg95
g96
sg88
I3
sg97
F4.9242730000000003
sg98
Nsbag1
(g84
g3
NtRp103
(dp104
g94
I0
sg95
g96
sg88
I4
sg97
F4.9242730000000003
sg98
Nsbag1
(g84
g3
NtRp105
(dp106
g94
I0
sg95
g96
sg88
I5
sg97
F4.9242730000000003
sg98
Nsbag1
(g84
g3
NtRp107
(dp108
g94
F2.3603519521627447
sg95
S'OUTPUT'
p109
sg88
I6
sg97
F5.9327804649784763
sg98
S'exp'
p110
sbag1
(g84
g3
NtRp111
(dp112
g94
F-3.4982832577348169
sg95
g109
sg88
I7
sg97
F4.5207609251280036
sg98
g110
sbag1
(g84
g3
NtRp113
(dp114
g94
F-0.32649824210102274
sg95
S'HIDDEN'
p115
sg88
I8
sg97
F6.290157892697299
sg98
g110
sbag1
(g84
g3
NtRp116
(dp117
g94
F1.2989251917147686
sg95
g115
sg88
I9
sg97
F3.4655649619790894
sg98
g110
sbag1
(g84
g3
NtRp118
(dp119
g94
F-0.23581155440408896
sg95
g115
sg88
I10
sg97
F4.6092685348520979
sg98
g110
sbag1
(g84
g3
NtRp120
(dp121
g94
I0
sg95
g115
sg88
I11
sg97
F4.9242730000000003
sg98
g110
sbasb.