ccopy_reg
_reconstructor
p1
(cneat.chromosome
Chromosome
p2
c__builtin__
object
p3
NtRp4
(dp5
S'species_id'
p6
I13
sS'_connection_genes'
p7
(dp8
(I2
I7
tp9
g1
(cneat.genome
ConnectionGene
p10
g3
NtRp11
(dp12
S'_ConnectionGene__weight'
p13
F-9.2757147853963531
sS'_ConnectionGene__in'
p14
I2
sS'_ConnectionGene__enabled'
p15
I00
sS'_ConnectionGene__out'
p16
I7
sS'_ConnectionGene__innov_number'
p17
I7
sbs(I4
I7
tp18
g1
(g10
g3
NtRp19
(dp20
g13
F-2.1148578435720466
sg14
I4
sg15
I01
sg16
I7
sg17
I9
sbs(I2
I6
tp21
g1
(g10
g3
NtRp22
(dp23
g13
F9.9966738967404165
sg14
I2
sg15
I01
sg16
I6
sg17
I2
sbs(I4
I6
tp24
g1
(g10
g3
NtRp25
(dp26
g13
F2.2524578604039505
sg14
I4
sg15
I01
sg16
I6
sg17
I4
sbs(I5
I6
tp27
g1
(g10
g3
NtRp28
(dp29
g13
F-2.0533117091163993
sg14
I5
sg15
I01
sg16
I6
sg17
I5
sbs(I2
I8
tp30
g1
(g10
g3
NtRp31
(dp32
g13
F10.793276904600102
sg14
I2
sg15
I01
sg16
I8
sg17
I13
sbs(I5
I7
tp33
g1
(g10
g3
NtRp34
(dp35
g13
F1.0305561033676609
sg14
I5
sg15
I01
sg16
I7
sg17
I10
sbs(I3
I6
tp36
g1
(g10
g3
NtRp37
(dp38
g13
F-15.458677689844373
sg14
I3
sg15
I01
sg16
I6
sg17
I3
sbs(I1
I6
tp39
g1
(g10
g3
NtRp40
(dp41
g13
F-6.5937307750674101
sg14
I1
sg15
I01
sg16
I6
sg17
I1
sbs(I8
I7
tp42
g1
(g10
g3
NtRp43
(dp44
g13
F16.842238222076517
sg14
I8
sg15
I01
sg16
I7
sg17
I12
sbs(I1
I7
tp45
g1
(g10
g3
NtRp46
(dp47
g13
F7.4176099933195943
sg14
I1
sg15
I01
sg16
I7
sg17
I6
sbs(I3
I7
tp48
g1
(g10
g3
NtRp49
(dp50
g13
F1.5527830261315954
sg14
I3
sg15
I01
sg16
I7
sg17
I8
sbssS'_input_nodes'
p51
I5
sS'_output_nodes'
p52
I2
sS'_node_gene_type'
p53
cneat.genome
NodeGene
p54
sS'_conn_gene_type'
p55
g10
sS'fitness'
p56
F7.4457956085808307e-20
sS'parent2_id'
p57
I2878
sS'_id'
p58
I2925
sS'parent1_id'
p59
I2878
sS'_node_genes'
p60
(lp61
g1
(g54
g3
NtRp62
(dp63
S'_bias'
p64
I0
sS'_type'
p65
S'INPUT'
p66
sg58
I1
sS'_response'
p67
F4.9242730000000003
sS'_activation_type'
p68
Nsbag1
(g54
g3
NtRp69
(dp70
g64
I0
sg65
g66
sg58
I2
sg67
F4.9242730000000003
sg68
Nsbag1
(g54
g3
NtRp71
(dp72
g64
I0
sg65
g66
sg58
I3
sg67
F4.9242730000000003
sg68
Nsbag1
(g54
g3
NtRp73
(dp74
g64
I0
sg65
g66
sg58
I4
sg67
F4.9242730000000003
sg68
Nsbag1
(g54
g3
NtRp75
(dp76
g64
I0
sg65
g66
sg58
I5
sg67
F4.9242730000000003
sg68
Nsbag1
(g54
g3
NtRp77
(dp78
g64
F-0.66370538549911395
sg65
S'OUTPUT'
p79
sg58
I6
sg67
F3.4336586521295853
sg68
S'exp'
p80
sbag1
(g54
g3
NtRp81
(dp82
g64
F-0.02157774126558798
sg65
g79
sg58
I7
sg67
F3.5888581207722825
sg68
g80
sbag1
(g54
g3
NtRp83
(dp84
g64
F1.0382591314420342
sg65
S'HIDDEN'
p85
sg58
I8
sg67
F5.6954917083429644
sg68
g80
sbasb.