ccopy_reg
_reconstructor
p1
(cneat.chromosome
Chromosome
p2
c__builtin__
object
p3
NtRp4
(dp5
S'species_id'
p6
I34
sS'_connection_genes'
p7
(dp8
(I5
I9
tp9
g1
(cneat.genome
ConnectionGene
p10
g3
NtRp11
(dp12
S'_ConnectionGene__weight'
p13
F7.4073102767070456
sS'_ConnectionGene__in'
p14
I5
sS'_ConnectionGene__enabled'
p15
I01
sS'_ConnectionGene__out'
p16
I9
sS'_ConnectionGene__innov_number'
p17
I31
sbs(I4
I7
tp18
g1
(g10
g3
NtRp19
(dp20
g13
F-20.371885277279084
sg14
I4
sg15
I00
sg16
I7
sg17
I9
sbs(I6
I6
tp21
g1
(g10
g3
NtRp22
(dp23
g13
F14.814656423643395
sg14
I6
sg15
I00
sg16
I6
sg17
I15
sbs(I5
I6
tp24
g1
(g10
g3
NtRp25
(dp26
g13
F-0.789861845021819
sg14
I5
sg15
I01
sg16
I6
sg17
I5
sbs(I2
I8
tp27
g1
(g10
g3
NtRp28
(dp29
g13
F9.2833728089802783
sg14
I2
sg15
I01
sg16
I8
sg17
I13
sbs(I6
I9
tp30
g1
(g10
g3
NtRp31
(dp32
g13
F1.9382955342655528
sg14
I6
sg15
I01
sg16
I9
sg17
I36
sbs(I8
I9
tp33
g1
(g10
g3
NtRp34
(dp35
g13
F7.2249041058250105
sg14
I8
sg15
I01
sg16
I9
sg17
I32
sbs(I4
I12
tp36
g1
(g10
g3
NtRp37
(dp38
g13
F-0.7472088360246385
sg14
I4
sg15
I01
sg16
I12
sg17
I74
sbs(I1
I6
tp39
g1
(g10
g3
NtRp40
(dp41
g13
F-17.282692194126462
sg14
I1
sg15
I01
sg16
I6
sg17
I1
sbs(I3
I7
tp42
g1
(g10
g3
NtRp43
(dp44
g13
F-5.9143992949530446
sg14
I3
sg15
I01
sg16
I7
sg17
I8
sbs(I5
I8
tp45
g1
(g10
g3
NtRp46
(dp47
g13
F4.4919464862696916
sg14
I5
sg15
I01
sg16
I8
sg17
I27
sbs(I6
I7
tp48
g1
(g10
g3
NtRp49
(dp50
g13
F2.442214715248936
sg14
I6
sg15
I01
sg16
I7
sg17
I19
sbs(I10
I7
tp51
g1
(g10
g3
NtRp52
(dp53
g13
F-4.0795075226723778
sg14
I10
sg15
I01
sg16
I7
sg17
I38
sbs(I3
I6
tp54
g1
(g10
g3
NtRp55
(dp56
g13
F5.2011345364870989
sg14
I3
sg15
I01
sg16
I6
sg17
I3
sbs(I8
I6
tp57
g1
(g10
g3
NtRp58
(dp59
g13
F-6.5559610246648807
sg14
I8
sg15
I01
sg16
I6
sg17
I14
sbs(I2
I6
tp60
g1
(g10
g3
NtRp61
(dp62
g13
F-19.435651872899218
sg14
I2
sg15
I00
sg16
I6
sg17
I2
sbs(I6
I11
tp63
g1
(g10
g3
NtRp64
(dp65
g13
F5.1752873128056214
sg14
I6
sg15
I01
sg16
I11
sg17
I67
sbs(I12
I7
tp66
g1
(g10
g3
NtRp67
(dp68
g13
F-26.776496268094672
sg14
I12
sg15
I01
sg16
I7
sg17
I54
sbs(I11
I9
tp69
g1
(g10
g3
NtRp70
(dp71
g13
F-5.4074105522689582
sg14
I11
sg15
I01
sg16
I9
sg17
I59
sbs(I9
I10
tp72
g1
(g10
g3
NtRp73
(dp74
g13
F2.2020113135783967
sg14
I9
sg15
I01
sg16
I10
sg17
I33
sbs(I9
I6
tp75
g1
(g10
g3
NtRp76
(dp77
g13
F16.708974131628651
sg14
I9
sg15
I01
sg16
I6
sg17
I26
sbs(I2
I7
tp78
g1
(g10
g3
NtRp79
(dp80
g13
F7.8260886264218854
sg14
I2
sg15
I00
sg16
I7
sg17
I7
sbs(I5
I10
tp81
g1
(g10
g3
NtRp82
(dp83
g13
F-7.209576172428747
sg14
I5
sg15
I01
sg16
I10
sg17
I44
sbs(I4
I6
tp84
g1
(g10
g3
NtRp85
(dp86
g13
F12.262505321186515
sg14
I4
sg15
I01
sg16
I6
sg17
I4
sbs(I5
I7
tp87
g1
(g10
g3
NtRp88
(dp89
g13
F1.3456080361943583
sg14
I5
sg15
I00
sg16
I7
sg17
I10
sbs(I3
I8
tp90
g1
(g10
g3
NtRp91
(dp92
g13
F4.5051276669298348
sg14
I3
sg15
I01
sg16
I8
sg17
I16
sbs(I1
I7
tp93
g1
(g10
g3
NtRp94
(dp95
g13
F5.6036474390123621
sg14
I1
sg15
I01
sg16
I7
sg17
I6
sbssS'_input_nodes'
p96
I5
sS'_output_nodes'
p97
I2
sS'_node_gene_type'
p98
cneat.genome
NodeGene
p99
sS'_conn_gene_type'
p100
g10
sS'fitness'
p101
F7.582392820054861e-20
sS'parent2_id'
p102
I4934
sS'_id'
p103
I4984
sS'parent1_id'
p104
I4934
sS'_node_genes'
p105
(lp106
g1
(g99
g3
NtRp107
(dp108
S'_bias'
p109
I0
sS'_type'
p110
S'INPUT'
p111
sg103
I1
sS'_response'
p112
F4.9242730000000003
sS'_activation_type'
p113
Nsbag1
(g99
g3
NtRp114
(dp115
g109
I0
sg110
g111
sg103
I2
sg112
F4.9242730000000003
sg113
Nsbag1
(g99
g3
NtRp116
(dp117
g109
I0
sg110
g111
sg103
I3
sg112
F4.9242730000000003
sg113
Nsbag1
(g99
g3
NtRp118
(dp119
g109
I0
sg110
g111
sg103
I4
sg112
F4.9242730000000003
sg113
Nsbag1
(g99
g3
NtRp120
(dp121
g109
I0
sg110
g111
sg103
I5
sg112
F4.9242730000000003
sg113
Nsbag1
(g99
g3
NtRp122
(dp123
g109
F2.7298767075863513
sg110
S'OUTPUT'
p124
sg103
I6
sg112
F7.2622587709451727
sg113
S'exp'
p125
sbag1
(g99
g3
NtRp126
(dp127
g109
F-0.43451968027172971
sg110
g124
sg103
I7
sg112
F5.2714357241490157
sg113
g125
sbag1
(g99
g3
NtRp128
(dp129
g109
F-4.0736976668399771
sg110
S'HIDDEN'
p130
sg103
I8
sg112
F7.2058066692874201
sg113
g125
sbag1
(g99
g3
NtRp131
(dp132
g109
F-0.4137403008800522
sg110
g130
sg103
I9
sg112
F6.2040932967146274
sg113
g125
sbag1
(g99
g3
NtRp133
(dp134
g109
F-1.4643867527274281
sg110
g130
sg103
I10
sg112
F5.441149320874163
sg113
g125
sbag1
(g99
g3
NtRp135
(dp136
g109
F0.6078431912480502
sg110
g130
sg103
I11
sg112
F6.4535512608098466
sg113
g125
sbag1
(g99
g3
NtRp137
(dp138
g109
F0.77283767378568391
sg110
g130
sg103
I12
sg112
F4.7735477838073859
sg113
g125
sbasb.