ccopy_reg
_reconstructor
p1
(cneat.chromosome
Chromosome
p2
c__builtin__
object
p3
NtRp4
(dp5
S'species_id'
p6
I35
sS'_connection_genes'
p7
(dp8
(I5
I9
tp9
g1
(cneat.genome
ConnectionGene
p10
g3
NtRp11
(dp12
S'_ConnectionGene__weight'
p13
F-0.3487726024587301
sS'_ConnectionGene__in'
p14
I5
sS'_ConnectionGene__enabled'
p15
I01
sS'_ConnectionGene__out'
p16
I9
sS'_ConnectionGene__innov_number'
p17
I31
sbs(I4
I7
tp18
g1
(g10
g3
NtRp19
(dp20
g13
F-25.887144388814935
sg14
I4
sg15
I01
sg16
I7
sg17
I9
sbs(I6
I6
tp21
g1
(g10
g3
NtRp22
(dp23
g13
F7.4584509946624635
sg14
I6
sg15
I00
sg16
I6
sg17
I15
sbs(I5
I6
tp24
g1
(g10
g3
NtRp25
(dp26
g13
F5.7371911715154917
sg14
I5
sg15
I01
sg16
I6
sg17
I5
sbs(I2
I8
tp27
g1
(g10
g3
NtRp28
(dp29
g13
F5.1570594182797214
sg14
I2
sg15
I01
sg16
I8
sg17
I13
sbs(I6
I9
tp30
g1
(g10
g3
NtRp31
(dp32
g13
F-3.244705655168671
sg14
I6
sg15
I01
sg16
I9
sg17
I36
sbs(I8
I9
tp33
g1
(g10
g3
NtRp34
(dp35
g13
F0.78423763045049266
sg14
I8
sg15
I01
sg16
I9
sg17
I32
sbs(I1
I6
tp36
g1
(g10
g3
NtRp37
(dp38
g13
F-21.116980141300317
sg14
I1
sg15
I01
sg16
I6
sg17
I1
sbs(I3
I7
tp39
g1
(g10
g3
NtRp40
(dp41
g13
F7.5776656815554473
sg14
I3
sg15
I01
sg16
I7
sg17
I8
sbs(I5
I8
tp42
g1
(g10
g3
NtRp43
(dp44
g13
F-0.3737472766750054
sg14
I5
sg15
I00
sg16
I8
sg17
I27
sbs(I10
I8
tp45
g1
(g10
g3
NtRp46
(dp47
g13
F-3.0795584530909252
sg14
I10
sg15
I01
sg16
I8
sg17
I65
sbs(I6
I7
tp48
g1
(g10
g3
NtRp49
(dp50
g13
F10.447777668582026
sg14
I6
sg15
I01
sg16
I7
sg17
I19
sbs(I3
I10
tp51
g1
(g10
g3
NtRp52
(dp53
g13
F-2.4506174926717561
sg14
I3
sg15
I01
sg16
I10
sg17
I43
sbs(I3
I6
tp54
g1
(g10
g3
NtRp55
(dp56
g13
F0.37974616357583657
sg14
I3
sg15
I01
sg16
I6
sg17
I3
sbs(I8
I6
tp57
g1
(g10
g3
NtRp58
(dp59
g13
F2.756689245681637
sg14
I8
sg15
I01
sg16
I6
sg17
I14
sbs(I2
I6
tp60
g1
(g10
g3
NtRp61
(dp62
g13
F-22.638031920728814
sg14
I2
sg15
I00
sg16
I6
sg17
I2
sbs(I9
I6
tp63
g1
(g10
g3
NtRp64
(dp65
g13
F17.578561068352091
sg14
I9
sg15
I01
sg16
I6
sg17
I26
sbs(I2
I7
tp66
g1
(g10
g3
NtRp67
(dp68
g13
F3.5354807126607004
sg14
I2
sg15
I00
sg16
I7
sg17
I7
sbs(I5
I10
tp69
g1
(g10
g3
NtRp70
(dp71
g13
F-0.18675125680880589
sg14
I5
sg15
I01
sg16
I10
sg17
I44
sbs(I4
I6
tp72
g1
(g10
g3
NtRp73
(dp74
g13
F7.042613778109402
sg14
I4
sg15
I01
sg16
I6
sg17
I4
sbs(I5
I7
tp75
g1
(g10
g3
NtRp76
(dp77
g13
F-0.53440925619791035
sg14
I5
sg15
I01
sg16
I7
sg17
I10
sbs(I3
I8
tp78
g1
(g10
g3
NtRp79
(dp80
g13
F0.0019687914738217294
sg14
I3
sg15
I01
sg16
I8
sg17
I16
sbs(I1
I7
tp81
g1
(g10
g3
NtRp82
(dp83
g13
F-2.4428075838882353
sg14
I1
sg15
I01
sg16
I7
sg17
I6
sbssS'_input_nodes'
p84
I5
sS'_output_nodes'
p85
I2
sS'_node_gene_type'
p86
cneat.genome
NodeGene
p87
sS'_conn_gene_type'
p88
g10
sS'fitness'
p89
F7.2012099763175283e-20
sS'parent2_id'
p90
I4144
sS'_id'
p91
I4193
sS'parent1_id'
p92
I4143
sS'_node_genes'
p93
(lp94
g1
(g87
g3
NtRp95
(dp96
S'_bias'
p97
I0
sS'_type'
p98
S'INPUT'
p99
sg91
I1
sS'_response'
p100
F4.9242730000000003
sS'_activation_type'
p101
Nsbag1
(g87
g3
NtRp102
(dp103
g97
I0
sg98
g99
sg91
I2
sg100
F4.9242730000000003
sg101
Nsbag1
(g87
g3
NtRp104
(dp105
g97
I0
sg98
g99
sg91
I3
sg100
F4.9242730000000003
sg101
Nsbag1
(g87
g3
NtRp106
(dp107
g97
I0
sg98
g99
sg91
I4
sg100
F4.9242730000000003
sg101
Nsbag1
(g87
g3
NtRp108
(dp109
g97
I0
sg98
g99
sg91
I5
sg100
F4.9242730000000003
sg101
Nsbag1
(g87
g3
NtRp110
(dp111
g97
F2.2182748968824941
sg98
S'OUTPUT'
p112
sg91
I6
sg100
F6.6996816171306151
sg101
S'exp'
p113
sbag1
(g87
g3
NtRp114
(dp115
g97
F-0.6825411830019974
sg98
g112
sg91
I7
sg100
F5.5547205623336851
sg101
g113
sbag1
(g87
g3
NtRp116
(dp117
g97
F-2.583773265155437
sg98
S'HIDDEN'
p118
sg91
I8
sg100
F7.1271670609379685
sg101
g113
sbag1
(g87
g3
NtRp119
(dp120
g97
F-0.4137403008800522
sg98
g118
sg91
I9
sg100
F5.0099906292809315
sg101
g113
sbag1
(g87
g3
NtRp121
(dp122
g97
I0
sg98
g118
sg91
I10
sg100
F4.9242730000000003
sg101
g113
sbasb.