ccopy_reg
_reconstructor
p1
(cneat.chromosome
Chromosome
p2
c__builtin__
object
p3
NtRp4
(dp5
S'species_id'
p6
I17
sS'_connection_genes'
p7
(dp8
(I2
I7
tp9
g1
(cneat.genome
ConnectionGene
p10
g3
NtRp11
(dp12
S'_ConnectionGene__weight'
p13
F8.1182794293032554
sS'_ConnectionGene__in'
p14
I2
sS'_ConnectionGene__enabled'
p15
I01
sS'_ConnectionGene__out'
p16
I7
sS'_ConnectionGene__innov_number'
p17
I7
sbs(I4
I7
tp18
g1
(g10
g3
NtRp19
(dp20
g13
F-24.738161860626295
sg14
I4
sg15
I01
sg16
I7
sg17
I9
sbs(I2
I6
tp21
g1
(g10
g3
NtRp22
(dp23
g13
F-12.319083851641453
sg14
I2
sg15
I00
sg16
I6
sg17
I2
sbs(I3
I7
tp24
g1
(g10
g3
NtRp25
(dp26
g13
F14.760339858914511
sg14
I3
sg15
I01
sg16
I7
sg17
I8
sbs(I4
I6
tp27
g1
(g10
g3
NtRp28
(dp29
g13
F1.8146236623539875
sg14
I4
sg15
I01
sg16
I6
sg17
I4
sbs(I6
I6
tp30
g1
(g10
g3
NtRp31
(dp32
g13
F8.5181199138334023
sg14
I6
sg15
I01
sg16
I6
sg17
I15
sbs(I5
I6
tp33
g1
(g10
g3
NtRp34
(dp35
g13
F1.1258679602858459
sg14
I5
sg15
I01
sg16
I6
sg17
I5
sbs(I2
I8
tp36
g1
(g10
g3
NtRp37
(dp38
g13
F-0.28935598401777962
sg14
I2
sg15
I01
sg16
I8
sg17
I13
sbs(I5
I7
tp39
g1
(g10
g3
NtRp40
(dp41
g13
F8.2146251814938029
sg14
I5
sg15
I01
sg16
I7
sg17
I10
sbs(I1
I6
tp42
g1
(g10
g3
NtRp43
(dp44
g13
F-9.2391084592505983
sg14
I1
sg15
I01
sg16
I6
sg17
I1
sbs(I3
I6
tp45
g1
(g10
g3
NtRp46
(dp47
g13
F-5.3062255579438142
sg14
I3
sg15
I01
sg16
I6
sg17
I3
sbs(I1
I7
tp48
g1
(g10
g3
NtRp49
(dp50
g13
F-7.8408589559453654
sg14
I1
sg15
I01
sg16
I7
sg17
I6
sbs(I8
I6
tp51
g1
(g10
g3
NtRp52
(dp53
g13
F-6.2943656587251304
sg14
I8
sg15
I01
sg16
I6
sg17
I14
sbssS'_input_nodes'
p54
I5
sS'_output_nodes'
p55
I2
sS'_node_gene_type'
p56
cneat.genome
NodeGene
p57
sS'_conn_gene_type'
p58
g10
sS'fitness'
p59
F8.0297110314096076e-20
sS'parent2_id'
p60
I1904
sS'_id'
p61
I1947
sS'parent1_id'
p62
I1904
sS'_node_genes'
p63
(lp64
g1
(g57
g3
NtRp65
(dp66
S'_bias'
p67
I0
sS'_type'
p68
S'INPUT'
p69
sg61
I1
sS'_response'
p70
F4.9242730000000003
sS'_activation_type'
p71
Nsbag1
(g57
g3
NtRp72
(dp73
g67
I0
sg68
g69
sg61
I2
sg70
F4.9242730000000003
sg71
Nsbag1
(g57
g3
NtRp74
(dp75
g67
I0
sg68
g69
sg61
I3
sg70
F4.9242730000000003
sg71
Nsbag1
(g57
g3
NtRp76
(dp77
g67
I0
sg68
g69
sg61
I4
sg70
F4.9242730000000003
sg71
Nsbag1
(g57
g3
NtRp78
(dp79
g67
I0
sg68
g69
sg61
I5
sg70
F4.9242730000000003
sg71
Nsbag1
(g57
g3
NtRp80
(dp81
g67
F1.8897263965089937
sg68
S'OUTPUT'
p82
sg61
I6
sg70
F6.6763408647466171
sg71
S'exp'
p83
sbag1
(g57
g3
NtRp84
(dp85
g67
F-0.87906786070862619
sg68
g82
sg61
I7
sg70
F4.8063736842557372
sg71
g83
sbag1
(g57
g3
NtRp86
(dp87
g67
F0.069252701058211241
sg68
S'HIDDEN'
p88
sg61
I8
sg70
F6.8336674068387104
sg71
g83
sbasb.