ccopy_reg
_reconstructor
p1
(cneat.chromosome
Chromosome
p2
c__builtin__
object
p3
NtRp4
(dp5
S'species_id'
p6
I9
sS'_connection_genes'
p7
(dp8
(I2
I7
tp9
g1
(cneat.genome
ConnectionGene
p10
g3
NtRp11
(dp12
S'_ConnectionGene__weight'
p13
F-3.3952697604662587
sS'_ConnectionGene__in'
p14
I2
sS'_ConnectionGene__enabled'
p15
I01
sS'_ConnectionGene__out'
p16
I7
sS'_ConnectionGene__innov_number'
p17
I7
sbs(I8
I6
tp18
g1
(g10
g3
NtRp19
(dp20
g13
F7.4356605491891763
sg14
I8
sg15
I01
sg16
I6
sg17
I14
sbs(I4
I7
tp21
g1
(g10
g3
NtRp22
(dp23
g13
F-3.8790086561745922
sg14
I4
sg15
I01
sg16
I7
sg17
I9
sbs(I2
I6
tp24
g1
(g10
g3
NtRp25
(dp26
g13
F-7.5079108939358159
sg14
I2
sg15
I01
sg16
I6
sg17
I2
sbs(I4
I6
tp27
g1
(g10
g3
NtRp28
(dp29
g13
F8.9563963647963387
sg14
I4
sg15
I01
sg16
I6
sg17
I4
sbs(I5
I6
tp30
g1
(g10
g3
NtRp31
(dp32
g13
F11.635688845783939
sg14
I5
sg15
I01
sg16
I6
sg17
I5
sbs(I2
I8
tp33
g1
(g10
g3
NtRp34
(dp35
g13
F3.3523719867715736
sg14
I2
sg15
I01
sg16
I8
sg17
I13
sbs(I5
I7
tp36
g1
(g10
g3
NtRp37
(dp38
g13
F-4.276020736637828
sg14
I5
sg15
I01
sg16
I7
sg17
I10
sbs(I1
I8
tp39
g1
(g10
g3
NtRp40
(dp41
g13
F2.3183338070479258
sg14
I1
sg15
I01
sg16
I8
sg17
I11
sbs(I1
I6
tp42
g1
(g10
g3
NtRp43
(dp44
g13
F-6.1192359663939007
sg14
I1
sg15
I00
sg16
I6
sg17
I1
sbs(I1
I9
tp45
g1
(g10
g3
NtRp46
(dp47
g13
F0.52009167049373506
sg14
I1
sg15
I01
sg16
I9
sg17
I25
sbs(I3
I6
tp48
g1
(g10
g3
NtRp49
(dp50
g13
F-11.0003009508746
sg14
I3
sg15
I01
sg16
I6
sg17
I3
sbs(I1
I7
tp51
g1
(g10
g3
NtRp52
(dp53
g13
F1.0706654039481385
sg14
I1
sg15
I01
sg16
I7
sg17
I6
sbs(I3
I7
tp54
g1
(g10
g3
NtRp55
(dp56
g13
F13.660528035251614
sg14
I3
sg15
I01
sg16
I7
sg17
I8
sbs(I9
I6
tp57
g1
(g10
g3
NtRp58
(dp59
g13
F-13.614109081980725
sg14
I9
sg15
I01
sg16
I6
sg17
I26
sbssS'_input_nodes'
p60
I5
sS'_output_nodes'
p61
I2
sS'_node_gene_type'
p62
cneat.genome
NodeGene
p63
sS'_conn_gene_type'
p64
g10
sS'fitness'
p65
F7.5017815531494326e-20
sS'parent2_id'
p66
I2013
sS'_id'
p67
I2058
sS'parent1_id'
p68
I2013
sS'_node_genes'
p69
(lp70
g1
(g63
g3
NtRp71
(dp72
S'_bias'
p73
I0
sS'_type'
p74
S'INPUT'
p75
sg67
I1
sS'_response'
p76
F4.9242730000000003
sS'_activation_type'
p77
Nsbag1
(g63
g3
NtRp78
(dp79
g73
I0
sg74
g75
sg67
I2
sg76
F4.9242730000000003
sg77
Nsbag1
(g63
g3
NtRp80
(dp81
g73
I0
sg74
g75
sg67
I3
sg76
F4.9242730000000003
sg77
Nsbag1
(g63
g3
NtRp82
(dp83
g73
I0
sg74
g75
sg67
I4
sg76
F4.9242730000000003
sg77
Nsbag1
(g63
g3
NtRp84
(dp85
g73
I0
sg74
g75
sg67
I5
sg76
F4.9242730000000003
sg77
Nsbag1
(g63
g3
NtRp86
(dp87
g73
F2.4872128340411424
sg74
S'OUTPUT'
p88
sg67
I6
sg76
F6.8090754196729408
sg77
S'exp'
p89
sbag1
(g63
g3
NtRp90
(dp91
g73
F-1.4428660510622582
sg74
g88
sg67
I7
sg76
F5.2004964489757164
sg77
g89
sbag1
(g63
g3
NtRp92
(dp93
g73
F-0.37667849010192256
sg74
S'HIDDEN'
p94
sg67
I8
sg76
F4.4168223393766919
sg77
g89
sbag1
(g63
g3
NtRp95
(dp96
g73
F0.29572951849514117
sg74
g94
sg67
I9
sg76
F5.6589379621880802
sg77
g89
sbasb.