ccopy_reg
_reconstructor
p1
(cneat.chromosome
Chromosome
p2
c__builtin__
object
p3
NtRp4
(dp5
S'species_id'
p6
I35
sS'_connection_genes'
p7
(dp8
(I5
I9
tp9
g1
(cneat.genome
ConnectionGene
p10
g3
NtRp11
(dp12
S'_ConnectionGene__weight'
p13
F-4.5425350661496182
sS'_ConnectionGene__in'
p14
I5
sS'_ConnectionGene__enabled'
p15
I01
sS'_ConnectionGene__out'
p16
I9
sS'_ConnectionGene__innov_number'
p17
I31
sbs(I4
I7
tp18
g1
(g10
g3
NtRp19
(dp20
g13
F-27.692228635084824
sg14
I4
sg15
I01
sg16
I7
sg17
I9
sbs(I6
I6
tp21
g1
(g10
g3
NtRp22
(dp23
g13
F8.1330613867093486
sg14
I6
sg15
I00
sg16
I6
sg17
I15
sbs(I5
I6
tp24
g1
(g10
g3
NtRp25
(dp26
g13
F13.238297168115469
sg14
I5
sg15
I01
sg16
I6
sg17
I5
sbs(I2
I8
tp27
g1
(g10
g3
NtRp28
(dp29
g13
F-3.1404212364674069
sg14
I2
sg15
I01
sg16
I8
sg17
I13
sbs(I6
I9
tp30
g1
(g10
g3
NtRp31
(dp32
g13
F1.3251522077516968
sg14
I6
sg15
I01
sg16
I9
sg17
I36
sbs(I8
I9
tp33
g1
(g10
g3
NtRp34
(dp35
g13
F-10.969017189567152
sg14
I8
sg15
I01
sg16
I9
sg17
I32
sbs(I1
I6
tp36
g1
(g10
g3
NtRp37
(dp38
g13
F-22.811730487745852
sg14
I1
sg15
I01
sg16
I6
sg17
I1
sbs(I3
I7
tp39
g1
(g10
g3
NtRp40
(dp41
g13
F8.0149766755229876
sg14
I3
sg15
I01
sg16
I7
sg17
I8
sbs(I5
I8
tp42
g1
(g10
g3
NtRp43
(dp44
g13
F2.8489749275873995
sg14
I5
sg15
I00
sg16
I8
sg17
I27
sbs(I10
I8
tp45
g1
(g10
g3
NtRp46
(dp47
g13
F3.5582781844113209
sg14
I10
sg15
I01
sg16
I8
sg17
I65
sbs(I6
I7
tp48
g1
(g10
g3
NtRp49
(dp50
g13
F11.553769146720388
sg14
I6
sg15
I01
sg16
I7
sg17
I19
sbs(I3
I10
tp51
g1
(g10
g3
NtRp52
(dp53
g13
F1.0313569495879573
sg14
I3
sg15
I01
sg16
I10
sg17
I43
sbs(I12
I6
tp54
g1
(g10
g3
NtRp55
(dp56
g13
F-4.2526879127402717
sg14
I12
sg15
I01
sg16
I6
sg17
I62
sbs(I3
I6
tp57
g1
(g10
g3
NtRp58
(dp59
g13
F-0.76023560431069548
sg14
I3
sg15
I00
sg16
I6
sg17
I3
sbs(I8
I6
tp60
g1
(g10
g3
NtRp61
(dp62
g13
F0.30722938585874715
sg14
I8
sg15
I01
sg16
I6
sg17
I14
sbs(I2
I6
tp63
g1
(g10
g3
NtRp64
(dp65
g13
F-27.17279656830101
sg14
I2
sg15
I00
sg16
I6
sg17
I2
sbs(I3
I12
tp66
g1
(g10
g3
NtRp67
(dp68
g13
F-0.58711408550991395
sg14
I3
sg15
I01
sg16
I12
sg17
I75
sbs(I9
I6
tp69
g1
(g10
g3
NtRp70
(dp71
g13
F11.509566506592481
sg14
I9
sg15
I01
sg16
I6
sg17
I26
sbs(I4
I11
tp72
g1
(g10
g3
NtRp73
(dp74
g13
F2.6983763665563671
sg14
I4
sg15
I01
sg16
I11
sg17
I50
sbs(I2
I7
tp75
g1
(g10
g3
NtRp76
(dp77
g13
F17.425839611887433
sg14
I2
sg15
I00
sg16
I7
sg17
I7
sbs(I5
I10
tp78
g1
(g10
g3
NtRp79
(dp80
g13
F-4.7470001752432847
sg14
I5
sg15
I01
sg16
I10
sg17
I44
sbs(I4
I6
tp81
g1
(g10
g3
NtRp82
(dp83
g13
F7.6998986182964799
sg14
I4
sg15
I00
sg16
I6
sg17
I4
sbs(I5
I7
tp84
g1
(g10
g3
NtRp85
(dp86
g13
F6.0062444520019147
sg14
I5
sg15
I01
sg16
I7
sg17
I10
sbs(I3
I8
tp87
g1
(g10
g3
NtRp88
(dp89
g13
F-8.2845891591419853
sg14
I3
sg15
I01
sg16
I8
sg17
I16
sbs(I1
I7
tp90
g1
(g10
g3
NtRp91
(dp92
g13
F3.7503320038534738
sg14
I1
sg15
I01
sg16
I7
sg17
I6
sbs(I11
I6
tp93
g1
(g10
g3
NtRp94
(dp95
g13
F10.500423990566068
sg14
I11
sg15
I01
sg16
I6
sg17
I51
sbssS'_input_nodes'
p96
I5
sS'_output_nodes'
p97
I2
sS'_node_gene_type'
p98
cneat.genome
NodeGene
p99
sS'_conn_gene_type'
p100
g10
sS'fitness'
p101
F7.9941317365534137e-20
sS'parent2_id'
p102
I4993
sS'_id'
p103
I5039
sS'parent1_id'
p104
I4993
sS'_node_genes'
p105
(lp106
g1
(g99
g3
NtRp107
(dp108
S'_bias'
p109
I0
sS'_type'
p110
S'INPUT'
p111
sg103
I1
sS'_response'
p112
F4.9242730000000003
sS'_activation_type'
p113
Nsbag1
(g99
g3
NtRp114
(dp115
g109
I0
sg110
g111
sg103
I2
sg112
F4.9242730000000003
sg113
Nsbag1
(g99
g3
NtRp116
(dp117
g109
I0
sg110
g111
sg103
I3
sg112
F4.9242730000000003
sg113
Nsbag1
(g99
g3
NtRp118
(dp119
g109
I0
sg110
g111
sg103
I4
sg112
F4.9242730000000003
sg113
Nsbag1
(g99
g3
NtRp120
(dp121
g109
I0
sg110
g111
sg103
I5
sg112
F4.9242730000000003
sg113
Nsbag1
(g99
g3
NtRp122
(dp123
g109
F2.0667435095642066
sg110
S'OUTPUT'
p124
sg103
I6
sg112
F7.791581345756299
sg113
S'exp'
p125
sbag1
(g99
g3
NtRp126
(dp127
g109
F-3.4177124659616718
sg110
g124
sg103
I7
sg112
F4.8436553641314468
sg113
g125
sbag1
(g99
g3
NtRp128
(dp129
g109
F-3.1058786457727146
sg110
S'HIDDEN'
p130
sg103
I8
sg112
F6.5782248498454443
sg113
g125
sbag1
(g99
g3
NtRp131
(dp132
g109
F-0.27431325097692072
sg110
g130
sg103
I9
sg112
F6.5096774396481276
sg113
g125
sbag1
(g99
g3
NtRp133
(dp134
g109
F-0.10684475553906353
sg110
g130
sg103
I10
sg112
F4.7157492623058257
sg113
g125
sbag1
(g99
g3
NtRp135
(dp136
g109
F0.44609733033032267
sg110
g130
sg103
I11
sg112
F4.1859630049662959
sg113
g125
sbag1
(g99
g3
NtRp137
(dp138
g109
F-0.45062387594732295
sg110
g130
sg103
I12
sg112
F4.0232867895745441
sg113
g125
sbasb.