ccopy_reg
_reconstructor
p1
(cneat.chromosome
Chromosome
p2
c__builtin__
object
p3
NtRp4
(dp5
S'species_id'
p6
I18
sS'_connection_genes'
p7
(dp8
(I2
I7
tp9
g1
(cneat.genome
ConnectionGene
p10
g3
NtRp11
(dp12
S'_ConnectionGene__weight'
p13
F-7.1215783720767689
sS'_ConnectionGene__in'
p14
I2
sS'_ConnectionGene__enabled'
p15
I01
sS'_ConnectionGene__out'
p16
I7
sS'_ConnectionGene__innov_number'
p17
I7
sbs(I8
I6
tp18
g1
(g10
g3
NtRp19
(dp20
g13
F0.64081703187257499
sg14
I8
sg15
I01
sg16
I6
sg17
I14
sbs(I4
I7
tp21
g1
(g10
g3
NtRp22
(dp23
g13
F-16.605521533526716
sg14
I4
sg15
I01
sg16
I7
sg17
I9
sbs(I2
I6
tp24
g1
(g10
g3
NtRp25
(dp26
g13
F0.13930431422902129
sg14
I2
sg15
I01
sg16
I6
sg17
I2
sbs(I4
I6
tp27
g1
(g10
g3
NtRp28
(dp29
g13
F4.097140321979845
sg14
I4
sg15
I01
sg16
I6
sg17
I4
sbs(I2
I9
tp30
g1
(g10
g3
NtRp31
(dp32
g13
F0.37934257568869034
sg14
I2
sg15
I01
sg16
I9
sg17
I20
sbs(I5
I6
tp33
g1
(g10
g3
NtRp34
(dp35
g13
F-19.057442703163311
sg14
I5
sg15
I01
sg16
I6
sg17
I5
sbs(I2
I8
tp36
g1
(g10
g3
NtRp37
(dp38
g13
F-1.8196689721551955
sg14
I2
sg15
I01
sg16
I8
sg17
I13
sbs(I5
I7
tp39
g1
(g10
g3
NtRp40
(dp41
g13
F-8.5865720823765948
sg14
I5
sg15
I01
sg16
I7
sg17
I10
sbs(I7
I7
tp42
g1
(g10
g3
NtRp43
(dp44
g13
F-0.8660010732269231
sg14
I7
sg15
I01
sg16
I7
sg17
I17
sbs(I3
I6
tp45
g1
(g10
g3
NtRp46
(dp47
g13
F-9.5612271362530379
sg14
I3
sg15
I01
sg16
I6
sg17
I3
sbs(I3
I9
tp48
g1
(g10
g3
NtRp49
(dp50
g13
F1.0919231848520035
sg14
I3
sg15
I01
sg16
I9
sg17
I28
sbs(I1
I6
tp51
g1
(g10
g3
NtRp52
(dp53
g13
F-7.6048398966931101
sg14
I1
sg15
I01
sg16
I6
sg17
I1
sbs(I8
I7
tp54
g1
(g10
g3
NtRp55
(dp56
g13
F28.056373385502166
sg14
I8
sg15
I01
sg16
I7
sg17
I12
sbs(I1
I7
tp57
g1
(g10
g3
NtRp58
(dp59
g13
F4.5826146431888137
sg14
I1
sg15
I01
sg16
I7
sg17
I6
sbs(I3
I7
tp60
g1
(g10
g3
NtRp61
(dp62
g13
F3.5631861858961837
sg14
I3
sg15
I01
sg16
I7
sg17
I8
sbs(I9
I6
tp63
g1
(g10
g3
NtRp64
(dp65
g13
F-4.8545977541815404
sg14
I9
sg15
I01
sg16
I6
sg17
I26
sbssS'_input_nodes'
p66
I5
sS'_output_nodes'
p67
I2
sS'_node_gene_type'
p68
cneat.genome
NodeGene
p69
sS'_conn_gene_type'
p70
g10
sS'fitness'
p71
F8.2147211303960638e-20
sS'parent2_id'
p72
I2987
sS'_id'
p73
I3031
sS'parent1_id'
p74
I2987
sS'_node_genes'
p75
(lp76
g1
(g69
g3
NtRp77
(dp78
S'_bias'
p79
I0
sS'_type'
p80
S'INPUT'
p81
sg73
I1
sS'_response'
p82
F4.9242730000000003
sS'_activation_type'
p83
Nsbag1
(g69
g3
NtRp84
(dp85
g79
I0
sg80
g81
sg73
I2
sg82
F4.9242730000000003
sg83
Nsbag1
(g69
g3
NtRp86
(dp87
g79
I0
sg80
g81
sg73
I3
sg82
F4.9242730000000003
sg83
Nsbag1
(g69
g3
NtRp88
(dp89
g79
I0
sg80
g81
sg73
I4
sg82
F4.9242730000000003
sg83
Nsbag1
(g69
g3
NtRp90
(dp91
g79
I0
sg80
g81
sg73
I5
sg82
F4.9242730000000003
sg83
Nsbag1
(g69
g3
NtRp92
(dp93
g79
F0.16060004002858852
sg80
S'OUTPUT'
p94
sg73
I6
sg82
F2.8706281410418248
sg83
S'exp'
p95
sbag1
(g69
g3
NtRp96
(dp97
g79
F0.085848158983778705
sg80
g94
sg73
I7
sg82
F3.3880555980397524
sg83
g95
sbag1
(g69
g3
NtRp98
(dp99
g79
F-0.14575972583021318
sg80
S'HIDDEN'
p100
sg73
I8
sg82
F4.2590669266154935
sg83
g95
sbag1
(g69
g3
NtRp101
(dp102
g79
F-0.13417104529054158
sg80
g100
sg73
I9
sg82
F4.1248161487912256
sg83
g95
sbasb.