ccopy_reg
_reconstructor
p1
(cneat.chromosome
Chromosome
p2
c__builtin__
object
p3
NtRp4
(dp5
S'species_id'
p6
I34
sS'_connection_genes'
p7
(dp8
(I2
I7
tp9
g1
(cneat.genome
ConnectionGene
p10
g3
NtRp11
(dp12
S'_ConnectionGene__weight'
p13
F6.8784029206868915
sS'_ConnectionGene__in'
p14
I2
sS'_ConnectionGene__enabled'
p15
I00
sS'_ConnectionGene__out'
p16
I7
sS'_ConnectionGene__innov_number'
p17
I7
sbs(I5
I9
tp18
g1
(g10
g3
NtRp19
(dp20
g13
F0.97898535778893159
sg14
I5
sg15
I01
sg16
I9
sg17
I31
sbs(I4
I7
tp21
g1
(g10
g3
NtRp22
(dp23
g13
F-24.584516673773962
sg14
I4
sg15
I01
sg16
I7
sg17
I9
sbs(I2
I6
tp24
g1
(g10
g3
NtRp25
(dp26
g13
F-12.428442973333739
sg14
I2
sg15
I00
sg16
I6
sg17
I2
sbs(I6
I7
tp27
g1
(g10
g3
NtRp28
(dp29
g13
F8.8055185667751612
sg14
I6
sg15
I01
sg16
I7
sg17
I19
sbs(I4
I6
tp30
g1
(g10
g3
NtRp31
(dp32
g13
F11.763428754800382
sg14
I4
sg15
I01
sg16
I6
sg17
I4
sbs(I6
I6
tp33
g1
(g10
g3
NtRp34
(dp35
g13
F12.97619469905688
sg14
I6
sg15
I00
sg16
I6
sg17
I15
sbs(I5
I6
tp36
g1
(g10
g3
NtRp37
(dp38
g13
F-2.5377105410852532
sg14
I5
sg15
I01
sg16
I6
sg17
I5
sbs(I2
I8
tp39
g1
(g10
g3
NtRp40
(dp41
g13
F5.8400073116412754
sg14
I2
sg15
I01
sg16
I8
sg17
I13
sbs(I5
I7
tp42
g1
(g10
g3
NtRp43
(dp44
g13
F3.1494394903645504
sg14
I5
sg15
I01
sg16
I7
sg17
I10
sbs(I6
I9
tp45
g1
(g10
g3
NtRp46
(dp47
g13
F-0.24320174211277612
sg14
I6
sg15
I01
sg16
I9
sg17
I36
sbs(I3
I7
tp48
g1
(g10
g3
NtRp49
(dp50
g13
F0.84260370877258373
sg14
I3
sg15
I01
sg16
I7
sg17
I8
sbs(I3
I8
tp51
g1
(g10
g3
NtRp52
(dp53
g13
F-7.663999563135782
sg14
I3
sg15
I01
sg16
I8
sg17
I16
sbs(I1
I6
tp54
g1
(g10
g3
NtRp55
(dp56
g13
F-21.793613143084631
sg14
I1
sg15
I01
sg16
I6
sg17
I1
sbs(I3
I6
tp57
g1
(g10
g3
NtRp58
(dp59
g13
F4.9143359700850997
sg14
I3
sg15
I01
sg16
I6
sg17
I3
sbs(I1
I7
tp60
g1
(g10
g3
NtRp61
(dp62
g13
F1.0373053333505899
sg14
I1
sg15
I01
sg16
I7
sg17
I6
sbs(I8
I6
tp63
g1
(g10
g3
NtRp64
(dp65
g13
F-2.4077364922098208
sg14
I8
sg15
I01
sg16
I6
sg17
I14
sbs(I8
I9
tp66
g1
(g10
g3
NtRp67
(dp68
g13
F4.2637845423154257
sg14
I8
sg15
I01
sg16
I9
sg17
I32
sbs(I9
I6
tp69
g1
(g10
g3
NtRp70
(dp71
g13
F18.699749687377604
sg14
I9
sg15
I01
sg16
I6
sg17
I26
sbs(I5
I8
tp72
g1
(g10
g3
NtRp73
(dp74
g13
F2.3466236553957147
sg14
I5
sg15
I01
sg16
I8
sg17
I27
sbssS'_input_nodes'
p75
I5
sS'_output_nodes'
p76
I2
sS'_node_gene_type'
p77
cneat.genome
NodeGene
p78
sS'_conn_gene_type'
p79
g10
sS'fitness'
p80
F8.2754951308061781e-20
sS'parent2_id'
p81
I4264
sS'_id'
p82
I4283
sS'parent1_id'
p83
I4264
sS'_node_genes'
p84
(lp85
g1
(g78
g3
NtRp86
(dp87
S'_bias'
p88
I0
sS'_type'
p89
S'INPUT'
p90
sg82
I1
sS'_response'
p91
F4.9242730000000003
sS'_activation_type'
p92
Nsbag1
(g78
g3
NtRp93
(dp94
g88
I0
sg89
g90
sg82
I2
sg91
F4.9242730000000003
sg92
Nsbag1
(g78
g3
NtRp95
(dp96
g88
I0
sg89
g90
sg82
I3
sg91
F4.9242730000000003
sg92
Nsbag1
(g78
g3
NtRp97
(dp98
g88
I0
sg89
g90
sg82
I4
sg91
F4.9242730000000003
sg92
Nsbag1
(g78
g3
NtRp99
(dp100
g88
I0
sg89
g90
sg82
I5
sg91
F4.9242730000000003
sg92
Nsbag1
(g78
g3
NtRp101
(dp102
g88
F1.7704849165209215
sg89
S'OUTPUT'
p103
sg82
I6
sg91
F6.7205168550781975
sg92
S'exp'
p104
sbag1
(g78
g3
NtRp105
(dp106
g88
F-1.1401259701019764
sg89
g103
sg82
I7
sg91
F4.9975655794659515
sg92
g104
sbag1
(g78
g3
NtRp107
(dp108
g88
F-2.583773265155437
sg89
S'HIDDEN'
p109
sg82
I8
sg91
F7.2058066692874201
sg92
g104
sbag1
(g78
g3
NtRp110
(dp111
g88
F-0.4137403008800522
sg89
g109
sg82
I9
sg91
F6.2040932967146274
sg92
g104
sbasb.