ccopy_reg
_reconstructor
p1
(cneat.chromosome
Chromosome
p2
c__builtin__
object
p3
NtRp4
(dp5
S'species_id'
p6
I21
sS'_connection_genes'
p7
(dp8
(I2
I7
tp9
g1
(cneat.genome
ConnectionGene
p10
g3
NtRp11
(dp12
S'_ConnectionGene__weight'
p13
F-8.840802600546942
sS'_ConnectionGene__in'
p14
I2
sS'_ConnectionGene__enabled'
p15
I01
sS'_ConnectionGene__out'
p16
I7
sS'_ConnectionGene__innov_number'
p17
I7
sbs(I8
I6
tp18
g1
(g10
g3
NtRp19
(dp20
g13
F1.002314315654586
sg14
I8
sg15
I01
sg16
I6
sg17
I14
sbs(I4
I7
tp21
g1
(g10
g3
NtRp22
(dp23
g13
F1.2138280757657416
sg14
I4
sg15
I01
sg16
I7
sg17
I9
sbs(I2
I6
tp24
g1
(g10
g3
NtRp25
(dp26
g13
F-17.028198798481551
sg14
I2
sg15
I00
sg16
I6
sg17
I2
sbs(I4
I6
tp27
g1
(g10
g3
NtRp28
(dp29
g13
F2.8692297845589971
sg14
I4
sg15
I00
sg16
I6
sg17
I4
sbs(I5
I6
tp30
g1
(g10
g3
NtRp31
(dp32
g13
F-11.857524382625265
sg14
I5
sg15
I01
sg16
I6
sg17
I5
sbs(I2
I8
tp33
g1
(g10
g3
NtRp34
(dp35
g13
F1.55376319529829
sg14
I2
sg15
I01
sg16
I8
sg17
I13
sbs(I5
I7
tp36
g1
(g10
g3
NtRp37
(dp38
g13
F11.276144353323735
sg14
I5
sg15
I01
sg16
I7
sg17
I10
sbs(I10
I6
tp39
g1
(g10
g3
NtRp40
(dp41
g13
F-10.133229696460059
sg14
I10
sg15
I01
sg16
I6
sg17
I34
sbs(I9
I9
tp42
g1
(g10
g3
NtRp43
(dp44
g13
F5.8042961948036584
sg14
I9
sg15
I01
sg16
I9
sg17
I40
sbs(I2
I10
tp45
g1
(g10
g3
NtRp46
(dp47
g13
F0.53374620043600607
sg14
I2
sg15
I01
sg16
I10
sg17
I37
sbs(I3
I9
tp48
g1
(g10
g3
NtRp49
(dp50
g13
F-4.8003445595862342
sg14
I3
sg15
I01
sg16
I9
sg17
I28
sbs(I1
I6
tp51
g1
(g10
g3
NtRp52
(dp53
g13
F-13.756235563370613
sg14
I1
sg15
I01
sg16
I6
sg17
I1
sbs(I4
I11
tp54
g1
(g10
g3
NtRp55
(dp56
g13
F3.6915841078209377
sg14
I4
sg15
I01
sg16
I11
sg17
I50
sbs(I3
I6
tp57
g1
(g10
g3
NtRp58
(dp59
g13
F-3.8223288477496857
sg14
I3
sg15
I01
sg16
I6
sg17
I3
sbs(I1
I7
tp60
g1
(g10
g3
NtRp61
(dp62
g13
F-7.1250302100176395
sg14
I1
sg15
I01
sg16
I7
sg17
I6
sbs(I3
I7
tp63
g1
(g10
g3
NtRp64
(dp65
g13
F4.6528924540031893
sg14
I3
sg15
I01
sg16
I7
sg17
I8
sbs(I9
I6
tp66
g1
(g10
g3
NtRp67
(dp68
g13
F-13.468019226177061
sg14
I9
sg15
I01
sg16
I6
sg17
I26
sbs(I11
I6
tp69
g1
(g10
g3
NtRp70
(dp71
g13
F2.5868506494573449
sg14
I11
sg15
I01
sg16
I6
sg17
I51
sbssS'_input_nodes'
p72
I5
sS'_output_nodes'
p73
I2
sS'_node_gene_type'
p74
cneat.genome
NodeGene
p75
sS'_conn_gene_type'
p76
g10
sS'fitness'
p77
F7.6833053752126504e-20
sS'parent2_id'
p78
I2663
sS'_id'
p79
I2694
sS'parent1_id'
p80
I2663
sS'_node_genes'
p81
(lp82
g1
(g75
g3
NtRp83
(dp84
S'_bias'
p85
I0
sS'_type'
p86
S'INPUT'
p87
sg79
I1
sS'_response'
p88
F4.9242730000000003
sS'_activation_type'
p89
Nsbag1
(g75
g3
NtRp90
(dp91
g85
I0
sg86
g87
sg79
I2
sg88
F4.9242730000000003
sg89
Nsbag1
(g75
g3
NtRp92
(dp93
g85
I0
sg86
g87
sg79
I3
sg88
F4.9242730000000003
sg89
Nsbag1
(g75
g3
NtRp94
(dp95
g85
I0
sg86
g87
sg79
I4
sg88
F4.9242730000000003
sg89
Nsbag1
(g75
g3
NtRp96
(dp97
g85
I0
sg86
g87
sg79
I5
sg88
F4.9242730000000003
sg89
Nsbag1
(g75
g3
NtRp98
(dp99
g85
F2.3321159516541936
sg86
S'OUTPUT'
p100
sg79
I6
sg88
F1.2894600330115289
sg89
S'exp'
p101
sbag1
(g75
g3
NtRp102
(dp103
g85
F-3.2428346785016489
sg86
g100
sg79
I7
sg88
F5.1287928458598033
sg89
g101
sbag1
(g75
g3
NtRp104
(dp105
g85
F0.80616129667528347
sg86
S'HIDDEN'
p106
sg79
I8
sg88
F6.4237989616231079
sg89
g101
sbag1
(g75
g3
NtRp107
(dp108
g85
F0.087751782880525722
sg86
g106
sg79
I9
sg88
F3.8747917577873441
sg89
g101
sbag1
(g75
g3
NtRp109
(dp110
g85
F1.6053547906858163
sg86
g106
sg79
I10
sg88
F4.652041758910908
sg89
g101
sbag1
(g75
g3
NtRp111
(dp112
g85
F-0.30820685760981159
sg86
g106
sg79
I11
sg88
F5.4481670728842762
sg89
g101
sbasb.