ccopy_reg
_reconstructor
p1
(cneat.chromosome
Chromosome
p2
c__builtin__
object
p3
NtRp4
(dp5
S'species_id'
p6
I16
sS'_connection_genes'
p7
(dp8
(I2
I7
tp9
g1
(cneat.genome
ConnectionGene
p10
g3
NtRp11
(dp12
S'_ConnectionGene__weight'
p13
F18.857134170057655
sS'_ConnectionGene__in'
p14
I2
sS'_ConnectionGene__enabled'
p15
I01
sS'_ConnectionGene__out'
p16
I7
sS'_ConnectionGene__innov_number'
p17
I7
sbs(I4
I7
tp18
g1
(g10
g3
NtRp19
(dp20
g13
F0.39254284291942798
sg14
I4
sg15
I01
sg16
I7
sg17
I9
sbs(I2
I6
tp21
g1
(g10
g3
NtRp22
(dp23
g13
F5.6279105008827921
sg14
I2
sg15
I01
sg16
I6
sg17
I2
sbs(I3
I7
tp24
g1
(g10
g3
NtRp25
(dp26
g13
F-22.874375625966128
sg14
I3
sg15
I01
sg16
I7
sg17
I8
sbs(I4
I6
tp27
g1
(g10
g3
NtRp28
(dp29
g13
F2.045852936920995
sg14
I4
sg15
I01
sg16
I6
sg17
I4
sbs(I6
I6
tp30
g1
(g10
g3
NtRp31
(dp32
g13
F4.8868939717636595
sg14
I6
sg15
I00
sg16
I6
sg17
I15
sbs(I5
I6
tp33
g1
(g10
g3
NtRp34
(dp35
g13
F-6.4771892477681394
sg14
I5
sg15
I00
sg16
I6
sg17
I5
sbs(I6
I10
tp36
g1
(g10
g3
NtRp37
(dp38
g13
F-2.616518508379027
sg14
I6
sg15
I01
sg16
I10
sg17
I47
sbs(I6
I9
tp39
g1
(g10
g3
NtRp40
(dp41
g13
F1.07046659995844
sg14
I6
sg15
I00
sg16
I9
sg17
I36
sbs(I1
I6
tp42
g1
(g10
g3
NtRp43
(dp44
g13
F-10.555137585585083
sg14
I1
sg15
I01
sg16
I6
sg17
I1
sbs(I10
I9
tp45
g1
(g10
g3
NtRp46
(dp47
g13
F-7.0867614376354187
sg14
I10
sg15
I01
sg16
I9
sg17
I42
sbs(I3
I6
tp48
g1
(g10
g3
NtRp49
(dp50
g13
F7.3535238016843296
sg14
I3
sg15
I01
sg16
I6
sg17
I3
sbs(I1
I7
tp51
g1
(g10
g3
NtRp52
(dp53
g13
F-3.2649390983955433
sg14
I1
sg15
I01
sg16
I7
sg17
I6
sbs(I8
I6
tp54
g1
(g10
g3
NtRp55
(dp56
g13
F-2.9792935337033217
sg14
I8
sg15
I01
sg16
I6
sg17
I14
sbs(I9
I6
tp57
g1
(g10
g3
NtRp58
(dp59
g13
F-0.95515891292843014
sg14
I9
sg15
I01
sg16
I6
sg17
I26
sbs(I5
I8
tp60
g1
(g10
g3
NtRp61
(dp62
g13
F1.6241790060590837
sg14
I5
sg15
I01
sg16
I8
sg17
I27
sbs(I5
I7
tp63
g1
(g10
g3
NtRp64
(dp65
g13
F-1.6395657886129906
sg14
I5
sg15
I01
sg16
I7
sg17
I10
sbssS'_input_nodes'
p66
I5
sS'_output_nodes'
p67
I2
sS'_node_gene_type'
p68
cneat.genome
NodeGene
p69
sS'_conn_gene_type'
p70
g10
sS'fitness'
p71
F7.5253833643500696e-20
sS'parent2_id'
p72
I2674
sS'_id'
p73
I2765
sS'parent1_id'
p74
I2674
sS'_node_genes'
p75
(lp76
g1
(g69
g3
NtRp77
(dp78
S'_bias'
p79
I0
sS'_type'
p80
S'INPUT'
p81
sg73
I1
sS'_response'
p82
F4.9242730000000003
sS'_activation_type'
p83
Nsbag1
(g69
g3
NtRp84
(dp85
g79
I0
sg80
g81
sg73
I2
sg82
F4.9242730000000003
sg83
Nsbag1
(g69
g3
NtRp86
(dp87
g79
I0
sg80
g81
sg73
I3
sg82
F4.9242730000000003
sg83
Nsbag1
(g69
g3
NtRp88
(dp89
g79
I0
sg80
g81
sg73
I4
sg82
F4.9242730000000003
sg83
Nsbag1
(g69
g3
NtRp90
(dp91
g79
I0
sg80
g81
sg73
I5
sg82
F4.9242730000000003
sg83
Nsbag1
(g69
g3
NtRp92
(dp93
g79
F-3.3380476843892231
sg80
S'OUTPUT'
p94
sg73
I6
sg82
F5.5212635123636753
sg83
S'exp'
p95
sbag1
(g69
g3
NtRp96
(dp97
g79
F-1.0796574637138809
sg80
g94
sg73
I7
sg82
F5.4130760853271465
sg83
g95
sbag1
(g69
g3
NtRp98
(dp99
g79
F-0.50262052433787252
sg80
S'HIDDEN'
p100
sg73
I8
sg82
F5.6894862953285141
sg83
g95
sbag1
(g69
g3
NtRp101
(dp102
g79
I0
sg80
g100
sg73
I9
sg82
F6.2260366336852941
sg83
g95
sbag1
(g69
g3
NtRp103
(dp104
g79
F-0.55012578704518567
sg80
g100
sg73
I10
sg82
F5.0362700531327222
sg83
g95
sbasb.