ccopy_reg
_reconstructor
p1
(cneat.chromosome
Chromosome
p2
c__builtin__
object
p3
NtRp4
(dp5
S'species_id'
p6
I21
sS'_connection_genes'
p7
(dp8
(I2
I7
tp9
g1
(cneat.genome
ConnectionGene
p10
g3
NtRp11
(dp12
S'_ConnectionGene__weight'
p13
F-15.232743459125331
sS'_ConnectionGene__in'
p14
I2
sS'_ConnectionGene__enabled'
p15
I01
sS'_ConnectionGene__out'
p16
I7
sS'_ConnectionGene__innov_number'
p17
I7
sbs(I4
I7
tp18
g1
(g10
g3
NtRp19
(dp20
g13
F2.8958844401200414
sg14
I4
sg15
I01
sg16
I7
sg17
I9
sbs(I2
I6
tp21
g1
(g10
g3
NtRp22
(dp23
g13
F-7.4058454181381776
sg14
I2
sg15
I00
sg16
I6
sg17
I2
sbs(I3
I7
tp24
g1
(g10
g3
NtRp25
(dp26
g13
F-0.024908565963495721
sg14
I3
sg15
I01
sg16
I7
sg17
I8
sbs(I4
I6
tp27
g1
(g10
g3
NtRp28
(dp29
g13
F3.6244416950489389
sg14
I4
sg15
I01
sg16
I6
sg17
I4
sbs(I5
I6
tp30
g1
(g10
g3
NtRp31
(dp32
g13
F-8.26350463726261
sg14
I5
sg15
I01
sg16
I6
sg17
I5
sbs(I2
I8
tp33
g1
(g10
g3
NtRp34
(dp35
g13
F0.049083284604260591
sg14
I2
sg15
I01
sg16
I8
sg17
I13
sbs(I5
I7
tp36
g1
(g10
g3
NtRp37
(dp38
g13
F8.9209505676847609
sg14
I5
sg15
I01
sg16
I7
sg17
I10
sbs(I10
I6
tp39
g1
(g10
g3
NtRp40
(dp41
g13
F-19.217506584595554
sg14
I10
sg15
I01
sg16
I6
sg17
I34
sbs(I9
I9
tp42
g1
(g10
g3
NtRp43
(dp44
g13
F-3.2405269997097843
sg14
I9
sg15
I01
sg16
I9
sg17
I40
sbs(I2
I10
tp45
g1
(g10
g3
NtRp46
(dp47
g13
F12.889238085568762
sg14
I2
sg15
I01
sg16
I10
sg17
I37
sbs(I3
I9
tp48
g1
(g10
g3
NtRp49
(dp50
g13
F-4.4888599209809277
sg14
I3
sg15
I01
sg16
I9
sg17
I28
sbs(I1
I6
tp51
g1
(g10
g3
NtRp52
(dp53
g13
F-16.471142473388245
sg14
I1
sg15
I01
sg16
I6
sg17
I1
sbs(I11
I6
tp54
g1
(g10
g3
NtRp55
(dp56
g13
F-8.363531940241888
sg14
I11
sg15
I01
sg16
I6
sg17
I51
sbs(I3
I6
tp57
g1
(g10
g3
NtRp58
(dp59
g13
F-0.11670008730441417
sg14
I3
sg15
I01
sg16
I6
sg17
I3
sbs(I1
I7
tp60
g1
(g10
g3
NtRp61
(dp62
g13
F-8.6633092495991484
sg14
I1
sg15
I01
sg16
I7
sg17
I6
sbs(I8
I6
tp63
g1
(g10
g3
NtRp64
(dp65
g13
F5.4391820108043119
sg14
I8
sg15
I01
sg16
I6
sg17
I14
sbs(I9
I6
tp66
g1
(g10
g3
NtRp67
(dp68
g13
F-6.9235746205510198
sg14
I9
sg15
I01
sg16
I6
sg17
I26
sbs(I8
I8
tp69
g1
(g10
g3
NtRp70
(dp71
g13
F6.2025262572227682
sg14
I8
sg15
I01
sg16
I8
sg17
I23
sbs(I4
I11
tp72
g1
(g10
g3
NtRp73
(dp74
g13
F6.0629472298837905
sg14
I4
sg15
I01
sg16
I11
sg17
I50
sbssS'_input_nodes'
p75
I5
sS'_output_nodes'
p76
I2
sS'_node_gene_type'
p77
cneat.genome
NodeGene
p78
sS'_conn_gene_type'
p79
g10
sS'fitness'
p80
F8.0245533733928105e-20
sS'parent2_id'
p81
I3490
sS'_id'
p82
I3543
sS'parent1_id'
p83
I3490
sS'_node_genes'
p84
(lp85
g1
(g78
g3
NtRp86
(dp87
S'_bias'
p88
I0
sS'_type'
p89
S'INPUT'
p90
sg82
I1
sS'_response'
p91
F4.9242730000000003
sS'_activation_type'
p92
Nsbag1
(g78
g3
NtRp93
(dp94
g88
I0
sg89
g90
sg82
I2
sg91
F4.9242730000000003
sg92
Nsbag1
(g78
g3
NtRp95
(dp96
g88
I0
sg89
g90
sg82
I3
sg91
F4.9242730000000003
sg92
Nsbag1
(g78
g3
NtRp97
(dp98
g88
I0
sg89
g90
sg82
I4
sg91
F4.9242730000000003
sg92
Nsbag1
(g78
g3
NtRp99
(dp100
g88
I0
sg89
g90
sg82
I5
sg91
F4.9242730000000003
sg92
Nsbag1
(g78
g3
NtRp101
(dp102
g88
F1.6148788651336352
sg89
S'OUTPUT'
p103
sg82
I6
sg91
F2.530912974791923
sg92
S'exp'
p104
sbag1
(g78
g3
NtRp105
(dp106
g88
F-4.3768438270306689
sg89
g103
sg82
I7
sg91
F4.9206507714251702
sg92
g104
sbag1
(g78
g3
NtRp107
(dp108
g88
F1.3344544785701109
sg89
S'HIDDEN'
p109
sg82
I8
sg91
F5.9644215542595811
sg92
g104
sbag1
(g78
g3
NtRp110
(dp111
g88
F0.0060309494203667213
sg89
g109
sg82
I9
sg91
F3.624880950479187
sg92
g104
sbag1
(g78
g3
NtRp112
(dp113
g88
F2.095297953364768
sg89
g109
sg82
I10
sg91
F4.01151461296178
sg92
g104
sbag1
(g78
g3
NtRp114
(dp115
g88
F-0.67228551594196473
sg89
g109
sg82
I11
sg91
F5.6685043295606778
sg92
g104
sbasb.