ccopy_reg
_reconstructor
p1
(cneat.chromosome
Chromosome
p2
c__builtin__
object
p3
NtRp4
(dp5
S'species_id'
p6
I4
sS'_connection_genes'
p7
(dp8
(I2
I7
tp9
g1
(cneat.genome
ConnectionGene
p10
g3
NtRp11
(dp12
S'_ConnectionGene__weight'
p13
F2.0035623491143379
sS'_ConnectionGene__in'
p14
I2
sS'_ConnectionGene__enabled'
p15
I01
sS'_ConnectionGene__out'
p16
I7
sS'_ConnectionGene__innov_number'
p17
I7
sbs(I4
I7
tp18
g1
(g10
g3
NtRp19
(dp20
g13
F-0.83915064721208177
sg14
I4
sg15
I01
sg16
I7
sg17
I9
sbs(I2
I6
tp21
g1
(g10
g3
NtRp22
(dp23
g13
F-5.004968606496913
sg14
I2
sg15
I00
sg16
I6
sg17
I2
sbs(I3
I7
tp24
g1
(g10
g3
NtRp25
(dp26
g13
F8.7901613294086687
sg14
I3
sg15
I01
sg16
I7
sg17
I8
sbs(I4
I6
tp27
g1
(g10
g3
NtRp28
(dp29
g13
F-4.0579545777035557
sg14
I4
sg15
I01
sg16
I6
sg17
I4
sbs(I2
I9
tp30
g1
(g10
g3
NtRp31
(dp32
g13
F-1.1573575199399482
sg14
I2
sg15
I01
sg16
I9
sg17
I20
sbs(I5
I6
tp33
g1
(g10
g3
NtRp34
(dp35
g13
F2.4966144929969456
sg14
I5
sg15
I01
sg16
I6
sg17
I5
sbs(I2
I8
tp36
g1
(g10
g3
NtRp37
(dp38
g13
F-0.94702403448258643
sg14
I2
sg15
I01
sg16
I8
sg17
I13
sbs(I5
I7
tp39
g1
(g10
g3
NtRp40
(dp41
g13
F-2.1226832466133572
sg14
I5
sg15
I01
sg16
I7
sg17
I10
sbs(I1
I6
tp42
g1
(g10
g3
NtRp43
(dp44
g13
F-5.3389789231567555
sg14
I1
sg15
I01
sg16
I6
sg17
I1
sbs(I3
I6
tp45
g1
(g10
g3
NtRp46
(dp47
g13
F-1.9038277692043124
sg14
I3
sg15
I01
sg16
I6
sg17
I3
sbs(I1
I7
tp48
g1
(g10
g3
NtRp49
(dp50
g13
F-0.89848725801111917
sg14
I1
sg15
I01
sg16
I7
sg17
I6
sbs(I8
I6
tp51
g1
(g10
g3
NtRp52
(dp53
g13
F2.1846779988740073
sg14
I8
sg15
I01
sg16
I6
sg17
I14
sbs(I9
I6
tp54
g1
(g10
g3
NtRp55
(dp56
g13
F-5.4346819997967932
sg14
I9
sg15
I01
sg16
I6
sg17
I26
sbssS'_input_nodes'
p57
I5
sS'_output_nodes'
p58
I2
sS'_node_gene_type'
p59
cneat.genome
NodeGene
p60
sS'_conn_gene_type'
p61
g10
sS'fitness'
p62
F0.041252960911978449
sS'parent2_id'
p63
I641
sS'_id'
p64
I682
sS'parent1_id'
p65
I641
sS'_node_genes'
p66
(lp67
g1
(g60
g3
NtRp68
(dp69
S'_bias'
p70
I0
sS'_type'
p71
S'INPUT'
p72
sg64
I1
sS'_response'
p73
F4.9242730000000003
sS'_activation_type'
p74
Nsbag1
(g60
g3
NtRp75
(dp76
g70
I0
sg71
g72
sg64
I2
sg73
F4.9242730000000003
sg74
Nsbag1
(g60
g3
NtRp77
(dp78
g70
I0
sg71
g72
sg64
I3
sg73
F4.9242730000000003
sg74
Nsbag1
(g60
g3
NtRp79
(dp80
g70
I0
sg71
g72
sg64
I4
sg73
F4.9242730000000003
sg74
Nsbag1
(g60
g3
NtRp81
(dp82
g70
I0
sg71
g72
sg64
I5
sg73
F4.9242730000000003
sg74
Nsbag1
(g60
g3
NtRp83
(dp84
g70
F0.45663375716748594
sg71
S'OUTPUT'
p85
sg64
I6
sg73
F4.004701144647127
sg74
S'exp'
p86
sbag1
(g60
g3
NtRp87
(dp88
g70
F-0.4041288791106819
sg71
g85
sg64
I7
sg73
F4.5958518163002857
sg74
g86
sbag1
(g60
g3
NtRp89
(dp90
g70
F0.050661050487991389
sg71
S'HIDDEN'
p91
sg64
I8
sg73
F5.4315867068070718
sg74
g86
sbag1
(g60
g3
NtRp92
(dp93
g70
F-0.48606687947623867
sg71
g91
sg64
I9
sg73
F4.9242730000000003
sg74
g86
sbasb.